; Listing generated by Microsoft (R) Optimizing Compiler Version 19.32.31329.0 

	TITLE	C:\Users\lsy01\OneDrive\바탕 화면\3-2_Study\인공지능\Source\VS2010\Buckland_Chapter7 to 10_Raven\Debug\Cgdi.obj
	.686P
	.XMM
	include listing.inc
	.model	flat

INCLUDELIB LIBCMTD
INCLUDELIB OLDNAMES

CONST	SEGMENT
?colors@@3QBKB DD 0ffH					; colors
	DD	0ff0000H
	DD	0ff00H
	DD	00H
	DD	0c8c8ffH
	DD	0c8c8c8H
	DD	0ffffH
	DD	0aaffH
	DD	0aa00ffH
	DD	05a85H
	DD	0ffffffH
	DD	06400H
	DD	0ffff00H
	DD	0c8c8c8H
	DD	0e6e6ffH
$SG161858 DB	'invalid argument', 00H
	ORG $+3
$SG161859 DB	'%s', 00H
	ORG $+1
$SG161862 DB	00H, 00H
	ORG $+2
$SG161860 DB	'C:\Program Files\Microsoft Visual Studio\2022\Community\'
	DB	'VC\Tools\MSVC\14.32.31326\include\xmemory', 00H
	ORG $+6
$SG161861 DB	'C', 00H, ':', 00H, '\', 00H, 'P', 00H, 'r', 00H, 'o', 00H
	DB	'g', 00H, 'r', 00H, 'a', 00H, 'm', 00H, ' ', 00H, 'F', 00H, 'i'
	DB	00H, 'l', 00H, 'e', 00H, 's', 00H, '\', 00H, 'M', 00H, 'i', 00H
	DB	'c', 00H, 'r', 00H, 'o', 00H, 's', 00H, 'o', 00H, 'f', 00H, 't'
	DB	00H, ' ', 00H, 'V', 00H, 'i', 00H, 's', 00H, 'u', 00H, 'a', 00H
	DB	'l', 00H, ' ', 00H, 'S', 00H, 't', 00H, 'u', 00H, 'd', 00H, 'i'
	DB	00H, 'o', 00H, '\', 00H, '2', 00H, '0', 00H, '2', 00H, '2', 00H
	DB	'\', 00H, 'C', 00H, 'o', 00H, 'm', 00H, 'm', 00H, 'u', 00H, 'n'
	DB	00H, 'i', 00H, 't', 00H, 'y', 00H, '\', 00H, 'V', 00H, 'C', 00H
	DB	'\', 00H, 'T', 00H, 'o', 00H, 'o', 00H, 'l', 00H, 's', 00H, '\'
	DB	00H, 'M', 00H, 'S', 00H, 'V', 00H, 'C', 00H, '\', 00H, '1', 00H
	DB	'4', 00H, '.', 00H, '3', 00H, '2', 00H, '.', 00H, '3', 00H, '1'
	DB	00H, '3', 00H, '2', 00H, '6', 00H, '\', 00H, 'i', 00H, 'n', 00H
	DB	'c', 00H, 'l', 00H, 'u', 00H, 'd', 00H, 'e', 00H, '\', 00H, 'x'
	DB	00H, 'm', 00H, 'e', 00H, 'm', 00H, 'o', 00H, 'r', 00H, 'y', 00H
	DB	00H, 00H
$SG161863 DB	'"', 00H, 'i', 00H, 'n', 00H, 'v', 00H, 'a', 00H, 'l', 00H
	DB	'i', 00H, 'd', 00H, ' ', 00H, 'a', 00H, 'r', 00H, 'g', 00H, 'u'
	DB	00H, 'm', 00H, 'e', 00H, 'n', 00H, 't', 00H, '"', 00H, 00H, 00H
CONST	ENDS
PUBLIC	?__empty_global_delete@@YAXPAX@Z		; __empty_global_delete
PUBLIC	?__empty_global_delete@@YAXPAXI@Z		; __empty_global_delete
PUBLIC	??0Cgdi@@AAE@XZ					; Cgdi::Cgdi
PUBLIC	??1Cgdi@@QAE@XZ					; Cgdi::~Cgdi
PUBLIC	?Instance@Cgdi@@SAPAV1@XZ			; Cgdi::Instance
EXTRN	_atexit:PROC
EXTRN	__Init_thread_header:PROC
EXTRN	__Init_thread_abort:PROC
EXTRN	__Init_thread_footer:PROC
EXTRN	__imp__CreatePen@12:PROC
EXTRN	__imp__CreateSolidBrush@4:PROC
EXTRN	__imp__DeleteObject@4:PROC
EXTRN	@__security_check_cookie@4:PROC
EXTRN	__RTC_CheckEsp:PROC
EXTRN	__RTC_InitBase:PROC
EXTRN	__RTC_Shutdown:PROC
EXTRN	___CxxFrameHandler3:PROC
EXTRN	__Init_thread_epoch:DWORD
EXTRN	___security_cookie:DWORD
EXTRN	__tls_array:DWORD
EXTRN	__tls_index:DWORD
;	COMDAT ?instance@?1??Instance@Cgdi@@SAPAV2@XZ@4V2@A
_BSS	SEGMENT
?instance@?1??Instance@Cgdi@@SAPAV2@XZ@4V2@A DB 080H DUP (?) ; `Cgdi::Instance'::`2'::instance
_BSS	ENDS
;	COMDAT ?$TSS0@?1??Instance@Cgdi@@SAPAV2@XZ@4HA
_BSS	SEGMENT
?$TSS0@?1??Instance@Cgdi@@SAPAV2@XZ@4HA DD 01H DUP (?)	; `Cgdi::Instance'::`2'::$TSS0
_BSS	ENDS
;	COMDAT rtc$TMZ
rtc$TMZ	SEGMENT
__RTC_Shutdown.rtc$TMZ DD FLAT:__RTC_Shutdown
rtc$TMZ	ENDS
;	COMDAT rtc$IMZ
rtc$IMZ	SEGMENT
__RTC_InitBase.rtc$IMZ DD FLAT:__RTC_InitBase
rtc$IMZ	ENDS
voltbl	SEGMENT
_volmd	DD	0ffffffffH
	DDSymXIndex: 	FLAT:__unwindfunclet$?Instance@Cgdi@@SAPAV1@XZ$0
	DD	01aH
voltbl	ENDS
xdata$x	SEGMENT
__unwindtable$?Instance@Cgdi@@SAPAV1@XZ DD 0ffffffffH
	DD	FLAT:__unwindfunclet$?Instance@Cgdi@@SAPAV1@XZ$0
__ehfuncinfo$?Instance@Cgdi@@SAPAV1@XZ DD 019930522H
	DD	01H
	DD	FLAT:__unwindtable$?Instance@Cgdi@@SAPAV1@XZ
	DD	2 DUP(00H)
	DD	2 DUP(00H)
	DD	00H
	DD	01H
xdata$x	ENDS
; Function compile flags: /Odtp /RTCsu
;	COMDAT ??__Finstance@?1??Instance@Cgdi@@SAPAV1@XZ@YAXXZ
text$yd	SEGMENT
??__Finstance@?1??Instance@Cgdi@@SAPAV1@XZ@YAXXZ PROC	; `Cgdi::Instance'::`2'::`dynamic atexit destructor for 'instance'', COMDAT
	push	ebp
	mov	ebp, esp
	mov	ecx, OFFSET ?instance@?1??Instance@Cgdi@@SAPAV2@XZ@4V2@A
	call	??1Cgdi@@QAE@XZ				; Cgdi::~Cgdi
	cmp	ebp, esp
	call	__RTC_CheckEsp
	pop	ebp
	ret	0
??__Finstance@?1??Instance@Cgdi@@SAPAV1@XZ@YAXXZ ENDP	; `Cgdi::Instance'::`2'::`dynamic atexit destructor for 'instance''
text$yd	ENDS
; Function compile flags: /Odtp /RTCsu
; File C:\Users\lsy01\OneDrive\바탕 화면\3-2_Study\인공지능\Source\VS2010\Common\misc\Cgdi.cpp
_TEXT	SEGMENT
__$EHRec$ = -12						; size = 12
?Instance@Cgdi@@SAPAV1@XZ PROC				; Cgdi::Instance

; 9    : {

	push	ebp
	mov	ebp, esp
	push	-1
	push	__ehhandler$?Instance@Cgdi@@SAPAV1@XZ
	mov	eax, DWORD PTR fs:0
	push	eax
	mov	eax, DWORD PTR ___security_cookie
	xor	eax, ebp
	push	eax
	lea	eax, DWORD PTR __$EHRec$[ebp]
	mov	DWORD PTR fs:0, eax

; 10   :   static Cgdi instance;

	mov	eax, DWORD PTR __tls_index
	mov	ecx, DWORD PTR fs:__tls_array
	mov	edx, DWORD PTR [ecx+eax*4]
	mov	eax, DWORD PTR ?$TSS0@?1??Instance@Cgdi@@SAPAV2@XZ@4HA
	cmp	eax, DWORD PTR __Init_thread_epoch[edx]
	jle	SHORT $LN2@Instance
	push	OFFSET ?$TSS0@?1??Instance@Cgdi@@SAPAV2@XZ@4HA
	call	__Init_thread_header
	add	esp, 4
	cmp	DWORD PTR ?$TSS0@?1??Instance@Cgdi@@SAPAV2@XZ@4HA, -1
	jne	SHORT $LN2@Instance
	mov	DWORD PTR __$EHRec$[ebp+8], 0
	mov	ecx, OFFSET ?instance@?1??Instance@Cgdi@@SAPAV2@XZ@4V2@A
	call	??0Cgdi@@AAE@XZ				; Cgdi::Cgdi
	push	OFFSET ??__Finstance@?1??Instance@Cgdi@@SAPAV1@XZ@YAXXZ ; `Cgdi::Instance'::`2'::`dynamic atexit destructor for 'instance''
	call	_atexit
	add	esp, 4
	mov	DWORD PTR __$EHRec$[ebp+8], -1
	push	OFFSET ?$TSS0@?1??Instance@Cgdi@@SAPAV2@XZ@4HA
	call	__Init_thread_footer
	add	esp, 4
$LN2@Instance:

; 11   :   return &instance;

	mov	eax, OFFSET ?instance@?1??Instance@Cgdi@@SAPAV2@XZ@4V2@A

; 12   : }

	mov	ecx, DWORD PTR __$EHRec$[ebp]
	mov	DWORD PTR fs:0, ecx
	pop	ecx
	add	esp, 12					; 0000000cH
	cmp	ebp, esp
	call	__RTC_CheckEsp
	mov	esp, ebp
	pop	ebp
	ret	0
_TEXT	ENDS
text$x	SEGMENT
__unwindfunclet$?Instance@Cgdi@@SAPAV1@XZ$0:
	push	OFFSET ?$TSS0@?1??Instance@Cgdi@@SAPAV2@XZ@4HA
	call	__Init_thread_abort
	pop	ecx
	ret	0
	int	3
	int	3
	int	3
	int	3
	int	3
__ehhandler$?Instance@Cgdi@@SAPAV1@XZ:
	npad	1
	npad	1
	mov	edx, DWORD PTR [esp+8]
	lea	eax, DWORD PTR [edx+12]
	mov	ecx, DWORD PTR [edx-4]
	xor	ecx, eax
	call	@__security_check_cookie@4
	mov	eax, OFFSET __ehfuncinfo$?Instance@Cgdi@@SAPAV1@XZ
	jmp	___CxxFrameHandler3
text$x	ENDS
?Instance@Cgdi@@SAPAV1@XZ ENDP				; Cgdi::Instance
; Function compile flags: /Odtp /RTCsu
; File C:\Users\lsy01\OneDrive\바탕 화면\3-2_Study\인공지능\Source\VS2010\Common\misc\Cgdi.cpp
_TEXT	SEGMENT
_this$ = -4						; size = 4
??1Cgdi@@QAE@XZ PROC					; Cgdi::~Cgdi
; _this$ = ecx

; 54   : {

	push	ebp
	mov	ebp, esp
	push	ecx
	push	esi
	mov	DWORD PTR [ebp-4], -858993460		; ccccccccH
	mov	DWORD PTR _this$[ebp], ecx

; 55   :   DeleteObject(m_BlackPen);

	mov	esi, esp
	mov	eax, DWORD PTR _this$[ebp]
	mov	ecx, DWORD PTR [eax+4]
	push	ecx
	call	DWORD PTR __imp__DeleteObject@4
	cmp	esi, esp
	call	__RTC_CheckEsp

; 56   :   DeleteObject(m_WhitePen);

	mov	esi, esp
	mov	edx, DWORD PTR _this$[ebp]
	mov	eax, DWORD PTR [edx+8]
	push	eax
	call	DWORD PTR __imp__DeleteObject@4
	cmp	esi, esp
	call	__RTC_CheckEsp

; 57   :   DeleteObject(m_RedPen);

	mov	esi, esp
	mov	ecx, DWORD PTR _this$[ebp]
	mov	edx, DWORD PTR [ecx+12]
	push	edx
	call	DWORD PTR __imp__DeleteObject@4
	cmp	esi, esp
	call	__RTC_CheckEsp

; 58   :   DeleteObject(m_GreenPen);

	mov	esi, esp
	mov	eax, DWORD PTR _this$[ebp]
	mov	ecx, DWORD PTR [eax+16]
	push	ecx
	call	DWORD PTR __imp__DeleteObject@4
	cmp	esi, esp
	call	__RTC_CheckEsp

; 59   :   DeleteObject(m_BluePen);

	mov	esi, esp
	mov	edx, DWORD PTR _this$[ebp]
	mov	eax, DWORD PTR [edx+20]
	push	eax
	call	DWORD PTR __imp__DeleteObject@4
	cmp	esi, esp
	call	__RTC_CheckEsp

; 60   :   DeleteObject(m_GreyPen);

	mov	esi, esp
	mov	ecx, DWORD PTR _this$[ebp]
	mov	edx, DWORD PTR [ecx+24]
	push	edx
	call	DWORD PTR __imp__DeleteObject@4
	cmp	esi, esp
	call	__RTC_CheckEsp

; 61   :   DeleteObject(m_PinkPen);

	mov	esi, esp
	mov	eax, DWORD PTR _this$[ebp]
	mov	ecx, DWORD PTR [eax+28]
	push	ecx
	call	DWORD PTR __imp__DeleteObject@4
	cmp	esi, esp
	call	__RTC_CheckEsp

; 62   :   DeleteObject(m_OrangePen);

	mov	esi, esp
	mov	edx, DWORD PTR _this$[ebp]
	mov	eax, DWORD PTR [edx+32]
	push	eax
	call	DWORD PTR __imp__DeleteObject@4
	cmp	esi, esp
	call	__RTC_CheckEsp

; 63   :   DeleteObject(m_YellowPen);

	mov	esi, esp
	mov	ecx, DWORD PTR _this$[ebp]
	mov	edx, DWORD PTR [ecx+36]
	push	edx
	call	DWORD PTR __imp__DeleteObject@4
	cmp	esi, esp
	call	__RTC_CheckEsp

; 64   :   DeleteObject(m_PurplePen);

	mov	esi, esp
	mov	eax, DWORD PTR _this$[ebp]
	mov	ecx, DWORD PTR [eax+40]
	push	ecx
	call	DWORD PTR __imp__DeleteObject@4
	cmp	esi, esp
	call	__RTC_CheckEsp

; 65   :   DeleteObject(m_BrownPen);

	mov	esi, esp
	mov	edx, DWORD PTR _this$[ebp]
	mov	eax, DWORD PTR [edx+44]
	push	eax
	call	DWORD PTR __imp__DeleteObject@4
	cmp	esi, esp
	call	__RTC_CheckEsp

; 66   :   DeleteObject(m_OldPen);

	mov	esi, esp
	mov	ecx, DWORD PTR _this$[ebp]
	mov	edx, DWORD PTR [ecx]
	push	edx
	call	DWORD PTR __imp__DeleteObject@4
	cmp	esi, esp
	call	__RTC_CheckEsp

; 67   :   
; 68   :   DeleteObject(m_DarkGreenPen);

	mov	esi, esp
	mov	eax, DWORD PTR _this$[ebp]
	mov	ecx, DWORD PTR [eax+48]
	push	ecx
	call	DWORD PTR __imp__DeleteObject@4
	cmp	esi, esp
	call	__RTC_CheckEsp

; 69   : 
; 70   :   DeleteObject(m_LightBluePen);

	mov	esi, esp
	mov	edx, DWORD PTR _this$[ebp]
	mov	eax, DWORD PTR [edx+52]
	push	eax
	call	DWORD PTR __imp__DeleteObject@4
	cmp	esi, esp
	call	__RTC_CheckEsp

; 71   :   DeleteObject(m_LightGreyPen);

	mov	esi, esp
	mov	ecx, DWORD PTR _this$[ebp]
	mov	edx, DWORD PTR [ecx+56]
	push	edx
	call	DWORD PTR __imp__DeleteObject@4
	cmp	esi, esp
	call	__RTC_CheckEsp

; 72   :   DeleteObject(m_LightPinkPen);

	mov	esi, esp
	mov	eax, DWORD PTR _this$[ebp]
	mov	ecx, DWORD PTR [eax+60]
	push	ecx
	call	DWORD PTR __imp__DeleteObject@4
	cmp	esi, esp
	call	__RTC_CheckEsp

; 73   :   
; 74   :   DeleteObject(m_ThickBlackPen);

	mov	esi, esp
	mov	edx, DWORD PTR _this$[ebp]
	mov	eax, DWORD PTR [edx+64]
	push	eax
	call	DWORD PTR __imp__DeleteObject@4
	cmp	esi, esp
	call	__RTC_CheckEsp

; 75   :   DeleteObject(m_ThickWhitePen);

	mov	esi, esp
	mov	ecx, DWORD PTR _this$[ebp]
	mov	edx, DWORD PTR [ecx+68]
	push	edx
	call	DWORD PTR __imp__DeleteObject@4
	cmp	esi, esp
	call	__RTC_CheckEsp

; 76   :   DeleteObject(m_ThickRedPen);

	mov	esi, esp
	mov	eax, DWORD PTR _this$[ebp]
	mov	ecx, DWORD PTR [eax+72]
	push	ecx
	call	DWORD PTR __imp__DeleteObject@4
	cmp	esi, esp
	call	__RTC_CheckEsp

; 77   :   DeleteObject(m_ThickGreenPen);

	mov	esi, esp
	mov	edx, DWORD PTR _this$[ebp]
	mov	eax, DWORD PTR [edx+76]
	push	eax
	call	DWORD PTR __imp__DeleteObject@4
	cmp	esi, esp
	call	__RTC_CheckEsp

; 78   :   DeleteObject(m_ThickBluePen);

	mov	esi, esp
	mov	ecx, DWORD PTR _this$[ebp]
	mov	edx, DWORD PTR [ecx+80]
	push	edx
	call	DWORD PTR __imp__DeleteObject@4
	cmp	esi, esp
	call	__RTC_CheckEsp

; 79   : 
; 80   :   DeleteObject(m_GreenBrush);

	mov	esi, esp
	mov	eax, DWORD PTR _this$[ebp]
	mov	ecx, DWORD PTR [eax+92]
	push	ecx
	call	DWORD PTR __imp__DeleteObject@4
	cmp	esi, esp
	call	__RTC_CheckEsp

; 81   :   DeleteObject(m_RedBrush);

	mov	esi, esp
	mov	edx, DWORD PTR _this$[ebp]
	mov	eax, DWORD PTR [edx+88]
	push	eax
	call	DWORD PTR __imp__DeleteObject@4
	cmp	esi, esp
	call	__RTC_CheckEsp

; 82   :   DeleteObject(m_BlueBrush);

	mov	esi, esp
	mov	ecx, DWORD PTR _this$[ebp]
	mov	edx, DWORD PTR [ecx+96]
	push	edx
	call	DWORD PTR __imp__DeleteObject@4
	cmp	esi, esp
	call	__RTC_CheckEsp

; 83   :   DeleteObject(m_OldBrush);

	mov	esi, esp
	mov	eax, DWORD PTR _this$[ebp]
	mov	ecx, DWORD PTR [eax+84]
	push	ecx
	call	DWORD PTR __imp__DeleteObject@4
	cmp	esi, esp
	call	__RTC_CheckEsp

; 84   :   DeleteObject(m_GreyBrush);

	mov	esi, esp
	mov	edx, DWORD PTR _this$[ebp]
	mov	eax, DWORD PTR [edx+100]
	push	eax
	call	DWORD PTR __imp__DeleteObject@4
	cmp	esi, esp
	call	__RTC_CheckEsp

; 85   :   DeleteObject(m_BrownBrush);

	mov	esi, esp
	mov	ecx, DWORD PTR _this$[ebp]
	mov	edx, DWORD PTR [ecx+104]
	push	edx
	call	DWORD PTR __imp__DeleteObject@4
	cmp	esi, esp
	call	__RTC_CheckEsp

; 86   :   DeleteObject(m_LightBlueBrush);

	mov	esi, esp
	mov	eax, DWORD PTR _this$[ebp]
	mov	ecx, DWORD PTR [eax+116]
	push	ecx
	call	DWORD PTR __imp__DeleteObject@4
	cmp	esi, esp
	call	__RTC_CheckEsp

; 87   :   DeleteObject(m_YellowBrush);

	mov	esi, esp
	mov	edx, DWORD PTR _this$[ebp]
	mov	eax, DWORD PTR [edx+108]
	push	eax
	call	DWORD PTR __imp__DeleteObject@4
	cmp	esi, esp
	call	__RTC_CheckEsp

; 88   :   DeleteObject(m_DarkGreenBrush);

	mov	esi, esp
	mov	ecx, DWORD PTR _this$[ebp]
	mov	edx, DWORD PTR [ecx+120]
	push	edx
	call	DWORD PTR __imp__DeleteObject@4
	cmp	esi, esp
	call	__RTC_CheckEsp

; 89   :   DeleteObject(m_OrangeBrush);

	mov	esi, esp
	mov	eax, DWORD PTR _this$[ebp]
	mov	ecx, DWORD PTR [eax+112]
	push	ecx
	call	DWORD PTR __imp__DeleteObject@4
	cmp	esi, esp
	call	__RTC_CheckEsp

; 90   : 
; 91   : }

	pop	esi
	add	esp, 4
	cmp	ebp, esp
	call	__RTC_CheckEsp
	mov	esp, ebp
	pop	ebp
	ret	0
??1Cgdi@@QAE@XZ ENDP					; Cgdi::~Cgdi
_TEXT	ENDS
; Function compile flags: /Odtp /RTCsu
; File C:\Users\lsy01\OneDrive\바탕 화면\3-2_Study\인공지능\Source\VS2010\Common\misc\Cgdi.cpp
_TEXT	SEGMENT
_this$ = -4						; size = 4
??0Cgdi@@AAE@XZ PROC					; Cgdi::Cgdi
; _this$ = ecx

; 15   : {

	push	ebp
	mov	ebp, esp
	push	ecx
	push	esi
	mov	DWORD PTR [ebp-4], -858993460		; ccccccccH
	mov	DWORD PTR _this$[ebp], ecx

; 16   :   m_BlackPen = CreatePen(PS_SOLID, 1, colors[black]);

	mov	eax, 4
	imul	ecx, eax, 3
	mov	esi, esp
	mov	edx, DWORD PTR ?colors@@3QBKB[ecx]
	push	edx
	push	1
	push	0
	call	DWORD PTR __imp__CreatePen@12
	cmp	esi, esp
	call	__RTC_CheckEsp
	mov	ecx, DWORD PTR _this$[ebp]
	mov	DWORD PTR [ecx+4], eax

; 17   :   m_WhitePen = CreatePen(PS_SOLID, 1, colors[white]);

	mov	edx, 4
	imul	eax, edx, 10
	mov	esi, esp
	mov	ecx, DWORD PTR ?colors@@3QBKB[eax]
	push	ecx
	push	1
	push	0
	call	DWORD PTR __imp__CreatePen@12
	cmp	esi, esp
	call	__RTC_CheckEsp
	mov	edx, DWORD PTR _this$[ebp]
	mov	DWORD PTR [edx+8], eax

; 18   :   m_RedPen = CreatePen(PS_SOLID, 1, colors[red]);

	mov	eax, 4
	imul	ecx, eax, 0
	mov	esi, esp
	mov	edx, DWORD PTR ?colors@@3QBKB[ecx]
	push	edx
	push	1
	push	0
	call	DWORD PTR __imp__CreatePen@12
	cmp	esi, esp
	call	__RTC_CheckEsp
	mov	ecx, DWORD PTR _this$[ebp]
	mov	DWORD PTR [ecx+12], eax

; 19   :   m_GreenPen = CreatePen(PS_SOLID, 1, colors[green]);

	mov	edx, 4
	shl	edx, 1
	mov	esi, esp
	mov	eax, DWORD PTR ?colors@@3QBKB[edx]
	push	eax
	push	1
	push	0
	call	DWORD PTR __imp__CreatePen@12
	cmp	esi, esp
	call	__RTC_CheckEsp
	mov	ecx, DWORD PTR _this$[ebp]
	mov	DWORD PTR [ecx+16], eax

; 20   :   m_BluePen = CreatePen(PS_SOLID, 1, colors[blue]);

	mov	edx, 4
	shl	edx, 0
	mov	esi, esp
	mov	eax, DWORD PTR ?colors@@3QBKB[edx]
	push	eax
	push	1
	push	0
	call	DWORD PTR __imp__CreatePen@12
	cmp	esi, esp
	call	__RTC_CheckEsp
	mov	ecx, DWORD PTR _this$[ebp]
	mov	DWORD PTR [ecx+20], eax

; 21   :   m_GreyPen = CreatePen(PS_SOLID, 1, colors[grey]);

	mov	edx, 4
	imul	eax, edx, 5
	mov	esi, esp
	mov	ecx, DWORD PTR ?colors@@3QBKB[eax]
	push	ecx
	push	1
	push	0
	call	DWORD PTR __imp__CreatePen@12
	cmp	esi, esp
	call	__RTC_CheckEsp
	mov	edx, DWORD PTR _this$[ebp]
	mov	DWORD PTR [edx+24], eax

; 22   :   m_PinkPen = CreatePen(PS_SOLID, 1, colors[pink]);

	mov	eax, 4
	shl	eax, 2
	mov	esi, esp
	mov	ecx, DWORD PTR ?colors@@3QBKB[eax]
	push	ecx
	push	1
	push	0
	call	DWORD PTR __imp__CreatePen@12
	cmp	esi, esp
	call	__RTC_CheckEsp
	mov	edx, DWORD PTR _this$[ebp]
	mov	DWORD PTR [edx+28], eax

; 23   :   m_YellowPen = CreatePen(PS_SOLID, 1, colors[yellow]);

	mov	eax, 4
	imul	ecx, eax, 6
	mov	esi, esp
	mov	edx, DWORD PTR ?colors@@3QBKB[ecx]
	push	edx
	push	1
	push	0
	call	DWORD PTR __imp__CreatePen@12
	cmp	esi, esp
	call	__RTC_CheckEsp
	mov	ecx, DWORD PTR _this$[ebp]
	mov	DWORD PTR [ecx+36], eax

; 24   :   m_OrangePen = CreatePen(PS_SOLID, 1, colors[orange]);

	mov	edx, 4
	imul	eax, edx, 7
	mov	esi, esp
	mov	ecx, DWORD PTR ?colors@@3QBKB[eax]
	push	ecx
	push	1
	push	0
	call	DWORD PTR __imp__CreatePen@12
	cmp	esi, esp
	call	__RTC_CheckEsp
	mov	edx, DWORD PTR _this$[ebp]
	mov	DWORD PTR [edx+32], eax

; 25   :   m_PurplePen = CreatePen(PS_SOLID, 1, colors[purple]);

	mov	eax, 4
	shl	eax, 3
	mov	esi, esp
	mov	ecx, DWORD PTR ?colors@@3QBKB[eax]
	push	ecx
	push	1
	push	0
	call	DWORD PTR __imp__CreatePen@12
	cmp	esi, esp
	call	__RTC_CheckEsp
	mov	edx, DWORD PTR _this$[ebp]
	mov	DWORD PTR [edx+40], eax

; 26   :   m_BrownPen = CreatePen(PS_SOLID, 1, colors[brown]);

	mov	eax, 4
	imul	ecx, eax, 9
	mov	esi, esp
	mov	edx, DWORD PTR ?colors@@3QBKB[ecx]
	push	edx
	push	1
	push	0
	call	DWORD PTR __imp__CreatePen@12
	cmp	esi, esp
	call	__RTC_CheckEsp
	mov	ecx, DWORD PTR _this$[ebp]
	mov	DWORD PTR [ecx+44], eax

; 27   :   
; 28   :   m_DarkGreenPen = CreatePen(PS_SOLID, 1, colors[dark_green]);

	mov	edx, 4
	imul	eax, edx, 11
	mov	esi, esp
	mov	ecx, DWORD PTR ?colors@@3QBKB[eax]
	push	ecx
	push	1
	push	0
	call	DWORD PTR __imp__CreatePen@12
	cmp	esi, esp
	call	__RTC_CheckEsp
	mov	edx, DWORD PTR _this$[ebp]
	mov	DWORD PTR [edx+48], eax

; 29   : 
; 30   :   m_LightBluePen = CreatePen(PS_SOLID, 1, colors[light_blue]);

	mov	eax, 4
	imul	ecx, eax, 12
	mov	esi, esp
	mov	edx, DWORD PTR ?colors@@3QBKB[ecx]
	push	edx
	push	1
	push	0
	call	DWORD PTR __imp__CreatePen@12
	cmp	esi, esp
	call	__RTC_CheckEsp
	mov	ecx, DWORD PTR _this$[ebp]
	mov	DWORD PTR [ecx+52], eax

; 31   :   m_LightGreyPen = CreatePen(PS_SOLID, 1, colors[light_grey]);

	mov	edx, 4
	imul	eax, edx, 13
	mov	esi, esp
	mov	ecx, DWORD PTR ?colors@@3QBKB[eax]
	push	ecx
	push	1
	push	0
	call	DWORD PTR __imp__CreatePen@12
	cmp	esi, esp
	call	__RTC_CheckEsp
	mov	edx, DWORD PTR _this$[ebp]
	mov	DWORD PTR [edx+56], eax

; 32   :   m_LightPinkPen = CreatePen(PS_SOLID, 1, colors[light_pink]);

	mov	eax, 4
	imul	ecx, eax, 14
	mov	esi, esp
	mov	edx, DWORD PTR ?colors@@3QBKB[ecx]
	push	edx
	push	1
	push	0
	call	DWORD PTR __imp__CreatePen@12
	cmp	esi, esp
	call	__RTC_CheckEsp
	mov	ecx, DWORD PTR _this$[ebp]
	mov	DWORD PTR [ecx+60], eax

; 33   : 
; 34   :   m_ThickBlackPen = CreatePen(PS_SOLID, 2, colors[black]);

	mov	edx, 4
	imul	eax, edx, 3
	mov	esi, esp
	mov	ecx, DWORD PTR ?colors@@3QBKB[eax]
	push	ecx
	push	2
	push	0
	call	DWORD PTR __imp__CreatePen@12
	cmp	esi, esp
	call	__RTC_CheckEsp
	mov	edx, DWORD PTR _this$[ebp]
	mov	DWORD PTR [edx+64], eax

; 35   :   m_ThickWhitePen = CreatePen(PS_SOLID, 2, colors[white]);

	mov	eax, 4
	imul	ecx, eax, 10
	mov	esi, esp
	mov	edx, DWORD PTR ?colors@@3QBKB[ecx]
	push	edx
	push	2
	push	0
	call	DWORD PTR __imp__CreatePen@12
	cmp	esi, esp
	call	__RTC_CheckEsp
	mov	ecx, DWORD PTR _this$[ebp]
	mov	DWORD PTR [ecx+68], eax

; 36   :   m_ThickRedPen = CreatePen(PS_SOLID, 2, colors[red]);

	mov	edx, 4
	imul	eax, edx, 0
	mov	esi, esp
	mov	ecx, DWORD PTR ?colors@@3QBKB[eax]
	push	ecx
	push	2
	push	0
	call	DWORD PTR __imp__CreatePen@12
	cmp	esi, esp
	call	__RTC_CheckEsp
	mov	edx, DWORD PTR _this$[ebp]
	mov	DWORD PTR [edx+72], eax

; 37   :   m_ThickGreenPen = CreatePen(PS_SOLID, 2, colors[green]);

	mov	eax, 4
	shl	eax, 1
	mov	esi, esp
	mov	ecx, DWORD PTR ?colors@@3QBKB[eax]
	push	ecx
	push	2
	push	0
	call	DWORD PTR __imp__CreatePen@12
	cmp	esi, esp
	call	__RTC_CheckEsp
	mov	edx, DWORD PTR _this$[ebp]
	mov	DWORD PTR [edx+76], eax

; 38   :   m_ThickBluePen = CreatePen(PS_SOLID, 2, colors[blue]);

	mov	eax, 4
	shl	eax, 0
	mov	esi, esp
	mov	ecx, DWORD PTR ?colors@@3QBKB[eax]
	push	ecx
	push	2
	push	0
	call	DWORD PTR __imp__CreatePen@12
	cmp	esi, esp
	call	__RTC_CheckEsp
	mov	edx, DWORD PTR _this$[ebp]
	mov	DWORD PTR [edx+80], eax

; 39   : 
; 40   :   m_GreenBrush = CreateSolidBrush(colors[green]);

	mov	eax, 4
	shl	eax, 1
	mov	esi, esp
	mov	ecx, DWORD PTR ?colors@@3QBKB[eax]
	push	ecx
	call	DWORD PTR __imp__CreateSolidBrush@4
	cmp	esi, esp
	call	__RTC_CheckEsp
	mov	edx, DWORD PTR _this$[ebp]
	mov	DWORD PTR [edx+92], eax

; 41   :   m_RedBrush   = CreateSolidBrush(colors[red]);

	mov	eax, 4
	imul	ecx, eax, 0
	mov	esi, esp
	mov	edx, DWORD PTR ?colors@@3QBKB[ecx]
	push	edx
	call	DWORD PTR __imp__CreateSolidBrush@4
	cmp	esi, esp
	call	__RTC_CheckEsp
	mov	ecx, DWORD PTR _this$[ebp]
	mov	DWORD PTR [ecx+88], eax

; 42   :   m_BlueBrush  = CreateSolidBrush(colors[blue]);

	mov	edx, 4
	shl	edx, 0
	mov	esi, esp
	mov	eax, DWORD PTR ?colors@@3QBKB[edx]
	push	eax
	call	DWORD PTR __imp__CreateSolidBrush@4
	cmp	esi, esp
	call	__RTC_CheckEsp
	mov	ecx, DWORD PTR _this$[ebp]
	mov	DWORD PTR [ecx+96], eax

; 43   :   m_GreyBrush  = CreateSolidBrush(colors[grey]);

	mov	edx, 4
	imul	eax, edx, 5
	mov	esi, esp
	mov	ecx, DWORD PTR ?colors@@3QBKB[eax]
	push	ecx
	call	DWORD PTR __imp__CreateSolidBrush@4
	cmp	esi, esp
	call	__RTC_CheckEsp
	mov	edx, DWORD PTR _this$[ebp]
	mov	DWORD PTR [edx+100], eax

; 44   :   m_BrownBrush = CreateSolidBrush(colors[brown]);

	mov	eax, 4
	imul	ecx, eax, 9
	mov	esi, esp
	mov	edx, DWORD PTR ?colors@@3QBKB[ecx]
	push	edx
	call	DWORD PTR __imp__CreateSolidBrush@4
	cmp	esi, esp
	call	__RTC_CheckEsp
	mov	ecx, DWORD PTR _this$[ebp]
	mov	DWORD PTR [ecx+104], eax

; 45   :   m_YellowBrush = CreateSolidBrush(colors[yellow]);

	mov	edx, 4
	imul	eax, edx, 6
	mov	esi, esp
	mov	ecx, DWORD PTR ?colors@@3QBKB[eax]
	push	ecx
	call	DWORD PTR __imp__CreateSolidBrush@4
	cmp	esi, esp
	call	__RTC_CheckEsp
	mov	edx, DWORD PTR _this$[ebp]
	mov	DWORD PTR [edx+108], eax

; 46   :   m_LightBlueBrush = CreateSolidBrush(RGB(0,255,255));

	mov	esi, esp
	push	16776960				; 00ffff00H
	call	DWORD PTR __imp__CreateSolidBrush@4
	cmp	esi, esp
	call	__RTC_CheckEsp
	mov	ecx, DWORD PTR _this$[ebp]
	mov	DWORD PTR [ecx+116], eax

; 47   :   m_DarkGreenBrush = CreateSolidBrush(colors[dark_green]);

	mov	edx, 4
	imul	eax, edx, 11
	mov	esi, esp
	mov	ecx, DWORD PTR ?colors@@3QBKB[eax]
	push	ecx
	call	DWORD PTR __imp__CreateSolidBrush@4
	cmp	esi, esp
	call	__RTC_CheckEsp
	mov	edx, DWORD PTR _this$[ebp]
	mov	DWORD PTR [edx+120], eax

; 48   :   m_OrangeBrush = CreateSolidBrush(colors[orange]);

	mov	eax, 4
	imul	ecx, eax, 7
	mov	esi, esp
	mov	edx, DWORD PTR ?colors@@3QBKB[ecx]
	push	edx
	call	DWORD PTR __imp__CreateSolidBrush@4
	cmp	esi, esp
	call	__RTC_CheckEsp
	mov	ecx, DWORD PTR _this$[ebp]
	mov	DWORD PTR [ecx+112], eax

; 49   : 
; 50   :   m_hdc = NULL;

	mov	edx, DWORD PTR _this$[ebp]
	mov	DWORD PTR [edx+124], 0

; 51   : }

	mov	eax, DWORD PTR _this$[ebp]
	pop	esi
	add	esp, 4
	cmp	ebp, esp
	call	__RTC_CheckEsp
	mov	esp, ebp
	pop	ebp
	ret	0
??0Cgdi@@AAE@XZ ENDP					; Cgdi::Cgdi
_TEXT	ENDS
; Function compile flags: /Odtp /RTCsu
; File C:\Users\lsy01\OneDrive\바탕 화면\3-2_Study\인공지능\Source\VS2010\Common\misc\Cgdi.cpp
;	COMDAT ?__empty_global_delete@@YAXPAXI@Z
_TEXT	SEGMENT
___formal$ = 8						; size = 4
___formal$ = 12						; size = 4
?__empty_global_delete@@YAXPAXI@Z PROC			; __empty_global_delete, COMDAT

	push	ebp
	mov	ebp, esp
	pop	ebp
	ret	0
?__empty_global_delete@@YAXPAXI@Z ENDP			; __empty_global_delete
_TEXT	ENDS
; Function compile flags: /Odtp /RTCsu
; File C:\Users\lsy01\OneDrive\바탕 화면\3-2_Study\인공지능\Source\VS2010\Common\misc\Cgdi.cpp
;	COMDAT ?__empty_global_delete@@YAXPAX@Z
_TEXT	SEGMENT
___formal$ = 8						; size = 4
?__empty_global_delete@@YAXPAX@Z PROC			; __empty_global_delete, COMDAT

	push	ebp
	mov	ebp, esp
	pop	ebp
	ret	0
?__empty_global_delete@@YAXPAX@Z ENDP			; __empty_global_delete
_TEXT	ENDS
END
