; Listing generated by Microsoft (R) Optimizing Compiler Version 19.32.31329.0 

	TITLE	C:\Users\lsy01\OneDrive\바탕 화면\3-2_Study\인공지능\Source\VS2010\Buckland_Chapter7 to 10_Raven\Debug\MessageDispatcher.obj
	.686P
	.XMM
	include listing.inc
	.model	flat

INCLUDELIB LIBCMTD
INCLUDELIB OLDNAMES

CONST	SEGMENT
$SG172491 DB	'invalid argument', 00H
	ORG $+3
$SG172492 DB	'%s', 00H
	ORG $+1
$SG172493 DB	'C:\Program Files\Microsoft Visual Studio\2022\Community\'
	DB	'VC\Tools\MSVC\14.32.31326\include\xmemory', 00H
	ORG $+2
$SG172495 DB	00H, 00H
	ORG $+2
$SG172494 DB	'C', 00H, ':', 00H, '\', 00H, 'P', 00H, 'r', 00H, 'o', 00H
	DB	'g', 00H, 'r', 00H, 'a', 00H, 'm', 00H, ' ', 00H, 'F', 00H, 'i'
	DB	00H, 'l', 00H, 'e', 00H, 's', 00H, '\', 00H, 'M', 00H, 'i', 00H
	DB	'c', 00H, 'r', 00H, 'o', 00H, 's', 00H, 'o', 00H, 'f', 00H, 't'
	DB	00H, ' ', 00H, 'V', 00H, 'i', 00H, 's', 00H, 'u', 00H, 'a', 00H
	DB	'l', 00H, ' ', 00H, 'S', 00H, 't', 00H, 'u', 00H, 'd', 00H, 'i'
	DB	00H, 'o', 00H, '\', 00H, '2', 00H, '0', 00H, '2', 00H, '2', 00H
	DB	'\', 00H, 'C', 00H, 'o', 00H, 'm', 00H, 'm', 00H, 'u', 00H, 'n'
	DB	00H, 'i', 00H, 't', 00H, 'y', 00H, '\', 00H, 'V', 00H, 'C', 00H
	DB	'\', 00H, 'T', 00H, 'o', 00H, 'o', 00H, 'l', 00H, 's', 00H, '\'
	DB	00H, 'M', 00H, 'S', 00H, 'V', 00H, 'C', 00H, '\', 00H, '1', 00H
	DB	'4', 00H, '.', 00H, '3', 00H, '2', 00H, '.', 00H, '3', 00H, '1'
	DB	00H, '3', 00H, '2', 00H, '6', 00H, '\', 00H, 'i', 00H, 'n', 00H
	DB	'c', 00H, 'l', 00H, 'u', 00H, 'd', 00H, 'e', 00H, '\', 00H, 'x'
	DB	00H, 'm', 00H, 'e', 00H, 'm', 00H, 'o', 00H, 'r', 00H, 'y', 00H
	DB	00H, 00H
$SG172496 DB	'"', 00H, 'i', 00H, 'n', 00H, 'v', 00H, 'a', 00H, 'l', 00H
	DB	'i', 00H, 'd', 00H, ' ', 00H, 'a', 00H, 'r', 00H, 'g', 00H, 'u'
	DB	00H, 'm', 00H, 'e', 00H, 'n', 00H, 't', 00H, '"', 00H, 00H, 00H
	ORG $+6
$SG172584 DB	'C:\Program Files\Microsoft Visual Studio\2022\Community\'
	DB	'VC\Tools\MSVC\14.32.31326\include\xlocale', 00H
CONST	ENDS
PUBLIC	?__empty_global_delete@@YAXPAX@Z		; __empty_global_delete
PUBLIC	?__empty_global_delete@@YAXPAXI@Z		; __empty_global_delete
PUBLIC	?max@?$numeric_limits@H@std@@SAHXZ		; std::numeric_limits<int>::max
PUBLIC	??2@YAPAXIPAX@Z					; operator new
PUBLIC	??0exception@std@@QAE@QBDH@Z			; std::exception::exception
PUBLIC	??0exception@std@@QAE@ABV01@@Z			; std::exception::exception
PUBLIC	??1exception@std@@UAE@XZ			; std::exception::~exception
PUBLIC	?what@exception@std@@UBEPBDXZ			; std::exception::what
PUBLIC	??_Gexception@std@@UAEPAXI@Z			; std::exception::`scalar deleting destructor'
PUBLIC	??0bad_alloc@std@@AAE@QBD@Z			; std::bad_alloc::bad_alloc
PUBLIC	??1bad_alloc@std@@UAE@XZ			; std::bad_alloc::~bad_alloc
PUBLIC	??0bad_alloc@std@@QAE@ABV01@@Z			; std::bad_alloc::bad_alloc
PUBLIC	??_Gbad_alloc@std@@UAEPAXI@Z			; std::bad_alloc::`scalar deleting destructor'
PUBLIC	??0bad_array_new_length@std@@QAE@XZ		; std::bad_array_new_length::bad_array_new_length
PUBLIC	??1bad_array_new_length@std@@UAE@XZ		; std::bad_array_new_length::~bad_array_new_length
PUBLIC	??0bad_array_new_length@std@@QAE@ABV01@@Z	; std::bad_array_new_length::bad_array_new_length
PUBLIC	??_Gbad_array_new_length@std@@UAEPAXI@Z		; std::bad_array_new_length::`scalar deleting destructor'
PUBLIC	?_Throw_bad_array_new_length@std@@YAXXZ		; std::_Throw_bad_array_new_length
PUBLIC	?_Allocate@_Default_allocate_traits@std@@SAPAXI@Z ; std::_Default_allocate_traits::_Allocate
PUBLIC	?_Adjust_manually_vector_aligned@std@@YAXAAPAXAAI@Z ; std::_Adjust_manually_vector_aligned
PUBLIC	?_Adopt@_Iterator_base0@std@@QAEXPBX@Z		; std::_Iterator_base0::_Adopt
PUBLIC	??0_Container_proxy@std@@QAE@PAU_Container_base12@1@@Z ; std::_Container_proxy::_Container_proxy
PUBLIC	??0_Container_base12@std@@QAE@XZ		; std::_Container_base12::_Container_base12
PUBLIC	?_Orphan_all@_Container_base12@std@@QAEXXZ	; std::_Container_base12::_Orphan_all
PUBLIC	?_Orphan_all_unlocked_v3@_Container_base12@std@@AAEXXZ ; std::_Container_base12::_Orphan_all_unlocked_v3
PUBLIC	?_Orphan_all_locked_v3@_Container_base12@std@@AAEXXZ ; std::_Container_base12::_Orphan_all_locked_v3
PUBLIC	??0_Iterator_base12@std@@QAE@XZ			; std::_Iterator_base12::_Iterator_base12
PUBLIC	??0_Iterator_base12@std@@QAE@ABU01@@Z		; std::_Iterator_base12::_Iterator_base12
PUBLIC	??4_Iterator_base12@std@@QAEAAU01@ABU01@@Z	; std::_Iterator_base12::operator=
PUBLIC	??1_Iterator_base12@std@@QAE@XZ			; std::_Iterator_base12::~_Iterator_base12
PUBLIC	?_Adopt@_Iterator_base12@std@@QAEXPBU_Container_base12@2@@Z ; std::_Iterator_base12::_Adopt
PUBLIC	?_Getcont@_Iterator_base12@std@@QBEPBU_Container_base12@2@XZ ; std::_Iterator_base12::_Getcont
PUBLIC	?_Assign_unlocked@_Iterator_base12@std@@AAEXABU12@@Z ; std::_Iterator_base12::_Assign_unlocked
PUBLIC	?_Assign_locked@_Iterator_base12@std@@AAEXABU12@@Z ; std::_Iterator_base12::_Assign_locked
PUBLIC	?_Adopt_unlocked@_Iterator_base12@std@@AAEXPBU_Container_base12@2@@Z ; std::_Iterator_base12::_Adopt_unlocked
PUBLIC	?_Adopt_locked@_Iterator_base12@std@@AAEXPBU_Container_base12@2@@Z ; std::_Iterator_base12::_Adopt_locked
PUBLIC	?_Orphan_me_unlocked_v3@_Iterator_base12@std@@AAEXXZ ; std::_Iterator_base12::_Orphan_me_unlocked_v3
PUBLIC	?_Orphan_me_locked_v3@_Iterator_base12@std@@AAEXXZ ; std::_Iterator_base12::_Orphan_me_locked_v3
PUBLIC	?_Release@_Basic_container_proxy_ptr12@std@@QAEXXZ ; std::_Basic_container_proxy_ptr12::_Release
PUBLIC	??0_Basic_container_proxy_ptr12@std@@IAE@XZ	; std::_Basic_container_proxy_ptr12::_Basic_container_proxy_ptr12
PUBLIC	?_Throw_tree_length_error@std@@YAXXZ		; std::_Throw_tree_length_error
PUBLIC	??0id@locale@std@@QAE@I@Z			; std::locale::id::id
PUBLIC	??0Telegram@@QAE@NHHHPAX@Z			; Telegram::Telegram
PUBLIC	??8@YA_NABUTelegram@@0@Z			; operator==
PUBLIC	??M@YA_NABUTelegram@@0@Z			; operator<
PUBLIC	?_Kfn@?$_Tset_traits@UTelegram@@U?$less@UTelegram@@@std@@V?$allocator@UTelegram@@@3@$0A@@std@@SAABUTelegram@@ABU3@@Z ; std::_Tset_traits<Telegram,std::less<Telegram>,std::allocator<Telegram>,0>::_Kfn
PUBLIC	??0?$allocator@U?$_Tree_node@UTelegram@@PAX@std@@@std@@QAE@XZ ; std::allocator<std::_Tree_node<Telegram,void *> >::allocator<std::_Tree_node<Telegram,void *> >
PUBLIC	?deallocate@?$allocator@U?$_Tree_node@UTelegram@@PAX@std@@@std@@QAEXQAU?$_Tree_node@UTelegram@@PAX@2@I@Z ; std::allocator<std::_Tree_node<Telegram,void *> >::deallocate
PUBLIC	?allocate@?$allocator@U?$_Tree_node@UTelegram@@PAX@std@@@std@@QAEPAU?$_Tree_node@UTelegram@@PAX@2@I@Z ; std::allocator<std::_Tree_node<Telegram,void *> >::allocate
PUBLIC	?deallocate@?$_Default_allocator_traits@V?$allocator@U?$_Tree_node@UTelegram@@PAX@std@@@std@@@std@@SAXAAV?$allocator@U?$_Tree_node@UTelegram@@PAX@std@@@2@QAU?$_Tree_node@UTelegram@@PAX@2@I@Z ; std::_Default_allocator_traits<std::allocator<std::_Tree_node<Telegram,void *> > >::deallocate
PUBLIC	?max_size@?$_Default_allocator_traits@V?$allocator@U?$_Tree_node@UTelegram@@PAX@std@@@std@@@std@@SAIABV?$allocator@U?$_Tree_node@UTelegram@@PAX@std@@@2@@Z ; std::_Default_allocator_traits<std::allocator<std::_Tree_node<Telegram,void *> > >::max_size
PUBLIC	??0?$_Tree@V?$_Tset_traits@UTelegram@@U?$less@UTelegram@@@std@@V?$allocator@UTelegram@@@3@$0A@@std@@@std@@QAE@ABU?$less@UTelegram@@@1@@Z ; std::_Tree<std::_Tset_traits<Telegram,std::less<Telegram>,std::allocator<Telegram>,0> >::_Tree<std::_Tset_traits<Telegram,std::less<Telegram>,std::allocator<Telegram>,0> >
PUBLIC	??1?$_Tree@V?$_Tset_traits@UTelegram@@U?$less@UTelegram@@@std@@V?$allocator@UTelegram@@@3@$0A@@std@@@std@@QAE@XZ ; std::_Tree<std::_Tset_traits<Telegram,std::less<Telegram>,std::allocator<Telegram>,0> >::~_Tree<std::_Tset_traits<Telegram,std::less<Telegram>,std::allocator<Telegram>,0> >
PUBLIC	?begin@?$_Tree@V?$_Tset_traits@UTelegram@@U?$less@UTelegram@@@std@@V?$allocator@UTelegram@@@3@$0A@@std@@@std@@QAE?AV?$_Tree_const_iterator@V?$_Tree_val@U?$_Tree_simple_types@UTelegram@@@std@@@std@@@2@XZ ; std::_Tree<std::_Tset_traits<Telegram,std::less<Telegram>,std::allocator<Telegram>,0> >::begin
PUBLIC	?max_size@?$_Tree@V?$_Tset_traits@UTelegram@@U?$less@UTelegram@@@std@@V?$allocator@UTelegram@@@3@$0A@@std@@@std@@QBEIXZ ; std::_Tree<std::_Tset_traits<Telegram,std::less<Telegram>,std::allocator<Telegram>,0> >::max_size
PUBLIC	?empty@?$_Tree@V?$_Tset_traits@UTelegram@@U?$less@UTelegram@@@std@@V?$allocator@UTelegram@@@3@$0A@@std@@@std@@QBE_NXZ ; std::_Tree<std::_Tset_traits<Telegram,std::less<Telegram>,std::allocator<Telegram>,0> >::empty
PUBLIC	?_Erase_unchecked@?$_Tree@V?$_Tset_traits@UTelegram@@U?$less@UTelegram@@@std@@V?$allocator@UTelegram@@@3@$0A@@std@@@std@@AAEPAU?$_Tree_node@UTelegram@@PAX@2@V?$_Tree_unchecked_const_iterator@V?$_Tree_val@U?$_Tree_simple_types@UTelegram@@@std@@@std@@U_Iterator_base0@2@@2@@Z ; std::_Tree<std::_Tset_traits<Telegram,std::less<Telegram>,std::allocator<Telegram>,0> >::_Erase_unchecked
PUBLIC	?erase@?$_Tree@V?$_Tset_traits@UTelegram@@U?$less@UTelegram@@@std@@V?$allocator@UTelegram@@@3@$0A@@std@@@std@@QAE?AV?$_Tree_const_iterator@V?$_Tree_val@U?$_Tree_simple_types@UTelegram@@@std@@@std@@@2@V32@@Z ; std::_Tree<std::_Tset_traits<Telegram,std::less<Telegram>,std::allocator<Telegram>,0> >::erase
PUBLIC	?_Check_grow_by_1@?$_Tree@V?$_Tset_traits@UTelegram@@U?$less@UTelegram@@@std@@V?$allocator@UTelegram@@@3@$0A@@std@@@std@@IAEXXZ ; std::_Tree<std::_Tset_traits<Telegram,std::less<Telegram>,std::allocator<Telegram>,0> >::_Check_grow_by_1
PUBLIC	?_Alloc_sentinel_and_proxy@?$_Tree@V?$_Tset_traits@UTelegram@@U?$less@UTelegram@@@std@@V?$allocator@UTelegram@@@3@$0A@@std@@@std@@IAEXXZ ; std::_Tree<std::_Tset_traits<Telegram,std::less<Telegram>,std::allocator<Telegram>,0> >::_Alloc_sentinel_and_proxy
PUBLIC	?_Getcomp@?$_Tree@V?$_Tset_traits@UTelegram@@U?$less@UTelegram@@@std@@V?$allocator@UTelegram@@@3@$0A@@std@@@std@@IBEABU?$less@UTelegram@@@2@XZ ; std::_Tree<std::_Tset_traits<Telegram,std::less<Telegram>,std::allocator<Telegram>,0> >::_Getcomp
PUBLIC	?_Getal@?$_Tree@V?$_Tset_traits@UTelegram@@U?$less@UTelegram@@@std@@V?$allocator@UTelegram@@@3@$0A@@std@@@std@@IAEAAV?$allocator@U?$_Tree_node@UTelegram@@PAX@std@@@2@XZ ; std::_Tree<std::_Tset_traits<Telegram,std::less<Telegram>,std::allocator<Telegram>,0> >::_Getal
PUBLIC	?_Getal@?$_Tree@V?$_Tset_traits@UTelegram@@U?$less@UTelegram@@@std@@V?$allocator@UTelegram@@@3@$0A@@std@@@std@@IBEABV?$allocator@U?$_Tree_node@UTelegram@@PAX@std@@@2@XZ ; std::_Tree<std::_Tset_traits<Telegram,std::less<Telegram>,std::allocator<Telegram>,0> >::_Getal
PUBLIC	?_Get_scary@?$_Tree@V?$_Tset_traits@UTelegram@@U?$less@UTelegram@@@std@@V?$allocator@UTelegram@@@3@$0A@@std@@@std@@IAEPAV?$_Tree_val@U?$_Tree_simple_types@UTelegram@@@std@@@2@XZ ; std::_Tree<std::_Tset_traits<Telegram,std::less<Telegram>,std::allocator<Telegram>,0> >::_Get_scary
PUBLIC	?_Get_scary@?$_Tree@V?$_Tset_traits@UTelegram@@U?$less@UTelegram@@@std@@V?$allocator@UTelegram@@@3@$0A@@std@@@std@@IBEPBV?$_Tree_val@U?$_Tree_simple_types@UTelegram@@@std@@@2@XZ ; std::_Tree<std::_Tset_traits<Telegram,std::less<Telegram>,std::allocator<Telegram>,0> >::_Get_scary
PUBLIC	??R?$less@UTelegram@@@std@@QBE_NABUTelegram@@0@Z ; std::less<Telegram>::operator()
PUBLIC	??0?$_Tree_val@U?$_Tree_simple_types@UTelegram@@@std@@@std@@QAE@XZ ; std::_Tree_val<std::_Tree_simple_types<Telegram> >::_Tree_val<std::_Tree_simple_types<Telegram> >
PUBLIC	?_Max@?$_Tree_val@U?$_Tree_simple_types@UTelegram@@@std@@@std@@SAPAU?$_Tree_node@UTelegram@@PAX@2@PAU32@@Z ; std::_Tree_val<std::_Tree_simple_types<Telegram> >::_Max
PUBLIC	?_Min@?$_Tree_val@U?$_Tree_simple_types@UTelegram@@@std@@@std@@SAPAU?$_Tree_node@UTelegram@@PAX@2@PAU32@@Z ; std::_Tree_val<std::_Tree_simple_types<Telegram> >::_Min
PUBLIC	?_Lrotate@?$_Tree_val@U?$_Tree_simple_types@UTelegram@@@std@@@std@@QAEXPAU?$_Tree_node@UTelegram@@PAX@2@@Z ; std::_Tree_val<std::_Tree_simple_types<Telegram> >::_Lrotate
PUBLIC	?_Rrotate@?$_Tree_val@U?$_Tree_simple_types@UTelegram@@@std@@@std@@QAEXPAU?$_Tree_node@UTelegram@@PAX@2@@Z ; std::_Tree_val<std::_Tree_simple_types<Telegram> >::_Rrotate
PUBLIC	?_Extract@?$_Tree_val@U?$_Tree_simple_types@UTelegram@@@std@@@std@@QAEPAU?$_Tree_node@UTelegram@@PAX@2@V?$_Tree_unchecked_const_iterator@V?$_Tree_val@U?$_Tree_simple_types@UTelegram@@@std@@@std@@U_Iterator_base0@2@@2@@Z ; std::_Tree_val<std::_Tree_simple_types<Telegram> >::_Extract
PUBLIC	?_Insert_node@?$_Tree_val@U?$_Tree_simple_types@UTelegram@@@std@@@std@@QAEPAU?$_Tree_node@UTelegram@@PAX@2@U?$_Tree_id@PAU?$_Tree_node@UTelegram@@PAX@std@@@2@QAU32@@Z ; std::_Tree_val<std::_Tree_simple_types<Telegram> >::_Insert_node
PUBLIC	?_Orphan_ptr@?$_Tree_val@U?$_Tree_simple_types@UTelegram@@@std@@@std@@QAEXQAU?$_Tree_node@UTelegram@@PAX@2@@Z ; std::_Tree_val<std::_Tree_simple_types<Telegram> >::_Orphan_ptr
PUBLIC	?_Get_first@?$_Compressed_pair@V?$allocator@U?$_Tree_node@UTelegram@@PAX@std@@@std@@V?$_Tree_val@U?$_Tree_simple_types@UTelegram@@@std@@@2@$00@std@@QAEAAV?$allocator@U?$_Tree_node@UTelegram@@PAX@std@@@2@XZ ; std::_Compressed_pair<std::allocator<std::_Tree_node<Telegram,void *> >,std::_Tree_val<std::_Tree_simple_types<Telegram> >,1>::_Get_first
PUBLIC	?_Get_first@?$_Compressed_pair@V?$allocator@U?$_Tree_node@UTelegram@@PAX@std@@@std@@V?$_Tree_val@U?$_Tree_simple_types@UTelegram@@@std@@@2@$00@std@@QBEABV?$allocator@U?$_Tree_node@UTelegram@@PAX@std@@@2@XZ ; std::_Compressed_pair<std::allocator<std::_Tree_node<Telegram,void *> >,std::_Tree_val<std::_Tree_simple_types<Telegram> >,1>::_Get_first
PUBLIC	?_Get_first@?$_Compressed_pair@U?$less@UTelegram@@@std@@V?$_Compressed_pair@V?$allocator@U?$_Tree_node@UTelegram@@PAX@std@@@std@@V?$_Tree_val@U?$_Tree_simple_types@UTelegram@@@std@@@2@$00@2@$00@std@@QBEABU?$less@UTelegram@@@2@XZ ; std::_Compressed_pair<std::less<Telegram>,std::_Compressed_pair<std::allocator<std::_Tree_node<Telegram,void *> >,std::_Tree_val<std::_Tree_simple_types<Telegram> >,1>,1>::_Get_first
PUBLIC	??0?$set@UTelegram@@U?$less@UTelegram@@@std@@V?$allocator@UTelegram@@@3@@std@@QAE@XZ ; std::set<Telegram,std::less<Telegram>,std::allocator<Telegram> >::set<Telegram,std::less<Telegram>,std::allocator<Telegram> >
PUBLIC	??1?$set@UTelegram@@U?$less@UTelegram@@@std@@V?$allocator@UTelegram@@@3@@std@@QAE@XZ ; std::set<Telegram,std::less<Telegram>,std::allocator<Telegram> >::~set<Telegram,std::less<Telegram>,std::allocator<Telegram> >
PUBLIC	?Discharge@MessageDispatcher@@AAEXPAVBaseGameEntity@@ABUTelegram@@@Z ; MessageDispatcher::Discharge
PUBLIC	??0MessageDispatcher@@AAE@XZ			; MessageDispatcher::MessageDispatcher
PUBLIC	?Instance@MessageDispatcher@@SAPAV1@XZ		; MessageDispatcher::Instance
PUBLIC	?DispatchMsg@MessageDispatcher@@QAEXNHHHPAX@Z	; MessageDispatcher::DispatchMsg
PUBLIC	?DispatchDelayedMessages@MessageDispatcher@@QAEXXZ ; MessageDispatcher::DispatchDelayedMessages
PUBLIC	??1MessageDispatcher@@QAE@XZ			; MessageDispatcher::~MessageDispatcher
PUBLIC	?GetCurrentFrame@FrameCounter@@QAEJXZ		; FrameCounter::GetCurrentFrame
PUBLIC	??$insert@$0A@$0A@@?$_Tree@V?$_Tset_traits@UTelegram@@U?$less@UTelegram@@@std@@V?$allocator@UTelegram@@@3@$0A@@std@@@std@@QAE?AU?$pair@V?$_Tree_const_iterator@V?$_Tree_val@U?$_Tree_simple_types@UTelegram@@@std@@@std@@@std@@_N@1@ABUTelegram@@@Z ; std::_Tree<std::_Tset_traits<Telegram,std::less<Telegram>,std::allocator<Telegram>,0> >::insert<0,0>
PUBLIC	??0?$_Tree_unchecked_const_iterator@V?$_Tree_val@U?$_Tree_simple_types@UTelegram@@@std@@@std@@U_Iterator_base12@2@@std@@QAE@PAU?$_Tree_node@UTelegram@@PAX@1@PBV?$_Tree_val@U?$_Tree_simple_types@UTelegram@@@std@@@1@@Z ; std::_Tree_unchecked_const_iterator<std::_Tree_val<std::_Tree_simple_types<Telegram> >,std::_Iterator_base12>::_Tree_unchecked_const_iterator<std::_Tree_val<std::_Tree_simple_types<Telegram> >,std::_Iterator_base12>
PUBLIC	??1?$_Tree_unchecked_const_iterator@V?$_Tree_val@U?$_Tree_simple_types@UTelegram@@@std@@@std@@U_Iterator_base12@2@@std@@QAE@XZ ; std::_Tree_unchecked_const_iterator<std::_Tree_val<std::_Tree_simple_types<Telegram> >,std::_Iterator_base12>::~_Tree_unchecked_const_iterator<std::_Tree_val<std::_Tree_simple_types<Telegram> >,std::_Iterator_base12>
PUBLIC	??0?$_Tree_unchecked_const_iterator@V?$_Tree_val@U?$_Tree_simple_types@UTelegram@@@std@@@std@@U_Iterator_base12@2@@std@@QAE@$$QAV01@@Z ; std::_Tree_unchecked_const_iterator<std::_Tree_val<std::_Tree_simple_types<Telegram> >,std::_Iterator_base12>::_Tree_unchecked_const_iterator<std::_Tree_val<std::_Tree_simple_types<Telegram> >,std::_Iterator_base12>
PUBLIC	??D?$_Tree_const_iterator@V?$_Tree_val@U?$_Tree_simple_types@UTelegram@@@std@@@std@@@std@@QBEABUTelegram@@XZ ; std::_Tree_const_iterator<std::_Tree_val<std::_Tree_simple_types<Telegram> > >::operator*
PUBLIC	??C?$_Tree_const_iterator@V?$_Tree_val@U?$_Tree_simple_types@UTelegram@@@std@@@std@@@std@@QBEPBUTelegram@@XZ ; std::_Tree_const_iterator<std::_Tree_val<std::_Tree_simple_types<Telegram> > >::operator->
PUBLIC	?_Unwrapped@?$_Tree_const_iterator@V?$_Tree_val@U?$_Tree_simple_types@UTelegram@@@std@@@std@@@std@@QBE?AV?$_Tree_unchecked_const_iterator@V?$_Tree_val@U?$_Tree_simple_types@UTelegram@@@std@@@std@@U_Iterator_base0@2@@2@XZ ; std::_Tree_const_iterator<std::_Tree_val<std::_Tree_simple_types<Telegram> > >::_Unwrapped
PUBLIC	??1?$_Tree_const_iterator@V?$_Tree_val@U?$_Tree_simple_types@UTelegram@@@std@@@std@@@std@@QAE@XZ ; std::_Tree_const_iterator<std::_Tree_val<std::_Tree_simple_types<Telegram> > >::~_Tree_const_iterator<std::_Tree_val<std::_Tree_simple_types<Telegram> > >
PUBLIC	??0?$_Tree_const_iterator@V?$_Tree_val@U?$_Tree_simple_types@UTelegram@@@std@@@std@@@std@@QAE@$$QAV01@@Z ; std::_Tree_const_iterator<std::_Tree_val<std::_Tree_simple_types<Telegram> > >::_Tree_const_iterator<std::_Tree_val<std::_Tree_simple_types<Telegram> > >
PUBLIC	??0?$_Tree_const_iterator@V?$_Tree_val@U?$_Tree_simple_types@UTelegram@@@std@@@std@@@std@@QAE@PAU?$_Tree_node@UTelegram@@PAX@1@PBV?$_Tree_val@U?$_Tree_simple_types@UTelegram@@@std@@@1@@Z ; std::_Tree_const_iterator<std::_Tree_val<std::_Tree_simple_types<Telegram> > >::_Tree_const_iterator<std::_Tree_val<std::_Tree_simple_types<Telegram> > >
PUBLIC	??1?$pair@V?$_Tree_const_iterator@V?$_Tree_val@U?$_Tree_simple_types@UTelegram@@@std@@@std@@@std@@_N@std@@QAE@XZ ; std::pair<std::_Tree_const_iterator<std::_Tree_val<std::_Tree_simple_types<Telegram> > >,bool>::~pair<std::_Tree_const_iterator<std::_Tree_val<std::_Tree_simple_types<Telegram> > >,bool>
PUBLIC	?pointer_to@?$pointer_traits@PBUTelegram@@@std@@SAPBUTelegram@@ABU3@@Z ; std::pointer_traits<Telegram const *>::pointer_to
PUBLIC	?allocate@?$allocator@U_Container_proxy@std@@@std@@QAEPAU_Container_proxy@2@I@Z ; std::allocator<std::_Container_proxy>::allocate
PUBLIC	??$_Delete_plain_internal@V?$allocator@U_Container_proxy@std@@@std@@@std@@YAXAAV?$allocator@U_Container_proxy@std@@@0@QAU_Container_proxy@0@@Z ; std::_Delete_plain_internal<std::allocator<std::_Container_proxy> >
PUBLIC	??0?$_Tree_unchecked_const_iterator@V?$_Tree_val@U?$_Tree_simple_types@UTelegram@@@std@@@std@@U_Iterator_base0@2@@std@@QAE@PAU?$_Tree_node@UTelegram@@PAX@1@PBV?$_Tree_val@U?$_Tree_simple_types@UTelegram@@@std@@@1@@Z ; std::_Tree_unchecked_const_iterator<std::_Tree_val<std::_Tree_simple_types<Telegram> >,std::_Iterator_base0>::_Tree_unchecked_const_iterator<std::_Tree_val<std::_Tree_simple_types<Telegram> >,std::_Iterator_base0>
PUBLIC	??E?$_Tree_unchecked_const_iterator@V?$_Tree_val@U?$_Tree_simple_types@UTelegram@@@std@@@std@@U_Iterator_base0@2@@std@@QAEAAV01@XZ ; std::_Tree_unchecked_const_iterator<std::_Tree_val<std::_Tree_simple_types<Telegram> >,std::_Iterator_base0>::operator++
PUBLIC	??$_Erase_head@V?$allocator@U?$_Tree_node@UTelegram@@PAX@std@@@std@@@?$_Tree_val@U?$_Tree_simple_types@UTelegram@@@std@@@std@@QAEXAAV?$allocator@U?$_Tree_node@UTelegram@@PAX@std@@@1@@Z ; std::_Tree_val<std::_Tree_simple_types<Telegram> >::_Erase_head<std::allocator<std::_Tree_node<Telegram,void *> > >
PUBLIC	??$?0U?$_Tree_node@UTelegram@@PAX@std@@@?$allocator@U_Container_proxy@std@@@std@@QAE@ABV?$allocator@U?$_Tree_node@UTelegram@@PAX@std@@@1@@Z ; std::allocator<std::_Container_proxy>::allocator<std::_Container_proxy><std::_Tree_node<Telegram,void *> >
PUBLIC	??0?$_Container_proxy_ptr12@V?$allocator@U_Container_proxy@std@@@std@@@std@@QAE@AAV?$allocator@U_Container_proxy@std@@@1@AAU_Container_base12@1@@Z ; std::_Container_proxy_ptr12<std::allocator<std::_Container_proxy> >::_Container_proxy_ptr12<std::allocator<std::_Container_proxy> >
PUBLIC	??1?$_Container_proxy_ptr12@V?$allocator@U_Container_proxy@std@@@std@@@std@@QAE@XZ ; std::_Container_proxy_ptr12<std::allocator<std::_Container_proxy> >::~_Container_proxy_ptr12<std::allocator<std::_Container_proxy> >
PUBLIC	??$_Unfancy@U_Container_proxy@std@@@std@@YAPAU_Container_proxy@0@PAU10@@Z ; std::_Unfancy<std::_Container_proxy>
PUBLIC	??$addressof@U_Container_base12@std@@@std@@YAPAU_Container_base12@0@AAU10@@Z ; std::addressof<std::_Container_base12>
PUBLIC	??$_Construct_in_place@U_Container_proxy@std@@PAU_Container_base12@2@@std@@YAXAAU_Container_proxy@0@$$QAPAU_Container_base12@0@@Z ; std::_Construct_in_place<std::_Container_proxy,std::_Container_base12 *>
PUBLIC	??$addressof@$$CBUTelegram@@@std@@YAPBUTelegram@@ABU1@@Z ; std::addressof<Telegram const >
PUBLIC	??$addressof@$$CBV?$_Tree_val@U?$_Tree_simple_types@UTelegram@@@std@@@std@@@std@@YAPBV?$_Tree_val@U?$_Tree_simple_types@UTelegram@@@std@@@0@ABV10@@Z ; std::addressof<std::_Tree_val<std::_Tree_simple_types<Telegram> > const >
PUBLIC	??$addressof@V?$_Tree_val@U?$_Tree_simple_types@UTelegram@@@std@@@std@@@std@@YAPAV?$_Tree_val@U?$_Tree_simple_types@UTelegram@@@std@@@0@AAV10@@Z ; std::addressof<std::_Tree_val<std::_Tree_simple_types<Telegram> > >
PUBLIC	??$_Freenode@V?$allocator@U?$_Tree_node@UTelegram@@PAX@std@@@std@@@?$_Tree_node@UTelegram@@PAX@std@@SAXAAV?$allocator@U?$_Tree_node@UTelegram@@PAX@std@@@1@PAU01@@Z ; std::_Tree_node<Telegram,void *>::_Freenode<std::allocator<std::_Tree_node<Telegram,void *> > >
PUBLIC	??$?0ABU?$less@UTelegram@@@std@@U_Zero_then_variadic_args_t@1@@?$_Compressed_pair@U?$less@UTelegram@@@std@@V?$_Compressed_pair@V?$allocator@U?$_Tree_node@UTelegram@@PAX@std@@@std@@V?$_Tree_val@U?$_Tree_simple_types@UTelegram@@@std@@@2@$00@2@$00@std@@QAE@U_One_then_variadic_args_t@1@ABU?$less@UTelegram@@@1@$$QAU_Zero_then_variadic_args_t@1@@Z ; std::_Compressed_pair<std::less<Telegram>,std::_Compressed_pair<std::allocator<std::_Tree_node<Telegram,void *> >,std::_Tree_val<std::_Tree_simple_types<Telegram> >,1>,1>::_Compressed_pair<std::less<Telegram>,std::_Compressed_pair<std::allocator<std::_Tree_node<Telegram,void *> >,std::_Tree_val<std::_Tree_simple_types<Telegram> >,1>,1><std::less<Telegram> const &,std::_Zero_then_variadic_args_t>
PUBLIC	??$?0$$V@?$_Compressed_pair@V?$allocator@U?$_Tree_node@UTelegram@@PAX@std@@@std@@V?$_Tree_val@U?$_Tree_simple_types@UTelegram@@@std@@@2@$00@std@@QAE@U_Zero_then_variadic_args_t@1@@Z ; std::_Compressed_pair<std::allocator<std::_Tree_node<Telegram,void *> >,std::_Tree_val<std::_Tree_simple_types<Telegram> >,1>::_Compressed_pair<std::allocator<std::_Tree_node<Telegram,void *> >,std::_Tree_val<std::_Tree_simple_types<Telegram> >,1><>
PUBLIC	??$min@I@std@@YAABIABI0@Z			; std::min<unsigned int>
PUBLIC	??$_Get_size_of_n@$07@std@@YAII@Z		; std::_Get_size_of_n<8>
PUBLIC	??$_Allocate@$07U_Default_allocate_traits@std@@$0A@@std@@YAPAXI@Z ; std::_Allocate<8,std::_Default_allocate_traits,0>
PUBLIC	??$_Deallocate@$07$0A@@std@@YAXPAXI@Z		; std::_Deallocate<8,0>
PUBLIC	??$swap@D$0A@@std@@YAXAAD0@Z			; std::swap<char,0>
PUBLIC	??$_Buyheadnode@V?$allocator@U?$_Tree_node@UTelegram@@PAX@std@@@std@@@?$_Tree_node@UTelegram@@PAX@std@@SAPAU01@AAV?$allocator@U?$_Tree_node@UTelegram@@PAX@std@@@1@@Z ; std::_Tree_node<Telegram,void *>::_Buyheadnode<std::allocator<std::_Tree_node<Telegram,void *> > >
PUBLIC	??$_Emplace@ABUTelegram@@@?$_Tree@V?$_Tset_traits@UTelegram@@U?$less@UTelegram@@@std@@V?$allocator@UTelegram@@@3@$0A@@std@@@std@@IAE?AU?$pair@PAU?$_Tree_node@UTelegram@@PAX@std@@_N@1@ABUTelegram@@@Z ; std::_Tree<std::_Tset_traits<Telegram,std::less<Telegram>,std::allocator<Telegram>,0> >::_Emplace<Telegram const &>
PUBLIC	??$?0V?$_Tree_const_iterator@V?$_Tree_val@U?$_Tree_simple_types@UTelegram@@@std@@@std@@@std@@AB_N$0A@@?$pair@V?$_Tree_const_iterator@V?$_Tree_val@U?$_Tree_simple_types@UTelegram@@@std@@@std@@@std@@_N@std@@QAE@$$QAV?$_Tree_const_iterator@V?$_Tree_val@U?$_Tree_simple_types@UTelegram@@@std@@@std@@@1@AB_N@Z ; std::pair<std::_Tree_const_iterator<std::_Tree_val<std::_Tree_simple_types<Telegram> > >,bool>::pair<std::_Tree_const_iterator<std::_Tree_val<std::_Tree_simple_types<Telegram> > >,bool><std::_Tree_const_iterator<std::_Tree_val<std::_Tree_simple_types<Telegram> > >,bool const &,0>
PUBLIC	??$_Deallocate_plain@V?$allocator@U_Container_proxy@std@@@std@@@std@@YAXAAV?$allocator@U_Container_proxy@std@@@0@QAU_Container_proxy@0@@Z ; std::_Deallocate_plain<std::allocator<std::_Container_proxy> >
PUBLIC	??$_Erase_tree@V?$allocator@U?$_Tree_node@UTelegram@@PAX@std@@@std@@@?$_Tree_val@U?$_Tree_simple_types@UTelegram@@@std@@@std@@QAEXAAV?$allocator@U?$_Tree_node@UTelegram@@PAX@std@@@1@PAU?$_Tree_node@UTelegram@@PAX@1@@Z ; std::_Tree_val<std::_Tree_simple_types<Telegram> >::_Erase_tree<std::allocator<std::_Tree_node<Telegram,void *> > >
PUBLIC	??$_Freenode0@V?$allocator@U?$_Tree_node@UTelegram@@PAX@std@@@std@@@?$_Tree_node@UTelegram@@PAX@std@@SAXAAV?$allocator@U?$_Tree_node@UTelegram@@PAX@std@@@1@PAU01@@Z ; std::_Tree_node<Telegram,void *>::_Freenode0<std::allocator<std::_Tree_node<Telegram,void *> > >
PUBLIC	??$addressof@U_Container_proxy@std@@@std@@YAPAU_Container_proxy@0@AAU10@@Z ; std::addressof<std::_Container_proxy>
PUBLIC	??$_Voidify_iter@PAU_Container_proxy@std@@@std@@YAPAXPAU_Container_proxy@0@@Z ; std::_Voidify_iter<std::_Container_proxy *>
PUBLIC	??$forward@PAU_Container_base12@std@@@std@@YA$$QAPAU_Container_base12@0@AAPAU10@@Z ; std::forward<std::_Container_base12 *>
PUBLIC	??$forward@U_Zero_then_variadic_args_t@std@@@std@@YA$$QAU_Zero_then_variadic_args_t@0@AAU10@@Z ; std::forward<std::_Zero_then_variadic_args_t>
PUBLIC	??$addressof@UTelegram@@@std@@YAPAUTelegram@@AAU1@@Z ; std::addressof<Telegram>
PUBLIC	??$destroy@UTelegram@@@?$_Default_allocator_traits@V?$allocator@U?$_Tree_node@UTelegram@@PAX@std@@@std@@@std@@SAXAAV?$allocator@U?$_Tree_node@UTelegram@@PAX@std@@@1@QAUTelegram@@@Z ; std::_Default_allocator_traits<std::allocator<std::_Tree_node<Telegram,void *> > >::destroy<Telegram>
PUBLIC	??$forward@ABU?$less@UTelegram@@@std@@@std@@YAABU?$less@UTelegram@@@0@ABU10@@Z ; std::forward<std::less<Telegram> const &>
PUBLIC	??$_Allocate_manually_vector_aligned@U_Default_allocate_traits@std@@@std@@YAPAXI@Z ; std::_Allocate_manually_vector_aligned<std::_Default_allocate_traits>
PUBLIC	??$move@AAD@std@@YA$$QADAAD@Z			; std::move<char &>
PUBLIC	??$_Construct_in_place@PAU?$_Tree_node@UTelegram@@PAX@std@@ABQAU12@@std@@YAXAAPAU?$_Tree_node@UTelegram@@PAX@0@ABQAU10@@Z ; std::_Construct_in_place<std::_Tree_node<Telegram,void *> *,std::_Tree_node<Telegram,void *> * const &>
PUBLIC	??$_Get_size_of_n@$0DA@@std@@YAII@Z		; std::_Get_size_of_n<48>
PUBLIC	?_Extract@?$_In_place_key_extract_set@UTelegram@@U1@@std@@SAABUTelegram@@ABU3@@Z ; std::_In_place_key_extract_set<Telegram,Telegram>::_Extract
PUBLIC	??$_Find_lower_bound@UTelegram@@@?$_Tree@V?$_Tset_traits@UTelegram@@U?$less@UTelegram@@@std@@V?$allocator@UTelegram@@@3@$0A@@std@@@std@@IBE?AU?$_Tree_find_result@PAU?$_Tree_node@UTelegram@@PAX@std@@@1@ABUTelegram@@@Z ; std::_Tree<std::_Tset_traits<Telegram,std::less<Telegram>,std::allocator<Telegram>,0> >::_Find_lower_bound<Telegram>
PUBLIC	??$_Lower_bound_duplicate@UTelegram@@@?$_Tree@V?$_Tset_traits@UTelegram@@U?$less@UTelegram@@@std@@V?$allocator@UTelegram@@@3@$0A@@std@@@std@@IBE_NQAU?$_Tree_node@UTelegram@@PAX@1@ABUTelegram@@@Z ; std::_Tree<std::_Tset_traits<Telegram,std::less<Telegram>,std::allocator<Telegram>,0> >::_Lower_bound_duplicate<Telegram>
PUBLIC	??$?0AAPAU?$_Tree_node@UTelegram@@PAX@std@@_N$0A@@?$pair@PAU?$_Tree_node@UTelegram@@PAX@std@@_N@std@@QAE@AAPAU?$_Tree_node@UTelegram@@PAX@1@$$QA_N@Z ; std::pair<std::_Tree_node<Telegram,void *> *,bool>::pair<std::_Tree_node<Telegram,void *> *,bool><std::_Tree_node<Telegram,void *> * &,bool,0>
PUBLIC	??$forward@ABUTelegram@@@std@@YAABUTelegram@@ABU1@@Z ; std::forward<Telegram const &>
PUBLIC	??0?$_Alloc_construct_ptr@V?$allocator@U?$_Tree_node@UTelegram@@PAX@std@@@std@@@std@@QAE@AAV?$allocator@U?$_Tree_node@UTelegram@@PAX@std@@@1@@Z ; std::_Alloc_construct_ptr<std::allocator<std::_Tree_node<Telegram,void *> > >::_Alloc_construct_ptr<std::allocator<std::_Tree_node<Telegram,void *> > >
PUBLIC	?_Release@?$_Alloc_construct_ptr@V?$allocator@U?$_Tree_node@UTelegram@@PAX@std@@@std@@@std@@QAEPAU?$_Tree_node@UTelegram@@PAX@2@XZ ; std::_Alloc_construct_ptr<std::allocator<std::_Tree_node<Telegram,void *> > >::_Release
PUBLIC	?_Allocate@?$_Alloc_construct_ptr@V?$allocator@U?$_Tree_node@UTelegram@@PAX@std@@@std@@@std@@QAEXXZ ; std::_Alloc_construct_ptr<std::allocator<std::_Tree_node<Telegram,void *> > >::_Allocate
PUBLIC	??1?$_Alloc_construct_ptr@V?$allocator@U?$_Tree_node@UTelegram@@PAX@std@@@std@@@std@@QAE@XZ ; std::_Alloc_construct_ptr<std::allocator<std::_Tree_node<Telegram,void *> > >::~_Alloc_construct_ptr<std::allocator<std::_Tree_node<Telegram,void *> > >
PUBLIC	??0?$_Tree_temp_node_alloc@V?$allocator@U?$_Tree_node@UTelegram@@PAX@std@@@std@@@std@@QAE@AAV?$allocator@U?$_Tree_node@UTelegram@@PAX@std@@@1@@Z ; std::_Tree_temp_node_alloc<std::allocator<std::_Tree_node<Telegram,void *> > >::_Tree_temp_node_alloc<std::allocator<std::_Tree_node<Telegram,void *> > >
PUBLIC	??1?$_Tree_temp_node_alloc@V?$allocator@U?$_Tree_node@UTelegram@@PAX@std@@@std@@@std@@QAE@XZ ; std::_Tree_temp_node_alloc<std::allocator<std::_Tree_node<Telegram,void *> > >::~_Tree_temp_node_alloc<std::allocator<std::_Tree_node<Telegram,void *> > >
PUBLIC	??1?$_Tree_temp_node@V?$allocator@U?$_Tree_node@UTelegram@@PAX@std@@@std@@@std@@QAE@XZ ; std::_Tree_temp_node<std::allocator<std::_Tree_node<Telegram,void *> > >::~_Tree_temp_node<std::allocator<std::_Tree_node<Telegram,void *> > >
PUBLIC	??$?0ABUTelegram@@@?$_Tree_temp_node@V?$allocator@U?$_Tree_node@UTelegram@@PAX@std@@@std@@@std@@QAE@AAV?$allocator@U?$_Tree_node@UTelegram@@PAX@std@@@1@PAU?$_Tree_node@UTelegram@@PAX@1@ABUTelegram@@@Z ; std::_Tree_temp_node<std::allocator<std::_Tree_node<Telegram,void *> > >::_Tree_temp_node<std::allocator<std::_Tree_node<Telegram,void *> > ><Telegram const &>
PUBLIC	??$?0PAU?$_Tree_node@UTelegram@@PAX@std@@_N$0A@@?$pair@PAU?$_Tree_node@UTelegram@@PAX@std@@_N@std@@QAE@$$QAPAU?$_Tree_node@UTelegram@@PAX@1@$$QA_N@Z ; std::pair<std::_Tree_node<Telegram,void *> *,bool>::pair<std::_Tree_node<Telegram,void *> *,bool><std::_Tree_node<Telegram,void *> *,bool,0>
PUBLIC	??$forward@V?$_Tree_const_iterator@V?$_Tree_val@U?$_Tree_simple_types@UTelegram@@@std@@@std@@@std@@@std@@YA$$QAV?$_Tree_const_iterator@V?$_Tree_val@U?$_Tree_simple_types@UTelegram@@@std@@@std@@@0@AAV10@@Z ; std::forward<std::_Tree_const_iterator<std::_Tree_val<std::_Tree_simple_types<Telegram> > > >
PUBLIC	??$forward@AB_N@std@@YAAB_NAB_N@Z		; std::forward<bool const &>
PUBLIC	?deallocate@?$_Default_allocator_traits@V?$allocator@U_Container_proxy@std@@@std@@@std@@SAXAAV?$allocator@U_Container_proxy@std@@@2@QAU_Container_proxy@2@I@Z ; std::_Default_allocator_traits<std::allocator<std::_Container_proxy> >::deallocate
PUBLIC	??$exchange@PAU?$_Tree_node@UTelegram@@PAX@std@@AAPAU12@@std@@YAPAU?$_Tree_node@UTelegram@@PAX@0@AAPAU10@0@Z ; std::exchange<std::_Tree_node<Telegram,void *> *,std::_Tree_node<Telegram,void *> * &>
PUBLIC	??$_Destroy_in_place@PAU?$_Tree_node@UTelegram@@PAX@std@@@std@@YAXAAPAU?$_Tree_node@UTelegram@@PAX@0@@Z ; std::_Destroy_in_place<std::_Tree_node<Telegram,void *> *>
PUBLIC	??$addressof@PAU?$_Tree_node@UTelegram@@PAX@std@@@std@@YAPAPAU?$_Tree_node@UTelegram@@PAX@0@AAPAU10@@Z ; std::addressof<std::_Tree_node<Telegram,void *> *>
PUBLIC	??$_Voidify_iter@PAPAU?$_Tree_node@UTelegram@@PAX@std@@@std@@YAPAXPAPAU?$_Tree_node@UTelegram@@PAX@0@@Z ; std::_Voidify_iter<std::_Tree_node<Telegram,void *> * *>
PUBLIC	??$forward@ABQAU?$_Tree_node@UTelegram@@PAX@std@@@std@@YAABQAU?$_Tree_node@UTelegram@@PAX@0@ABQAU10@@Z ; std::forward<std::_Tree_node<Telegram,void *> * const &>
PUBLIC	??$exchange@PAU?$_Tree_node@UTelegram@@PAX@std@@$$T@std@@YAPAU?$_Tree_node@UTelegram@@PAX@0@AAPAU10@$$QA$$T@Z ; std::exchange<std::_Tree_node<Telegram,void *> *,std::nullptr_t>
PUBLIC	??$_Debug_lt_pred@ABU?$less@UTelegram@@@std@@ABUTelegram@@ABU3@$0A@@std@@YA_NABU?$less@UTelegram@@@0@ABUTelegram@@1@Z ; std::_Debug_lt_pred<std::less<Telegram> const &,Telegram const &,Telegram const &,0>
PUBLIC	??$forward@AAPAU?$_Tree_node@UTelegram@@PAX@std@@@std@@YAAAPAU?$_Tree_node@UTelegram@@PAX@0@AAPAU10@@Z ; std::forward<std::_Tree_node<Telegram,void *> * &>
PUBLIC	??$forward@_N@std@@YA$$QA_NAA_N@Z		; std::forward<bool>
PUBLIC	??$construct@UTelegram@@ABU1@@?$_Default_allocator_traits@V?$allocator@U?$_Tree_node@UTelegram@@PAX@std@@@std@@@std@@SAXAAV?$allocator@U?$_Tree_node@UTelegram@@PAX@std@@@1@QAUTelegram@@ABU3@@Z ; std::_Default_allocator_traits<std::allocator<std::_Tree_node<Telegram,void *> > >::construct<Telegram,Telegram const &>
PUBLIC	??$_Construct_in_place@PAU?$_Tree_node@UTelegram@@PAX@std@@AAPAU12@@std@@YAXAAPAU?$_Tree_node@UTelegram@@PAX@0@0@Z ; std::_Construct_in_place<std::_Tree_node<Telegram,void *> *,std::_Tree_node<Telegram,void *> * &>
PUBLIC	??$forward@PAU?$_Tree_node@UTelegram@@PAX@std@@@std@@YA$$QAPAU?$_Tree_node@UTelegram@@PAX@0@AAPAU10@@Z ; std::forward<std::_Tree_node<Telegram,void *> *>
PUBLIC	??$_Voidify_iter@PAUTelegram@@@std@@YAPAXPAUTelegram@@@Z ; std::_Voidify_iter<Telegram *>
PUBLIC	??_7exception@std@@6B@				; std::exception::`vftable'
PUBLIC	??_C@_0BC@EOODALEL@Unknown?5exception@		; `string'
PUBLIC	??_7bad_alloc@std@@6B@				; std::bad_alloc::`vftable'
PUBLIC	??_7bad_array_new_length@std@@6B@		; std::bad_array_new_length::`vftable'
PUBLIC	??_C@_0BF@KINCDENJ@bad?5array?5new?5length@	; `string'
PUBLIC	__TI3?AVbad_array_new_length@std@@
PUBLIC	__CTA3?AVbad_array_new_length@std@@
PUBLIC	??_R0?AVbad_array_new_length@std@@@8		; std::bad_array_new_length `RTTI Type Descriptor'
PUBLIC	__CT??_R0?AVbad_array_new_length@std@@@8??0bad_array_new_length@std@@QAE@ABV01@@Z12
PUBLIC	??_R0?AVbad_alloc@std@@@8			; std::bad_alloc `RTTI Type Descriptor'
PUBLIC	__CT??_R0?AVbad_alloc@std@@@8??0bad_alloc@std@@QAE@ABV01@@Z12
PUBLIC	??_R0?AVexception@std@@@8			; std::exception `RTTI Type Descriptor'
PUBLIC	__CT??_R0?AVexception@std@@@8??0exception@std@@QAE@ABV01@@Z12
PUBLIC	??_C@_0BB@FCMFBGOM@invalid?5argument@		; `string'
PUBLIC	??_C@_02DKCKIIND@?$CFs@				; `string'
PUBLIC	??_C@_0GC@DJFHHHKN@C?3?2Program?5Files?2Microsoft?5Visu@ ; `string'
PUBLIC	??_C@_1ME@GEFGDEOM@?$AAC?$AA?3?$AA?2?$AAP?$AAr?$AAo?$AAg?$AAr?$AAa?$AAm?$AA?5?$AAF?$AAi?$AAl?$AAe@ ; `string'
PUBLIC	??_C@_11LOCGONAA@@				; `string'
PUBLIC	??_C@_1CG@JNLFBNGN@?$AA?$CC?$AAi?$AAn?$AAv?$AAa?$AAl?$AAi?$AAd?$AA?5?$AAa?$AAr?$AAg?$AAu?$AAm?$AAe@ ; `string'
PUBLIC	??_C@_0BJ@LFDBABJJ@ITERATOR?5LIST?5CORRUPTED?$CB@ ; `string'
PUBLIC	??_C@_1DG@PLBPCAEM@?$AA?$CC?$AAI?$AAT?$AAE?$AAR?$AAA?$AAT?$AAO?$AAR?$AA?5?$AAL?$AAI?$AAS?$AAT?$AA?5@ ; `string'
PUBLIC	??_C@_0BB@GCADKGJO@map?1set?5too?5long@		; `string'
PUBLIC	??_C@_0DG@LCFNIIPB@cannot?5dereference?5value?9initia@ ; `string'
PUBLIC	??_C@_0GA@PAPBPJHI@C?3?2Program?5Files?2Microsoft?5Visu@ ; `string'
PUBLIC	??_C@_1MA@GNMGJLOE@?$AAC?$AA?3?$AA?2?$AAP?$AAr?$AAo?$AAg?$AAr?$AAa?$AAm?$AA?5?$AAF?$AAi?$AAl?$AAe@ ; `string'
PUBLIC	??_C@_1HA@ILGCNILF@?$AA?$CC?$AAc?$AAa?$AAn?$AAn?$AAo?$AAt?$AA?5?$AAd?$AAe?$AAr?$AAe?$AAf?$AAe?$AAr@ ; `string'
PUBLIC	??_C@_0CI@OKFEHCEB@cannot?5dereference?5end?5map?1set?5@ ; `string'
PUBLIC	??_C@_1FE@NKHAAGMB@?$AA?$CC?$AAc?$AAa?$AAn?$AAn?$AAo?$AAt?$AA?5?$AAd?$AAe?$AAr?$AAe?$AAf?$AAe?$AAr@ ; `string'
PUBLIC	??_C@_0DA@GGPHOHEL@map?1set?5erase?5iterator?5from?5inc@ ; `string'
PUBLIC	??_C@_1GE@FENJBJJO@?$AA?$CC?$AAm?$AAa?$AAp?$AA?1?$AAs?$AAe?$AAt?$AA?5?$AAe?$AAr?$AAa?$AAs?$AAe?$AA?5@ ; `string'
PUBLIC	??_C@_0CE@JAJNKOFK@cannot?5erase?5map?1set?5end?$CI?$CJ?5iter@ ; `string'
PUBLIC	??_C@_1EM@MEAEPHLP@?$AA?$CC?$AAc?$AAa?$AAn?$AAn?$AAo?$AAt?$AA?5?$AAe?$AAr?$AAa?$AAs?$AAe?$AA?5?$AAm@ ; `string'
PUBLIC	?id@?$num_put@DV?$ostreambuf_iterator@DU?$char_traits@D@std@@@std@@@std@@2V0locale@2@A ; std::num_put<char,std::ostreambuf_iterator<char,std::char_traits<char> > >::id
PUBLIC	?id@?$numpunct@D@std@@2V0locale@2@A		; std::numpunct<char>::id
PUBLIC	??_C@_0DG@KGHKKGBC@null?5pointer?5cannot?5point?5to?5a?5@ ; `string'
PUBLIC	??_C@_1HA@FACCKGGH@?$AA?$CC?$AAn?$AAu?$AAl?$AAl?$AA?5?$AAp?$AAo?$AAi?$AAn?$AAt?$AAe?$AAr?$AA?5?$AAc@ ; `string'
PUBLIC	??_C@_0GD@GLKFIMHC@C?3?2Program?5Files?2Microsoft?5Visu@ ; `string'
PUBLIC	??_C@_1MG@NOLPABAB@?$AAC?$AA?3?$AA?2?$AAP?$AAr?$AAo?$AAg?$AAr?$AAa?$AAm?$AA?5?$AAF?$AAi?$AAl?$AAe@ ; `string'
PUBLIC	??_C@_0BD@FEEMDEPI@invalid?5comparator@		; `string'
PUBLIC	??_C@_1CK@NDNHPKPI@?$AA?$CC?$AAi?$AAn?$AAv?$AAa?$AAl?$AAi?$AAd?$AA?5?$AAc?$AAo?$AAm?$AAp?$AAa?$AAr@ ; `string'
PUBLIC	??_R4exception@std@@6B@				; std::exception::`RTTI Complete Object Locator'
PUBLIC	??_R3exception@std@@8				; std::exception::`RTTI Class Hierarchy Descriptor'
PUBLIC	??_R2exception@std@@8				; std::exception::`RTTI Base Class Array'
PUBLIC	??_R1A@?0A@EA@exception@std@@8			; std::exception::`RTTI Base Class Descriptor at (0,-1,0,64)'
PUBLIC	??_R4bad_alloc@std@@6B@				; std::bad_alloc::`RTTI Complete Object Locator'
PUBLIC	??_R3bad_alloc@std@@8				; std::bad_alloc::`RTTI Class Hierarchy Descriptor'
PUBLIC	??_R2bad_alloc@std@@8				; std::bad_alloc::`RTTI Base Class Array'
PUBLIC	??_R1A@?0A@EA@bad_alloc@std@@8			; std::bad_alloc::`RTTI Base Class Descriptor at (0,-1,0,64)'
PUBLIC	??_R4bad_array_new_length@std@@6B@		; std::bad_array_new_length::`RTTI Complete Object Locator'
PUBLIC	??_R3bad_array_new_length@std@@8		; std::bad_array_new_length::`RTTI Class Hierarchy Descriptor'
PUBLIC	??_R2bad_array_new_length@std@@8		; std::bad_array_new_length::`RTTI Base Class Array'
PUBLIC	??_R1A@?0A@EA@bad_array_new_length@std@@8	; std::bad_array_new_length::`RTTI Base Class Descriptor at (0,-1,0,64)'
PUBLIC	__real@0000000000000000
PUBLIC	__real@3fd0000000000000
EXTRN	??2@YAPAXI@Z:PROC				; operator new
EXTRN	??3@YAXPAXI@Z:PROC				; operator delete
EXTRN	_atexit:PROC
EXTRN	__Init_thread_header:PROC
EXTRN	__Init_thread_abort:PROC
EXTRN	__Init_thread_footer:PROC
EXTRN	__invalid_parameter:PROC
EXTRN	_fabs:PROC
EXTRN	__CrtDbgReport:PROC
EXTRN	??0_Lockit@std@@QAE@H@Z:PROC			; std::_Lockit::_Lockit
EXTRN	??1_Lockit@std@@QAE@XZ:PROC			; std::_Lockit::~_Lockit
EXTRN	___std_exception_copy:PROC
EXTRN	___std_exception_destroy:PROC
EXTRN	??_Eexception@std@@UAEPAXI@Z:PROC		; std::exception::`vector deleting destructor'
EXTRN	??_Ebad_alloc@std@@UAEPAXI@Z:PROC		; std::bad_alloc::`vector deleting destructor'
EXTRN	??_Ebad_array_new_length@std@@UAEPAXI@Z:PROC	; std::bad_array_new_length::`vector deleting destructor'
EXTRN	?_Xlength_error@std@@YAXPBD@Z:PROC		; std::_Xlength_error
EXTRN	?Instance@FrameCounter@@SAPAV1@XZ:PROC		; FrameCounter::Instance
EXTRN	?Instance@EntityManager@@SAPAV1@XZ:PROC		; EntityManager::Instance
EXTRN	?GetEntityFromID@EntityManager@@QBEPAVBaseGameEntity@@H@Z:PROC ; EntityManager::GetEntityFromID
EXTRN	@_RTC_CheckStackVars@8:PROC
EXTRN	@__security_check_cookie@4:PROC
EXTRN	__CxxThrowException@8:PROC
EXTRN	__RTC_CheckEsp:PROC
EXTRN	__RTC_InitBase:PROC
EXTRN	__RTC_Shutdown:PROC
EXTRN	___CxxFrameHandler3:PROC
EXTRN	__Init_thread_epoch:DWORD
EXTRN	??_7type_info@@6B@:QWORD			; type_info::`vftable'
EXTRN	___security_cookie:DWORD
EXTRN	__fltused:DWORD
EXTRN	__tls_array:DWORD
EXTRN	__tls_index:DWORD
;	COMDAT ?instance@?1??Instance@MessageDispatcher@@SAPAV2@XZ@4V2@A
_BSS	SEGMENT
?instance@?1??Instance@MessageDispatcher@@SAPAV2@XZ@4V2@A DB 0cH DUP (?) ; `MessageDispatcher::Instance'::`2'::instance
_BSS	ENDS
;	COMDAT ?$TSS0@?1??Instance@MessageDispatcher@@SAPAV2@XZ@4HA
_BSS	SEGMENT
?$TSS0@?1??Instance@MessageDispatcher@@SAPAV2@XZ@4HA DD 01H DUP (?) ; `MessageDispatcher::Instance'::`2'::$TSS0
_BSS	ENDS
;	COMDAT ?id@?$num_put@DV?$ostreambuf_iterator@DU?$char_traits@D@std@@@std@@@std@@2V0locale@2@A
_BSS	SEGMENT
?id@?$num_put@DV?$ostreambuf_iterator@DU?$char_traits@D@std@@@std@@@std@@2V0locale@2@A DD 01H DUP (?) ; std::num_put<char,std::ostreambuf_iterator<char,std::char_traits<char> > >::id
_BSS	ENDS
;	COMDAT ?id@?$numpunct@D@std@@2V0locale@2@A
_BSS	SEGMENT
?id@?$numpunct@D@std@@2V0locale@2@A DD 01H DUP (?)	; std::numpunct<char>::id
_BSS	ENDS
;	COMDAT CRT$XCU
CRT$XCU	SEGMENT
??id$initializer$@?$num_put@DV?$ostreambuf_iterator@DU?$char_traits@D@std@@@std@@@std@@2P6AXXZA@@3P6AXXZA DD FLAT:??__E?id@?$num_put@DV?$ostreambuf_iterator@DU?$char_traits@D@std@@@std@@@std@@2V0locale@2@A@@YAXXZ ; ??id$initializer$@?$num_put@DV?$ostreambuf_iterator@DU?$char_traits@D@std@@@std@@@std@@2P6AXXZA@@3P6AXXZA
CRT$XCU	ENDS
;	COMDAT __real@3fd0000000000000
CONST	SEGMENT
__real@3fd0000000000000 DQ 03fd0000000000000r	; 0.25
CONST	ENDS
;	COMDAT __real@0000000000000000
CONST	SEGMENT
__real@0000000000000000 DQ 00000000000000000r	; 0
CONST	ENDS
;	COMDAT rtc$TMZ
rtc$TMZ	SEGMENT
__RTC_Shutdown.rtc$TMZ DD FLAT:__RTC_Shutdown
rtc$TMZ	ENDS
;	COMDAT rtc$IMZ
rtc$IMZ	SEGMENT
__RTC_InitBase.rtc$IMZ DD FLAT:__RTC_InitBase
rtc$IMZ	ENDS
;	COMDAT ??_R1A@?0A@EA@bad_array_new_length@std@@8
rdata$r	SEGMENT
??_R1A@?0A@EA@bad_array_new_length@std@@8 DD FLAT:??_R0?AVbad_array_new_length@std@@@8 ; std::bad_array_new_length::`RTTI Base Class Descriptor at (0,-1,0,64)'
	DD	02H
	DD	00H
	DD	0ffffffffH
	DD	00H
	DD	040H
	DD	FLAT:??_R3bad_array_new_length@std@@8
rdata$r	ENDS
;	COMDAT ??_R2bad_array_new_length@std@@8
rdata$r	SEGMENT
??_R2bad_array_new_length@std@@8 DD FLAT:??_R1A@?0A@EA@bad_array_new_length@std@@8 ; std::bad_array_new_length::`RTTI Base Class Array'
	DD	FLAT:??_R1A@?0A@EA@bad_alloc@std@@8
	DD	FLAT:??_R1A@?0A@EA@exception@std@@8
rdata$r	ENDS
;	COMDAT ??_R3bad_array_new_length@std@@8
rdata$r	SEGMENT
??_R3bad_array_new_length@std@@8 DD 00H			; std::bad_array_new_length::`RTTI Class Hierarchy Descriptor'
	DD	00H
	DD	03H
	DD	FLAT:??_R2bad_array_new_length@std@@8
rdata$r	ENDS
;	COMDAT ??_R4bad_array_new_length@std@@6B@
rdata$r	SEGMENT
??_R4bad_array_new_length@std@@6B@ DD 00H		; std::bad_array_new_length::`RTTI Complete Object Locator'
	DD	00H
	DD	00H
	DD	FLAT:??_R0?AVbad_array_new_length@std@@@8
	DD	FLAT:??_R3bad_array_new_length@std@@8
rdata$r	ENDS
;	COMDAT ??_R1A@?0A@EA@bad_alloc@std@@8
rdata$r	SEGMENT
??_R1A@?0A@EA@bad_alloc@std@@8 DD FLAT:??_R0?AVbad_alloc@std@@@8 ; std::bad_alloc::`RTTI Base Class Descriptor at (0,-1,0,64)'
	DD	01H
	DD	00H
	DD	0ffffffffH
	DD	00H
	DD	040H
	DD	FLAT:??_R3bad_alloc@std@@8
rdata$r	ENDS
;	COMDAT ??_R2bad_alloc@std@@8
rdata$r	SEGMENT
??_R2bad_alloc@std@@8 DD FLAT:??_R1A@?0A@EA@bad_alloc@std@@8 ; std::bad_alloc::`RTTI Base Class Array'
	DD	FLAT:??_R1A@?0A@EA@exception@std@@8
rdata$r	ENDS
;	COMDAT ??_R3bad_alloc@std@@8
rdata$r	SEGMENT
??_R3bad_alloc@std@@8 DD 00H				; std::bad_alloc::`RTTI Class Hierarchy Descriptor'
	DD	00H
	DD	02H
	DD	FLAT:??_R2bad_alloc@std@@8
rdata$r	ENDS
;	COMDAT ??_R4bad_alloc@std@@6B@
rdata$r	SEGMENT
??_R4bad_alloc@std@@6B@ DD 00H				; std::bad_alloc::`RTTI Complete Object Locator'
	DD	00H
	DD	00H
	DD	FLAT:??_R0?AVbad_alloc@std@@@8
	DD	FLAT:??_R3bad_alloc@std@@8
rdata$r	ENDS
;	COMDAT ??_R1A@?0A@EA@exception@std@@8
rdata$r	SEGMENT
??_R1A@?0A@EA@exception@std@@8 DD FLAT:??_R0?AVexception@std@@@8 ; std::exception::`RTTI Base Class Descriptor at (0,-1,0,64)'
	DD	00H
	DD	00H
	DD	0ffffffffH
	DD	00H
	DD	040H
	DD	FLAT:??_R3exception@std@@8
rdata$r	ENDS
;	COMDAT ??_R2exception@std@@8
rdata$r	SEGMENT
??_R2exception@std@@8 DD FLAT:??_R1A@?0A@EA@exception@std@@8 ; std::exception::`RTTI Base Class Array'
rdata$r	ENDS
;	COMDAT ??_R3exception@std@@8
rdata$r	SEGMENT
??_R3exception@std@@8 DD 00H				; std::exception::`RTTI Class Hierarchy Descriptor'
	DD	00H
	DD	01H
	DD	FLAT:??_R2exception@std@@8
rdata$r	ENDS
;	COMDAT ??_R4exception@std@@6B@
rdata$r	SEGMENT
??_R4exception@std@@6B@ DD 00H				; std::exception::`RTTI Complete Object Locator'
	DD	00H
	DD	00H
	DD	FLAT:??_R0?AVexception@std@@@8
	DD	FLAT:??_R3exception@std@@8
rdata$r	ENDS
;	COMDAT ??_C@_1CK@NDNHPKPI@?$AA?$CC?$AAi?$AAn?$AAv?$AAa?$AAl?$AAi?$AAd?$AA?5?$AAc?$AAo?$AAm?$AAp?$AAa?$AAr@
CONST	SEGMENT
??_C@_1CK@NDNHPKPI@?$AA?$CC?$AAi?$AAn?$AAv?$AAa?$AAl?$AAi?$AAd?$AA?5?$AAc?$AAo?$AAm?$AAp?$AAa?$AAr@ DB '"'
	DB	00H, 'i', 00H, 'n', 00H, 'v', 00H, 'a', 00H, 'l', 00H, 'i', 00H
	DB	'd', 00H, ' ', 00H, 'c', 00H, 'o', 00H, 'm', 00H, 'p', 00H, 'a'
	DB	00H, 'r', 00H, 'a', 00H, 't', 00H, 'o', 00H, 'r', 00H, '"', 00H
	DB	00H, 00H					; `string'
CONST	ENDS
;	COMDAT ??_C@_0BD@FEEMDEPI@invalid?5comparator@
CONST	SEGMENT
??_C@_0BD@FEEMDEPI@invalid?5comparator@ DB 'invalid comparator', 00H ; `string'
CONST	ENDS
;	COMDAT ??_C@_1MG@NOLPABAB@?$AAC?$AA?3?$AA?2?$AAP?$AAr?$AAo?$AAg?$AAr?$AAa?$AAm?$AA?5?$AAF?$AAi?$AAl?$AAe@
CONST	SEGMENT
??_C@_1MG@NOLPABAB@?$AAC?$AA?3?$AA?2?$AAP?$AAr?$AAo?$AAg?$AAr?$AAa?$AAm?$AA?5?$AAF?$AAi?$AAl?$AAe@ DB 'C'
	DB	00H, ':', 00H, '\', 00H, 'P', 00H, 'r', 00H, 'o', 00H, 'g', 00H
	DB	'r', 00H, 'a', 00H, 'm', 00H, ' ', 00H, 'F', 00H, 'i', 00H, 'l'
	DB	00H, 'e', 00H, 's', 00H, '\', 00H, 'M', 00H, 'i', 00H, 'c', 00H
	DB	'r', 00H, 'o', 00H, 's', 00H, 'o', 00H, 'f', 00H, 't', 00H, ' '
	DB	00H, 'V', 00H, 'i', 00H, 's', 00H, 'u', 00H, 'a', 00H, 'l', 00H
	DB	' ', 00H, 'S', 00H, 't', 00H, 'u', 00H, 'd', 00H, 'i', 00H, 'o'
	DB	00H, '\', 00H, '2', 00H, '0', 00H, '2', 00H, '2', 00H, '\', 00H
	DB	'C', 00H, 'o', 00H, 'm', 00H, 'm', 00H, 'u', 00H, 'n', 00H, 'i'
	DB	00H, 't', 00H, 'y', 00H, '\', 00H, 'V', 00H, 'C', 00H, '\', 00H
	DB	'T', 00H, 'o', 00H, 'o', 00H, 'l', 00H, 's', 00H, '\', 00H, 'M'
	DB	00H, 'S', 00H, 'V', 00H, 'C', 00H, '\', 00H, '1', 00H, '4', 00H
	DB	'.', 00H, '3', 00H, '2', 00H, '.', 00H, '3', 00H, '1', 00H, '3'
	DB	00H, '2', 00H, '6', 00H, '\', 00H, 'i', 00H, 'n', 00H, 'c', 00H
	DB	'l', 00H, 'u', 00H, 'd', 00H, 'e', 00H, '\', 00H, 'x', 00H, 'u'
	DB	00H, 't', 00H, 'i', 00H, 'l', 00H, 'i', 00H, 't', 00H, 'y', 00H
	DB	00H, 00H					; `string'
CONST	ENDS
;	COMDAT ??_C@_0GD@GLKFIMHC@C?3?2Program?5Files?2Microsoft?5Visu@
CONST	SEGMENT
??_C@_0GD@GLKFIMHC@C?3?2Program?5Files?2Microsoft?5Visu@ DB 'C:\Program F'
	DB	'iles\Microsoft Visual Studio\2022\Community\VC\Tools\MSVC\14.'
	DB	'32.31326\include\xutility', 00H		; `string'
CONST	ENDS
;	COMDAT ??_C@_1HA@FACCKGGH@?$AA?$CC?$AAn?$AAu?$AAl?$AAl?$AA?5?$AAp?$AAo?$AAi?$AAn?$AAt?$AAe?$AAr?$AA?5?$AAc@
CONST	SEGMENT
??_C@_1HA@FACCKGGH@?$AA?$CC?$AAn?$AAu?$AAl?$AAl?$AA?5?$AAp?$AAo?$AAi?$AAn?$AAt?$AAe?$AAr?$AA?5?$AAc@ DB '"'
	DB	00H, 'n', 00H, 'u', 00H, 'l', 00H, 'l', 00H, ' ', 00H, 'p', 00H
	DB	'o', 00H, 'i', 00H, 'n', 00H, 't', 00H, 'e', 00H, 'r', 00H, ' '
	DB	00H, 'c', 00H, 'a', 00H, 'n', 00H, 'n', 00H, 'o', 00H, 't', 00H
	DB	' ', 00H, 'p', 00H, 'o', 00H, 'i', 00H, 'n', 00H, 't', 00H, ' '
	DB	00H, 't', 00H, 'o', 00H, ' ', 00H, 'a', 00H, ' ', 00H, 'b', 00H
	DB	'l', 00H, 'o', 00H, 'c', 00H, 'k', 00H, ' ', 00H, 'o', 00H, 'f'
	DB	00H, ' ', 00H, 'n', 00H, 'o', 00H, 'n', 00H, '-', 00H, 'z', 00H
	DB	'e', 00H, 'r', 00H, 'o', 00H, ' ', 00H, 's', 00H, 'i', 00H, 'z'
	DB	00H, 'e', 00H, '"', 00H, 00H, 00H		; `string'
CONST	ENDS
;	COMDAT ??_C@_0DG@KGHKKGBC@null?5pointer?5cannot?5point?5to?5a?5@
CONST	SEGMENT
??_C@_0DG@KGHKKGBC@null?5pointer?5cannot?5point?5to?5a?5@ DB 'null pointe'
	DB	'r cannot point to a block of non-zero size', 00H ; `string'
CONST	ENDS
;	COMDAT ??_C@_1EM@MEAEPHLP@?$AA?$CC?$AAc?$AAa?$AAn?$AAn?$AAo?$AAt?$AA?5?$AAe?$AAr?$AAa?$AAs?$AAe?$AA?5?$AAm@
CONST	SEGMENT
??_C@_1EM@MEAEPHLP@?$AA?$CC?$AAc?$AAa?$AAn?$AAn?$AAo?$AAt?$AA?5?$AAe?$AAr?$AAa?$AAs?$AAe?$AA?5?$AAm@ DB '"'
	DB	00H, 'c', 00H, 'a', 00H, 'n', 00H, 'n', 00H, 'o', 00H, 't', 00H
	DB	' ', 00H, 'e', 00H, 'r', 00H, 'a', 00H, 's', 00H, 'e', 00H, ' '
	DB	00H, 'm', 00H, 'a', 00H, 'p', 00H, '/', 00H, 's', 00H, 'e', 00H
	DB	't', 00H, ' ', 00H, 'e', 00H, 'n', 00H, 'd', 00H, '(', 00H, ')'
	DB	00H, ' ', 00H, 'i', 00H, 't', 00H, 'e', 00H, 'r', 00H, 'a', 00H
	DB	't', 00H, 'o', 00H, 'r', 00H, '"', 00H, 00H, 00H ; `string'
CONST	ENDS
;	COMDAT ??_C@_0CE@JAJNKOFK@cannot?5erase?5map?1set?5end?$CI?$CJ?5iter@
CONST	SEGMENT
??_C@_0CE@JAJNKOFK@cannot?5erase?5map?1set?5end?$CI?$CJ?5iter@ DB 'cannot'
	DB	' erase map/set end() iterator', 00H		; `string'
CONST	ENDS
;	COMDAT ??_C@_1GE@FENJBJJO@?$AA?$CC?$AAm?$AAa?$AAp?$AA?1?$AAs?$AAe?$AAt?$AA?5?$AAe?$AAr?$AAa?$AAs?$AAe?$AA?5@
CONST	SEGMENT
??_C@_1GE@FENJBJJO@?$AA?$CC?$AAm?$AAa?$AAp?$AA?1?$AAs?$AAe?$AAt?$AA?5?$AAe?$AAr?$AAa?$AAs?$AAe?$AA?5@ DB '"'
	DB	00H, 'm', 00H, 'a', 00H, 'p', 00H, '/', 00H, 's', 00H, 'e', 00H
	DB	't', 00H, ' ', 00H, 'e', 00H, 'r', 00H, 'a', 00H, 's', 00H, 'e'
	DB	00H, ' ', 00H, 'i', 00H, 't', 00H, 'e', 00H, 'r', 00H, 'a', 00H
	DB	't', 00H, 'o', 00H, 'r', 00H, ' ', 00H, 'f', 00H, 'r', 00H, 'o'
	DB	00H, 'm', 00H, ' ', 00H, 'i', 00H, 'n', 00H, 'c', 00H, 'o', 00H
	DB	'r', 00H, 'r', 00H, 'e', 00H, 'c', 00H, 't', 00H, ' ', 00H, 'c'
	DB	00H, 'o', 00H, 'n', 00H, 't', 00H, 'a', 00H, 'i', 00H, 'n', 00H
	DB	'e', 00H, 'r', 00H, '"', 00H, 00H, 00H	; `string'
CONST	ENDS
;	COMDAT ??_C@_0DA@GGPHOHEL@map?1set?5erase?5iterator?5from?5inc@
CONST	SEGMENT
??_C@_0DA@GGPHOHEL@map?1set?5erase?5iterator?5from?5inc@ DB 'map/set eras'
	DB	'e iterator from incorrect container', 00H	; `string'
CONST	ENDS
;	COMDAT ??_C@_1FE@NKHAAGMB@?$AA?$CC?$AAc?$AAa?$AAn?$AAn?$AAo?$AAt?$AA?5?$AAd?$AAe?$AAr?$AAe?$AAf?$AAe?$AAr@
CONST	SEGMENT
??_C@_1FE@NKHAAGMB@?$AA?$CC?$AAc?$AAa?$AAn?$AAn?$AAo?$AAt?$AA?5?$AAd?$AAe?$AAr?$AAe?$AAf?$AAe?$AAr@ DB '"'
	DB	00H, 'c', 00H, 'a', 00H, 'n', 00H, 'n', 00H, 'o', 00H, 't', 00H
	DB	' ', 00H, 'd', 00H, 'e', 00H, 'r', 00H, 'e', 00H, 'f', 00H, 'e'
	DB	00H, 'r', 00H, 'e', 00H, 'n', 00H, 'c', 00H, 'e', 00H, ' ', 00H
	DB	'e', 00H, 'n', 00H, 'd', 00H, ' ', 00H, 'm', 00H, 'a', 00H, 'p'
	DB	00H, '/', 00H, 's', 00H, 'e', 00H, 't', 00H, ' ', 00H, 'i', 00H
	DB	't', 00H, 'e', 00H, 'r', 00H, 'a', 00H, 't', 00H, 'o', 00H, 'r'
	DB	00H, '"', 00H, 00H, 00H			; `string'
CONST	ENDS
;	COMDAT ??_C@_0CI@OKFEHCEB@cannot?5dereference?5end?5map?1set?5@
CONST	SEGMENT
??_C@_0CI@OKFEHCEB@cannot?5dereference?5end?5map?1set?5@ DB 'cannot deref'
	DB	'erence end map/set iterator', 00H		; `string'
CONST	ENDS
;	COMDAT ??_C@_1HA@ILGCNILF@?$AA?$CC?$AAc?$AAa?$AAn?$AAn?$AAo?$AAt?$AA?5?$AAd?$AAe?$AAr?$AAe?$AAf?$AAe?$AAr@
CONST	SEGMENT
??_C@_1HA@ILGCNILF@?$AA?$CC?$AAc?$AAa?$AAn?$AAn?$AAo?$AAt?$AA?5?$AAd?$AAe?$AAr?$AAe?$AAf?$AAe?$AAr@ DB '"'
	DB	00H, 'c', 00H, 'a', 00H, 'n', 00H, 'n', 00H, 'o', 00H, 't', 00H
	DB	' ', 00H, 'd', 00H, 'e', 00H, 'r', 00H, 'e', 00H, 'f', 00H, 'e'
	DB	00H, 'r', 00H, 'e', 00H, 'n', 00H, 'c', 00H, 'e', 00H, ' ', 00H
	DB	'v', 00H, 'a', 00H, 'l', 00H, 'u', 00H, 'e', 00H, '-', 00H, 'i'
	DB	00H, 'n', 00H, 'i', 00H, 't', 00H, 'i', 00H, 'a', 00H, 'l', 00H
	DB	'i', 00H, 'z', 00H, 'e', 00H, 'd', 00H, ' ', 00H, 'm', 00H, 'a'
	DB	00H, 'p', 00H, '/', 00H, 's', 00H, 'e', 00H, 't', 00H, ' ', 00H
	DB	'i', 00H, 't', 00H, 'e', 00H, 'r', 00H, 'a', 00H, 't', 00H, 'o'
	DB	00H, 'r', 00H, '"', 00H, 00H, 00H		; `string'
CONST	ENDS
;	COMDAT ??_C@_1MA@GNMGJLOE@?$AAC?$AA?3?$AA?2?$AAP?$AAr?$AAo?$AAg?$AAr?$AAa?$AAm?$AA?5?$AAF?$AAi?$AAl?$AAe@
CONST	SEGMENT
??_C@_1MA@GNMGJLOE@?$AAC?$AA?3?$AA?2?$AAP?$AAr?$AAo?$AAg?$AAr?$AAa?$AAm?$AA?5?$AAF?$AAi?$AAl?$AAe@ DB 'C'
	DB	00H, ':', 00H, '\', 00H, 'P', 00H, 'r', 00H, 'o', 00H, 'g', 00H
	DB	'r', 00H, 'a', 00H, 'm', 00H, ' ', 00H, 'F', 00H, 'i', 00H, 'l'
	DB	00H, 'e', 00H, 's', 00H, '\', 00H, 'M', 00H, 'i', 00H, 'c', 00H
	DB	'r', 00H, 'o', 00H, 's', 00H, 'o', 00H, 'f', 00H, 't', 00H, ' '
	DB	00H, 'V', 00H, 'i', 00H, 's', 00H, 'u', 00H, 'a', 00H, 'l', 00H
	DB	' ', 00H, 'S', 00H, 't', 00H, 'u', 00H, 'd', 00H, 'i', 00H, 'o'
	DB	00H, '\', 00H, '2', 00H, '0', 00H, '2', 00H, '2', 00H, '\', 00H
	DB	'C', 00H, 'o', 00H, 'm', 00H, 'm', 00H, 'u', 00H, 'n', 00H, 'i'
	DB	00H, 't', 00H, 'y', 00H, '\', 00H, 'V', 00H, 'C', 00H, '\', 00H
	DB	'T', 00H, 'o', 00H, 'o', 00H, 'l', 00H, 's', 00H, '\', 00H, 'M'
	DB	00H, 'S', 00H, 'V', 00H, 'C', 00H, '\', 00H, '1', 00H, '4', 00H
	DB	'.', 00H, '3', 00H, '2', 00H, '.', 00H, '3', 00H, '1', 00H, '3'
	DB	00H, '2', 00H, '6', 00H, '\', 00H, 'i', 00H, 'n', 00H, 'c', 00H
	DB	'l', 00H, 'u', 00H, 'd', 00H, 'e', 00H, '\', 00H, 'x', 00H, 't'
	DB	00H, 'r', 00H, 'e', 00H, 'e', 00H, 00H, 00H	; `string'
CONST	ENDS
;	COMDAT ??_C@_0GA@PAPBPJHI@C?3?2Program?5Files?2Microsoft?5Visu@
CONST	SEGMENT
??_C@_0GA@PAPBPJHI@C?3?2Program?5Files?2Microsoft?5Visu@ DB 'C:\Program F'
	DB	'iles\Microsoft Visual Studio\2022\Community\VC\Tools\MSVC\14.'
	DB	'32.31326\include\xtree', 00H		; `string'
CONST	ENDS
;	COMDAT ??_C@_0DG@LCFNIIPB@cannot?5dereference?5value?9initia@
CONST	SEGMENT
??_C@_0DG@LCFNIIPB@cannot?5dereference?5value?9initia@ DB 'cannot derefer'
	DB	'ence value-initialized map/set iterator', 00H ; `string'
CONST	ENDS
;	COMDAT ??_C@_0BB@GCADKGJO@map?1set?5too?5long@
CONST	SEGMENT
??_C@_0BB@GCADKGJO@map?1set?5too?5long@ DB 'map/set too long', 00H ; `string'
CONST	ENDS
;	COMDAT ??_C@_1DG@PLBPCAEM@?$AA?$CC?$AAI?$AAT?$AAE?$AAR?$AAA?$AAT?$AAO?$AAR?$AA?5?$AAL?$AAI?$AAS?$AAT?$AA?5@
CONST	SEGMENT
??_C@_1DG@PLBPCAEM@?$AA?$CC?$AAI?$AAT?$AAE?$AAR?$AAA?$AAT?$AAO?$AAR?$AA?5?$AAL?$AAI?$AAS?$AAT?$AA?5@ DB '"'
	DB	00H, 'I', 00H, 'T', 00H, 'E', 00H, 'R', 00H, 'A', 00H, 'T', 00H
	DB	'O', 00H, 'R', 00H, ' ', 00H, 'L', 00H, 'I', 00H, 'S', 00H, 'T'
	DB	00H, ' ', 00H, 'C', 00H, 'O', 00H, 'R', 00H, 'R', 00H, 'U', 00H
	DB	'P', 00H, 'T', 00H, 'E', 00H, 'D', 00H, '!', 00H, '"', 00H, 00H
	DB	00H						; `string'
CONST	ENDS
;	COMDAT ??_C@_0BJ@LFDBABJJ@ITERATOR?5LIST?5CORRUPTED?$CB@
CONST	SEGMENT
??_C@_0BJ@LFDBABJJ@ITERATOR?5LIST?5CORRUPTED?$CB@ DB 'ITERATOR LIST CORRU'
	DB	'PTED!', 00H					; `string'
CONST	ENDS
;	COMDAT ??_C@_1CG@JNLFBNGN@?$AA?$CC?$AAi?$AAn?$AAv?$AAa?$AAl?$AAi?$AAd?$AA?5?$AAa?$AAr?$AAg?$AAu?$AAm?$AAe@
CONST	SEGMENT
??_C@_1CG@JNLFBNGN@?$AA?$CC?$AAi?$AAn?$AAv?$AAa?$AAl?$AAi?$AAd?$AA?5?$AAa?$AAr?$AAg?$AAu?$AAm?$AAe@ DB '"'
	DB	00H, 'i', 00H, 'n', 00H, 'v', 00H, 'a', 00H, 'l', 00H, 'i', 00H
	DB	'd', 00H, ' ', 00H, 'a', 00H, 'r', 00H, 'g', 00H, 'u', 00H, 'm'
	DB	00H, 'e', 00H, 'n', 00H, 't', 00H, '"', 00H, 00H, 00H ; `string'
CONST	ENDS
;	COMDAT ??_C@_11LOCGONAA@@
CONST	SEGMENT
??_C@_11LOCGONAA@@ DB 00H, 00H				; `string'
CONST	ENDS
;	COMDAT ??_C@_1ME@GEFGDEOM@?$AAC?$AA?3?$AA?2?$AAP?$AAr?$AAo?$AAg?$AAr?$AAa?$AAm?$AA?5?$AAF?$AAi?$AAl?$AAe@
CONST	SEGMENT
??_C@_1ME@GEFGDEOM@?$AAC?$AA?3?$AA?2?$AAP?$AAr?$AAo?$AAg?$AAr?$AAa?$AAm?$AA?5?$AAF?$AAi?$AAl?$AAe@ DB 'C'
	DB	00H, ':', 00H, '\', 00H, 'P', 00H, 'r', 00H, 'o', 00H, 'g', 00H
	DB	'r', 00H, 'a', 00H, 'm', 00H, ' ', 00H, 'F', 00H, 'i', 00H, 'l'
	DB	00H, 'e', 00H, 's', 00H, '\', 00H, 'M', 00H, 'i', 00H, 'c', 00H
	DB	'r', 00H, 'o', 00H, 's', 00H, 'o', 00H, 'f', 00H, 't', 00H, ' '
	DB	00H, 'V', 00H, 'i', 00H, 's', 00H, 'u', 00H, 'a', 00H, 'l', 00H
	DB	' ', 00H, 'S', 00H, 't', 00H, 'u', 00H, 'd', 00H, 'i', 00H, 'o'
	DB	00H, '\', 00H, '2', 00H, '0', 00H, '2', 00H, '2', 00H, '\', 00H
	DB	'C', 00H, 'o', 00H, 'm', 00H, 'm', 00H, 'u', 00H, 'n', 00H, 'i'
	DB	00H, 't', 00H, 'y', 00H, '\', 00H, 'V', 00H, 'C', 00H, '\', 00H
	DB	'T', 00H, 'o', 00H, 'o', 00H, 'l', 00H, 's', 00H, '\', 00H, 'M'
	DB	00H, 'S', 00H, 'V', 00H, 'C', 00H, '\', 00H, '1', 00H, '4', 00H
	DB	'.', 00H, '3', 00H, '2', 00H, '.', 00H, '3', 00H, '1', 00H, '3'
	DB	00H, '2', 00H, '6', 00H, '\', 00H, 'i', 00H, 'n', 00H, 'c', 00H
	DB	'l', 00H, 'u', 00H, 'd', 00H, 'e', 00H, '\', 00H, 'x', 00H, 'm'
	DB	00H, 'e', 00H, 'm', 00H, 'o', 00H, 'r', 00H, 'y', 00H, 00H, 00H ; `string'
CONST	ENDS
;	COMDAT ??_C@_0GC@DJFHHHKN@C?3?2Program?5Files?2Microsoft?5Visu@
CONST	SEGMENT
??_C@_0GC@DJFHHHKN@C?3?2Program?5Files?2Microsoft?5Visu@ DB 'C:\Program F'
	DB	'iles\Microsoft Visual Studio\2022\Community\VC\Tools\MSVC\14.'
	DB	'32.31326\include\xmemory', 00H		; `string'
CONST	ENDS
;	COMDAT ??_C@_02DKCKIIND@?$CFs@
CONST	SEGMENT
??_C@_02DKCKIIND@?$CFs@ DB '%s', 00H			; `string'
CONST	ENDS
;	COMDAT ??_C@_0BB@FCMFBGOM@invalid?5argument@
CONST	SEGMENT
??_C@_0BB@FCMFBGOM@invalid?5argument@ DB 'invalid argument', 00H ; `string'
CONST	ENDS
;	COMDAT __CT??_R0?AVexception@std@@@8??0exception@std@@QAE@ABV01@@Z12
xdata$x	SEGMENT
__CT??_R0?AVexception@std@@@8??0exception@std@@QAE@ABV01@@Z12 DD 00H
	DD	FLAT:??_R0?AVexception@std@@@8
	DD	00H
	DD	0ffffffffH
	ORG $+4
	DD	0cH
	DD	FLAT:??0exception@std@@QAE@ABV01@@Z
xdata$x	ENDS
;	COMDAT ??_R0?AVexception@std@@@8
data$r	SEGMENT
??_R0?AVexception@std@@@8 DD FLAT:??_7type_info@@6B@	; std::exception `RTTI Type Descriptor'
	DD	00H
	DB	'.?AVexception@std@@', 00H
data$r	ENDS
;	COMDAT __CT??_R0?AVbad_alloc@std@@@8??0bad_alloc@std@@QAE@ABV01@@Z12
xdata$x	SEGMENT
__CT??_R0?AVbad_alloc@std@@@8??0bad_alloc@std@@QAE@ABV01@@Z12 DD 010H
	DD	FLAT:??_R0?AVbad_alloc@std@@@8
	DD	00H
	DD	0ffffffffH
	ORG $+4
	DD	0cH
	DD	FLAT:??0bad_alloc@std@@QAE@ABV01@@Z
xdata$x	ENDS
;	COMDAT ??_R0?AVbad_alloc@std@@@8
data$r	SEGMENT
??_R0?AVbad_alloc@std@@@8 DD FLAT:??_7type_info@@6B@	; std::bad_alloc `RTTI Type Descriptor'
	DD	00H
	DB	'.?AVbad_alloc@std@@', 00H
data$r	ENDS
;	COMDAT __CT??_R0?AVbad_array_new_length@std@@@8??0bad_array_new_length@std@@QAE@ABV01@@Z12
xdata$x	SEGMENT
__CT??_R0?AVbad_array_new_length@std@@@8??0bad_array_new_length@std@@QAE@ABV01@@Z12 DD 00H
	DD	FLAT:??_R0?AVbad_array_new_length@std@@@8
	DD	00H
	DD	0ffffffffH
	ORG $+4
	DD	0cH
	DD	FLAT:??0bad_array_new_length@std@@QAE@ABV01@@Z
xdata$x	ENDS
;	COMDAT ??_R0?AVbad_array_new_length@std@@@8
data$r	SEGMENT
??_R0?AVbad_array_new_length@std@@@8 DD FLAT:??_7type_info@@6B@ ; std::bad_array_new_length `RTTI Type Descriptor'
	DD	00H
	DB	'.?AVbad_array_new_length@std@@', 00H
data$r	ENDS
;	COMDAT __CTA3?AVbad_array_new_length@std@@
xdata$x	SEGMENT
__CTA3?AVbad_array_new_length@std@@ DD 03H
	DD	FLAT:__CT??_R0?AVbad_array_new_length@std@@@8??0bad_array_new_length@std@@QAE@ABV01@@Z12
	DD	FLAT:__CT??_R0?AVbad_alloc@std@@@8??0bad_alloc@std@@QAE@ABV01@@Z12
	DD	FLAT:__CT??_R0?AVexception@std@@@8??0exception@std@@QAE@ABV01@@Z12
xdata$x	ENDS
;	COMDAT __TI3?AVbad_array_new_length@std@@
xdata$x	SEGMENT
__TI3?AVbad_array_new_length@std@@ DD 00H
	DD	FLAT:??1bad_array_new_length@std@@UAE@XZ
	DD	00H
	DD	FLAT:__CTA3?AVbad_array_new_length@std@@
xdata$x	ENDS
;	COMDAT ??_C@_0BF@KINCDENJ@bad?5array?5new?5length@
CONST	SEGMENT
??_C@_0BF@KINCDENJ@bad?5array?5new?5length@ DB 'bad array new length', 00H ; `string'
CONST	ENDS
;	COMDAT ??_7bad_array_new_length@std@@6B@
CONST	SEGMENT
??_7bad_array_new_length@std@@6B@ DD FLAT:??_R4bad_array_new_length@std@@6B@ ; std::bad_array_new_length::`vftable'
	DD	FLAT:??_Ebad_array_new_length@std@@UAEPAXI@Z
	DD	FLAT:?what@exception@std@@UBEPBDXZ
CONST	ENDS
;	COMDAT ??_7bad_alloc@std@@6B@
CONST	SEGMENT
??_7bad_alloc@std@@6B@ DD FLAT:??_R4bad_alloc@std@@6B@	; std::bad_alloc::`vftable'
	DD	FLAT:??_Ebad_alloc@std@@UAEPAXI@Z
	DD	FLAT:?what@exception@std@@UBEPBDXZ
CONST	ENDS
;	COMDAT ??_C@_0BC@EOODALEL@Unknown?5exception@
CONST	SEGMENT
??_C@_0BC@EOODALEL@Unknown?5exception@ DB 'Unknown exception', 00H ; `string'
CONST	ENDS
;	COMDAT ??_7exception@std@@6B@
CONST	SEGMENT
??_7exception@std@@6B@ DD FLAT:??_R4exception@std@@6B@	; std::exception::`vftable'
	DD	FLAT:??_Eexception@std@@UAEPAXI@Z
	DD	FLAT:?what@exception@std@@UBEPBDXZ
CONST	ENDS
;	COMDAT voltbl
voltbl	SEGMENT
_volmd	DB	016H
voltbl	ENDS
;	COMDAT xdata$x
xdata$x	SEGMENT
__unwindtable$??$?0ABUTelegram@@@?$_Tree_temp_node@V?$allocator@U?$_Tree_node@UTelegram@@PAX@std@@@std@@@std@@QAE@AAV?$allocator@U?$_Tree_node@UTelegram@@PAX@std@@@1@PAU?$_Tree_node@UTelegram@@PAX@1@ABUTelegram@@@Z DD 0ffffffffH
	DD	FLAT:__unwindfunclet$??$?0ABUTelegram@@@?$_Tree_temp_node@V?$allocator@U?$_Tree_node@UTelegram@@PAX@std@@@std@@@std@@QAE@AAV?$allocator@U?$_Tree_node@UTelegram@@PAX@std@@@1@PAU?$_Tree_node@UTelegram@@PAX@1@ABUTelegram@@@Z$0
__ehfuncinfo$??$?0ABUTelegram@@@?$_Tree_temp_node@V?$allocator@U?$_Tree_node@UTelegram@@PAX@std@@@std@@@std@@QAE@AAV?$allocator@U?$_Tree_node@UTelegram@@PAX@std@@@1@PAU?$_Tree_node@UTelegram@@PAX@1@ABUTelegram@@@Z DD 019930522H
	DD	01H
	DD	FLAT:__unwindtable$??$?0ABUTelegram@@@?$_Tree_temp_node@V?$allocator@U?$_Tree_node@UTelegram@@PAX@std@@@std@@@std@@QAE@AAV?$allocator@U?$_Tree_node@UTelegram@@PAX@std@@@1@PAU?$_Tree_node@UTelegram@@PAX@1@ABUTelegram@@@Z
	DD	2 DUP(00H)
	DD	2 DUP(00H)
	DD	00H
	DD	01H
xdata$x	ENDS
;	COMDAT voltbl
voltbl	SEGMENT
_volmd	DB	09H
voltbl	ENDS
;	COMDAT xdata$x
xdata$x	SEGMENT
__ehfuncinfo$??1?$_Tree_temp_node@V?$allocator@U?$_Tree_node@UTelegram@@PAX@std@@@std@@@std@@QAE@XZ DD 019930522H
	DD	00H
	DD	00H
	DD	2 DUP(00H)
	DD	2 DUP(00H)
	DD	00H
	DD	05H
xdata$x	ENDS
;	COMDAT voltbl
voltbl	SEGMENT
_volmd	DB	016H
voltbl	ENDS
;	COMDAT xdata$x
xdata$x	SEGMENT
__unwindtable$??0?$_Tree_temp_node_alloc@V?$allocator@U?$_Tree_node@UTelegram@@PAX@std@@@std@@@std@@QAE@AAV?$allocator@U?$_Tree_node@UTelegram@@PAX@std@@@1@@Z DD 0ffffffffH
	DD	FLAT:__unwindfunclet$??0?$_Tree_temp_node_alloc@V?$allocator@U?$_Tree_node@UTelegram@@PAX@std@@@std@@@std@@QAE@AAV?$allocator@U?$_Tree_node@UTelegram@@PAX@std@@@1@@Z$0
__ehfuncinfo$??0?$_Tree_temp_node_alloc@V?$allocator@U?$_Tree_node@UTelegram@@PAX@std@@@std@@@std@@QAE@AAV?$allocator@U?$_Tree_node@UTelegram@@PAX@std@@@1@@Z DD 019930522H
	DD	01H
	DD	FLAT:__unwindtable$??0?$_Tree_temp_node_alloc@V?$allocator@U?$_Tree_node@UTelegram@@PAX@std@@@std@@@std@@QAE@AAV?$allocator@U?$_Tree_node@UTelegram@@PAX@std@@@1@@Z
	DD	2 DUP(00H)
	DD	2 DUP(00H)
	DD	00H
	DD	01H
xdata$x	ENDS
;	COMDAT voltbl
voltbl	SEGMENT
_volmd	DB	09H
voltbl	ENDS
;	COMDAT xdata$x
xdata$x	SEGMENT
__ehfuncinfo$??1?$_Alloc_construct_ptr@V?$allocator@U?$_Tree_node@UTelegram@@PAX@std@@@std@@@std@@QAE@XZ DD 019930522H
	DD	00H
	DD	00H
	DD	2 DUP(00H)
	DD	2 DUP(00H)
	DD	00H
	DD	05H
xdata$x	ENDS
;	COMDAT voltbl
voltbl	SEGMENT
_volmd	DB	09H
voltbl	ENDS
;	COMDAT xdata$x
xdata$x	SEGMENT
__ehfuncinfo$??$_Freenode0@V?$allocator@U?$_Tree_node@UTelegram@@PAX@std@@@std@@@?$_Tree_node@UTelegram@@PAX@std@@SAXAAV?$allocator@U?$_Tree_node@UTelegram@@PAX@std@@@1@PAU01@@Z DD 019930522H
	DD	00H
	DD	00H
	DD	2 DUP(00H)
	DD	2 DUP(00H)
	DD	00H
	DD	05H
xdata$x	ENDS
;	COMDAT voltbl
voltbl	SEGMENT
_volmd	DB	09H
voltbl	ENDS
;	COMDAT xdata$x
xdata$x	SEGMENT
__ehfuncinfo$??$_Deallocate_plain@V?$allocator@U_Container_proxy@std@@@std@@@std@@YAXAAV?$allocator@U_Container_proxy@std@@@0@QAU_Container_proxy@0@@Z DD 019930522H
	DD	00H
	DD	00H
	DD	2 DUP(00H)
	DD	2 DUP(00H)
	DD	00H
	DD	05H
xdata$x	ENDS
;	COMDAT voltbl
voltbl	SEGMENT
_volmd	DB	09H
voltbl	ENDS
;	COMDAT xdata$x
xdata$x	SEGMENT
__ehfuncinfo$??$_Deallocate@$07$0A@@std@@YAXPAXI@Z DD 019930522H
	DD	00H
	DD	00H
	DD	2 DUP(00H)
	DD	2 DUP(00H)
	DD	00H
	DD	05H
xdata$x	ENDS
;	COMDAT voltbl
voltbl	SEGMENT
_volmd	DB	09H
voltbl	ENDS
;	COMDAT xdata$x
xdata$x	SEGMENT
__ehfuncinfo$??$_Freenode@V?$allocator@U?$_Tree_node@UTelegram@@PAX@std@@@std@@@?$_Tree_node@UTelegram@@PAX@std@@SAXAAV?$allocator@U?$_Tree_node@UTelegram@@PAX@std@@@1@PAU01@@Z DD 019930522H
	DD	00H
	DD	00H
	DD	2 DUP(00H)
	DD	2 DUP(00H)
	DD	00H
	DD	05H
xdata$x	ENDS
voltbl	SEGMENT
_volmd	DD	0ffffffffH
	DDSymXIndex: 	FLAT:__unwindfunclet$?Instance@MessageDispatcher@@SAPAV1@XZ$0
	DD	01aH
voltbl	ENDS
xdata$x	SEGMENT
__unwindtable$?Instance@MessageDispatcher@@SAPAV1@XZ DD 0ffffffffH
	DD	FLAT:__unwindfunclet$?Instance@MessageDispatcher@@SAPAV1@XZ$0
__ehfuncinfo$?Instance@MessageDispatcher@@SAPAV1@XZ DD 019930522H
	DD	01H
	DD	FLAT:__unwindtable$?Instance@MessageDispatcher@@SAPAV1@XZ
	DD	2 DUP(00H)
	DD	2 DUP(00H)
	DD	00H
	DD	01H
xdata$x	ENDS
;	COMDAT voltbl
voltbl	SEGMENT
_volmd	DB	016H
voltbl	ENDS
;	COMDAT xdata$x
xdata$x	SEGMENT
__unwindtable$?_Alloc_sentinel_and_proxy@?$_Tree@V?$_Tset_traits@UTelegram@@U?$less@UTelegram@@@std@@V?$allocator@UTelegram@@@3@$0A@@std@@@std@@IAEXXZ DD 0ffffffffH
	DD	FLAT:__unwindfunclet$?_Alloc_sentinel_and_proxy@?$_Tree@V?$_Tset_traits@UTelegram@@U?$less@UTelegram@@@std@@V?$allocator@UTelegram@@@3@$0A@@std@@@std@@IAEXXZ$0
__ehfuncinfo$?_Alloc_sentinel_and_proxy@?$_Tree@V?$_Tset_traits@UTelegram@@U?$less@UTelegram@@@std@@V?$allocator@UTelegram@@@3@$0A@@std@@@std@@IAEXXZ DD 019930522H
	DD	01H
	DD	FLAT:__unwindtable$?_Alloc_sentinel_and_proxy@?$_Tree@V?$_Tset_traits@UTelegram@@U?$less@UTelegram@@@std@@V?$allocator@UTelegram@@@3@$0A@@std@@@std@@IAEXXZ
	DD	2 DUP(00H)
	DD	2 DUP(00H)
	DD	00H
	DD	01H
xdata$x	ENDS
;	COMDAT CRT$XCU
CRT$XCU	SEGMENT
??id$initializer$@?$numpunct@D@std@@2P6AXXZA@@3P6AXXZA DD FLAT:??__E?id@?$numpunct@D@std@@2V0locale@2@A@@YAXXZ ; ??id$initializer$@?$numpunct@D@std@@2P6AXXZA@@3P6AXXZA
CRT$XCU	ENDS
; Function compile flags: /Odtp /RTCsu
; File C:\Program Files\Microsoft Visual Studio\2022\Community\VC\Tools\MSVC\14.32.31326\include\xutility
;	COMDAT ??$_Voidify_iter@PAUTelegram@@@std@@YAPAXPAUTelegram@@@Z
_TEXT	SEGMENT
__It$ = 8						; size = 4
??$_Voidify_iter@PAUTelegram@@@std@@YAPAXPAUTelegram@@@Z PROC ; std::_Voidify_iter<Telegram *>, COMDAT

; 123  : _NODISCARD constexpr void* _Voidify_iter(_Iter _It) noexcept {

	push	ebp
	mov	ebp, esp

; 124  :     if constexpr (is_pointer_v<_Iter>) {
; 125  :         return const_cast<void*>(static_cast<const volatile void*>(_It));

	mov	eax, DWORD PTR __It$[ebp]

; 126  :     } else {
; 127  :         return const_cast<void*>(static_cast<const volatile void*>(_STD addressof(*_It)));
; 128  :     }
; 129  : }

	pop	ebp
	ret	0
??$_Voidify_iter@PAUTelegram@@@std@@YAPAXPAUTelegram@@@Z ENDP ; std::_Voidify_iter<Telegram *>
_TEXT	ENDS
; Function compile flags: /Odtp /RTCsu
; File C:\Program Files\Microsoft Visual Studio\2022\Community\VC\Tools\MSVC\14.32.31326\include\type_traits
;	COMDAT ??$forward@PAU?$_Tree_node@UTelegram@@PAX@std@@@std@@YA$$QAPAU?$_Tree_node@UTelegram@@PAX@0@AAPAU10@@Z
_TEXT	SEGMENT
__Arg$ = 8						; size = 4
??$forward@PAU?$_Tree_node@UTelegram@@PAX@std@@@std@@YA$$QAPAU?$_Tree_node@UTelegram@@PAX@0@AAPAU10@@Z PROC ; std::forward<std::_Tree_node<Telegram,void *> *>, COMDAT

; 1341 :     remove_reference_t<_Ty>& _Arg) noexcept { // forward an lvalue as either an lvalue or an rvalue

	push	ebp
	mov	ebp, esp

; 1342 :     return static_cast<_Ty&&>(_Arg);

	mov	eax, DWORD PTR __Arg$[ebp]

; 1343 : }

	pop	ebp
	ret	0
??$forward@PAU?$_Tree_node@UTelegram@@PAX@std@@@std@@YA$$QAPAU?$_Tree_node@UTelegram@@PAX@0@AAPAU10@@Z ENDP ; std::forward<std::_Tree_node<Telegram,void *> *>
_TEXT	ENDS
; Function compile flags: /Odtp /RTCsu
; File C:\Program Files\Microsoft Visual Studio\2022\Community\VC\Tools\MSVC\14.32.31326\include\xutility
;	COMDAT ??$_Construct_in_place@PAU?$_Tree_node@UTelegram@@PAX@std@@AAPAU12@@std@@YAXAAPAU?$_Tree_node@UTelegram@@PAX@0@0@Z
_TEXT	SEGMENT
$T1 = -4						; size = 4
__Obj$ = 8						; size = 4
_<_Args_0>$ = 12					; size = 4
??$_Construct_in_place@PAU?$_Tree_node@UTelegram@@PAX@std@@AAPAU12@@std@@YAXAAPAU?$_Tree_node@UTelegram@@PAX@0@0@Z PROC ; std::_Construct_in_place<std::_Tree_node<Telegram,void *> *,std::_Tree_node<Telegram,void *> * &>, COMDAT

; 142  :     is_nothrow_constructible_v<_Ty, _Types...>) {

	push	ebp
	mov	ebp, esp
	push	ecx
	mov	DWORD PTR [ebp-4], -858993460		; ccccccccH

; 143  : #if _HAS_CXX20
; 144  :     if (_STD is_constant_evaluated()) {
; 145  :         _STD construct_at(_STD addressof(_Obj), _STD forward<_Types>(_Args)...);
; 146  :     } else
; 147  : #endif // _HAS_CXX20
; 148  :     {
; 149  :         ::new (_Voidify_iter(_STD addressof(_Obj))) _Ty(_STD forward<_Types>(_Args)...);

	mov	eax, DWORD PTR __Obj$[ebp]
	push	eax
	call	??$addressof@PAU?$_Tree_node@UTelegram@@PAX@std@@@std@@YAPAPAU?$_Tree_node@UTelegram@@PAX@0@AAPAU10@@Z ; std::addressof<std::_Tree_node<Telegram,void *> *>
	add	esp, 4
	push	eax
	call	??$_Voidify_iter@PAPAU?$_Tree_node@UTelegram@@PAX@std@@@std@@YAPAXPAPAU?$_Tree_node@UTelegram@@PAX@0@@Z ; std::_Voidify_iter<std::_Tree_node<Telegram,void *> * *>
	add	esp, 4
	push	eax
	push	4
	call	??2@YAPAXIPAX@Z				; operator new
	add	esp, 8
	mov	DWORD PTR $T1[ebp], eax
	mov	ecx, DWORD PTR _<_Args_0>$[ebp]
	push	ecx
	call	??$forward@AAPAU?$_Tree_node@UTelegram@@PAX@std@@@std@@YAAAPAU?$_Tree_node@UTelegram@@PAX@0@AAPAU10@@Z ; std::forward<std::_Tree_node<Telegram,void *> * &>
	add	esp, 4
	mov	edx, DWORD PTR $T1[ebp]
	mov	eax, DWORD PTR [eax]
	mov	DWORD PTR [edx], eax

; 150  :     }
; 151  : }

	add	esp, 4
	cmp	ebp, esp
	call	__RTC_CheckEsp
	mov	esp, ebp
	pop	ebp
	ret	0
??$_Construct_in_place@PAU?$_Tree_node@UTelegram@@PAX@std@@AAPAU12@@std@@YAXAAPAU?$_Tree_node@UTelegram@@PAX@0@0@Z ENDP ; std::_Construct_in_place<std::_Tree_node<Telegram,void *> *,std::_Tree_node<Telegram,void *> * &>
_TEXT	ENDS
; Function compile flags: /Odtp /RTCsu
; File C:\Program Files\Microsoft Visual Studio\2022\Community\VC\Tools\MSVC\14.32.31326\include\xmemory
;	COMDAT ??$construct@UTelegram@@ABU1@@?$_Default_allocator_traits@V?$allocator@U?$_Tree_node@UTelegram@@PAX@std@@@std@@@std@@SAXAAV?$allocator@U?$_Tree_node@UTelegram@@PAX@std@@@1@QAUTelegram@@ABU3@@Z
_TEXT	SEGMENT
$T1 = -4						; size = 4
___formal$ = 8						; size = 4
__Ptr$ = 12						; size = 4
_<_Args_0>$ = 16					; size = 4
??$construct@UTelegram@@ABU1@@?$_Default_allocator_traits@V?$allocator@U?$_Tree_node@UTelegram@@PAX@std@@@std@@@std@@SAXAAV?$allocator@U?$_Tree_node@UTelegram@@PAX@std@@@1@QAUTelegram@@ABU3@@Z PROC ; std::_Default_allocator_traits<std::allocator<std::_Tree_node<Telegram,void *> > >::construct<Telegram,Telegram const &>, COMDAT

; 673  :     static _CONSTEXPR20 void construct(_Alloc&, _Objty* const _Ptr, _Types&&... _Args) {

	push	ebp
	mov	ebp, esp
	push	ecx
	push	esi
	push	edi
	mov	DWORD PTR [ebp-4], -858993460		; ccccccccH

; 674  : #if _HAS_CXX20
; 675  :         if (_STD is_constant_evaluated()) {
; 676  :             _STD construct_at(_Ptr, _STD forward<_Types>(_Args)...);
; 677  :         } else
; 678  : #endif // _HAS_CXX20
; 679  :         {
; 680  :             ::new (_Voidify_iter(_Ptr)) _Objty(_STD forward<_Types>(_Args)...);

	mov	eax, DWORD PTR __Ptr$[ebp]
	push	eax
	call	??$_Voidify_iter@PAUTelegram@@@std@@YAPAXPAUTelegram@@@Z ; std::_Voidify_iter<Telegram *>
	add	esp, 4
	push	eax
	push	32					; 00000020H
	call	??2@YAPAXIPAX@Z				; operator new
	add	esp, 8
	mov	DWORD PTR $T1[ebp], eax
	mov	ecx, DWORD PTR _<_Args_0>$[ebp]
	push	ecx
	call	??$forward@ABUTelegram@@@std@@YAABUTelegram@@ABU1@@Z ; std::forward<Telegram const &>
	add	esp, 4
	mov	ecx, 8
	mov	esi, eax
	mov	edi, DWORD PTR $T1[ebp]
	rep movsd

; 681  :         }
; 682  :     }

	pop	edi
	pop	esi
	add	esp, 4
	cmp	ebp, esp
	call	__RTC_CheckEsp
	mov	esp, ebp
	pop	ebp
	ret	0
??$construct@UTelegram@@ABU1@@?$_Default_allocator_traits@V?$allocator@U?$_Tree_node@UTelegram@@PAX@std@@@std@@@std@@SAXAAV?$allocator@U?$_Tree_node@UTelegram@@PAX@std@@@1@QAUTelegram@@ABU3@@Z ENDP ; std::_Default_allocator_traits<std::allocator<std::_Tree_node<Telegram,void *> > >::construct<Telegram,Telegram const &>
_TEXT	ENDS
; Function compile flags: /Odtp /RTCsu
; File C:\Program Files\Microsoft Visual Studio\2022\Community\VC\Tools\MSVC\14.32.31326\include\type_traits
;	COMDAT ??$forward@_N@std@@YA$$QA_NAA_N@Z
_TEXT	SEGMENT
__Arg$ = 8						; size = 4
??$forward@_N@std@@YA$$QA_NAA_N@Z PROC			; std::forward<bool>, COMDAT

; 1341 :     remove_reference_t<_Ty>& _Arg) noexcept { // forward an lvalue as either an lvalue or an rvalue

	push	ebp
	mov	ebp, esp

; 1342 :     return static_cast<_Ty&&>(_Arg);

	mov	eax, DWORD PTR __Arg$[ebp]

; 1343 : }

	pop	ebp
	ret	0
??$forward@_N@std@@YA$$QA_NAA_N@Z ENDP			; std::forward<bool>
_TEXT	ENDS
; Function compile flags: /Odtp /RTCsu
; File C:\Program Files\Microsoft Visual Studio\2022\Community\VC\Tools\MSVC\14.32.31326\include\type_traits
;	COMDAT ??$forward@AAPAU?$_Tree_node@UTelegram@@PAX@std@@@std@@YAAAPAU?$_Tree_node@UTelegram@@PAX@0@AAPAU10@@Z
_TEXT	SEGMENT
__Arg$ = 8						; size = 4
??$forward@AAPAU?$_Tree_node@UTelegram@@PAX@std@@@std@@YAAAPAU?$_Tree_node@UTelegram@@PAX@0@AAPAU10@@Z PROC ; std::forward<std::_Tree_node<Telegram,void *> * &>, COMDAT

; 1341 :     remove_reference_t<_Ty>& _Arg) noexcept { // forward an lvalue as either an lvalue or an rvalue

	push	ebp
	mov	ebp, esp

; 1342 :     return static_cast<_Ty&&>(_Arg);

	mov	eax, DWORD PTR __Arg$[ebp]

; 1343 : }

	pop	ebp
	ret	0
??$forward@AAPAU?$_Tree_node@UTelegram@@PAX@std@@@std@@YAAAPAU?$_Tree_node@UTelegram@@PAX@0@AAPAU10@@Z ENDP ; std::forward<std::_Tree_node<Telegram,void *> * &>
_TEXT	ENDS
; Function compile flags: /Odtp /RTCsu
; File C:\Program Files\Microsoft Visual Studio\2022\Community\VC\Tools\MSVC\14.32.31326\include\xutility
;	COMDAT ??$_Debug_lt_pred@ABU?$less@UTelegram@@@std@@ABUTelegram@@ABU3@$0A@@std@@YA_NABU?$less@UTelegram@@@0@ABUTelegram@@1@Z
_TEXT	SEGMENT
__Result$ = -1						; size = 1
__Pred$ = 8						; size = 4
__Left$ = 12						; size = 4
__Right$ = 16						; size = 4
??$_Debug_lt_pred@ABU?$less@UTelegram@@@std@@ABUTelegram@@ABU3@$0A@@std@@YA_NABU?$less@UTelegram@@@0@ABUTelegram@@1@Z PROC ; std::_Debug_lt_pred<std::less<Telegram> const &,Telegram const &,Telegram const &,0>, COMDAT

; 1451 :     noexcept(_Pred(_Left, _Right)) && noexcept(_Pred(_Right, _Left))) {

	push	ebp
	mov	ebp, esp
	push	ecx
	mov	DWORD PTR [ebp-4], -858993460		; ccccccccH

; 1452 :     // test if _Pred(_Left, _Right) and _Pred is strict weak ordering, when the arguments are the cv-same-type
; 1453 :     const auto _Result = static_cast<bool>(_Pred(_Left, _Right));

	mov	eax, DWORD PTR __Right$[ebp]
	push	eax
	mov	ecx, DWORD PTR __Left$[ebp]
	push	ecx
	mov	ecx, DWORD PTR __Pred$[ebp]
	call	??R?$less@UTelegram@@@std@@QBE_NABUTelegram@@0@Z ; std::less<Telegram>::operator()
	mov	BYTE PTR __Result$[ebp], al

; 1454 :     if (_Result) {

	movzx	edx, BYTE PTR __Result$[ebp]
	test	edx, edx
	je	SHORT $LN8@Debug_lt_p
$LN4@Debug_lt_p:

; 1455 :         _STL_VERIFY(!_Pred(_Right, _Left), "invalid comparator");

	mov	eax, DWORD PTR __Left$[ebp]
	push	eax
	mov	ecx, DWORD PTR __Right$[ebp]
	push	ecx
	mov	ecx, DWORD PTR __Pred$[ebp]
	call	??R?$less@UTelegram@@@std@@QBE_NABUTelegram@@0@Z ; std::less<Telegram>::operator()
	movzx	edx, al
	test	edx, edx
	jne	SHORT $LN7@Debug_lt_p
	jmp	SHORT $LN2@Debug_lt_p
$LN7@Debug_lt_p:
	push	OFFSET ??_C@_0BD@FEEMDEPI@invalid?5comparator@
	push	OFFSET ??_C@_02DKCKIIND@?$CFs@
	push	0
	push	1455					; 000005afH
	push	OFFSET ??_C@_0GD@GLKFIMHC@C?3?2Program?5Files?2Microsoft?5Visu@
	push	2
	call	__CrtDbgReport
	add	esp, 24					; 00000018H
	cmp	eax, 1
	jne	SHORT $LN12@Debug_lt_p
	int	3
$LN12@Debug_lt_p:
	push	0
	push	1455					; 000005afH
	push	OFFSET ??_C@_1MG@NOLPABAB@?$AAC?$AA?3?$AA?2?$AAP?$AAr?$AAo?$AAg?$AAr?$AAa?$AAm?$AA?5?$AAF?$AAi?$AAl?$AAe@
	push	OFFSET ??_C@_11LOCGONAA@@
	push	OFFSET ??_C@_1CK@NDNHPKPI@?$AA?$CC?$AAi?$AAn?$AAv?$AAa?$AAl?$AAi?$AAd?$AA?5?$AAc?$AAo?$AAm?$AAp?$AAa?$AAr@
	call	__invalid_parameter
	add	esp, 20					; 00000014H
	xor	ecx, ecx
	jne	SHORT $LN7@Debug_lt_p
$LN2@Debug_lt_p:
	xor	edx, edx
	jne	SHORT $LN4@Debug_lt_p
$LN8@Debug_lt_p:

; 1456 :     }
; 1457 : 
; 1458 :     return _Result;

	mov	al, BYTE PTR __Result$[ebp]

; 1459 : }

	add	esp, 4
	cmp	ebp, esp
	call	__RTC_CheckEsp
	mov	esp, ebp
	pop	ebp
	ret	0
??$_Debug_lt_pred@ABU?$less@UTelegram@@@std@@ABUTelegram@@ABU3@$0A@@std@@YA_NABU?$less@UTelegram@@@0@ABUTelegram@@1@Z ENDP ; std::_Debug_lt_pred<std::less<Telegram> const &,Telegram const &,Telegram const &,0>
_TEXT	ENDS
; Function compile flags: /Odtp /RTCsu
; File C:\Program Files\Microsoft Visual Studio\2022\Community\VC\Tools\MSVC\14.32.31326\include\utility
;	COMDAT ??$exchange@PAU?$_Tree_node@UTelegram@@PAX@std@@$$T@std@@YAPAU?$_Tree_node@UTelegram@@PAX@0@AAPAU10@$$QA$$T@Z
_TEXT	SEGMENT
__Old_val$ = -4						; size = 4
__Val$ = 8						; size = 4
__New_val$ = 12						; size = 4
??$exchange@PAU?$_Tree_node@UTelegram@@PAX@std@@$$T@std@@YAPAU?$_Tree_node@UTelegram@@PAX@0@AAPAU10@$$QA$$T@Z PROC ; std::exchange<std::_Tree_node<Telegram,void *> *,std::nullptr_t>, COMDAT

; 605  :     conjunction_v<is_nothrow_move_constructible<_Ty>, is_nothrow_assignable<_Ty&, _Other>>) {

	push	ebp
	mov	ebp, esp
	push	ecx

; 606  :     // assign _New_val to _Val, return previous _Val
; 607  :     _Ty _Old_val = static_cast<_Ty&&>(_Val);

	mov	eax, DWORD PTR __Val$[ebp]
	mov	ecx, DWORD PTR [eax]
	mov	DWORD PTR __Old_val$[ebp], ecx

; 608  :     _Val         = static_cast<_Other&&>(_New_val);

	mov	edx, DWORD PTR __Val$[ebp]
	mov	eax, DWORD PTR __New_val$[ebp]
	mov	ecx, DWORD PTR [eax]
	mov	DWORD PTR [edx], ecx

; 609  :     return _Old_val;

	mov	eax, DWORD PTR __Old_val$[ebp]

; 610  : }

	mov	esp, ebp
	pop	ebp
	ret	0
??$exchange@PAU?$_Tree_node@UTelegram@@PAX@std@@$$T@std@@YAPAU?$_Tree_node@UTelegram@@PAX@0@AAPAU10@$$QA$$T@Z ENDP ; std::exchange<std::_Tree_node<Telegram,void *> *,std::nullptr_t>
_TEXT	ENDS
; Function compile flags: /Odtp /RTCsu
; File C:\Program Files\Microsoft Visual Studio\2022\Community\VC\Tools\MSVC\14.32.31326\include\type_traits
;	COMDAT ??$forward@ABQAU?$_Tree_node@UTelegram@@PAX@std@@@std@@YAABQAU?$_Tree_node@UTelegram@@PAX@0@ABQAU10@@Z
_TEXT	SEGMENT
__Arg$ = 8						; size = 4
??$forward@ABQAU?$_Tree_node@UTelegram@@PAX@std@@@std@@YAABQAU?$_Tree_node@UTelegram@@PAX@0@ABQAU10@@Z PROC ; std::forward<std::_Tree_node<Telegram,void *> * const &>, COMDAT

; 1341 :     remove_reference_t<_Ty>& _Arg) noexcept { // forward an lvalue as either an lvalue or an rvalue

	push	ebp
	mov	ebp, esp

; 1342 :     return static_cast<_Ty&&>(_Arg);

	mov	eax, DWORD PTR __Arg$[ebp]

; 1343 : }

	pop	ebp
	ret	0
??$forward@ABQAU?$_Tree_node@UTelegram@@PAX@std@@@std@@YAABQAU?$_Tree_node@UTelegram@@PAX@0@ABQAU10@@Z ENDP ; std::forward<std::_Tree_node<Telegram,void *> * const &>
_TEXT	ENDS
; Function compile flags: /Odtp /RTCsu
; File C:\Program Files\Microsoft Visual Studio\2022\Community\VC\Tools\MSVC\14.32.31326\include\xutility
;	COMDAT ??$_Voidify_iter@PAPAU?$_Tree_node@UTelegram@@PAX@std@@@std@@YAPAXPAPAU?$_Tree_node@UTelegram@@PAX@0@@Z
_TEXT	SEGMENT
__It$ = 8						; size = 4
??$_Voidify_iter@PAPAU?$_Tree_node@UTelegram@@PAX@std@@@std@@YAPAXPAPAU?$_Tree_node@UTelegram@@PAX@0@@Z PROC ; std::_Voidify_iter<std::_Tree_node<Telegram,void *> * *>, COMDAT

; 123  : _NODISCARD constexpr void* _Voidify_iter(_Iter _It) noexcept {

	push	ebp
	mov	ebp, esp

; 124  :     if constexpr (is_pointer_v<_Iter>) {
; 125  :         return const_cast<void*>(static_cast<const volatile void*>(_It));

	mov	eax, DWORD PTR __It$[ebp]

; 126  :     } else {
; 127  :         return const_cast<void*>(static_cast<const volatile void*>(_STD addressof(*_It)));
; 128  :     }
; 129  : }

	pop	ebp
	ret	0
??$_Voidify_iter@PAPAU?$_Tree_node@UTelegram@@PAX@std@@@std@@YAPAXPAPAU?$_Tree_node@UTelegram@@PAX@0@@Z ENDP ; std::_Voidify_iter<std::_Tree_node<Telegram,void *> * *>
_TEXT	ENDS
; Function compile flags: /Odtp /RTCsu
; File C:\Program Files\Microsoft Visual Studio\2022\Community\VC\Tools\MSVC\14.32.31326\include\xstddef
;	COMDAT ??$addressof@PAU?$_Tree_node@UTelegram@@PAX@std@@@std@@YAPAPAU?$_Tree_node@UTelegram@@PAX@0@AAPAU10@@Z
_TEXT	SEGMENT
__Val$ = 8						; size = 4
??$addressof@PAU?$_Tree_node@UTelegram@@PAX@std@@@std@@YAPAPAU?$_Tree_node@UTelegram@@PAX@0@AAPAU10@@Z PROC ; std::addressof<std::_Tree_node<Telegram,void *> *>, COMDAT

; 252  : _NODISCARD constexpr _Ty* addressof(_Ty& _Val) noexcept {

	push	ebp
	mov	ebp, esp

; 253  :     return __builtin_addressof(_Val);

	mov	eax, DWORD PTR __Val$[ebp]

; 254  : }

	pop	ebp
	ret	0
??$addressof@PAU?$_Tree_node@UTelegram@@PAX@std@@@std@@YAPAPAU?$_Tree_node@UTelegram@@PAX@0@AAPAU10@@Z ENDP ; std::addressof<std::_Tree_node<Telegram,void *> *>
_TEXT	ENDS
; Function compile flags: /Odtp /RTCsu
; File C:\Program Files\Microsoft Visual Studio\2022\Community\VC\Tools\MSVC\14.32.31326\include\xmemory
;	COMDAT ??$_Destroy_in_place@PAU?$_Tree_node@UTelegram@@PAX@std@@@std@@YAXAAPAU?$_Tree_node@UTelegram@@PAX@0@@Z
_TEXT	SEGMENT
__Obj$ = 8						; size = 4
??$_Destroy_in_place@PAU?$_Tree_node@UTelegram@@PAX@std@@@std@@YAXAAPAU?$_Tree_node@UTelegram@@PAX@0@@Z PROC ; std::_Destroy_in_place<std::_Tree_node<Telegram,void *> *>, COMDAT

; 294  : _CONSTEXPR20 void _Destroy_in_place(_Ty& _Obj) noexcept {

	push	ebp
	mov	ebp, esp

; 295  :     if constexpr (is_array_v<_Ty>) {
; 296  :         _Destroy_range(_Obj, _Obj + extent_v<_Ty>);
; 297  :     } else {
; 298  :         _Obj.~_Ty();
; 299  :     }
; 300  : }

	pop	ebp
	ret	0
??$_Destroy_in_place@PAU?$_Tree_node@UTelegram@@PAX@std@@@std@@YAXAAPAU?$_Tree_node@UTelegram@@PAX@0@@Z ENDP ; std::_Destroy_in_place<std::_Tree_node<Telegram,void *> *>
_TEXT	ENDS
; Function compile flags: /Odtp /RTCsu
; File C:\Program Files\Microsoft Visual Studio\2022\Community\VC\Tools\MSVC\14.32.31326\include\utility
;	COMDAT ??$exchange@PAU?$_Tree_node@UTelegram@@PAX@std@@AAPAU12@@std@@YAPAU?$_Tree_node@UTelegram@@PAX@0@AAPAU10@0@Z
_TEXT	SEGMENT
__Old_val$ = -4						; size = 4
__Val$ = 8						; size = 4
__New_val$ = 12						; size = 4
??$exchange@PAU?$_Tree_node@UTelegram@@PAX@std@@AAPAU12@@std@@YAPAU?$_Tree_node@UTelegram@@PAX@0@AAPAU10@0@Z PROC ; std::exchange<std::_Tree_node<Telegram,void *> *,std::_Tree_node<Telegram,void *> * &>, COMDAT

; 605  :     conjunction_v<is_nothrow_move_constructible<_Ty>, is_nothrow_assignable<_Ty&, _Other>>) {

	push	ebp
	mov	ebp, esp
	push	ecx

; 606  :     // assign _New_val to _Val, return previous _Val
; 607  :     _Ty _Old_val = static_cast<_Ty&&>(_Val);

	mov	eax, DWORD PTR __Val$[ebp]
	mov	ecx, DWORD PTR [eax]
	mov	DWORD PTR __Old_val$[ebp], ecx

; 608  :     _Val         = static_cast<_Other&&>(_New_val);

	mov	edx, DWORD PTR __Val$[ebp]
	mov	eax, DWORD PTR __New_val$[ebp]
	mov	ecx, DWORD PTR [eax]
	mov	DWORD PTR [edx], ecx

; 609  :     return _Old_val;

	mov	eax, DWORD PTR __Old_val$[ebp]

; 610  : }

	mov	esp, ebp
	pop	ebp
	ret	0
??$exchange@PAU?$_Tree_node@UTelegram@@PAX@std@@AAPAU12@@std@@YAPAU?$_Tree_node@UTelegram@@PAX@0@AAPAU10@0@Z ENDP ; std::exchange<std::_Tree_node<Telegram,void *> *,std::_Tree_node<Telegram,void *> * &>
_TEXT	ENDS
; Function compile flags: /Odtp /RTCsu
; File C:\Program Files\Microsoft Visual Studio\2022\Community\VC\Tools\MSVC\14.32.31326\include\xmemory
;	COMDAT ?deallocate@?$_Default_allocator_traits@V?$allocator@U_Container_proxy@std@@@std@@@std@@SAXAAV?$allocator@U_Container_proxy@std@@@2@QAU_Container_proxy@2@I@Z
_TEXT	SEGMENT
__Al$ = 8						; size = 4
__Ptr$ = 12						; size = 4
__Count$ = 16						; size = 4
?deallocate@?$_Default_allocator_traits@V?$allocator@U_Container_proxy@std@@@std@@@std@@SAXAAV?$allocator@U_Container_proxy@std@@@2@QAU_Container_proxy@2@I@Z PROC ; std::_Default_allocator_traits<std::allocator<std::_Container_proxy> >::deallocate, COMDAT

; 659  :     static _CONSTEXPR20 void deallocate(_Alloc& _Al, const pointer _Ptr, const size_type _Count) {

	push	ebp
	mov	ebp, esp

; 660  :         // no overflow check on the following multiply; we assume _Allocate did that check
; 661  : #if _HAS_CXX20 // TRANSITION, GH-1532
; 662  :         if (_STD is_constant_evaluated()) {
; 663  :             _Al.deallocate(_Ptr, _Count);
; 664  :         } else
; 665  : #endif // _HAS_CXX20
; 666  :         {
; 667  :             (void) _Al;
; 668  :             _Deallocate<_New_alignof<value_type>>(_Ptr, sizeof(value_type) * _Count);

	mov	eax, DWORD PTR __Count$[ebp]
	shl	eax, 3
	push	eax
	mov	ecx, DWORD PTR __Ptr$[ebp]
	push	ecx
	call	??$_Deallocate@$07$0A@@std@@YAXPAXI@Z	; std::_Deallocate<8,0>
	add	esp, 8

; 669  :         }
; 670  :     }

	cmp	ebp, esp
	call	__RTC_CheckEsp
	pop	ebp
	ret	0
?deallocate@?$_Default_allocator_traits@V?$allocator@U_Container_proxy@std@@@std@@@std@@SAXAAV?$allocator@U_Container_proxy@std@@@2@QAU_Container_proxy@2@I@Z ENDP ; std::_Default_allocator_traits<std::allocator<std::_Container_proxy> >::deallocate
_TEXT	ENDS
; Function compile flags: /Odtp /RTCsu
; File C:\Program Files\Microsoft Visual Studio\2022\Community\VC\Tools\MSVC\14.32.31326\include\type_traits
;	COMDAT ??$forward@AB_N@std@@YAAB_NAB_N@Z
_TEXT	SEGMENT
__Arg$ = 8						; size = 4
??$forward@AB_N@std@@YAAB_NAB_N@Z PROC			; std::forward<bool const &>, COMDAT

; 1341 :     remove_reference_t<_Ty>& _Arg) noexcept { // forward an lvalue as either an lvalue or an rvalue

	push	ebp
	mov	ebp, esp

; 1342 :     return static_cast<_Ty&&>(_Arg);

	mov	eax, DWORD PTR __Arg$[ebp]

; 1343 : }

	pop	ebp
	ret	0
??$forward@AB_N@std@@YAAB_NAB_N@Z ENDP			; std::forward<bool const &>
_TEXT	ENDS
; Function compile flags: /Odtp /RTCsu
; File C:\Program Files\Microsoft Visual Studio\2022\Community\VC\Tools\MSVC\14.32.31326\include\type_traits
;	COMDAT ??$forward@V?$_Tree_const_iterator@V?$_Tree_val@U?$_Tree_simple_types@UTelegram@@@std@@@std@@@std@@@std@@YA$$QAV?$_Tree_const_iterator@V?$_Tree_val@U?$_Tree_simple_types@UTelegram@@@std@@@std@@@0@AAV10@@Z
_TEXT	SEGMENT
__Arg$ = 8						; size = 4
??$forward@V?$_Tree_const_iterator@V?$_Tree_val@U?$_Tree_simple_types@UTelegram@@@std@@@std@@@std@@@std@@YA$$QAV?$_Tree_const_iterator@V?$_Tree_val@U?$_Tree_simple_types@UTelegram@@@std@@@std@@@0@AAV10@@Z PROC ; std::forward<std::_Tree_const_iterator<std::_Tree_val<std::_Tree_simple_types<Telegram> > > >, COMDAT

; 1341 :     remove_reference_t<_Ty>& _Arg) noexcept { // forward an lvalue as either an lvalue or an rvalue

	push	ebp
	mov	ebp, esp

; 1342 :     return static_cast<_Ty&&>(_Arg);

	mov	eax, DWORD PTR __Arg$[ebp]

; 1343 : }

	pop	ebp
	ret	0
??$forward@V?$_Tree_const_iterator@V?$_Tree_val@U?$_Tree_simple_types@UTelegram@@@std@@@std@@@std@@@std@@YA$$QAV?$_Tree_const_iterator@V?$_Tree_val@U?$_Tree_simple_types@UTelegram@@@std@@@std@@@0@AAV10@@Z ENDP ; std::forward<std::_Tree_const_iterator<std::_Tree_val<std::_Tree_simple_types<Telegram> > > >
_TEXT	ENDS
; Function compile flags: /Odtp /RTCsu
; File C:\Program Files\Microsoft Visual Studio\2022\Community\VC\Tools\MSVC\14.32.31326\include\utility
;	COMDAT ??$?0PAU?$_Tree_node@UTelegram@@PAX@std@@_N$0A@@?$pair@PAU?$_Tree_node@UTelegram@@PAX@std@@_N@std@@QAE@$$QAPAU?$_Tree_node@UTelegram@@PAX@1@$$QA_N@Z
_TEXT	SEGMENT
_this$ = -4						; size = 4
__Val1$ = 8						; size = 4
__Val2$ = 12						; size = 4
??$?0PAU?$_Tree_node@UTelegram@@PAX@std@@_N$0A@@?$pair@PAU?$_Tree_node@UTelegram@@PAX@std@@_N@std@@QAE@$$QAPAU?$_Tree_node@UTelegram@@PAX@1@$$QA_N@Z PROC ; std::pair<std::_Tree_node<Telegram,void *> *,bool>::pair<std::_Tree_node<Telegram,void *> *,bool><std::_Tree_node<Telegram,void *> *,bool,0>, COMDAT
; _this$ = ecx

; 190  :         : first(_STD forward<_Other1>(_Val1)), second(_STD forward<_Other2>(_Val2)) {

	push	ebp
	mov	ebp, esp
	push	ecx
	mov	DWORD PTR [ebp-4], -858993460		; ccccccccH
	mov	DWORD PTR _this$[ebp], ecx
	mov	eax, DWORD PTR __Val1$[ebp]
	push	eax
	call	??$forward@PAU?$_Tree_node@UTelegram@@PAX@std@@@std@@YA$$QAPAU?$_Tree_node@UTelegram@@PAX@0@AAPAU10@@Z ; std::forward<std::_Tree_node<Telegram,void *> *>
	add	esp, 4
	mov	ecx, DWORD PTR _this$[ebp]
	mov	edx, DWORD PTR [eax]
	mov	DWORD PTR [ecx], edx
	mov	eax, DWORD PTR __Val2$[ebp]
	push	eax
	call	??$forward@_N@std@@YA$$QA_NAA_N@Z	; std::forward<bool>
	add	esp, 4
	mov	ecx, DWORD PTR _this$[ebp]
	mov	dl, BYTE PTR [eax]
	mov	BYTE PTR [ecx+4], dl

; 191  :     }

	mov	eax, DWORD PTR _this$[ebp]
	add	esp, 4
	cmp	ebp, esp
	call	__RTC_CheckEsp
	mov	esp, ebp
	pop	ebp
	ret	8
??$?0PAU?$_Tree_node@UTelegram@@PAX@std@@_N$0A@@?$pair@PAU?$_Tree_node@UTelegram@@PAX@std@@_N@std@@QAE@$$QAPAU?$_Tree_node@UTelegram@@PAX@1@$$QA_N@Z ENDP ; std::pair<std::_Tree_node<Telegram,void *> *,bool>::pair<std::_Tree_node<Telegram,void *> *,bool><std::_Tree_node<Telegram,void *> *,bool,0>
_TEXT	ENDS
; Function compile flags: /Odtp /RTCsu
; File C:\Program Files\Microsoft Visual Studio\2022\Community\VC\Tools\MSVC\14.32.31326\include\xtree
;	COMDAT ??$?0ABUTelegram@@@?$_Tree_temp_node@V?$allocator@U?$_Tree_node@UTelegram@@PAX@std@@@std@@@std@@QAE@AAV?$allocator@U?$_Tree_node@UTelegram@@PAX@std@@@1@PAU?$_Tree_node@UTelegram@@PAX@1@ABUTelegram@@@Z
_TEXT	SEGMENT
_this$ = -16						; size = 4
__$EHRec$ = -12						; size = 12
__Al_$ = 8						; size = 4
__Myhead$ = 12						; size = 4
_<_Vals_0>$ = 16					; size = 4
??$?0ABUTelegram@@@?$_Tree_temp_node@V?$allocator@U?$_Tree_node@UTelegram@@PAX@std@@@std@@@std@@QAE@AAV?$allocator@U?$_Tree_node@UTelegram@@PAX@std@@@1@PAU?$_Tree_node@UTelegram@@PAX@1@ABUTelegram@@@Z PROC ; std::_Tree_temp_node<std::allocator<std::_Tree_node<Telegram,void *> > >::_Tree_temp_node<std::allocator<std::_Tree_node<Telegram,void *> > ><Telegram const &>, COMDAT
; _this$ = ecx

; 804  :         : _Tree_temp_node_alloc<_Alnode>(_Al_) {

	push	ebp
	mov	ebp, esp
	push	-1
	push	__ehhandler$??$?0ABUTelegram@@@?$_Tree_temp_node@V?$allocator@U?$_Tree_node@UTelegram@@PAX@std@@@std@@@std@@QAE@AAV?$allocator@U?$_Tree_node@UTelegram@@PAX@std@@@1@PAU?$_Tree_node@UTelegram@@PAX@1@ABUTelegram@@@Z
	mov	eax, DWORD PTR fs:0
	push	eax
	push	ecx
	mov	DWORD PTR [ebp-16], -858993460		; ccccccccH
	mov	eax, DWORD PTR ___security_cookie
	xor	eax, ebp
	push	eax
	lea	eax, DWORD PTR __$EHRec$[ebp]
	mov	DWORD PTR fs:0, eax
	mov	DWORD PTR _this$[ebp], ecx
	mov	eax, DWORD PTR __Al_$[ebp]
	push	eax
	mov	ecx, DWORD PTR _this$[ebp]
	call	??0?$_Tree_temp_node_alloc@V?$allocator@U?$_Tree_node@UTelegram@@PAX@std@@@std@@@std@@QAE@AAV?$allocator@U?$_Tree_node@UTelegram@@PAX@std@@@1@@Z ; std::_Tree_temp_node_alloc<std::allocator<std::_Tree_node<Telegram,void *> > >::_Tree_temp_node_alloc<std::allocator<std::_Tree_node<Telegram,void *> > >
	mov	DWORD PTR __$EHRec$[ebp+8], 0

; 805  :         _Alnode_traits::construct(this->_Al, _STD addressof(this->_Ptr->_Myval), _STD forward<_Valtys>(_Vals)...);

	mov	ecx, DWORD PTR _<_Vals_0>$[ebp]
	push	ecx
	call	??$forward@ABUTelegram@@@std@@YAABUTelegram@@ABU1@@Z ; std::forward<Telegram const &>
	add	esp, 4
	push	eax
	mov	edx, DWORD PTR _this$[ebp]
	mov	eax, DWORD PTR [edx+4]
	add	eax, 16					; 00000010H
	push	eax
	call	??$addressof@UTelegram@@@std@@YAPAUTelegram@@AAU1@@Z ; std::addressof<Telegram>
	add	esp, 4
	push	eax
	mov	ecx, DWORD PTR _this$[ebp]
	mov	edx, DWORD PTR [ecx]
	push	edx
	call	??$construct@UTelegram@@ABU1@@?$_Default_allocator_traits@V?$allocator@U?$_Tree_node@UTelegram@@PAX@std@@@std@@@std@@SAXAAV?$allocator@U?$_Tree_node@UTelegram@@PAX@std@@@1@QAUTelegram@@ABU3@@Z ; std::_Default_allocator_traits<std::allocator<std::_Tree_node<Telegram,void *> > >::construct<Telegram,Telegram const &>
	add	esp, 12					; 0000000cH

; 806  :         _Construct_in_place(this->_Ptr->_Left, _Myhead);

	lea	eax, DWORD PTR __Myhead$[ebp]
	push	eax
	mov	ecx, DWORD PTR _this$[ebp]
	mov	edx, DWORD PTR [ecx+4]
	push	edx
	call	??$_Construct_in_place@PAU?$_Tree_node@UTelegram@@PAX@std@@AAPAU12@@std@@YAXAAPAU?$_Tree_node@UTelegram@@PAX@0@0@Z ; std::_Construct_in_place<std::_Tree_node<Telegram,void *> *,std::_Tree_node<Telegram,void *> * &>
	add	esp, 8

; 807  :         _Construct_in_place(this->_Ptr->_Parent, _Myhead);

	lea	eax, DWORD PTR __Myhead$[ebp]
	push	eax
	mov	ecx, DWORD PTR _this$[ebp]
	mov	edx, DWORD PTR [ecx+4]
	add	edx, 4
	push	edx
	call	??$_Construct_in_place@PAU?$_Tree_node@UTelegram@@PAX@std@@AAPAU12@@std@@YAXAAPAU?$_Tree_node@UTelegram@@PAX@0@0@Z ; std::_Construct_in_place<std::_Tree_node<Telegram,void *> *,std::_Tree_node<Telegram,void *> * &>
	add	esp, 8

; 808  :         _Construct_in_place(this->_Ptr->_Right, _Myhead);

	lea	eax, DWORD PTR __Myhead$[ebp]
	push	eax
	mov	ecx, DWORD PTR _this$[ebp]
	mov	edx, DWORD PTR [ecx+4]
	add	edx, 8
	push	edx
	call	??$_Construct_in_place@PAU?$_Tree_node@UTelegram@@PAX@std@@AAPAU12@@std@@YAXAAPAU?$_Tree_node@UTelegram@@PAX@0@0@Z ; std::_Construct_in_place<std::_Tree_node<Telegram,void *> *,std::_Tree_node<Telegram,void *> * &>
	add	esp, 8

; 809  :         this->_Ptr->_Color = _Red;

	mov	eax, DWORD PTR _this$[ebp]
	mov	ecx, DWORD PTR [eax+4]
	mov	BYTE PTR [ecx+12], 0

; 810  :         this->_Ptr->_Isnil = false;

	mov	edx, DWORD PTR _this$[ebp]
	mov	eax, DWORD PTR [edx+4]
	mov	BYTE PTR [eax+13], 0

; 811  :     }

	mov	DWORD PTR __$EHRec$[ebp+8], -1
	mov	eax, DWORD PTR _this$[ebp]
	mov	ecx, DWORD PTR __$EHRec$[ebp]
	mov	DWORD PTR fs:0, ecx
	pop	ecx
	add	esp, 16					; 00000010H
	cmp	ebp, esp
	call	__RTC_CheckEsp
	mov	esp, ebp
	pop	ebp
	ret	12					; 0000000cH
_TEXT	ENDS
;	COMDAT text$x
text$x	SEGMENT
__unwindfunclet$??$?0ABUTelegram@@@?$_Tree_temp_node@V?$allocator@U?$_Tree_node@UTelegram@@PAX@std@@@std@@@std@@QAE@AAV?$allocator@U?$_Tree_node@UTelegram@@PAX@std@@@1@PAU?$_Tree_node@UTelegram@@PAX@1@ABUTelegram@@@Z$0:
	mov	ecx, DWORD PTR _this$[ebp]
	jmp	??1?$_Tree_temp_node_alloc@V?$allocator@U?$_Tree_node@UTelegram@@PAX@std@@@std@@@std@@QAE@XZ
	int	3
	int	3
	int	3
	int	3
	int	3
__ehhandler$??$?0ABUTelegram@@@?$_Tree_temp_node@V?$allocator@U?$_Tree_node@UTelegram@@PAX@std@@@std@@@std@@QAE@AAV?$allocator@U?$_Tree_node@UTelegram@@PAX@std@@@1@PAU?$_Tree_node@UTelegram@@PAX@1@ABUTelegram@@@Z:
	npad	1
	npad	1
	mov	edx, DWORD PTR [esp+8]
	lea	eax, DWORD PTR [edx+12]
	mov	ecx, DWORD PTR [edx-8]
	xor	ecx, eax
	call	@__security_check_cookie@4
	mov	eax, OFFSET __ehfuncinfo$??$?0ABUTelegram@@@?$_Tree_temp_node@V?$allocator@U?$_Tree_node@UTelegram@@PAX@std@@@std@@@std@@QAE@AAV?$allocator@U?$_Tree_node@UTelegram@@PAX@std@@@1@PAU?$_Tree_node@UTelegram@@PAX@1@ABUTelegram@@@Z
	jmp	___CxxFrameHandler3
text$x	ENDS
??$?0ABUTelegram@@@?$_Tree_temp_node@V?$allocator@U?$_Tree_node@UTelegram@@PAX@std@@@std@@@std@@QAE@AAV?$allocator@U?$_Tree_node@UTelegram@@PAX@std@@@1@PAU?$_Tree_node@UTelegram@@PAX@1@ABUTelegram@@@Z ENDP ; std::_Tree_temp_node<std::allocator<std::_Tree_node<Telegram,void *> > >::_Tree_temp_node<std::allocator<std::_Tree_node<Telegram,void *> > ><Telegram const &>
; Function compile flags: /Odtp /RTCsu
; File C:\Program Files\Microsoft Visual Studio\2022\Community\VC\Tools\MSVC\14.32.31326\include\xtree
;	COMDAT ??1?$_Tree_temp_node@V?$allocator@U?$_Tree_node@UTelegram@@PAX@std@@@std@@@std@@QAE@XZ
_TEXT	SEGMENT
_this$ = -16						; size = 4
__$EHRec$ = -12						; size = 12
??1?$_Tree_temp_node@V?$allocator@U?$_Tree_node@UTelegram@@PAX@std@@@std@@@std@@QAE@XZ PROC ; std::_Tree_temp_node<std::allocator<std::_Tree_node<Telegram,void *> > >::~_Tree_temp_node<std::allocator<std::_Tree_node<Telegram,void *> > >, COMDAT
; _this$ = ecx

; 816  :     ~_Tree_temp_node() {

	push	ebp
	mov	ebp, esp
	push	-1
	push	__ehhandler$??1?$_Tree_temp_node@V?$allocator@U?$_Tree_node@UTelegram@@PAX@std@@@std@@@std@@QAE@XZ
	mov	eax, DWORD PTR fs:0
	push	eax
	push	ecx
	mov	DWORD PTR [ebp-16], -858993460		; ccccccccH
	mov	eax, DWORD PTR ___security_cookie
	xor	eax, ebp
	push	eax
	lea	eax, DWORD PTR __$EHRec$[ebp]
	mov	DWORD PTR fs:0, eax
	mov	DWORD PTR _this$[ebp], ecx

; 817  :         if (this->_Ptr) {

	mov	eax, DWORD PTR _this$[ebp]
	cmp	DWORD PTR [eax+4], 0
	je	SHORT $LN1@Tree_temp_

; 818  :             _Destroy_in_place(this->_Ptr->_Left);

	mov	ecx, DWORD PTR _this$[ebp]
	mov	edx, DWORD PTR [ecx+4]
	push	edx
	call	??$_Destroy_in_place@PAU?$_Tree_node@UTelegram@@PAX@std@@@std@@YAXAAPAU?$_Tree_node@UTelegram@@PAX@0@@Z ; std::_Destroy_in_place<std::_Tree_node<Telegram,void *> *>
	add	esp, 4

; 819  :             _Destroy_in_place(this->_Ptr->_Parent);

	mov	eax, DWORD PTR _this$[ebp]
	mov	ecx, DWORD PTR [eax+4]
	add	ecx, 4
	push	ecx
	call	??$_Destroy_in_place@PAU?$_Tree_node@UTelegram@@PAX@std@@@std@@YAXAAPAU?$_Tree_node@UTelegram@@PAX@0@@Z ; std::_Destroy_in_place<std::_Tree_node<Telegram,void *> *>
	add	esp, 4

; 820  :             _Destroy_in_place(this->_Ptr->_Right);

	mov	edx, DWORD PTR _this$[ebp]
	mov	eax, DWORD PTR [edx+4]
	add	eax, 8
	push	eax
	call	??$_Destroy_in_place@PAU?$_Tree_node@UTelegram@@PAX@std@@@std@@YAXAAPAU?$_Tree_node@UTelegram@@PAX@0@@Z ; std::_Destroy_in_place<std::_Tree_node<Telegram,void *> *>
	add	esp, 4

; 821  :             _Alnode_traits::destroy(this->_Al, _STD addressof(this->_Ptr->_Myval));

	mov	ecx, DWORD PTR _this$[ebp]
	mov	edx, DWORD PTR [ecx+4]
	add	edx, 16					; 00000010H
	push	edx
	call	??$addressof@UTelegram@@@std@@YAPAUTelegram@@AAU1@@Z ; std::addressof<Telegram>
	add	esp, 4
	push	eax
	mov	eax, DWORD PTR _this$[ebp]
	mov	ecx, DWORD PTR [eax]
	push	ecx
	call	??$destroy@UTelegram@@@?$_Default_allocator_traits@V?$allocator@U?$_Tree_node@UTelegram@@PAX@std@@@std@@@std@@SAXAAV?$allocator@U?$_Tree_node@UTelegram@@PAX@std@@@1@QAUTelegram@@@Z ; std::_Default_allocator_traits<std::allocator<std::_Tree_node<Telegram,void *> > >::destroy<Telegram>
	add	esp, 8
$LN1@Tree_temp_:

; 822  :         }
; 823  :     }

	mov	ecx, DWORD PTR _this$[ebp]
	call	??1?$_Tree_temp_node_alloc@V?$allocator@U?$_Tree_node@UTelegram@@PAX@std@@@std@@@std@@QAE@XZ
	mov	ecx, DWORD PTR __$EHRec$[ebp]
	mov	DWORD PTR fs:0, ecx
	pop	ecx
	add	esp, 16					; 00000010H
	cmp	ebp, esp
	call	__RTC_CheckEsp
	mov	esp, ebp
	pop	ebp
	ret	0
	int	3
	int	3
	int	3
	int	3
	int	3
_TEXT	ENDS
;	COMDAT text$x
text$x	SEGMENT
__ehhandler$??1?$_Tree_temp_node@V?$allocator@U?$_Tree_node@UTelegram@@PAX@std@@@std@@@std@@QAE@XZ:
	npad	1
	npad	1
	mov	edx, DWORD PTR [esp+8]
	lea	eax, DWORD PTR [edx+12]
	mov	ecx, DWORD PTR [edx-8]
	xor	ecx, eax
	call	@__security_check_cookie@4
	mov	eax, OFFSET __ehfuncinfo$??1?$_Tree_temp_node@V?$allocator@U?$_Tree_node@UTelegram@@PAX@std@@@std@@@std@@QAE@XZ
	jmp	___CxxFrameHandler3
text$x	ENDS
??1?$_Tree_temp_node@V?$allocator@U?$_Tree_node@UTelegram@@PAX@std@@@std@@@std@@QAE@XZ ENDP ; std::_Tree_temp_node<std::allocator<std::_Tree_node<Telegram,void *> > >::~_Tree_temp_node<std::allocator<std::_Tree_node<Telegram,void *> > >
; Function compile flags: /Odtp /RTCsu
;	COMDAT ??1?$_Tree_temp_node_alloc@V?$allocator@U?$_Tree_node@UTelegram@@PAX@std@@@std@@@std@@QAE@XZ
_TEXT	SEGMENT
_this$ = -4						; size = 4
??1?$_Tree_temp_node_alloc@V?$allocator@U?$_Tree_node@UTelegram@@PAX@std@@@std@@@std@@QAE@XZ PROC ; std::_Tree_temp_node_alloc<std::allocator<std::_Tree_node<Telegram,void *> > >::~_Tree_temp_node_alloc<std::allocator<std::_Tree_node<Telegram,void *> > >, COMDAT
; _this$ = ecx
	push	ebp
	mov	ebp, esp
	push	ecx
	mov	DWORD PTR [ebp-4], -858993460		; ccccccccH
	mov	DWORD PTR _this$[ebp], ecx
	mov	ecx, DWORD PTR _this$[ebp]
	call	??1?$_Alloc_construct_ptr@V?$allocator@U?$_Tree_node@UTelegram@@PAX@std@@@std@@@std@@QAE@XZ ; std::_Alloc_construct_ptr<std::allocator<std::_Tree_node<Telegram,void *> > >::~_Alloc_construct_ptr<std::allocator<std::_Tree_node<Telegram,void *> > >
	add	esp, 4
	cmp	ebp, esp
	call	__RTC_CheckEsp
	mov	esp, ebp
	pop	ebp
	ret	0
??1?$_Tree_temp_node_alloc@V?$allocator@U?$_Tree_node@UTelegram@@PAX@std@@@std@@@std@@QAE@XZ ENDP ; std::_Tree_temp_node_alloc<std::allocator<std::_Tree_node<Telegram,void *> > >::~_Tree_temp_node_alloc<std::allocator<std::_Tree_node<Telegram,void *> > >
_TEXT	ENDS
; Function compile flags: /Odtp /RTCsu
; File C:\Program Files\Microsoft Visual Studio\2022\Community\VC\Tools\MSVC\14.32.31326\include\xtree
;	COMDAT ??0?$_Tree_temp_node_alloc@V?$allocator@U?$_Tree_node@UTelegram@@PAX@std@@@std@@@std@@QAE@AAV?$allocator@U?$_Tree_node@UTelegram@@PAX@std@@@1@@Z
_TEXT	SEGMENT
_this$ = -16						; size = 4
__$EHRec$ = -12						; size = 12
__Al_$ = 8						; size = 4
??0?$_Tree_temp_node_alloc@V?$allocator@U?$_Tree_node@UTelegram@@PAX@std@@@std@@@std@@QAE@AAV?$allocator@U?$_Tree_node@UTelegram@@PAX@std@@@1@@Z PROC ; std::_Tree_temp_node_alloc<std::allocator<std::_Tree_node<Telegram,void *> > >::_Tree_temp_node_alloc<std::allocator<std::_Tree_node<Telegram,void *> > >, COMDAT
; _this$ = ecx

; 783  :     explicit _Tree_temp_node_alloc(_Alnode& _Al_) : _Alloc_construct_ptr<_Alnode>(_Al_) {

	push	ebp
	mov	ebp, esp
	push	-1
	push	__ehhandler$??0?$_Tree_temp_node_alloc@V?$allocator@U?$_Tree_node@UTelegram@@PAX@std@@@std@@@std@@QAE@AAV?$allocator@U?$_Tree_node@UTelegram@@PAX@std@@@1@@Z
	mov	eax, DWORD PTR fs:0
	push	eax
	push	ecx
	mov	DWORD PTR [ebp-16], -858993460		; ccccccccH
	mov	eax, DWORD PTR ___security_cookie
	xor	eax, ebp
	push	eax
	lea	eax, DWORD PTR __$EHRec$[ebp]
	mov	DWORD PTR fs:0, eax
	mov	DWORD PTR _this$[ebp], ecx
	mov	eax, DWORD PTR __Al_$[ebp]
	push	eax
	mov	ecx, DWORD PTR _this$[ebp]
	call	??0?$_Alloc_construct_ptr@V?$allocator@U?$_Tree_node@UTelegram@@PAX@std@@@std@@@std@@QAE@AAV?$allocator@U?$_Tree_node@UTelegram@@PAX@std@@@1@@Z ; std::_Alloc_construct_ptr<std::allocator<std::_Tree_node<Telegram,void *> > >::_Alloc_construct_ptr<std::allocator<std::_Tree_node<Telegram,void *> > >
	mov	DWORD PTR __$EHRec$[ebp+8], 0

; 784  :         _Alloc_construct_ptr<_Alnode>::_Allocate();

	mov	ecx, DWORD PTR _this$[ebp]
	call	?_Allocate@?$_Alloc_construct_ptr@V?$allocator@U?$_Tree_node@UTelegram@@PAX@std@@@std@@@std@@QAEXXZ ; std::_Alloc_construct_ptr<std::allocator<std::_Tree_node<Telegram,void *> > >::_Allocate

; 785  :     }

	mov	DWORD PTR __$EHRec$[ebp+8], -1
	mov	eax, DWORD PTR _this$[ebp]
	mov	ecx, DWORD PTR __$EHRec$[ebp]
	mov	DWORD PTR fs:0, ecx
	pop	ecx
	add	esp, 16					; 00000010H
	cmp	ebp, esp
	call	__RTC_CheckEsp
	mov	esp, ebp
	pop	ebp
	ret	4
_TEXT	ENDS
;	COMDAT text$x
text$x	SEGMENT
__unwindfunclet$??0?$_Tree_temp_node_alloc@V?$allocator@U?$_Tree_node@UTelegram@@PAX@std@@@std@@@std@@QAE@AAV?$allocator@U?$_Tree_node@UTelegram@@PAX@std@@@1@@Z$0:
	mov	ecx, DWORD PTR _this$[ebp]
	jmp	??1?$_Alloc_construct_ptr@V?$allocator@U?$_Tree_node@UTelegram@@PAX@std@@@std@@@std@@QAE@XZ ; std::_Alloc_construct_ptr<std::allocator<std::_Tree_node<Telegram,void *> > >::~_Alloc_construct_ptr<std::allocator<std::_Tree_node<Telegram,void *> > >
	int	3
	int	3
	int	3
	int	3
	int	3
__ehhandler$??0?$_Tree_temp_node_alloc@V?$allocator@U?$_Tree_node@UTelegram@@PAX@std@@@std@@@std@@QAE@AAV?$allocator@U?$_Tree_node@UTelegram@@PAX@std@@@1@@Z:
	npad	1
	npad	1
	mov	edx, DWORD PTR [esp+8]
	lea	eax, DWORD PTR [edx+12]
	mov	ecx, DWORD PTR [edx-8]
	xor	ecx, eax
	call	@__security_check_cookie@4
	mov	eax, OFFSET __ehfuncinfo$??0?$_Tree_temp_node_alloc@V?$allocator@U?$_Tree_node@UTelegram@@PAX@std@@@std@@@std@@QAE@AAV?$allocator@U?$_Tree_node@UTelegram@@PAX@std@@@1@@Z
	jmp	___CxxFrameHandler3
text$x	ENDS
??0?$_Tree_temp_node_alloc@V?$allocator@U?$_Tree_node@UTelegram@@PAX@std@@@std@@@std@@QAE@AAV?$allocator@U?$_Tree_node@UTelegram@@PAX@std@@@1@@Z ENDP ; std::_Tree_temp_node_alloc<std::allocator<std::_Tree_node<Telegram,void *> > >::_Tree_temp_node_alloc<std::allocator<std::_Tree_node<Telegram,void *> > >
; Function compile flags: /Odtp /RTCsu
; File C:\Program Files\Microsoft Visual Studio\2022\Community\VC\Tools\MSVC\14.32.31326\include\xmemory
;	COMDAT ??1?$_Alloc_construct_ptr@V?$allocator@U?$_Tree_node@UTelegram@@PAX@std@@@std@@@std@@QAE@XZ
_TEXT	SEGMENT
_this$ = -16						; size = 4
__$EHRec$ = -12						; size = 12
??1?$_Alloc_construct_ptr@V?$allocator@U?$_Tree_node@UTelegram@@PAX@std@@@std@@@std@@QAE@XZ PROC ; std::_Alloc_construct_ptr<std::allocator<std::_Tree_node<Telegram,void *> > >::~_Alloc_construct_ptr<std::allocator<std::_Tree_node<Telegram,void *> > >, COMDAT
; _this$ = ecx

; 1008 :     _CONSTEXPR20 ~_Alloc_construct_ptr() { // if this instance is engaged, deallocate storage

	push	ebp
	mov	ebp, esp
	push	-1
	push	__ehhandler$??1?$_Alloc_construct_ptr@V?$allocator@U?$_Tree_node@UTelegram@@PAX@std@@@std@@@std@@QAE@XZ
	mov	eax, DWORD PTR fs:0
	push	eax
	push	ecx
	mov	DWORD PTR [ebp-16], -858993460		; ccccccccH
	mov	eax, DWORD PTR ___security_cookie
	xor	eax, ebp
	push	eax
	lea	eax, DWORD PTR __$EHRec$[ebp]
	mov	DWORD PTR fs:0, eax
	mov	DWORD PTR _this$[ebp], ecx

; 1009 :         if (_Ptr) {

	mov	eax, DWORD PTR _this$[ebp]
	cmp	DWORD PTR [eax+4], 0
	je	SHORT $LN3@Alloc_cons

; 1010 :             _Al.deallocate(_Ptr, 1);

	push	1
	mov	ecx, DWORD PTR _this$[ebp]
	mov	edx, DWORD PTR [ecx+4]
	push	edx
	mov	eax, DWORD PTR _this$[ebp]
	mov	ecx, DWORD PTR [eax]
	call	?deallocate@?$allocator@U?$_Tree_node@UTelegram@@PAX@std@@@std@@QAEXQAU?$_Tree_node@UTelegram@@PAX@2@I@Z ; std::allocator<std::_Tree_node<Telegram,void *> >::deallocate
$LN3@Alloc_cons:

; 1011 :         }
; 1012 :     }

	mov	ecx, DWORD PTR __$EHRec$[ebp]
	mov	DWORD PTR fs:0, ecx
	pop	ecx
	add	esp, 16					; 00000010H
	cmp	ebp, esp
	call	__RTC_CheckEsp
	mov	esp, ebp
	pop	ebp
	ret	0
	int	3
	int	3
	int	3
	int	3
	int	3
_TEXT	ENDS
;	COMDAT text$x
text$x	SEGMENT
__ehhandler$??1?$_Alloc_construct_ptr@V?$allocator@U?$_Tree_node@UTelegram@@PAX@std@@@std@@@std@@QAE@XZ:
	npad	1
	npad	1
	mov	edx, DWORD PTR [esp+8]
	lea	eax, DWORD PTR [edx+12]
	mov	ecx, DWORD PTR [edx-8]
	xor	ecx, eax
	call	@__security_check_cookie@4
	mov	eax, OFFSET __ehfuncinfo$??1?$_Alloc_construct_ptr@V?$allocator@U?$_Tree_node@UTelegram@@PAX@std@@@std@@@std@@QAE@XZ
	jmp	___CxxFrameHandler3
text$x	ENDS
??1?$_Alloc_construct_ptr@V?$allocator@U?$_Tree_node@UTelegram@@PAX@std@@@std@@@std@@QAE@XZ ENDP ; std::_Alloc_construct_ptr<std::allocator<std::_Tree_node<Telegram,void *> > >::~_Alloc_construct_ptr<std::allocator<std::_Tree_node<Telegram,void *> > >
; Function compile flags: /Odtp /RTCsu
; File C:\Program Files\Microsoft Visual Studio\2022\Community\VC\Tools\MSVC\14.32.31326\include\xmemory
;	COMDAT ?_Allocate@?$_Alloc_construct_ptr@V?$allocator@U?$_Tree_node@UTelegram@@PAX@std@@@std@@@std@@QAEXXZ
_TEXT	SEGMENT
_this$ = -4						; size = 4
?_Allocate@?$_Alloc_construct_ptr@V?$allocator@U?$_Tree_node@UTelegram@@PAX@std@@@std@@@std@@QAEXXZ PROC ; std::_Alloc_construct_ptr<std::allocator<std::_Tree_node<Telegram,void *> > >::_Allocate, COMDAT
; _this$ = ecx

; 1003 :     _CONSTEXPR20 void _Allocate() { // disengage *this, then allocate a new memory block

	push	ebp
	mov	ebp, esp
	push	ecx
	mov	DWORD PTR [ebp-4], -858993460		; ccccccccH
	mov	DWORD PTR _this$[ebp], ecx

; 1004 :         _Ptr = nullptr; // if allocate throws, prevents double-free

	mov	eax, DWORD PTR _this$[ebp]
	mov	DWORD PTR [eax+4], 0

; 1005 :         _Ptr = _Al.allocate(1);

	push	1
	mov	ecx, DWORD PTR _this$[ebp]
	mov	ecx, DWORD PTR [ecx]
	call	?allocate@?$allocator@U?$_Tree_node@UTelegram@@PAX@std@@@std@@QAEPAU?$_Tree_node@UTelegram@@PAX@2@I@Z ; std::allocator<std::_Tree_node<Telegram,void *> >::allocate
	mov	edx, DWORD PTR _this$[ebp]
	mov	DWORD PTR [edx+4], eax

; 1006 :     }

	add	esp, 4
	cmp	ebp, esp
	call	__RTC_CheckEsp
	mov	esp, ebp
	pop	ebp
	ret	0
?_Allocate@?$_Alloc_construct_ptr@V?$allocator@U?$_Tree_node@UTelegram@@PAX@std@@@std@@@std@@QAEXXZ ENDP ; std::_Alloc_construct_ptr<std::allocator<std::_Tree_node<Telegram,void *> > >::_Allocate
_TEXT	ENDS
; Function compile flags: /Odtp /RTCsu
; File C:\Program Files\Microsoft Visual Studio\2022\Community\VC\Tools\MSVC\14.32.31326\include\xmemory
;	COMDAT ?_Release@?$_Alloc_construct_ptr@V?$allocator@U?$_Tree_node@UTelegram@@PAX@std@@@std@@@std@@QAEPAU?$_Tree_node@UTelegram@@PAX@2@XZ
_TEXT	SEGMENT
$T1 = -8						; size = 4
_this$ = -4						; size = 4
?_Release@?$_Alloc_construct_ptr@V?$allocator@U?$_Tree_node@UTelegram@@PAX@std@@@std@@@std@@QAEPAU?$_Tree_node@UTelegram@@PAX@2@XZ PROC ; std::_Alloc_construct_ptr<std::allocator<std::_Tree_node<Telegram,void *> > >::_Release, COMDAT
; _this$ = ecx

; 999  :     _NODISCARD _CONSTEXPR20 pointer _Release() noexcept { // disengage *this and return contained pointer

	push	ebp
	mov	ebp, esp
	sub	esp, 8
	mov	DWORD PTR [ebp-8], -858993460		; ccccccccH
	mov	DWORD PTR [ebp-4], -858993460		; ccccccccH
	mov	DWORD PTR _this$[ebp], ecx

; 1000 :         return _STD exchange(_Ptr, nullptr);

	mov	DWORD PTR $T1[ebp], 0
	lea	eax, DWORD PTR $T1[ebp]
	push	eax
	mov	ecx, DWORD PTR _this$[ebp]
	add	ecx, 4
	push	ecx
	call	??$exchange@PAU?$_Tree_node@UTelegram@@PAX@std@@$$T@std@@YAPAU?$_Tree_node@UTelegram@@PAX@0@AAPAU10@$$QA$$T@Z ; std::exchange<std::_Tree_node<Telegram,void *> *,std::nullptr_t>
	add	esp, 8

; 1001 :     }

	add	esp, 8
	cmp	ebp, esp
	call	__RTC_CheckEsp
	mov	esp, ebp
	pop	ebp
	ret	0
?_Release@?$_Alloc_construct_ptr@V?$allocator@U?$_Tree_node@UTelegram@@PAX@std@@@std@@@std@@QAEPAU?$_Tree_node@UTelegram@@PAX@2@XZ ENDP ; std::_Alloc_construct_ptr<std::allocator<std::_Tree_node<Telegram,void *> > >::_Release
_TEXT	ENDS
; Function compile flags: /Odtp /RTCsu
; File C:\Program Files\Microsoft Visual Studio\2022\Community\VC\Tools\MSVC\14.32.31326\include\xmemory
;	COMDAT ??0?$_Alloc_construct_ptr@V?$allocator@U?$_Tree_node@UTelegram@@PAX@std@@@std@@@std@@QAE@AAV?$allocator@U?$_Tree_node@UTelegram@@PAX@std@@@1@@Z
_TEXT	SEGMENT
_this$ = -4						; size = 4
__Al_$ = 8						; size = 4
??0?$_Alloc_construct_ptr@V?$allocator@U?$_Tree_node@UTelegram@@PAX@std@@@std@@@std@@QAE@AAV?$allocator@U?$_Tree_node@UTelegram@@PAX@std@@@1@@Z PROC ; std::_Alloc_construct_ptr<std::allocator<std::_Tree_node<Telegram,void *> > >::_Alloc_construct_ptr<std::allocator<std::_Tree_node<Telegram,void *> > >, COMDAT
; _this$ = ecx

; 997  :     _CONSTEXPR20 explicit _Alloc_construct_ptr(_Alloc& _Al_) : _Al(_Al_), _Ptr(nullptr) {}

	push	ebp
	mov	ebp, esp
	push	ecx
	mov	DWORD PTR _this$[ebp], ecx
	mov	eax, DWORD PTR _this$[ebp]
	mov	ecx, DWORD PTR __Al_$[ebp]
	mov	DWORD PTR [eax], ecx
	mov	edx, DWORD PTR _this$[ebp]
	mov	DWORD PTR [edx+4], 0
	mov	eax, DWORD PTR _this$[ebp]
	mov	esp, ebp
	pop	ebp
	ret	4
??0?$_Alloc_construct_ptr@V?$allocator@U?$_Tree_node@UTelegram@@PAX@std@@@std@@@std@@QAE@AAV?$allocator@U?$_Tree_node@UTelegram@@PAX@std@@@1@@Z ENDP ; std::_Alloc_construct_ptr<std::allocator<std::_Tree_node<Telegram,void *> > >::_Alloc_construct_ptr<std::allocator<std::_Tree_node<Telegram,void *> > >
_TEXT	ENDS
; Function compile flags: /Odtp /RTCsu
; File C:\Program Files\Microsoft Visual Studio\2022\Community\VC\Tools\MSVC\14.32.31326\include\type_traits
;	COMDAT ??$forward@ABUTelegram@@@std@@YAABUTelegram@@ABU1@@Z
_TEXT	SEGMENT
__Arg$ = 8						; size = 4
??$forward@ABUTelegram@@@std@@YAABUTelegram@@ABU1@@Z PROC ; std::forward<Telegram const &>, COMDAT

; 1341 :     remove_reference_t<_Ty>& _Arg) noexcept { // forward an lvalue as either an lvalue or an rvalue

	push	ebp
	mov	ebp, esp

; 1342 :     return static_cast<_Ty&&>(_Arg);

	mov	eax, DWORD PTR __Arg$[ebp]

; 1343 : }

	pop	ebp
	ret	0
??$forward@ABUTelegram@@@std@@YAABUTelegram@@ABU1@@Z ENDP ; std::forward<Telegram const &>
_TEXT	ENDS
; Function compile flags: /Odtp /RTCsu
; File C:\Program Files\Microsoft Visual Studio\2022\Community\VC\Tools\MSVC\14.32.31326\include\utility
;	COMDAT ??$?0AAPAU?$_Tree_node@UTelegram@@PAX@std@@_N$0A@@?$pair@PAU?$_Tree_node@UTelegram@@PAX@std@@_N@std@@QAE@AAPAU?$_Tree_node@UTelegram@@PAX@1@$$QA_N@Z
_TEXT	SEGMENT
_this$ = -4						; size = 4
__Val1$ = 8						; size = 4
__Val2$ = 12						; size = 4
??$?0AAPAU?$_Tree_node@UTelegram@@PAX@std@@_N$0A@@?$pair@PAU?$_Tree_node@UTelegram@@PAX@std@@_N@std@@QAE@AAPAU?$_Tree_node@UTelegram@@PAX@1@$$QA_N@Z PROC ; std::pair<std::_Tree_node<Telegram,void *> *,bool>::pair<std::_Tree_node<Telegram,void *> *,bool><std::_Tree_node<Telegram,void *> * &,bool,0>, COMDAT
; _this$ = ecx

; 190  :         : first(_STD forward<_Other1>(_Val1)), second(_STD forward<_Other2>(_Val2)) {

	push	ebp
	mov	ebp, esp
	push	ecx
	mov	DWORD PTR [ebp-4], -858993460		; ccccccccH
	mov	DWORD PTR _this$[ebp], ecx
	mov	eax, DWORD PTR __Val1$[ebp]
	push	eax
	call	??$forward@AAPAU?$_Tree_node@UTelegram@@PAX@std@@@std@@YAAAPAU?$_Tree_node@UTelegram@@PAX@0@AAPAU10@@Z ; std::forward<std::_Tree_node<Telegram,void *> * &>
	add	esp, 4
	mov	ecx, DWORD PTR _this$[ebp]
	mov	edx, DWORD PTR [eax]
	mov	DWORD PTR [ecx], edx
	mov	eax, DWORD PTR __Val2$[ebp]
	push	eax
	call	??$forward@_N@std@@YA$$QA_NAA_N@Z	; std::forward<bool>
	add	esp, 4
	mov	ecx, DWORD PTR _this$[ebp]
	mov	dl, BYTE PTR [eax]
	mov	BYTE PTR [ecx+4], dl

; 191  :     }

	mov	eax, DWORD PTR _this$[ebp]
	add	esp, 4
	cmp	ebp, esp
	call	__RTC_CheckEsp
	mov	esp, ebp
	pop	ebp
	ret	8
??$?0AAPAU?$_Tree_node@UTelegram@@PAX@std@@_N$0A@@?$pair@PAU?$_Tree_node@UTelegram@@PAX@std@@_N@std@@QAE@AAPAU?$_Tree_node@UTelegram@@PAX@1@$$QA_N@Z ENDP ; std::pair<std::_Tree_node<Telegram,void *> *,bool>::pair<std::_Tree_node<Telegram,void *> *,bool><std::_Tree_node<Telegram,void *> * &,bool,0>
_TEXT	ENDS
; Function compile flags: /Odtp /RTCsu
; File C:\Program Files\Microsoft Visual Studio\2022\Community\VC\Tools\MSVC\14.32.31326\include\xtree
;	COMDAT ??$_Lower_bound_duplicate@UTelegram@@@?$_Tree@V?$_Tset_traits@UTelegram@@U?$less@UTelegram@@@std@@V?$allocator@UTelegram@@@3@$0A@@std@@@std@@IBE_NQAU?$_Tree_node@UTelegram@@PAX@1@ABUTelegram@@@Z
_TEXT	SEGMENT
tv78 = -8						; size = 4
_this$ = -4						; size = 4
__Bound$ = 8						; size = 4
__Keyval$ = 12						; size = 4
??$_Lower_bound_duplicate@UTelegram@@@?$_Tree@V?$_Tset_traits@UTelegram@@U?$less@UTelegram@@@std@@V?$allocator@UTelegram@@@3@$0A@@std@@@std@@IBE_NQAU?$_Tree_node@UTelegram@@PAX@1@ABUTelegram@@@Z PROC ; std::_Tree<std::_Tset_traits<Telegram,std::less<Telegram>,std::allocator<Telegram>,0> >::_Lower_bound_duplicate<Telegram>, COMDAT
; _this$ = ecx

; 1594 :     bool _Lower_bound_duplicate(const _Nodeptr _Bound, const _Keyty& _Keyval) const {

	push	ebp
	mov	ebp, esp
	sub	esp, 8
	mov	DWORD PTR [ebp-8], -858993460		; ccccccccH
	mov	DWORD PTR [ebp-4], -858993460		; ccccccccH
	mov	DWORD PTR _this$[ebp], ecx

; 1595 :         return !_Bound->_Isnil && !_DEBUG_LT_PRED(_Getcomp(), _Keyval, _Traits::_Kfn(_Bound->_Myval));

	mov	eax, DWORD PTR __Bound$[ebp]
	movsx	ecx, BYTE PTR [eax+13]
	test	ecx, ecx
	jne	SHORT $LN3@Lower_boun
	mov	edx, DWORD PTR __Bound$[ebp]
	add	edx, 16					; 00000010H
	push	edx
	call	?_Kfn@?$_Tset_traits@UTelegram@@U?$less@UTelegram@@@std@@V?$allocator@UTelegram@@@3@$0A@@std@@SAABUTelegram@@ABU3@@Z ; std::_Tset_traits<Telegram,std::less<Telegram>,std::allocator<Telegram>,0>::_Kfn
	add	esp, 4
	push	eax
	mov	eax, DWORD PTR __Keyval$[ebp]
	push	eax
	mov	ecx, DWORD PTR _this$[ebp]
	call	?_Getcomp@?$_Tree@V?$_Tset_traits@UTelegram@@U?$less@UTelegram@@@std@@V?$allocator@UTelegram@@@3@$0A@@std@@@std@@IBEABU?$less@UTelegram@@@2@XZ ; std::_Tree<std::_Tset_traits<Telegram,std::less<Telegram>,std::allocator<Telegram>,0> >::_Getcomp
	push	eax
	call	??$_Debug_lt_pred@ABU?$less@UTelegram@@@std@@ABUTelegram@@ABU3@$0A@@std@@YA_NABU?$less@UTelegram@@@0@ABUTelegram@@1@Z ; std::_Debug_lt_pred<std::less<Telegram> const &,Telegram const &,Telegram const &,0>
	add	esp, 12					; 0000000cH
	movzx	ecx, al
	test	ecx, ecx
	jne	SHORT $LN3@Lower_boun
	mov	DWORD PTR tv78[ebp], 1
	jmp	SHORT $LN4@Lower_boun
$LN3@Lower_boun:
	mov	DWORD PTR tv78[ebp], 0
$LN4@Lower_boun:
	mov	al, BYTE PTR tv78[ebp]

; 1596 :     }

	add	esp, 8
	cmp	ebp, esp
	call	__RTC_CheckEsp
	mov	esp, ebp
	pop	ebp
	ret	8
??$_Lower_bound_duplicate@UTelegram@@@?$_Tree@V?$_Tset_traits@UTelegram@@U?$less@UTelegram@@@std@@V?$allocator@UTelegram@@@3@$0A@@std@@@std@@IBE_NQAU?$_Tree_node@UTelegram@@PAX@1@ABUTelegram@@@Z ENDP ; std::_Tree<std::_Tset_traits<Telegram,std::less<Telegram>,std::allocator<Telegram>,0> >::_Lower_bound_duplicate<Telegram>
_TEXT	ENDS
; Function compile flags: /Odtp /RTCsu
; File C:\Program Files\Microsoft Visual Studio\2022\Community\VC\Tools\MSVC\14.32.31326\include\xtree
;	COMDAT ??$_Find_lower_bound@UTelegram@@@?$_Tree@V?$_Tset_traits@UTelegram@@U?$less@UTelegram@@@std@@V?$allocator@UTelegram@@@3@$0A@@std@@@std@@IBE?AU?$_Tree_find_result@PAU?$_Tree_node@UTelegram@@PAX@std@@@1@ABUTelegram@@@Z
_TEXT	SEGMENT
__Trynode$ = -32					; size = 4
__Result$ = -24						; size = 12
__Scary$ = -8						; size = 4
_this$ = -4						; size = 4
___$ReturnUdt$ = 8					; size = 4
__Keyval$ = 12						; size = 4
??$_Find_lower_bound@UTelegram@@@?$_Tree@V?$_Tset_traits@UTelegram@@U?$less@UTelegram@@@std@@V?$allocator@UTelegram@@@3@$0A@@std@@@std@@IBE?AU?$_Tree_find_result@PAU?$_Tree_node@UTelegram@@PAX@std@@@1@ABUTelegram@@@Z PROC ; std::_Tree<std::_Tset_traits<Telegram,std::less<Telegram>,std::allocator<Telegram>,0> >::_Find_lower_bound<Telegram>, COMDAT
; _this$ = ecx

; 1599 :     _Tree_find_result<_Nodeptr> _Find_lower_bound(const _Keyty& _Keyval) const {

	push	ebp
	mov	ebp, esp
	sub	esp, 32					; 00000020H
	mov	eax, -858993460				; ccccccccH
	mov	DWORD PTR [ebp-32], eax
	mov	DWORD PTR [ebp-28], eax
	mov	DWORD PTR [ebp-24], eax
	mov	DWORD PTR [ebp-20], eax
	mov	DWORD PTR [ebp-16], eax
	mov	DWORD PTR [ebp-12], eax
	mov	DWORD PTR [ebp-8], eax
	mov	DWORD PTR [ebp-4], eax
	mov	DWORD PTR _this$[ebp], ecx

; 1600 :         const auto _Scary = _Get_scary();

	mov	ecx, DWORD PTR _this$[ebp]
	call	?_Get_scary@?$_Tree@V?$_Tset_traits@UTelegram@@U?$less@UTelegram@@@std@@V?$allocator@UTelegram@@@3@$0A@@std@@@std@@IBEPBV?$_Tree_val@U?$_Tree_simple_types@UTelegram@@@std@@@2@XZ ; std::_Tree<std::_Tset_traits<Telegram,std::less<Telegram>,std::allocator<Telegram>,0> >::_Get_scary
	mov	DWORD PTR __Scary$[ebp], eax

; 1601 :         _Tree_find_result<_Nodeptr> _Result{{_Scary->_Myhead->_Parent, _Tree_child::_Right}, _Scary->_Myhead};

	mov	eax, DWORD PTR __Scary$[ebp]
	mov	ecx, DWORD PTR [eax+4]
	mov	edx, DWORD PTR [ecx+4]
	mov	DWORD PTR __Result$[ebp], edx
	mov	DWORD PTR __Result$[ebp+4], 0
	mov	eax, DWORD PTR __Scary$[ebp]
	mov	ecx, DWORD PTR [eax+4]
	mov	DWORD PTR __Result$[ebp+8], ecx

; 1602 :         _Nodeptr _Trynode = _Result._Location._Parent;

	mov	edx, DWORD PTR __Result$[ebp]
	mov	DWORD PTR __Trynode$[ebp], edx
$LN2@Find_lower:

; 1603 :         while (!_Trynode->_Isnil) {

	mov	eax, DWORD PTR __Trynode$[ebp]
	movsx	ecx, BYTE PTR [eax+13]
	test	ecx, ecx
	jne	SHORT $LN3@Find_lower

; 1604 :             _Result._Location._Parent = _Trynode;

	mov	edx, DWORD PTR __Trynode$[ebp]
	mov	DWORD PTR __Result$[ebp], edx

; 1605 :             if (_DEBUG_LT_PRED(_Getcomp(), _Traits::_Kfn(_Trynode->_Myval), _Keyval)) {

	mov	eax, DWORD PTR __Keyval$[ebp]
	push	eax
	mov	ecx, DWORD PTR __Trynode$[ebp]
	add	ecx, 16					; 00000010H
	push	ecx
	call	?_Kfn@?$_Tset_traits@UTelegram@@U?$less@UTelegram@@@std@@V?$allocator@UTelegram@@@3@$0A@@std@@SAABUTelegram@@ABU3@@Z ; std::_Tset_traits<Telegram,std::less<Telegram>,std::allocator<Telegram>,0>::_Kfn
	add	esp, 4
	push	eax
	mov	ecx, DWORD PTR _this$[ebp]
	call	?_Getcomp@?$_Tree@V?$_Tset_traits@UTelegram@@U?$less@UTelegram@@@std@@V?$allocator@UTelegram@@@3@$0A@@std@@@std@@IBEABU?$less@UTelegram@@@2@XZ ; std::_Tree<std::_Tset_traits<Telegram,std::less<Telegram>,std::allocator<Telegram>,0> >::_Getcomp
	push	eax
	call	??$_Debug_lt_pred@ABU?$less@UTelegram@@@std@@ABUTelegram@@ABU3@$0A@@std@@YA_NABU?$less@UTelegram@@@0@ABUTelegram@@1@Z ; std::_Debug_lt_pred<std::less<Telegram> const &,Telegram const &,Telegram const &,0>
	add	esp, 12					; 0000000cH
	movzx	edx, al
	test	edx, edx
	je	SHORT $LN4@Find_lower

; 1606 :                 _Result._Location._Child = _Tree_child::_Right;

	mov	DWORD PTR __Result$[ebp+4], 0

; 1607 :                 _Trynode                 = _Trynode->_Right;

	mov	eax, DWORD PTR __Trynode$[ebp]
	mov	ecx, DWORD PTR [eax+8]
	mov	DWORD PTR __Trynode$[ebp], ecx

; 1608 :             } else {

	jmp	SHORT $LN5@Find_lower
$LN4@Find_lower:

; 1609 :                 _Result._Location._Child = _Tree_child::_Left;

	mov	DWORD PTR __Result$[ebp+4], 1

; 1610 :                 _Result._Bound           = _Trynode;

	mov	edx, DWORD PTR __Trynode$[ebp]
	mov	DWORD PTR __Result$[ebp+8], edx

; 1611 :                 _Trynode                 = _Trynode->_Left;

	mov	eax, DWORD PTR __Trynode$[ebp]
	mov	ecx, DWORD PTR [eax]
	mov	DWORD PTR __Trynode$[ebp], ecx
$LN5@Find_lower:

; 1612 :             }
; 1613 :         }

	jmp	SHORT $LN2@Find_lower
$LN3@Find_lower:

; 1614 : 
; 1615 :         return _Result;

	mov	edx, DWORD PTR ___$ReturnUdt$[ebp]
	mov	eax, DWORD PTR __Result$[ebp]
	mov	DWORD PTR [edx], eax
	mov	ecx, DWORD PTR __Result$[ebp+4]
	mov	DWORD PTR [edx+4], ecx
	mov	eax, DWORD PTR __Result$[ebp+8]
	mov	DWORD PTR [edx+8], eax
	mov	eax, DWORD PTR ___$ReturnUdt$[ebp]

; 1616 :     }

	push	edx
	mov	ecx, ebp
	push	eax
	lea	edx, DWORD PTR $LN9@Find_lower
	call	@_RTC_CheckStackVars@8
	pop	eax
	pop	edx
	add	esp, 32					; 00000020H
	cmp	ebp, esp
	call	__RTC_CheckEsp
	mov	esp, ebp
	pop	ebp
	ret	8
	npad	3
$LN9@Find_lower:
	DD	1
	DD	$LN8@Find_lower
$LN8@Find_lower:
	DD	-24					; ffffffe8H
	DD	12					; 0000000cH
	DD	$LN7@Find_lower
$LN7@Find_lower:
	DB	95					; 0000005fH
	DB	82					; 00000052H
	DB	101					; 00000065H
	DB	115					; 00000073H
	DB	117					; 00000075H
	DB	108					; 0000006cH
	DB	116					; 00000074H
	DB	0
??$_Find_lower_bound@UTelegram@@@?$_Tree@V?$_Tset_traits@UTelegram@@U?$less@UTelegram@@@std@@V?$allocator@UTelegram@@@3@$0A@@std@@@std@@IBE?AU?$_Tree_find_result@PAU?$_Tree_node@UTelegram@@PAX@std@@@1@ABUTelegram@@@Z ENDP ; std::_Tree<std::_Tset_traits<Telegram,std::less<Telegram>,std::allocator<Telegram>,0> >::_Find_lower_bound<Telegram>
_TEXT	ENDS
; Function compile flags: /Odtp /RTCsu
; File C:\Program Files\Microsoft Visual Studio\2022\Community\VC\Tools\MSVC\14.32.31326\include\xmemory
;	COMDAT ?_Extract@?$_In_place_key_extract_set@UTelegram@@U1@@std@@SAABUTelegram@@ABU3@@Z
_TEXT	SEGMENT
__Val$ = 8						; size = 4
?_Extract@?$_In_place_key_extract_set@UTelegram@@U1@@std@@SAABUTelegram@@ABU3@@Z PROC ; std::_In_place_key_extract_set<Telegram,Telegram>::_Extract, COMDAT

; 1894 :     static const _Key& _Extract(const _Key& _Val) noexcept {

	push	ebp
	mov	ebp, esp

; 1895 :         return _Val;

	mov	eax, DWORD PTR __Val$[ebp]

; 1896 :     }

	pop	ebp
	ret	0
?_Extract@?$_In_place_key_extract_set@UTelegram@@U1@@std@@SAABUTelegram@@ABU3@@Z ENDP ; std::_In_place_key_extract_set<Telegram,Telegram>::_Extract
_TEXT	ENDS
; Function compile flags: /Odtp /RTCsu
; File C:\Program Files\Microsoft Visual Studio\2022\Community\VC\Tools\MSVC\14.32.31326\include\xlocnum
;	COMDAT ??__E?id@?$numpunct@D@std@@2V0locale@2@A@@YAXXZ
text$di	SEGMENT
??__E?id@?$numpunct@D@std@@2V0locale@2@A@@YAXXZ PROC	; `dynamic initializer for 'std::numpunct<char>::id'', COMDAT

; 255  : __PURE_APPDOMAIN_GLOBAL locale::id numpunct<_Elem>::id;

	push	ebp
	mov	ebp, esp
	push	0
	mov	ecx, OFFSET ?id@?$numpunct@D@std@@2V0locale@2@A ; std::numpunct<char>::id
	call	??0id@locale@std@@QAE@I@Z		; std::locale::id::id
	cmp	ebp, esp
	call	__RTC_CheckEsp
	pop	ebp
	ret	0
??__E?id@?$numpunct@D@std@@2V0locale@2@A@@YAXXZ ENDP	; `dynamic initializer for 'std::numpunct<char>::id''
text$di	ENDS
; Function compile flags: /Odtp /RTCsu
; File C:\Program Files\Microsoft Visual Studio\2022\Community\VC\Tools\MSVC\14.32.31326\include\xlocnum
;	COMDAT ??__E?id@?$num_put@DV?$ostreambuf_iterator@DU?$char_traits@D@std@@@std@@@std@@2V0locale@2@A@@YAXXZ
text$di	SEGMENT
??__E?id@?$num_put@DV?$ostreambuf_iterator@DU?$char_traits@D@std@@@std@@@std@@2V0locale@2@A@@YAXXZ PROC ; `dynamic initializer for 'std::num_put<char,std::ostreambuf_iterator<char,std::char_traits<char> > >::id'', COMDAT

; 1602 : __PURE_APPDOMAIN_GLOBAL locale::id num_put<_Elem, _OutIt>::id;

	push	ebp
	mov	ebp, esp
	push	0
	mov	ecx, OFFSET ?id@?$num_put@DV?$ostreambuf_iterator@DU?$char_traits@D@std@@@std@@@std@@2V0locale@2@A ; std::num_put<char,std::ostreambuf_iterator<char,std::char_traits<char> > >::id
	call	??0id@locale@std@@QAE@I@Z		; std::locale::id::id
	cmp	ebp, esp
	call	__RTC_CheckEsp
	pop	ebp
	ret	0
??__E?id@?$num_put@DV?$ostreambuf_iterator@DU?$char_traits@D@std@@@std@@@std@@2V0locale@2@A@@YAXXZ ENDP ; `dynamic initializer for 'std::num_put<char,std::ostreambuf_iterator<char,std::char_traits<char> > >::id''
text$di	ENDS
; Function compile flags: /Odtp /RTCsu
; File C:\Program Files\Microsoft Visual Studio\2022\Community\VC\Tools\MSVC\14.32.31326\include\xmemory
;	COMDAT ??$_Get_size_of_n@$0DA@@std@@YAII@Z
_TEXT	SEGMENT
__Max_possible$1 = -8					; size = 4
__Overflow_is_possible$ = -1				; size = 1
__Count$ = 8						; size = 4
??$_Get_size_of_n@$0DA@@std@@YAII@Z PROC		; std::_Get_size_of_n<48>, COMDAT

; 55   : _NODISCARD constexpr size_t _Get_size_of_n(const size_t _Count) {

	push	ebp
	mov	ebp, esp
	sub	esp, 8
	mov	DWORD PTR [ebp-8], -858993460		; ccccccccH
	mov	DWORD PTR [ebp-4], -858993460		; ccccccccH

; 56   :     constexpr bool _Overflow_is_possible = _Ty_size > 1;

	mov	BYTE PTR __Overflow_is_possible$[ebp], 1

; 57   : 
; 58   :     if constexpr (_Overflow_is_possible) {
; 59   :         constexpr size_t _Max_possible = static_cast<size_t>(-1) / _Ty_size;

	mov	DWORD PTR __Max_possible$1[ebp], 89478485 ; 05555555H

; 60   :         if (_Count > _Max_possible) {

	cmp	DWORD PTR __Count$[ebp], 89478485	; 05555555H
	jbe	SHORT $LN2@Get_size_o

; 61   :             _Throw_bad_array_new_length(); // multiply overflow

	call	?_Throw_bad_array_new_length@std@@YAXXZ	; std::_Throw_bad_array_new_length
$LN2@Get_size_o:

; 62   :         }
; 63   :     }
; 64   : 
; 65   :     return _Count * _Ty_size;

	imul	eax, DWORD PTR __Count$[ebp], 48
$LN3@Get_size_o:

; 66   : }

	add	esp, 8
	cmp	ebp, esp
	call	__RTC_CheckEsp
	mov	esp, ebp
	pop	ebp
	ret	0
??$_Get_size_of_n@$0DA@@std@@YAII@Z ENDP		; std::_Get_size_of_n<48>
_TEXT	ENDS
; Function compile flags: /Odtp /RTCsu
; File C:\Program Files\Microsoft Visual Studio\2022\Community\VC\Tools\MSVC\14.32.31326\include\xutility
;	COMDAT ??$_Construct_in_place@PAU?$_Tree_node@UTelegram@@PAX@std@@ABQAU12@@std@@YAXAAPAU?$_Tree_node@UTelegram@@PAX@0@ABQAU10@@Z
_TEXT	SEGMENT
$T1 = -4						; size = 4
__Obj$ = 8						; size = 4
_<_Args_0>$ = 12					; size = 4
??$_Construct_in_place@PAU?$_Tree_node@UTelegram@@PAX@std@@ABQAU12@@std@@YAXAAPAU?$_Tree_node@UTelegram@@PAX@0@ABQAU10@@Z PROC ; std::_Construct_in_place<std::_Tree_node<Telegram,void *> *,std::_Tree_node<Telegram,void *> * const &>, COMDAT

; 142  :     is_nothrow_constructible_v<_Ty, _Types...>) {

	push	ebp
	mov	ebp, esp
	push	ecx
	mov	DWORD PTR [ebp-4], -858993460		; ccccccccH

; 143  : #if _HAS_CXX20
; 144  :     if (_STD is_constant_evaluated()) {
; 145  :         _STD construct_at(_STD addressof(_Obj), _STD forward<_Types>(_Args)...);
; 146  :     } else
; 147  : #endif // _HAS_CXX20
; 148  :     {
; 149  :         ::new (_Voidify_iter(_STD addressof(_Obj))) _Ty(_STD forward<_Types>(_Args)...);

	mov	eax, DWORD PTR __Obj$[ebp]
	push	eax
	call	??$addressof@PAU?$_Tree_node@UTelegram@@PAX@std@@@std@@YAPAPAU?$_Tree_node@UTelegram@@PAX@0@AAPAU10@@Z ; std::addressof<std::_Tree_node<Telegram,void *> *>
	add	esp, 4
	push	eax
	call	??$_Voidify_iter@PAPAU?$_Tree_node@UTelegram@@PAX@std@@@std@@YAPAXPAPAU?$_Tree_node@UTelegram@@PAX@0@@Z ; std::_Voidify_iter<std::_Tree_node<Telegram,void *> * *>
	add	esp, 4
	push	eax
	push	4
	call	??2@YAPAXIPAX@Z				; operator new
	add	esp, 8
	mov	DWORD PTR $T1[ebp], eax
	mov	ecx, DWORD PTR _<_Args_0>$[ebp]
	push	ecx
	call	??$forward@ABQAU?$_Tree_node@UTelegram@@PAX@std@@@std@@YAABQAU?$_Tree_node@UTelegram@@PAX@0@ABQAU10@@Z ; std::forward<std::_Tree_node<Telegram,void *> * const &>
	add	esp, 4
	mov	edx, DWORD PTR $T1[ebp]
	mov	eax, DWORD PTR [eax]
	mov	DWORD PTR [edx], eax

; 150  :     }
; 151  : }

	add	esp, 4
	cmp	ebp, esp
	call	__RTC_CheckEsp
	mov	esp, ebp
	pop	ebp
	ret	0
??$_Construct_in_place@PAU?$_Tree_node@UTelegram@@PAX@std@@ABQAU12@@std@@YAXAAPAU?$_Tree_node@UTelegram@@PAX@0@ABQAU10@@Z ENDP ; std::_Construct_in_place<std::_Tree_node<Telegram,void *> *,std::_Tree_node<Telegram,void *> * const &>
_TEXT	ENDS
; Function compile flags: /Odtp /RTCsu
; File C:\Program Files\Microsoft Visual Studio\2022\Community\VC\Tools\MSVC\14.32.31326\include\type_traits
;	COMDAT ??$move@AAD@std@@YA$$QADAAD@Z
_TEXT	SEGMENT
__Arg$ = 8						; size = 4
??$move@AAD@std@@YA$$QADAAD@Z PROC			; std::move<char &>, COMDAT

; 1352 : _NODISCARD constexpr remove_reference_t<_Ty>&& move(_Ty&& _Arg) noexcept { // forward _Arg as movable

	push	ebp
	mov	ebp, esp

; 1353 :     return static_cast<remove_reference_t<_Ty>&&>(_Arg);

	mov	eax, DWORD PTR __Arg$[ebp]

; 1354 : }

	pop	ebp
	ret	0
??$move@AAD@std@@YA$$QADAAD@Z ENDP			; std::move<char &>
_TEXT	ENDS
; Function compile flags: /Odtp /RTCsu
; File C:\Program Files\Microsoft Visual Studio\2022\Community\VC\Tools\MSVC\14.32.31326\include\xmemory
;	COMDAT ??$_Allocate_manually_vector_aligned@U_Default_allocate_traits@std@@@std@@YAPAXI@Z
_TEXT	SEGMENT
__Ptr$ = -12						; size = 4
__Ptr_container$ = -8					; size = 4
__Block_size$ = -4					; size = 4
__Bytes$ = 8						; size = 4
??$_Allocate_manually_vector_aligned@U_Default_allocate_traits@std@@@std@@YAPAXI@Z PROC ; std::_Allocate_manually_vector_aligned<std::_Default_allocate_traits>, COMDAT

; 127  : __declspec(allocator) void* _Allocate_manually_vector_aligned(const size_t _Bytes) {

	push	ebp
	mov	ebp, esp
	sub	esp, 12					; 0000000cH
	mov	DWORD PTR [ebp-12], -858993460		; ccccccccH
	mov	DWORD PTR [ebp-8], -858993460		; ccccccccH
	mov	DWORD PTR [ebp-4], -858993460		; ccccccccH

; 128  :     // allocate _Bytes manually aligned to at least _Big_allocation_alignment
; 129  :     const size_t _Block_size = _Non_user_size + _Bytes;

	mov	eax, DWORD PTR __Bytes$[ebp]
	add	eax, 39					; 00000027H
	mov	DWORD PTR __Block_size$[ebp], eax

; 130  :     if (_Block_size <= _Bytes) {

	mov	ecx, DWORD PTR __Block_size$[ebp]
	cmp	ecx, DWORD PTR __Bytes$[ebp]
	ja	SHORT $LN8@Allocate_m

; 131  :         _Throw_bad_array_new_length(); // add overflow

	call	?_Throw_bad_array_new_length@std@@YAXXZ	; std::_Throw_bad_array_new_length
$LN8@Allocate_m:

; 132  :     }
; 133  : 
; 134  :     const uintptr_t _Ptr_container = reinterpret_cast<uintptr_t>(_Traits::_Allocate(_Block_size));

	mov	edx, DWORD PTR __Block_size$[ebp]
	push	edx
	call	?_Allocate@_Default_allocate_traits@std@@SAPAXI@Z ; std::_Default_allocate_traits::_Allocate
	add	esp, 4
	mov	DWORD PTR __Ptr_container$[ebp], eax
$LN4@Allocate_m:

; 135  :     _STL_VERIFY(_Ptr_container != 0, "invalid argument"); // validate even in release since we're doing p[-1]

	cmp	DWORD PTR __Ptr_container$[ebp], 0
	je	SHORT $LN7@Allocate_m
	jmp	SHORT $LN2@Allocate_m
$LN7@Allocate_m:
	push	OFFSET $SG172491
	push	OFFSET $SG172492
	push	0
	push	135					; 00000087H
	push	OFFSET $SG172493
	push	2
	call	__CrtDbgReport
	add	esp, 24					; 00000018H
	cmp	eax, 1
	jne	SHORT $LN12@Allocate_m
	int	3
$LN12@Allocate_m:
	push	0
	push	135					; 00000087H
	push	OFFSET $SG172494
	push	OFFSET $SG172495
	push	OFFSET $SG172496
	call	__invalid_parameter
	add	esp, 20					; 00000014H
	xor	ecx, ecx
	jne	SHORT $LN7@Allocate_m
$LN2@Allocate_m:
	xor	edx, edx
	jne	SHORT $LN4@Allocate_m

; 136  :     void* const _Ptr = reinterpret_cast<void*>((_Ptr_container + _Non_user_size) & ~(_Big_allocation_alignment - 1));

	mov	eax, DWORD PTR __Ptr_container$[ebp]
	add	eax, 39					; 00000027H
	and	eax, -32				; ffffffe0H
	mov	DWORD PTR __Ptr$[ebp], eax

; 137  :     static_cast<uintptr_t*>(_Ptr)[-1] = _Ptr_container;

	mov	ecx, 4
	imul	edx, ecx, -1
	mov	eax, DWORD PTR __Ptr$[ebp]
	mov	ecx, DWORD PTR __Ptr_container$[ebp]
	mov	DWORD PTR [eax+edx], ecx

; 138  : 
; 139  : #ifdef _DEBUG
; 140  :     static_cast<uintptr_t*>(_Ptr)[-2] = _Big_allocation_sentinel;

	mov	edx, 4
	imul	eax, edx, -2
	mov	ecx, DWORD PTR __Ptr$[ebp]
	mov	DWORD PTR [ecx+eax], -84215046		; fafafafaH

; 141  : #endif // _DEBUG
; 142  :     return _Ptr;

	mov	eax, DWORD PTR __Ptr$[ebp]
$LN11@Allocate_m:

; 143  : }

	add	esp, 12					; 0000000cH
	cmp	ebp, esp
	call	__RTC_CheckEsp
	mov	esp, ebp
	pop	ebp
	ret	0
??$_Allocate_manually_vector_aligned@U_Default_allocate_traits@std@@@std@@YAPAXI@Z ENDP ; std::_Allocate_manually_vector_aligned<std::_Default_allocate_traits>
_TEXT	ENDS
; Function compile flags: /Odtp /RTCsu
; File C:\Program Files\Microsoft Visual Studio\2022\Community\VC\Tools\MSVC\14.32.31326\include\type_traits
;	COMDAT ??$forward@ABU?$less@UTelegram@@@std@@@std@@YAABU?$less@UTelegram@@@0@ABU10@@Z
_TEXT	SEGMENT
__Arg$ = 8						; size = 4
??$forward@ABU?$less@UTelegram@@@std@@@std@@YAABU?$less@UTelegram@@@0@ABU10@@Z PROC ; std::forward<std::less<Telegram> const &>, COMDAT

; 1341 :     remove_reference_t<_Ty>& _Arg) noexcept { // forward an lvalue as either an lvalue or an rvalue

	push	ebp
	mov	ebp, esp

; 1342 :     return static_cast<_Ty&&>(_Arg);

	mov	eax, DWORD PTR __Arg$[ebp]

; 1343 : }

	pop	ebp
	ret	0
??$forward@ABU?$less@UTelegram@@@std@@@std@@YAABU?$less@UTelegram@@@0@ABU10@@Z ENDP ; std::forward<std::less<Telegram> const &>
_TEXT	ENDS
; Function compile flags: /Odtp /RTCsu
; File C:\Program Files\Microsoft Visual Studio\2022\Community\VC\Tools\MSVC\14.32.31326\include\xmemory
;	COMDAT ??$destroy@UTelegram@@@?$_Default_allocator_traits@V?$allocator@U?$_Tree_node@UTelegram@@PAX@std@@@std@@@std@@SAXAAV?$allocator@U?$_Tree_node@UTelegram@@PAX@std@@@1@QAUTelegram@@@Z
_TEXT	SEGMENT
___formal$ = 8						; size = 4
__Ptr$ = 12						; size = 4
??$destroy@UTelegram@@@?$_Default_allocator_traits@V?$allocator@U?$_Tree_node@UTelegram@@PAX@std@@@std@@@std@@SAXAAV?$allocator@U?$_Tree_node@UTelegram@@PAX@std@@@1@QAUTelegram@@@Z PROC ; std::_Default_allocator_traits<std::allocator<std::_Tree_node<Telegram,void *> > >::destroy<Telegram>, COMDAT

; 685  :     static _CONSTEXPR20 void destroy(_Alloc&, _Uty* const _Ptr) {

	push	ebp
	mov	ebp, esp

; 686  : #if _HAS_CXX20
; 687  :         _STD destroy_at(_Ptr);
; 688  : #else // _HAS_CXX20
; 689  :         _Ptr->~_Uty();
; 690  : #endif // _HAS_CXX20
; 691  :     }

	pop	ebp
	ret	0
??$destroy@UTelegram@@@?$_Default_allocator_traits@V?$allocator@U?$_Tree_node@UTelegram@@PAX@std@@@std@@@std@@SAXAAV?$allocator@U?$_Tree_node@UTelegram@@PAX@std@@@1@QAUTelegram@@@Z ENDP ; std::_Default_allocator_traits<std::allocator<std::_Tree_node<Telegram,void *> > >::destroy<Telegram>
_TEXT	ENDS
; Function compile flags: /Odtp /RTCsu
; File C:\Program Files\Microsoft Visual Studio\2022\Community\VC\Tools\MSVC\14.32.31326\include\xstddef
;	COMDAT ??$addressof@UTelegram@@@std@@YAPAUTelegram@@AAU1@@Z
_TEXT	SEGMENT
__Val$ = 8						; size = 4
??$addressof@UTelegram@@@std@@YAPAUTelegram@@AAU1@@Z PROC ; std::addressof<Telegram>, COMDAT

; 252  : _NODISCARD constexpr _Ty* addressof(_Ty& _Val) noexcept {

	push	ebp
	mov	ebp, esp

; 253  :     return __builtin_addressof(_Val);

	mov	eax, DWORD PTR __Val$[ebp]

; 254  : }

	pop	ebp
	ret	0
??$addressof@UTelegram@@@std@@YAPAUTelegram@@AAU1@@Z ENDP ; std::addressof<Telegram>
_TEXT	ENDS
; Function compile flags: /Odtp /RTCsu
; File C:\Program Files\Microsoft Visual Studio\2022\Community\VC\Tools\MSVC\14.32.31326\include\type_traits
;	COMDAT ??$forward@U_Zero_then_variadic_args_t@std@@@std@@YA$$QAU_Zero_then_variadic_args_t@0@AAU10@@Z
_TEXT	SEGMENT
__Arg$ = 8						; size = 4
??$forward@U_Zero_then_variadic_args_t@std@@@std@@YA$$QAU_Zero_then_variadic_args_t@0@AAU10@@Z PROC ; std::forward<std::_Zero_then_variadic_args_t>, COMDAT

; 1341 :     remove_reference_t<_Ty>& _Arg) noexcept { // forward an lvalue as either an lvalue or an rvalue

	push	ebp
	mov	ebp, esp

; 1342 :     return static_cast<_Ty&&>(_Arg);

	mov	eax, DWORD PTR __Arg$[ebp]

; 1343 : }

	pop	ebp
	ret	0
??$forward@U_Zero_then_variadic_args_t@std@@@std@@YA$$QAU_Zero_then_variadic_args_t@0@AAU10@@Z ENDP ; std::forward<std::_Zero_then_variadic_args_t>
_TEXT	ENDS
; Function compile flags: /Odtp /RTCsu
; File C:\Program Files\Microsoft Visual Studio\2022\Community\VC\Tools\MSVC\14.32.31326\include\type_traits
;	COMDAT ??$forward@PAU_Container_base12@std@@@std@@YA$$QAPAU_Container_base12@0@AAPAU10@@Z
_TEXT	SEGMENT
__Arg$ = 8						; size = 4
??$forward@PAU_Container_base12@std@@@std@@YA$$QAPAU_Container_base12@0@AAPAU10@@Z PROC ; std::forward<std::_Container_base12 *>, COMDAT

; 1341 :     remove_reference_t<_Ty>& _Arg) noexcept { // forward an lvalue as either an lvalue or an rvalue

	push	ebp
	mov	ebp, esp

; 1342 :     return static_cast<_Ty&&>(_Arg);

	mov	eax, DWORD PTR __Arg$[ebp]

; 1343 : }

	pop	ebp
	ret	0
??$forward@PAU_Container_base12@std@@@std@@YA$$QAPAU_Container_base12@0@AAPAU10@@Z ENDP ; std::forward<std::_Container_base12 *>
_TEXT	ENDS
; Function compile flags: /Odtp /RTCsu
; File C:\Program Files\Microsoft Visual Studio\2022\Community\VC\Tools\MSVC\14.32.31326\include\xutility
;	COMDAT ??$_Voidify_iter@PAU_Container_proxy@std@@@std@@YAPAXPAU_Container_proxy@0@@Z
_TEXT	SEGMENT
__It$ = 8						; size = 4
??$_Voidify_iter@PAU_Container_proxy@std@@@std@@YAPAXPAU_Container_proxy@0@@Z PROC ; std::_Voidify_iter<std::_Container_proxy *>, COMDAT

; 123  : _NODISCARD constexpr void* _Voidify_iter(_Iter _It) noexcept {

	push	ebp
	mov	ebp, esp

; 124  :     if constexpr (is_pointer_v<_Iter>) {
; 125  :         return const_cast<void*>(static_cast<const volatile void*>(_It));

	mov	eax, DWORD PTR __It$[ebp]

; 126  :     } else {
; 127  :         return const_cast<void*>(static_cast<const volatile void*>(_STD addressof(*_It)));
; 128  :     }
; 129  : }

	pop	ebp
	ret	0
??$_Voidify_iter@PAU_Container_proxy@std@@@std@@YAPAXPAU_Container_proxy@0@@Z ENDP ; std::_Voidify_iter<std::_Container_proxy *>
_TEXT	ENDS
; Function compile flags: /Odtp /RTCsu
; File C:\Program Files\Microsoft Visual Studio\2022\Community\VC\Tools\MSVC\14.32.31326\include\xstddef
;	COMDAT ??$addressof@U_Container_proxy@std@@@std@@YAPAU_Container_proxy@0@AAU10@@Z
_TEXT	SEGMENT
__Val$ = 8						; size = 4
??$addressof@U_Container_proxy@std@@@std@@YAPAU_Container_proxy@0@AAU10@@Z PROC ; std::addressof<std::_Container_proxy>, COMDAT

; 252  : _NODISCARD constexpr _Ty* addressof(_Ty& _Val) noexcept {

	push	ebp
	mov	ebp, esp

; 253  :     return __builtin_addressof(_Val);

	mov	eax, DWORD PTR __Val$[ebp]

; 254  : }

	pop	ebp
	ret	0
??$addressof@U_Container_proxy@std@@@std@@YAPAU_Container_proxy@0@AAU10@@Z ENDP ; std::addressof<std::_Container_proxy>
_TEXT	ENDS
; Function compile flags: /Odtp /RTCsu
; File C:\Program Files\Microsoft Visual Studio\2022\Community\VC\Tools\MSVC\14.32.31326\include\xtree
;	COMDAT ??$_Freenode0@V?$allocator@U?$_Tree_node@UTelegram@@PAX@std@@@std@@@?$_Tree_node@UTelegram@@PAX@std@@SAXAAV?$allocator@U?$_Tree_node@UTelegram@@PAX@std@@@1@PAU01@@Z
_TEXT	SEGMENT
__$EHRec$ = -12						; size = 12
__Al$ = 8						; size = 4
__Ptr$ = 12						; size = 4
??$_Freenode0@V?$allocator@U?$_Tree_node@UTelegram@@PAX@std@@@std@@@?$_Tree_node@UTelegram@@PAX@std@@SAXAAV?$allocator@U?$_Tree_node@UTelegram@@PAX@std@@@1@PAU01@@Z PROC ; std::_Tree_node<Telegram,void *>::_Freenode0<std::allocator<std::_Tree_node<Telegram,void *> > >, COMDAT

; 369  :     static void _Freenode0(_Alloc& _Al, _Nodeptr _Ptr) noexcept {

	push	ebp
	mov	ebp, esp
	push	-1
	push	__ehhandler$??$_Freenode0@V?$allocator@U?$_Tree_node@UTelegram@@PAX@std@@@std@@@?$_Tree_node@UTelegram@@PAX@std@@SAXAAV?$allocator@U?$_Tree_node@UTelegram@@PAX@std@@@1@PAU01@@Z
	mov	eax, DWORD PTR fs:0
	push	eax
	mov	eax, DWORD PTR ___security_cookie
	xor	eax, ebp
	push	eax
	lea	eax, DWORD PTR __$EHRec$[ebp]
	mov	DWORD PTR fs:0, eax

; 370  :         static_assert(is_same_v<typename _Alloc::value_type, _Tree_node>, "Bad _Freenode0 call");
; 371  :         _Destroy_in_place(_Ptr->_Left);

	mov	eax, DWORD PTR __Ptr$[ebp]
	push	eax
	call	??$_Destroy_in_place@PAU?$_Tree_node@UTelegram@@PAX@std@@@std@@YAXAAPAU?$_Tree_node@UTelegram@@PAX@0@@Z ; std::_Destroy_in_place<std::_Tree_node<Telegram,void *> *>
	add	esp, 4

; 372  :         _Destroy_in_place(_Ptr->_Parent);

	mov	ecx, DWORD PTR __Ptr$[ebp]
	add	ecx, 4
	push	ecx
	call	??$_Destroy_in_place@PAU?$_Tree_node@UTelegram@@PAX@std@@@std@@YAXAAPAU?$_Tree_node@UTelegram@@PAX@0@@Z ; std::_Destroy_in_place<std::_Tree_node<Telegram,void *> *>
	add	esp, 4

; 373  :         _Destroy_in_place(_Ptr->_Right);

	mov	edx, DWORD PTR __Ptr$[ebp]
	add	edx, 8
	push	edx
	call	??$_Destroy_in_place@PAU?$_Tree_node@UTelegram@@PAX@std@@@std@@YAXAAPAU?$_Tree_node@UTelegram@@PAX@0@@Z ; std::_Destroy_in_place<std::_Tree_node<Telegram,void *> *>
	add	esp, 4

; 374  :         allocator_traits<_Alloc>::deallocate(_Al, _Ptr, 1);

	push	1
	mov	eax, DWORD PTR __Ptr$[ebp]
	push	eax
	mov	ecx, DWORD PTR __Al$[ebp]
	push	ecx
	call	?deallocate@?$_Default_allocator_traits@V?$allocator@U?$_Tree_node@UTelegram@@PAX@std@@@std@@@std@@SAXAAV?$allocator@U?$_Tree_node@UTelegram@@PAX@std@@@2@QAU?$_Tree_node@UTelegram@@PAX@2@I@Z ; std::_Default_allocator_traits<std::allocator<std::_Tree_node<Telegram,void *> > >::deallocate
	add	esp, 12					; 0000000cH

; 375  :     }

	mov	ecx, DWORD PTR __$EHRec$[ebp]
	mov	DWORD PTR fs:0, ecx
	pop	ecx
	add	esp, 12					; 0000000cH
	cmp	ebp, esp
	call	__RTC_CheckEsp
	mov	esp, ebp
	pop	ebp
	ret	0
	int	3
	int	3
	int	3
	int	3
	int	3
_TEXT	ENDS
;	COMDAT text$x
text$x	SEGMENT
__ehhandler$??$_Freenode0@V?$allocator@U?$_Tree_node@UTelegram@@PAX@std@@@std@@@?$_Tree_node@UTelegram@@PAX@std@@SAXAAV?$allocator@U?$_Tree_node@UTelegram@@PAX@std@@@1@PAU01@@Z:
	npad	1
	npad	1
	mov	edx, DWORD PTR [esp+8]
	lea	eax, DWORD PTR [edx+12]
	mov	ecx, DWORD PTR [edx-4]
	xor	ecx, eax
	call	@__security_check_cookie@4
	mov	eax, OFFSET __ehfuncinfo$??$_Freenode0@V?$allocator@U?$_Tree_node@UTelegram@@PAX@std@@@std@@@?$_Tree_node@UTelegram@@PAX@std@@SAXAAV?$allocator@U?$_Tree_node@UTelegram@@PAX@std@@@1@PAU01@@Z
	jmp	___CxxFrameHandler3
text$x	ENDS
??$_Freenode0@V?$allocator@U?$_Tree_node@UTelegram@@PAX@std@@@std@@@?$_Tree_node@UTelegram@@PAX@std@@SAXAAV?$allocator@U?$_Tree_node@UTelegram@@PAX@std@@@1@PAU01@@Z ENDP ; std::_Tree_node<Telegram,void *>::_Freenode0<std::allocator<std::_Tree_node<Telegram,void *> > >
; Function compile flags: /Odtp /RTCsu
; File C:\Program Files\Microsoft Visual Studio\2022\Community\VC\Tools\MSVC\14.32.31326\include\xtree
;	COMDAT ??$_Erase_tree@V?$allocator@U?$_Tree_node@UTelegram@@PAX@std@@@std@@@?$_Tree_val@U?$_Tree_simple_types@UTelegram@@@std@@@std@@QAEXAAV?$allocator@U?$_Tree_node@UTelegram@@PAX@std@@@1@PAU?$_Tree_node@UTelegram@@PAX@1@@Z
_TEXT	SEGMENT
_this$ = -4						; size = 4
__Al$ = 8						; size = 4
__Rootnode$ = 12					; size = 4
??$_Erase_tree@V?$allocator@U?$_Tree_node@UTelegram@@PAX@std@@@std@@@?$_Tree_val@U?$_Tree_simple_types@UTelegram@@@std@@@std@@QAEXAAV?$allocator@U?$_Tree_node@UTelegram@@PAX@std@@@1@PAU?$_Tree_node@UTelegram@@PAX@1@@Z PROC ; std::_Tree_val<std::_Tree_simple_types<Telegram> >::_Erase_tree<std::allocator<std::_Tree_node<Telegram,void *> > >, COMDAT
; _this$ = ecx

; 742  :     void _Erase_tree(_Alnode& _Al, _Nodeptr _Rootnode) noexcept {

	push	ebp
	mov	ebp, esp
	push	ecx
	mov	DWORD PTR [ebp-4], -858993460		; ccccccccH
	mov	DWORD PTR _this$[ebp], ecx
$LN2@Erase_tree:

; 743  :         while (!_Rootnode->_Isnil) { // free subtrees, then node

	mov	eax, DWORD PTR __Rootnode$[ebp]
	movsx	ecx, BYTE PTR [eax+13]
	test	ecx, ecx
	jne	SHORT $LN4@Erase_tree

; 744  :             _Erase_tree(_Al, _Rootnode->_Right);

	mov	edx, DWORD PTR __Rootnode$[ebp]
	mov	eax, DWORD PTR [edx+8]
	push	eax
	mov	ecx, DWORD PTR __Al$[ebp]
	push	ecx
	mov	ecx, DWORD PTR _this$[ebp]
	call	??$_Erase_tree@V?$allocator@U?$_Tree_node@UTelegram@@PAX@std@@@std@@@?$_Tree_val@U?$_Tree_simple_types@UTelegram@@@std@@@std@@QAEXAAV?$allocator@U?$_Tree_node@UTelegram@@PAX@std@@@1@PAU?$_Tree_node@UTelegram@@PAX@1@@Z ; std::_Tree_val<std::_Tree_simple_types<Telegram> >::_Erase_tree<std::allocator<std::_Tree_node<Telegram,void *> > >

; 745  :             _Alnode::value_type::_Freenode(_Al, _STD exchange(_Rootnode, _Rootnode->_Left));

	mov	edx, DWORD PTR __Rootnode$[ebp]
	push	edx
	lea	eax, DWORD PTR __Rootnode$[ebp]
	push	eax
	call	??$exchange@PAU?$_Tree_node@UTelegram@@PAX@std@@AAPAU12@@std@@YAPAU?$_Tree_node@UTelegram@@PAX@0@AAPAU10@0@Z ; std::exchange<std::_Tree_node<Telegram,void *> *,std::_Tree_node<Telegram,void *> * &>
	add	esp, 8
	push	eax
	mov	ecx, DWORD PTR __Al$[ebp]
	push	ecx
	call	??$_Freenode@V?$allocator@U?$_Tree_node@UTelegram@@PAX@std@@@std@@@?$_Tree_node@UTelegram@@PAX@std@@SAXAAV?$allocator@U?$_Tree_node@UTelegram@@PAX@std@@@1@PAU01@@Z ; std::_Tree_node<Telegram,void *>::_Freenode<std::allocator<std::_Tree_node<Telegram,void *> > >
	add	esp, 8

; 746  :         }

	jmp	SHORT $LN2@Erase_tree
$LN4@Erase_tree:

; 747  :     }

	add	esp, 4
	cmp	ebp, esp
	call	__RTC_CheckEsp
	mov	esp, ebp
	pop	ebp
	ret	8
??$_Erase_tree@V?$allocator@U?$_Tree_node@UTelegram@@PAX@std@@@std@@@?$_Tree_val@U?$_Tree_simple_types@UTelegram@@@std@@@std@@QAEXAAV?$allocator@U?$_Tree_node@UTelegram@@PAX@std@@@1@PAU?$_Tree_node@UTelegram@@PAX@1@@Z ENDP ; std::_Tree_val<std::_Tree_simple_types<Telegram> >::_Erase_tree<std::allocator<std::_Tree_node<Telegram,void *> > >
_TEXT	ENDS
; Function compile flags: /Odtp /RTCsu
; File C:\Program Files\Microsoft Visual Studio\2022\Community\VC\Tools\MSVC\14.32.31326\include\xmemory
;	COMDAT ??$_Deallocate_plain@V?$allocator@U_Container_proxy@std@@@std@@@std@@YAXAAV?$allocator@U_Container_proxy@std@@@0@QAU_Container_proxy@0@@Z
_TEXT	SEGMENT
__$EHRec$ = -12						; size = 12
__Al$ = 8						; size = 4
__Ptr$ = 12						; size = 4
??$_Deallocate_plain@V?$allocator@U_Container_proxy@std@@@std@@@std@@YAXAAV?$allocator@U_Container_proxy@std@@@0@QAU_Container_proxy@0@@Z PROC ; std::_Deallocate_plain<std::allocator<std::_Container_proxy> >, COMDAT

; 972  : _CONSTEXPR20 void _Deallocate_plain(_Alloc& _Al, typename _Alloc::value_type* const _Ptr) noexcept {

	push	ebp
	mov	ebp, esp
	push	-1
	push	__ehhandler$??$_Deallocate_plain@V?$allocator@U_Container_proxy@std@@@std@@@std@@YAXAAV?$allocator@U_Container_proxy@std@@@0@QAU_Container_proxy@0@@Z
	mov	eax, DWORD PTR fs:0
	push	eax
	mov	eax, DWORD PTR ___security_cookie
	xor	eax, ebp
	push	eax
	lea	eax, DWORD PTR __$EHRec$[ebp]
	mov	DWORD PTR fs:0, eax

; 973  :     // deallocate a plain pointer using an allocator
; 974  :     using _Alloc_traits = allocator_traits<_Alloc>;
; 975  :     if constexpr (is_same_v<_Alloc_ptr_t<_Alloc>, typename _Alloc::value_type*>) {
; 976  :         _Alloc_traits::deallocate(_Al, _Ptr, 1);

	push	1
	mov	eax, DWORD PTR __Ptr$[ebp]
	push	eax
	mov	ecx, DWORD PTR __Al$[ebp]
	push	ecx
	call	?deallocate@?$_Default_allocator_traits@V?$allocator@U_Container_proxy@std@@@std@@@std@@SAXAAV?$allocator@U_Container_proxy@std@@@2@QAU_Container_proxy@2@I@Z ; std::_Default_allocator_traits<std::allocator<std::_Container_proxy> >::deallocate
	add	esp, 12					; 0000000cH

; 977  :     } else {
; 978  :         using _Ptr_traits = pointer_traits<_Alloc_ptr_t<_Alloc>>;
; 979  :         _Alloc_traits::deallocate(_Al, _Ptr_traits::pointer_to(*_Ptr), 1);
; 980  :     }
; 981  : }

	mov	ecx, DWORD PTR __$EHRec$[ebp]
	mov	DWORD PTR fs:0, ecx
	pop	ecx
	add	esp, 12					; 0000000cH
	cmp	ebp, esp
	call	__RTC_CheckEsp
	mov	esp, ebp
	pop	ebp
	ret	0
	int	3
	int	3
	int	3
	int	3
	int	3
_TEXT	ENDS
;	COMDAT text$x
text$x	SEGMENT
__ehhandler$??$_Deallocate_plain@V?$allocator@U_Container_proxy@std@@@std@@@std@@YAXAAV?$allocator@U_Container_proxy@std@@@0@QAU_Container_proxy@0@@Z:
	npad	1
	npad	1
	mov	edx, DWORD PTR [esp+8]
	lea	eax, DWORD PTR [edx+12]
	mov	ecx, DWORD PTR [edx-4]
	xor	ecx, eax
	call	@__security_check_cookie@4
	mov	eax, OFFSET __ehfuncinfo$??$_Deallocate_plain@V?$allocator@U_Container_proxy@std@@@std@@@std@@YAXAAV?$allocator@U_Container_proxy@std@@@0@QAU_Container_proxy@0@@Z
	jmp	___CxxFrameHandler3
text$x	ENDS
??$_Deallocate_plain@V?$allocator@U_Container_proxy@std@@@std@@@std@@YAXAAV?$allocator@U_Container_proxy@std@@@0@QAU_Container_proxy@0@@Z ENDP ; std::_Deallocate_plain<std::allocator<std::_Container_proxy> >
; Function compile flags: /Odtp /RTCsu
; File C:\Program Files\Microsoft Visual Studio\2022\Community\VC\Tools\MSVC\14.32.31326\include\utility
;	COMDAT ??$?0V?$_Tree_const_iterator@V?$_Tree_val@U?$_Tree_simple_types@UTelegram@@@std@@@std@@@std@@AB_N$0A@@?$pair@V?$_Tree_const_iterator@V?$_Tree_val@U?$_Tree_simple_types@UTelegram@@@std@@@std@@@std@@_N@std@@QAE@$$QAV?$_Tree_const_iterator@V?$_Tree_val@U?$_Tree_simple_types@UTelegram@@@std@@@std@@@1@AB_N@Z
_TEXT	SEGMENT
_this$ = -4						; size = 4
__Val1$ = 8						; size = 4
__Val2$ = 12						; size = 4
??$?0V?$_Tree_const_iterator@V?$_Tree_val@U?$_Tree_simple_types@UTelegram@@@std@@@std@@@std@@AB_N$0A@@?$pair@V?$_Tree_const_iterator@V?$_Tree_val@U?$_Tree_simple_types@UTelegram@@@std@@@std@@@std@@_N@std@@QAE@$$QAV?$_Tree_const_iterator@V?$_Tree_val@U?$_Tree_simple_types@UTelegram@@@std@@@std@@@1@AB_N@Z PROC ; std::pair<std::_Tree_const_iterator<std::_Tree_val<std::_Tree_simple_types<Telegram> > >,bool>::pair<std::_Tree_const_iterator<std::_Tree_val<std::_Tree_simple_types<Telegram> > >,bool><std::_Tree_const_iterator<std::_Tree_val<std::_Tree_simple_types<Telegram> > >,bool const &,0>, COMDAT
; _this$ = ecx

; 190  :         : first(_STD forward<_Other1>(_Val1)), second(_STD forward<_Other2>(_Val2)) {

	push	ebp
	mov	ebp, esp
	push	ecx
	mov	DWORD PTR [ebp-4], -858993460		; ccccccccH
	mov	DWORD PTR _this$[ebp], ecx
	mov	eax, DWORD PTR __Val1$[ebp]
	push	eax
	call	??$forward@V?$_Tree_const_iterator@V?$_Tree_val@U?$_Tree_simple_types@UTelegram@@@std@@@std@@@std@@@std@@YA$$QAV?$_Tree_const_iterator@V?$_Tree_val@U?$_Tree_simple_types@UTelegram@@@std@@@std@@@0@AAV10@@Z ; std::forward<std::_Tree_const_iterator<std::_Tree_val<std::_Tree_simple_types<Telegram> > > >
	add	esp, 4
	push	eax
	mov	ecx, DWORD PTR _this$[ebp]
	call	??0?$_Tree_const_iterator@V?$_Tree_val@U?$_Tree_simple_types@UTelegram@@@std@@@std@@@std@@QAE@$$QAV01@@Z
	mov	ecx, DWORD PTR __Val2$[ebp]
	push	ecx
	call	??$forward@AB_N@std@@YAAB_NAB_N@Z	; std::forward<bool const &>
	add	esp, 4
	mov	edx, DWORD PTR _this$[ebp]
	mov	al, BYTE PTR [eax]
	mov	BYTE PTR [edx+12], al

; 191  :     }

	mov	eax, DWORD PTR _this$[ebp]
	add	esp, 4
	cmp	ebp, esp
	call	__RTC_CheckEsp
	mov	esp, ebp
	pop	ebp
	ret	8
??$?0V?$_Tree_const_iterator@V?$_Tree_val@U?$_Tree_simple_types@UTelegram@@@std@@@std@@@std@@AB_N$0A@@?$pair@V?$_Tree_const_iterator@V?$_Tree_val@U?$_Tree_simple_types@UTelegram@@@std@@@std@@@std@@_N@std@@QAE@$$QAV?$_Tree_const_iterator@V?$_Tree_val@U?$_Tree_simple_types@UTelegram@@@std@@@std@@@1@AB_N@Z ENDP ; std::pair<std::_Tree_const_iterator<std::_Tree_val<std::_Tree_simple_types<Telegram> > >,bool>::pair<std::_Tree_const_iterator<std::_Tree_val<std::_Tree_simple_types<Telegram> > >,bool><std::_Tree_const_iterator<std::_Tree_val<std::_Tree_simple_types<Telegram> > >,bool const &,0>
_TEXT	ENDS
; Function compile flags: /Odtp /RTCsu
; File C:\Program Files\Microsoft Visual Studio\2022\Community\VC\Tools\MSVC\14.32.31326\include\xtree
;	COMDAT ??$_Emplace@ABUTelegram@@@?$_Tree@V?$_Tset_traits@UTelegram@@U?$less@UTelegram@@@std@@V?$allocator@UTelegram@@@3@$0A@@std@@@std@@IAE?AU?$pair@PAU?$_Tree_node@UTelegram@@PAX@std@@_N@1@ABUTelegram@@@Z
_TEXT	SEGMENT
tv141 = -72						; size = 4
$T1 = -68						; size = 4
$T2 = -61						; size = 1
$T3 = -60						; size = 8
$T4 = -49						; size = 1
$T5 = -48						; size = 12
__Keyval$6 = -36					; size = 4
__Inserted$ = -32					; size = 4
__Loc$ = -24						; size = 12
__Scary$ = -8						; size = 4
_this$ = -4						; size = 4
___$ReturnUdt$ = 8					; size = 4
_<_Vals_0>$ = 12					; size = 4
??$_Emplace@ABUTelegram@@@?$_Tree@V?$_Tset_traits@UTelegram@@U?$less@UTelegram@@@std@@V?$allocator@UTelegram@@@3@$0A@@std@@@std@@IAE?AU?$pair@PAU?$_Tree_node@UTelegram@@PAX@std@@_N@1@ABUTelegram@@@Z PROC ; std::_Tree<std::_Tset_traits<Telegram,std::less<Telegram>,std::allocator<Telegram>,0> >::_Emplace<Telegram const &>, COMDAT
; _this$ = ecx

; 996  :     pair<_Nodeptr, bool> _Emplace(_Valtys&&... _Vals) {

	push	ebp
	mov	ebp, esp
	sub	esp, 72					; 00000048H
	push	edi
	push	ecx
	lea	edi, DWORD PTR [ebp-72]
	mov	ecx, 18					; 00000012H
	mov	eax, -858993460				; ccccccccH
	rep stosd
	pop	ecx
	mov	DWORD PTR _this$[ebp], ecx

; 997  :         using _In_place_key_extractor = typename _Traits::template _In_place_key_extractor<_Remove_cvref_t<_Valtys>...>;
; 998  :         const auto _Scary             = _Get_scary();

	mov	ecx, DWORD PTR _this$[ebp]
	call	?_Get_scary@?$_Tree@V?$_Tset_traits@UTelegram@@U?$less@UTelegram@@@std@@V?$allocator@UTelegram@@@3@$0A@@std@@@std@@IAEPAV?$_Tree_val@U?$_Tree_simple_types@UTelegram@@@std@@@2@XZ ; std::_Tree<std::_Tset_traits<Telegram,std::less<Telegram>,std::allocator<Telegram>,0> >::_Get_scary
	mov	DWORD PTR __Scary$[ebp], eax

; 999  :         _Tree_find_result<_Nodeptr> _Loc;
; 1000 :         _Nodeptr _Inserted;
; 1001 :         if constexpr (!_Multi && _In_place_key_extractor::_Extractable) {
; 1002 :             const auto& _Keyval = _In_place_key_extractor::_Extract(_Vals...);

	mov	eax, DWORD PTR _<_Vals_0>$[ebp]
	push	eax
	call	?_Extract@?$_In_place_key_extract_set@UTelegram@@U1@@std@@SAABUTelegram@@ABU3@@Z ; std::_In_place_key_extract_set<Telegram,Telegram>::_Extract
	add	esp, 4
	mov	DWORD PTR __Keyval$6[ebp], eax

; 1003 :             _Loc                = _Find_lower_bound(_Keyval);

	mov	ecx, DWORD PTR __Keyval$6[ebp]
	push	ecx
	lea	edx, DWORD PTR $T5[ebp]
	push	edx
	mov	ecx, DWORD PTR _this$[ebp]
	call	??$_Find_lower_bound@UTelegram@@@?$_Tree@V?$_Tset_traits@UTelegram@@U?$less@UTelegram@@@std@@V?$allocator@UTelegram@@@3@$0A@@std@@@std@@IBE?AU?$_Tree_find_result@PAU?$_Tree_node@UTelegram@@PAX@std@@@1@ABUTelegram@@@Z ; std::_Tree<std::_Tset_traits<Telegram,std::less<Telegram>,std::allocator<Telegram>,0> >::_Find_lower_bound<Telegram>
	mov	ecx, DWORD PTR [eax]
	mov	DWORD PTR __Loc$[ebp], ecx
	mov	edx, DWORD PTR [eax+4]
	mov	DWORD PTR __Loc$[ebp+4], edx
	mov	eax, DWORD PTR [eax+8]
	mov	DWORD PTR __Loc$[ebp+8], eax

; 1004 :             if (_Lower_bound_duplicate(_Loc._Bound, _Keyval)) {

	mov	ecx, DWORD PTR __Keyval$6[ebp]
	push	ecx
	mov	edx, DWORD PTR __Loc$[ebp+8]
	push	edx
	mov	ecx, DWORD PTR _this$[ebp]
	call	??$_Lower_bound_duplicate@UTelegram@@@?$_Tree@V?$_Tset_traits@UTelegram@@U?$less@UTelegram@@@std@@V?$allocator@UTelegram@@@3@$0A@@std@@@std@@IBE_NQAU?$_Tree_node@UTelegram@@PAX@1@ABUTelegram@@@Z ; std::_Tree<std::_Tset_traits<Telegram,std::less<Telegram>,std::allocator<Telegram>,0> >::_Lower_bound_duplicate<Telegram>
	movzx	eax, al
	test	eax, eax
	je	SHORT $LN2@Emplace

; 1005 :                 return {_Loc._Bound, false};

	mov	BYTE PTR $T4[ebp], 0
	lea	ecx, DWORD PTR $T4[ebp]
	push	ecx
	lea	edx, DWORD PTR __Loc$[ebp+8]
	push	edx
	mov	ecx, DWORD PTR ___$ReturnUdt$[ebp]
	call	??$?0AAPAU?$_Tree_node@UTelegram@@PAX@std@@_N$0A@@?$pair@PAU?$_Tree_node@UTelegram@@PAX@std@@_N@std@@QAE@AAPAU?$_Tree_node@UTelegram@@PAX@1@$$QA_N@Z ; std::pair<std::_Tree_node<Telegram,void *> *,bool>::pair<std::_Tree_node<Telegram,void *> *,bool><std::_Tree_node<Telegram,void *> * &,bool,0>
	mov	eax, DWORD PTR ___$ReturnUdt$[ebp]
	jmp	SHORT $LN1@Emplace
$LN2@Emplace:

; 1006 :             }
; 1007 : 
; 1008 :             _Check_grow_by_1();

	mov	ecx, DWORD PTR _this$[ebp]
	call	?_Check_grow_by_1@?$_Tree@V?$_Tset_traits@UTelegram@@U?$less@UTelegram@@@std@@V?$allocator@UTelegram@@@3@$0A@@std@@@std@@IAEXXZ ; std::_Tree<std::_Tset_traits<Telegram,std::less<Telegram>,std::allocator<Telegram>,0> >::_Check_grow_by_1

; 1009 :             _Inserted = _Tree_temp_node<_Alnode>(_Getal(), _Scary->_Myhead, _STD forward<_Valtys>(_Vals)...)._Release();

	mov	eax, DWORD PTR _<_Vals_0>$[ebp]
	push	eax
	call	??$forward@ABUTelegram@@@std@@YAABUTelegram@@ABU1@@Z ; std::forward<Telegram const &>
	add	esp, 4
	push	eax
	mov	ecx, DWORD PTR __Scary$[ebp]
	mov	edx, DWORD PTR [ecx+4]
	push	edx
	mov	ecx, DWORD PTR _this$[ebp]
	call	?_Getal@?$_Tree@V?$_Tset_traits@UTelegram@@U?$less@UTelegram@@@std@@V?$allocator@UTelegram@@@3@$0A@@std@@@std@@IAEAAV?$allocator@U?$_Tree_node@UTelegram@@PAX@std@@@2@XZ ; std::_Tree<std::_Tset_traits<Telegram,std::less<Telegram>,std::allocator<Telegram>,0> >::_Getal
	push	eax
	lea	ecx, DWORD PTR $T3[ebp]
	call	??$?0ABUTelegram@@@?$_Tree_temp_node@V?$allocator@U?$_Tree_node@UTelegram@@PAX@std@@@std@@@std@@QAE@AAV?$allocator@U?$_Tree_node@UTelegram@@PAX@std@@@1@PAU?$_Tree_node@UTelegram@@PAX@1@ABUTelegram@@@Z ; std::_Tree_temp_node<std::allocator<std::_Tree_node<Telegram,void *> > >::_Tree_temp_node<std::allocator<std::_Tree_node<Telegram,void *> > ><Telegram const &>
	mov	DWORD PTR tv141[ebp], eax
	mov	ecx, DWORD PTR tv141[ebp]
	call	?_Release@?$_Alloc_construct_ptr@V?$allocator@U?$_Tree_node@UTelegram@@PAX@std@@@std@@@std@@QAEPAU?$_Tree_node@UTelegram@@PAX@2@XZ ; std::_Alloc_construct_ptr<std::allocator<std::_Tree_node<Telegram,void *> > >::_Release
	mov	DWORD PTR __Inserted$[ebp], eax
	lea	ecx, DWORD PTR $T3[ebp]
	call	??1?$_Tree_temp_node@V?$allocator@U?$_Tree_node@UTelegram@@PAX@std@@@std@@@std@@QAE@XZ ; std::_Tree_temp_node<std::allocator<std::_Tree_node<Telegram,void *> > >::~_Tree_temp_node<std::allocator<std::_Tree_node<Telegram,void *> > >

; 1010 :             // nothrow hereafter
; 1011 :         } else {
; 1012 :             _Tree_temp_node<_Alnode> _Newnode(_Getal(), _Scary->_Myhead, _STD forward<_Valtys>(_Vals)...);
; 1013 :             const auto& _Keyval = _Traits::_Kfn(_Newnode._Ptr->_Myval);
; 1014 :             if constexpr (_Multi) { // duplicate check if unique
; 1015 :                 _Loc = _Find_upper_bound(_Keyval);
; 1016 :             } else {
; 1017 :                 _Loc = _Find_lower_bound(_Keyval);
; 1018 :                 if (_Lower_bound_duplicate(_Loc._Bound, _Keyval)) {
; 1019 :                     return {_Loc._Bound, false};
; 1020 :                 }
; 1021 :             }
; 1022 : 
; 1023 :             _Check_grow_by_1();
; 1024 :             // nothrow hereafter
; 1025 :             _Inserted = _Newnode._Release();
; 1026 :         }
; 1027 : 
; 1028 :         return {_Scary->_Insert_node(_Loc._Location, _Inserted), true};

	mov	eax, DWORD PTR __Inserted$[ebp]
	push	eax
	mov	ecx, DWORD PTR __Loc$[ebp+4]
	push	ecx
	mov	edx, DWORD PTR __Loc$[ebp]
	push	edx
	mov	ecx, DWORD PTR __Scary$[ebp]
	call	?_Insert_node@?$_Tree_val@U?$_Tree_simple_types@UTelegram@@@std@@@std@@QAEPAU?$_Tree_node@UTelegram@@PAX@2@U?$_Tree_id@PAU?$_Tree_node@UTelegram@@PAX@std@@@2@QAU32@@Z ; std::_Tree_val<std::_Tree_simple_types<Telegram> >::_Insert_node
	mov	DWORD PTR $T1[ebp], eax
	mov	BYTE PTR $T2[ebp], 1
	lea	eax, DWORD PTR $T2[ebp]
	push	eax
	lea	ecx, DWORD PTR $T1[ebp]
	push	ecx
	mov	ecx, DWORD PTR ___$ReturnUdt$[ebp]
	call	??$?0PAU?$_Tree_node@UTelegram@@PAX@std@@_N$0A@@?$pair@PAU?$_Tree_node@UTelegram@@PAX@std@@_N@std@@QAE@$$QAPAU?$_Tree_node@UTelegram@@PAX@1@$$QA_N@Z ; std::pair<std::_Tree_node<Telegram,void *> *,bool>::pair<std::_Tree_node<Telegram,void *> *,bool><std::_Tree_node<Telegram,void *> *,bool,0>
	mov	eax, DWORD PTR ___$ReturnUdt$[ebp]
$LN1@Emplace:

; 1029 :     }

	push	edx
	mov	ecx, ebp
	push	eax
	lea	edx, DWORD PTR $LN7@Emplace
	call	@_RTC_CheckStackVars@8
	pop	eax
	pop	edx
	pop	edi
	add	esp, 72					; 00000048H
	cmp	ebp, esp
	call	__RTC_CheckEsp
	mov	esp, ebp
	pop	ebp
	ret	8
	npad	3
$LN7@Emplace:
	DD	1
	DD	$LN6@Emplace
$LN6@Emplace:
	DD	-24					; ffffffe8H
	DD	12					; 0000000cH
	DD	$LN5@Emplace
$LN5@Emplace:
	DB	95					; 0000005fH
	DB	76					; 0000004cH
	DB	111					; 0000006fH
	DB	99					; 00000063H
	DB	0
??$_Emplace@ABUTelegram@@@?$_Tree@V?$_Tset_traits@UTelegram@@U?$less@UTelegram@@@std@@V?$allocator@UTelegram@@@3@$0A@@std@@@std@@IAE?AU?$pair@PAU?$_Tree_node@UTelegram@@PAX@std@@_N@1@ABUTelegram@@@Z ENDP ; std::_Tree<std::_Tset_traits<Telegram,std::less<Telegram>,std::allocator<Telegram>,0> >::_Emplace<Telegram const &>
_TEXT	ENDS
; Function compile flags: /Odtp /RTCsu
; File C:\Program Files\Microsoft Visual Studio\2022\Community\VC\Tools\MSVC\14.32.31326\include\xtree
;	COMDAT ??$_Buyheadnode@V?$allocator@U?$_Tree_node@UTelegram@@PAX@std@@@std@@@?$_Tree_node@UTelegram@@PAX@std@@SAPAU01@AAV?$allocator@U?$_Tree_node@UTelegram@@PAX@std@@@1@@Z
_TEXT	SEGMENT
__Pnode$ = -8						; size = 4
__Al$ = 8						; size = 4
??$_Buyheadnode@V?$allocator@U?$_Tree_node@UTelegram@@PAX@std@@@std@@@?$_Tree_node@UTelegram@@PAX@std@@SAPAU01@AAV?$allocator@U?$_Tree_node@UTelegram@@PAX@std@@@1@@Z PROC ; std::_Tree_node<Telegram,void *>::_Buyheadnode<std::allocator<std::_Tree_node<Telegram,void *> > >, COMDAT

; 342  :     static _Nodeptr _Buyheadnode(_Alloc& _Al) {

	push	ebp
	mov	ebp, esp
	sub	esp, 12					; 0000000cH
	mov	DWORD PTR [ebp-12], -858993460		; ccccccccH
	mov	DWORD PTR [ebp-8], -858993460		; ccccccccH
	mov	DWORD PTR [ebp-4], -858993460		; ccccccccH

; 343  :         static_assert(is_same_v<typename _Alloc::value_type, _Tree_node>, "Bad _Buyheadnode call");
; 344  :         const auto _Pnode = _Al.allocate(1);

	push	1
	mov	ecx, DWORD PTR __Al$[ebp]
	call	?allocate@?$allocator@U?$_Tree_node@UTelegram@@PAX@std@@@std@@QAEPAU?$_Tree_node@UTelegram@@PAX@2@I@Z ; std::allocator<std::_Tree_node<Telegram,void *> >::allocate
	mov	DWORD PTR __Pnode$[ebp], eax

; 345  :         _Construct_in_place(_Pnode->_Left, _Pnode);

	lea	eax, DWORD PTR __Pnode$[ebp]
	push	eax
	mov	ecx, DWORD PTR __Pnode$[ebp]
	push	ecx
	call	??$_Construct_in_place@PAU?$_Tree_node@UTelegram@@PAX@std@@ABQAU12@@std@@YAXAAPAU?$_Tree_node@UTelegram@@PAX@0@ABQAU10@@Z ; std::_Construct_in_place<std::_Tree_node<Telegram,void *> *,std::_Tree_node<Telegram,void *> * const &>
	add	esp, 8

; 346  :         _Construct_in_place(_Pnode->_Parent, _Pnode);

	lea	edx, DWORD PTR __Pnode$[ebp]
	push	edx
	mov	eax, DWORD PTR __Pnode$[ebp]
	add	eax, 4
	push	eax
	call	??$_Construct_in_place@PAU?$_Tree_node@UTelegram@@PAX@std@@ABQAU12@@std@@YAXAAPAU?$_Tree_node@UTelegram@@PAX@0@ABQAU10@@Z ; std::_Construct_in_place<std::_Tree_node<Telegram,void *> *,std::_Tree_node<Telegram,void *> * const &>
	add	esp, 8

; 347  :         _Construct_in_place(_Pnode->_Right, _Pnode);

	lea	ecx, DWORD PTR __Pnode$[ebp]
	push	ecx
	mov	edx, DWORD PTR __Pnode$[ebp]
	add	edx, 8
	push	edx
	call	??$_Construct_in_place@PAU?$_Tree_node@UTelegram@@PAX@std@@ABQAU12@@std@@YAXAAPAU?$_Tree_node@UTelegram@@PAX@0@ABQAU10@@Z ; std::_Construct_in_place<std::_Tree_node<Telegram,void *> *,std::_Tree_node<Telegram,void *> * const &>
	add	esp, 8

; 348  :         _Pnode->_Color = _Black;

	mov	eax, DWORD PTR __Pnode$[ebp]
	mov	BYTE PTR [eax+12], 1

; 349  :         _Pnode->_Isnil = true;

	mov	ecx, DWORD PTR __Pnode$[ebp]
	mov	BYTE PTR [ecx+13], 1

; 350  :         return _Pnode;

	mov	eax, DWORD PTR __Pnode$[ebp]

; 351  :     }

	push	edx
	mov	ecx, ebp
	push	eax
	lea	edx, DWORD PTR $LN5@Buyheadnod
	call	@_RTC_CheckStackVars@8
	pop	eax
	pop	edx
	add	esp, 12					; 0000000cH
	cmp	ebp, esp
	call	__RTC_CheckEsp
	mov	esp, ebp
	pop	ebp
	ret	0
	npad	2
$LN5@Buyheadnod:
	DD	1
	DD	$LN4@Buyheadnod
$LN4@Buyheadnod:
	DD	-8					; fffffff8H
	DD	4
	DD	$LN3@Buyheadnod
$LN3@Buyheadnod:
	DB	95					; 0000005fH
	DB	80					; 00000050H
	DB	110					; 0000006eH
	DB	111					; 0000006fH
	DB	100					; 00000064H
	DB	101					; 00000065H
	DB	0
??$_Buyheadnode@V?$allocator@U?$_Tree_node@UTelegram@@PAX@std@@@std@@@?$_Tree_node@UTelegram@@PAX@std@@SAPAU01@AAV?$allocator@U?$_Tree_node@UTelegram@@PAX@std@@@1@@Z ENDP ; std::_Tree_node<Telegram,void *>::_Buyheadnode<std::allocator<std::_Tree_node<Telegram,void *> > >
_TEXT	ENDS
; Function compile flags: /Odtp /RTCsu
; File C:\Program Files\Microsoft Visual Studio\2022\Community\VC\Tools\MSVC\14.32.31326\include\utility
;	COMDAT ??$swap@D$0A@@std@@YAXAAD0@Z
_TEXT	SEGMENT
__Tmp$ = -5						; size = 1
__Left$ = 8						; size = 4
__Right$ = 12						; size = 4
??$swap@D$0A@@std@@YAXAAD0@Z PROC			; std::swap<char,0>, COMDAT

; 99   :     is_nothrow_move_constructible_v<_Ty>&& is_nothrow_move_assignable_v<_Ty>) {

	push	ebp
	mov	ebp, esp
	sub	esp, 12					; 0000000cH
	mov	DWORD PTR [ebp-12], -858993460		; ccccccccH
	mov	DWORD PTR [ebp-8], -858993460		; ccccccccH
	mov	DWORD PTR [ebp-4], -858993460		; ccccccccH

; 100  :     _Ty _Tmp = _STD move(_Left);

	mov	eax, DWORD PTR __Left$[ebp]
	push	eax
	call	??$move@AAD@std@@YA$$QADAAD@Z		; std::move<char &>
	add	esp, 4
	mov	cl, BYTE PTR [eax]
	mov	BYTE PTR __Tmp$[ebp], cl

; 101  :     _Left    = _STD move(_Right);

	mov	edx, DWORD PTR __Right$[ebp]
	push	edx
	call	??$move@AAD@std@@YA$$QADAAD@Z		; std::move<char &>
	add	esp, 4
	mov	ecx, DWORD PTR __Left$[ebp]
	mov	dl, BYTE PTR [eax]
	mov	BYTE PTR [ecx], dl

; 102  :     _Right   = _STD move(_Tmp);

	lea	eax, DWORD PTR __Tmp$[ebp]
	push	eax
	call	??$move@AAD@std@@YA$$QADAAD@Z		; std::move<char &>
	add	esp, 4
	mov	ecx, DWORD PTR __Right$[ebp]
	mov	dl, BYTE PTR [eax]
	mov	BYTE PTR [ecx], dl

; 103  : }

	push	edx
	mov	ecx, ebp
	push	eax
	lea	edx, DWORD PTR $LN5@swap
	call	@_RTC_CheckStackVars@8
	pop	eax
	pop	edx
	add	esp, 12					; 0000000cH
	cmp	ebp, esp
	call	__RTC_CheckEsp
	mov	esp, ebp
	pop	ebp
	ret	0
	npad	3
$LN5@swap:
	DD	1
	DD	$LN4@swap
$LN4@swap:
	DD	-5					; fffffffbH
	DD	1
	DD	$LN3@swap
$LN3@swap:
	DB	95					; 0000005fH
	DB	84					; 00000054H
	DB	109					; 0000006dH
	DB	112					; 00000070H
	DB	0
??$swap@D$0A@@std@@YAXAAD0@Z ENDP			; std::swap<char,0>
_TEXT	ENDS
; Function compile flags: /Odtp /RTCsu
; File C:\Program Files\Microsoft Visual Studio\2022\Community\VC\Tools\MSVC\14.32.31326\include\xmemory
;	COMDAT ??$_Deallocate@$07$0A@@std@@YAXPAXI@Z
_TEXT	SEGMENT
__$EHRec$ = -12						; size = 12
__Ptr$ = 8						; size = 4
__Bytes$ = 12						; size = 4
??$_Deallocate@$07$0A@@std@@YAXPAXI@Z PROC		; std::_Deallocate<8,0>, COMDAT

; 242  : _CONSTEXPR20 void _Deallocate(void* _Ptr, size_t _Bytes) noexcept {

	push	ebp
	mov	ebp, esp
	push	-1
	push	__ehhandler$??$_Deallocate@$07$0A@@std@@YAXPAXI@Z
	mov	eax, DWORD PTR fs:0
	push	eax
	mov	eax, DWORD PTR ___security_cookie
	xor	eax, ebp
	push	eax
	lea	eax, DWORD PTR __$EHRec$[ebp]
	mov	DWORD PTR fs:0, eax

; 243  :     // deallocate storage allocated by _Allocate when !_HAS_ALIGNED_NEW || _Align <= __STDCPP_DEFAULT_NEW_ALIGNMENT__
; 244  : #if _HAS_CXX20 // TRANSITION, GH-1532
; 245  :     if (_STD is_constant_evaluated()) {
; 246  :         ::operator delete(_Ptr);
; 247  :     } else
; 248  : #endif // _HAS_CXX20
; 249  :     {
; 250  : #if defined(_M_IX86) || defined(_M_X64)
; 251  :         if (_Bytes >= _Big_allocation_threshold) { // boost the alignment of big allocations to help autovectorization

	cmp	DWORD PTR __Bytes$[ebp], 4096		; 00001000H
	jb	SHORT $LN2@Deallocate

; 252  :             _Adjust_manually_vector_aligned(_Ptr, _Bytes);

	lea	eax, DWORD PTR __Bytes$[ebp]
	push	eax
	lea	ecx, DWORD PTR __Ptr$[ebp]
	push	ecx
	call	?_Adjust_manually_vector_aligned@std@@YAXAAPAXAAI@Z ; std::_Adjust_manually_vector_aligned
	add	esp, 8
$LN2@Deallocate:

; 253  :         }
; 254  : #endif // defined(_M_IX86) || defined(_M_X64)
; 255  :         ::operator delete(_Ptr, _Bytes);

	mov	edx, DWORD PTR __Bytes$[ebp]
	push	edx
	mov	eax, DWORD PTR __Ptr$[ebp]
	push	eax
	call	??3@YAXPAXI@Z				; operator delete
	add	esp, 8

; 256  :     }
; 257  : }

	mov	ecx, DWORD PTR __$EHRec$[ebp]
	mov	DWORD PTR fs:0, ecx
	pop	ecx
	add	esp, 12					; 0000000cH
	cmp	ebp, esp
	call	__RTC_CheckEsp
	mov	esp, ebp
	pop	ebp
	ret	0
	int	3
	int	3
	int	3
	int	3
	int	3
_TEXT	ENDS
;	COMDAT text$x
text$x	SEGMENT
__ehhandler$??$_Deallocate@$07$0A@@std@@YAXPAXI@Z:
	npad	1
	npad	1
	mov	edx, DWORD PTR [esp+8]
	lea	eax, DWORD PTR [edx+12]
	mov	ecx, DWORD PTR [edx-4]
	xor	ecx, eax
	call	@__security_check_cookie@4
	mov	eax, OFFSET __ehfuncinfo$??$_Deallocate@$07$0A@@std@@YAXPAXI@Z
	jmp	___CxxFrameHandler3
text$x	ENDS
??$_Deallocate@$07$0A@@std@@YAXPAXI@Z ENDP		; std::_Deallocate<8,0>
; Function compile flags: /Odtp /RTCsu
; File C:\Program Files\Microsoft Visual Studio\2022\Community\VC\Tools\MSVC\14.32.31326\include\xmemory
;	COMDAT ??$_Allocate@$07U_Default_allocate_traits@std@@$0A@@std@@YAPAXI@Z
_TEXT	SEGMENT
__Bytes$ = 8						; size = 4
??$_Allocate@$07U_Default_allocate_traits@std@@$0A@@std@@YAPAXI@Z PROC ; std::_Allocate<8,std::_Default_allocate_traits,0>, COMDAT

; 221  : __declspec(allocator) _CONSTEXPR20 void* _Allocate(const size_t _Bytes) {

	push	ebp
	mov	ebp, esp

; 222  :     // allocate _Bytes when !_HAS_ALIGNED_NEW || _Align <= __STDCPP_DEFAULT_NEW_ALIGNMENT__
; 223  : #if defined(_M_IX86) || defined(_M_X64)
; 224  : #if _HAS_CXX20 // TRANSITION, GH-1532
; 225  :     if (!_STD is_constant_evaluated())
; 226  : #endif // _HAS_CXX20
; 227  :     {
; 228  :         if (_Bytes >= _Big_allocation_threshold) { // boost the alignment of big allocations to help autovectorization

	cmp	DWORD PTR __Bytes$[ebp], 4096		; 00001000H
	jb	SHORT $LN2@Allocate

; 229  :             return _Allocate_manually_vector_aligned<_Traits>(_Bytes);

	mov	eax, DWORD PTR __Bytes$[ebp]
	push	eax
	call	??$_Allocate_manually_vector_aligned@U_Default_allocate_traits@std@@@std@@YAPAXI@Z ; std::_Allocate_manually_vector_aligned<std::_Default_allocate_traits>
	add	esp, 4
	jmp	SHORT $LN1@Allocate
$LN2@Allocate:

; 230  :         }
; 231  :     }
; 232  : #endif // defined(_M_IX86) || defined(_M_X64)
; 233  : 
; 234  :     if (_Bytes != 0) {

	cmp	DWORD PTR __Bytes$[ebp], 0
	je	SHORT $LN3@Allocate

; 235  :         return _Traits::_Allocate(_Bytes);

	mov	ecx, DWORD PTR __Bytes$[ebp]
	push	ecx
	call	?_Allocate@_Default_allocate_traits@std@@SAPAXI@Z ; std::_Default_allocate_traits::_Allocate
	add	esp, 4
	jmp	SHORT $LN1@Allocate
$LN3@Allocate:

; 236  :     }
; 237  : 
; 238  :     return nullptr;

	xor	eax, eax
$LN1@Allocate:

; 239  : }

	cmp	ebp, esp
	call	__RTC_CheckEsp
	pop	ebp
	ret	0
??$_Allocate@$07U_Default_allocate_traits@std@@$0A@@std@@YAPAXI@Z ENDP ; std::_Allocate<8,std::_Default_allocate_traits,0>
_TEXT	ENDS
; Function compile flags: /Odtp /RTCsu
; File C:\Program Files\Microsoft Visual Studio\2022\Community\VC\Tools\MSVC\14.32.31326\include\xmemory
;	COMDAT ??$_Get_size_of_n@$07@std@@YAII@Z
_TEXT	SEGMENT
__Max_possible$1 = -8					; size = 4
__Overflow_is_possible$ = -1				; size = 1
__Count$ = 8						; size = 4
??$_Get_size_of_n@$07@std@@YAII@Z PROC			; std::_Get_size_of_n<8>, COMDAT

; 55   : _NODISCARD constexpr size_t _Get_size_of_n(const size_t _Count) {

	push	ebp
	mov	ebp, esp
	sub	esp, 8
	mov	DWORD PTR [ebp-8], -858993460		; ccccccccH
	mov	DWORD PTR [ebp-4], -858993460		; ccccccccH

; 56   :     constexpr bool _Overflow_is_possible = _Ty_size > 1;

	mov	BYTE PTR __Overflow_is_possible$[ebp], 1

; 57   : 
; 58   :     if constexpr (_Overflow_is_possible) {
; 59   :         constexpr size_t _Max_possible = static_cast<size_t>(-1) / _Ty_size;

	mov	DWORD PTR __Max_possible$1[ebp], 536870911 ; 1fffffffH

; 60   :         if (_Count > _Max_possible) {

	cmp	DWORD PTR __Count$[ebp], 536870911	; 1fffffffH
	jbe	SHORT $LN2@Get_size_o

; 61   :             _Throw_bad_array_new_length(); // multiply overflow

	call	?_Throw_bad_array_new_length@std@@YAXXZ	; std::_Throw_bad_array_new_length
$LN2@Get_size_o:

; 62   :         }
; 63   :     }
; 64   : 
; 65   :     return _Count * _Ty_size;

	mov	eax, DWORD PTR __Count$[ebp]
	shl	eax, 3
$LN3@Get_size_o:

; 66   : }

	add	esp, 8
	cmp	ebp, esp
	call	__RTC_CheckEsp
	mov	esp, ebp
	pop	ebp
	ret	0
??$_Get_size_of_n@$07@std@@YAII@Z ENDP			; std::_Get_size_of_n<8>
_TEXT	ENDS
; Function compile flags: /Odtp /RTCsu
; File C:\Program Files\Microsoft Visual Studio\2022\Community\VC\Tools\MSVC\14.32.31326\include\utility
;	COMDAT ??$min@I@std@@YAABIABI0@Z
_TEXT	SEGMENT
tv65 = -8						; size = 4
$T1 = -4						; size = 4
__Left$ = 8						; size = 4
__Right$ = 12						; size = 4
??$min@I@std@@YAABIABI0@Z PROC				; std::min<unsigned int>, COMDAT

; 64   :     (min) (const _Ty& _Left, const _Ty& _Right) noexcept(noexcept(_Right < _Left)) /* strengthened */ {

	push	ebp
	mov	ebp, esp
	sub	esp, 8

; 65   :     // return smaller of _Left and _Right
; 66   :     return _Right < _Left ? _Right : _Left;

	mov	eax, DWORD PTR __Right$[ebp]
	mov	ecx, DWORD PTR __Left$[ebp]
	mov	edx, DWORD PTR [eax]
	cmp	edx, DWORD PTR [ecx]
	jae	SHORT $LN3@min
	mov	eax, DWORD PTR __Right$[ebp]
	mov	DWORD PTR tv65[ebp], eax
	jmp	SHORT $LN4@min
$LN3@min:
	mov	ecx, DWORD PTR __Left$[ebp]
	mov	DWORD PTR tv65[ebp], ecx
$LN4@min:
	mov	edx, DWORD PTR tv65[ebp]
	mov	DWORD PTR $T1[ebp], edx
	mov	eax, DWORD PTR $T1[ebp]

; 67   : }

	mov	esp, ebp
	pop	ebp
	ret	0
??$min@I@std@@YAABIABI0@Z ENDP				; std::min<unsigned int>
_TEXT	ENDS
; Function compile flags: /Odtp /RTCsu
; File C:\Program Files\Microsoft Visual Studio\2022\Community\VC\Tools\MSVC\14.32.31326\include\xmemory
;	COMDAT ??$?0$$V@?$_Compressed_pair@V?$allocator@U?$_Tree_node@UTelegram@@PAX@std@@@std@@V?$_Tree_val@U?$_Tree_simple_types@UTelegram@@@std@@@2@$00@std@@QAE@U_Zero_then_variadic_args_t@1@@Z
_TEXT	SEGMENT
_this$ = -4						; size = 4
___formal$ = 8						; size = 1
??$?0$$V@?$_Compressed_pair@V?$allocator@U?$_Tree_node@UTelegram@@PAX@std@@@std@@V?$_Tree_val@U?$_Tree_simple_types@UTelegram@@@std@@@2@$00@std@@QAE@U_Zero_then_variadic_args_t@1@@Z PROC ; std::_Compressed_pair<std::allocator<std::_Tree_node<Telegram,void *> >,std::_Tree_val<std::_Tree_simple_types<Telegram> >,1>::_Compressed_pair<std::allocator<std::_Tree_node<Telegram,void *> >,std::_Tree_val<std::_Tree_simple_types<Telegram> >,1><>, COMDAT
; _this$ = ecx

; 1370 :         : _Ty1(), _Myval2(_STD forward<_Other2>(_Val2)...) {}

	push	ebp
	mov	ebp, esp
	push	ecx
	mov	DWORD PTR [ebp-4], -858993460		; ccccccccH
	mov	DWORD PTR _this$[ebp], ecx
	mov	ecx, DWORD PTR _this$[ebp]
	call	??0?$allocator@U?$_Tree_node@UTelegram@@PAX@std@@@std@@QAE@XZ ; std::allocator<std::_Tree_node<Telegram,void *> >::allocator<std::_Tree_node<Telegram,void *> >
	mov	ecx, DWORD PTR _this$[ebp]
	call	??0?$_Tree_val@U?$_Tree_simple_types@UTelegram@@@std@@@std@@QAE@XZ ; std::_Tree_val<std::_Tree_simple_types<Telegram> >::_Tree_val<std::_Tree_simple_types<Telegram> >
	mov	eax, DWORD PTR _this$[ebp]
	add	esp, 4
	cmp	ebp, esp
	call	__RTC_CheckEsp
	mov	esp, ebp
	pop	ebp
	ret	4
??$?0$$V@?$_Compressed_pair@V?$allocator@U?$_Tree_node@UTelegram@@PAX@std@@@std@@V?$_Tree_val@U?$_Tree_simple_types@UTelegram@@@std@@@2@$00@std@@QAE@U_Zero_then_variadic_args_t@1@@Z ENDP ; std::_Compressed_pair<std::allocator<std::_Tree_node<Telegram,void *> >,std::_Tree_val<std::_Tree_simple_types<Telegram> >,1>::_Compressed_pair<std::allocator<std::_Tree_node<Telegram,void *> >,std::_Tree_val<std::_Tree_simple_types<Telegram> >,1><>
_TEXT	ENDS
; Function compile flags: /Odtp /RTCsu
; File C:\Program Files\Microsoft Visual Studio\2022\Community\VC\Tools\MSVC\14.32.31326\include\xmemory
;	COMDAT ??$?0ABU?$less@UTelegram@@@std@@U_Zero_then_variadic_args_t@1@@?$_Compressed_pair@U?$less@UTelegram@@@std@@V?$_Compressed_pair@V?$allocator@U?$_Tree_node@UTelegram@@PAX@std@@@std@@V?$_Tree_val@U?$_Tree_simple_types@UTelegram@@@std@@@2@$00@2@$00@std@@QAE@U_One_then_variadic_args_t@1@ABU?$less@UTelegram@@@1@$$QAU_Zero_then_variadic_args_t@1@@Z
_TEXT	SEGMENT
_this$ = -4						; size = 4
___formal$ = 8						; size = 1
__Val1$ = 12						; size = 4
_<_Val2_0>$ = 16					; size = 4
??$?0ABU?$less@UTelegram@@@std@@U_Zero_then_variadic_args_t@1@@?$_Compressed_pair@U?$less@UTelegram@@@std@@V?$_Compressed_pair@V?$allocator@U?$_Tree_node@UTelegram@@PAX@std@@@std@@V?$_Tree_val@U?$_Tree_simple_types@UTelegram@@@std@@@2@$00@2@$00@std@@QAE@U_One_then_variadic_args_t@1@ABU?$less@UTelegram@@@1@$$QAU_Zero_then_variadic_args_t@1@@Z PROC ; std::_Compressed_pair<std::less<Telegram>,std::_Compressed_pair<std::allocator<std::_Tree_node<Telegram,void *> >,std::_Tree_val<std::_Tree_simple_types<Telegram> >,1>,1>::_Compressed_pair<std::less<Telegram>,std::_Compressed_pair<std::allocator<std::_Tree_node<Telegram,void *> >,std::_Tree_val<std::_Tree_simple_types<Telegram> >,1>,1><std::less<Telegram> const &,std::_Zero_then_variadic_args_t>, COMDAT
; _this$ = ecx

; 1375 :         : _Ty1(_STD forward<_Other1>(_Val1)), _Myval2(_STD forward<_Other2>(_Val2)...) {}

	push	ebp
	mov	ebp, esp
	push	ecx
	mov	DWORD PTR [ebp-4], -858993460		; ccccccccH
	mov	DWORD PTR _this$[ebp], ecx
	mov	eax, DWORD PTR __Val1$[ebp]
	push	eax
	call	??$forward@ABU?$less@UTelegram@@@std@@@std@@YAABU?$less@UTelegram@@@0@ABU10@@Z ; std::forward<std::less<Telegram> const &>
	add	esp, 4
	mov	ecx, DWORD PTR _<_Val2_0>$[ebp]
	push	ecx
	call	??$forward@U_Zero_then_variadic_args_t@std@@@std@@YA$$QAU_Zero_then_variadic_args_t@0@AAU10@@Z ; std::forward<std::_Zero_then_variadic_args_t>
	add	esp, 4
	mov	dl, BYTE PTR [eax]
	movzx	eax, dl
	push	eax
	mov	ecx, DWORD PTR _this$[ebp]
	call	??$?0$$V@?$_Compressed_pair@V?$allocator@U?$_Tree_node@UTelegram@@PAX@std@@@std@@V?$_Tree_val@U?$_Tree_simple_types@UTelegram@@@std@@@2@$00@std@@QAE@U_Zero_then_variadic_args_t@1@@Z ; std::_Compressed_pair<std::allocator<std::_Tree_node<Telegram,void *> >,std::_Tree_val<std::_Tree_simple_types<Telegram> >,1>::_Compressed_pair<std::allocator<std::_Tree_node<Telegram,void *> >,std::_Tree_val<std::_Tree_simple_types<Telegram> >,1><>
	mov	eax, DWORD PTR _this$[ebp]
	add	esp, 4
	cmp	ebp, esp
	call	__RTC_CheckEsp
	mov	esp, ebp
	pop	ebp
	ret	12					; 0000000cH
??$?0ABU?$less@UTelegram@@@std@@U_Zero_then_variadic_args_t@1@@?$_Compressed_pair@U?$less@UTelegram@@@std@@V?$_Compressed_pair@V?$allocator@U?$_Tree_node@UTelegram@@PAX@std@@@std@@V?$_Tree_val@U?$_Tree_simple_types@UTelegram@@@std@@@2@$00@2@$00@std@@QAE@U_One_then_variadic_args_t@1@ABU?$less@UTelegram@@@1@$$QAU_Zero_then_variadic_args_t@1@@Z ENDP ; std::_Compressed_pair<std::less<Telegram>,std::_Compressed_pair<std::allocator<std::_Tree_node<Telegram,void *> >,std::_Tree_val<std::_Tree_simple_types<Telegram> >,1>,1>::_Compressed_pair<std::less<Telegram>,std::_Compressed_pair<std::allocator<std::_Tree_node<Telegram,void *> >,std::_Tree_val<std::_Tree_simple_types<Telegram> >,1>,1><std::less<Telegram> const &,std::_Zero_then_variadic_args_t>
_TEXT	ENDS
; Function compile flags: /Odtp /RTCsu
; File C:\Program Files\Microsoft Visual Studio\2022\Community\VC\Tools\MSVC\14.32.31326\include\xtree
;	COMDAT ??$_Freenode@V?$allocator@U?$_Tree_node@UTelegram@@PAX@std@@@std@@@?$_Tree_node@UTelegram@@PAX@std@@SAXAAV?$allocator@U?$_Tree_node@UTelegram@@PAX@std@@@1@PAU01@@Z
_TEXT	SEGMENT
__$EHRec$ = -12						; size = 12
__Al$ = 8						; size = 4
__Ptr$ = 12						; size = 4
??$_Freenode@V?$allocator@U?$_Tree_node@UTelegram@@PAX@std@@@std@@@?$_Tree_node@UTelegram@@PAX@std@@SAXAAV?$allocator@U?$_Tree_node@UTelegram@@PAX@std@@@1@PAU01@@Z PROC ; std::_Tree_node<Telegram,void *>::_Freenode<std::allocator<std::_Tree_node<Telegram,void *> > >, COMDAT

; 378  :     static void _Freenode(_Alloc& _Al, _Nodeptr _Ptr) noexcept {

	push	ebp
	mov	ebp, esp
	push	-1
	push	__ehhandler$??$_Freenode@V?$allocator@U?$_Tree_node@UTelegram@@PAX@std@@@std@@@?$_Tree_node@UTelegram@@PAX@std@@SAXAAV?$allocator@U?$_Tree_node@UTelegram@@PAX@std@@@1@PAU01@@Z
	mov	eax, DWORD PTR fs:0
	push	eax
	mov	eax, DWORD PTR ___security_cookie
	xor	eax, ebp
	push	eax
	lea	eax, DWORD PTR __$EHRec$[ebp]
	mov	DWORD PTR fs:0, eax

; 379  :         static_assert(is_same_v<typename _Alloc::value_type, _Tree_node>, "Bad _Freenode call");
; 380  :         allocator_traits<_Alloc>::destroy(_Al, _STD addressof(_Ptr->_Myval));

	mov	eax, DWORD PTR __Ptr$[ebp]
	add	eax, 16					; 00000010H
	push	eax
	call	??$addressof@UTelegram@@@std@@YAPAUTelegram@@AAU1@@Z ; std::addressof<Telegram>
	add	esp, 4
	push	eax
	mov	ecx, DWORD PTR __Al$[ebp]
	push	ecx
	call	??$destroy@UTelegram@@@?$_Default_allocator_traits@V?$allocator@U?$_Tree_node@UTelegram@@PAX@std@@@std@@@std@@SAXAAV?$allocator@U?$_Tree_node@UTelegram@@PAX@std@@@1@QAUTelegram@@@Z ; std::_Default_allocator_traits<std::allocator<std::_Tree_node<Telegram,void *> > >::destroy<Telegram>
	add	esp, 8

; 381  :         _Freenode0(_Al, _Ptr);

	mov	edx, DWORD PTR __Ptr$[ebp]
	push	edx
	mov	eax, DWORD PTR __Al$[ebp]
	push	eax
	call	??$_Freenode0@V?$allocator@U?$_Tree_node@UTelegram@@PAX@std@@@std@@@?$_Tree_node@UTelegram@@PAX@std@@SAXAAV?$allocator@U?$_Tree_node@UTelegram@@PAX@std@@@1@PAU01@@Z ; std::_Tree_node<Telegram,void *>::_Freenode0<std::allocator<std::_Tree_node<Telegram,void *> > >
	add	esp, 8

; 382  :     }

	mov	ecx, DWORD PTR __$EHRec$[ebp]
	mov	DWORD PTR fs:0, ecx
	pop	ecx
	add	esp, 12					; 0000000cH
	cmp	ebp, esp
	call	__RTC_CheckEsp
	mov	esp, ebp
	pop	ebp
	ret	0
	int	3
	int	3
	int	3
	int	3
	int	3
_TEXT	ENDS
;	COMDAT text$x
text$x	SEGMENT
__ehhandler$??$_Freenode@V?$allocator@U?$_Tree_node@UTelegram@@PAX@std@@@std@@@?$_Tree_node@UTelegram@@PAX@std@@SAXAAV?$allocator@U?$_Tree_node@UTelegram@@PAX@std@@@1@PAU01@@Z:
	npad	1
	npad	1
	mov	edx, DWORD PTR [esp+8]
	lea	eax, DWORD PTR [edx+12]
	mov	ecx, DWORD PTR [edx-4]
	xor	ecx, eax
	call	@__security_check_cookie@4
	mov	eax, OFFSET __ehfuncinfo$??$_Freenode@V?$allocator@U?$_Tree_node@UTelegram@@PAX@std@@@std@@@?$_Tree_node@UTelegram@@PAX@std@@SAXAAV?$allocator@U?$_Tree_node@UTelegram@@PAX@std@@@1@PAU01@@Z
	jmp	___CxxFrameHandler3
text$x	ENDS
??$_Freenode@V?$allocator@U?$_Tree_node@UTelegram@@PAX@std@@@std@@@?$_Tree_node@UTelegram@@PAX@std@@SAXAAV?$allocator@U?$_Tree_node@UTelegram@@PAX@std@@@1@PAU01@@Z ENDP ; std::_Tree_node<Telegram,void *>::_Freenode<std::allocator<std::_Tree_node<Telegram,void *> > >
; Function compile flags: /Odtp /RTCsu
; File C:\Program Files\Microsoft Visual Studio\2022\Community\VC\Tools\MSVC\14.32.31326\include\xstddef
;	COMDAT ??$addressof@V?$_Tree_val@U?$_Tree_simple_types@UTelegram@@@std@@@std@@@std@@YAPAV?$_Tree_val@U?$_Tree_simple_types@UTelegram@@@std@@@0@AAV10@@Z
_TEXT	SEGMENT
__Val$ = 8						; size = 4
??$addressof@V?$_Tree_val@U?$_Tree_simple_types@UTelegram@@@std@@@std@@@std@@YAPAV?$_Tree_val@U?$_Tree_simple_types@UTelegram@@@std@@@0@AAV10@@Z PROC ; std::addressof<std::_Tree_val<std::_Tree_simple_types<Telegram> > >, COMDAT

; 252  : _NODISCARD constexpr _Ty* addressof(_Ty& _Val) noexcept {

	push	ebp
	mov	ebp, esp

; 253  :     return __builtin_addressof(_Val);

	mov	eax, DWORD PTR __Val$[ebp]

; 254  : }

	pop	ebp
	ret	0
??$addressof@V?$_Tree_val@U?$_Tree_simple_types@UTelegram@@@std@@@std@@@std@@YAPAV?$_Tree_val@U?$_Tree_simple_types@UTelegram@@@std@@@0@AAV10@@Z ENDP ; std::addressof<std::_Tree_val<std::_Tree_simple_types<Telegram> > >
_TEXT	ENDS
; Function compile flags: /Odtp /RTCsu
; File C:\Program Files\Microsoft Visual Studio\2022\Community\VC\Tools\MSVC\14.32.31326\include\xstddef
;	COMDAT ??$addressof@$$CBV?$_Tree_val@U?$_Tree_simple_types@UTelegram@@@std@@@std@@@std@@YAPBV?$_Tree_val@U?$_Tree_simple_types@UTelegram@@@std@@@0@ABV10@@Z
_TEXT	SEGMENT
__Val$ = 8						; size = 4
??$addressof@$$CBV?$_Tree_val@U?$_Tree_simple_types@UTelegram@@@std@@@std@@@std@@YAPBV?$_Tree_val@U?$_Tree_simple_types@UTelegram@@@std@@@0@ABV10@@Z PROC ; std::addressof<std::_Tree_val<std::_Tree_simple_types<Telegram> > const >, COMDAT

; 252  : _NODISCARD constexpr _Ty* addressof(_Ty& _Val) noexcept {

	push	ebp
	mov	ebp, esp

; 253  :     return __builtin_addressof(_Val);

	mov	eax, DWORD PTR __Val$[ebp]

; 254  : }

	pop	ebp
	ret	0
??$addressof@$$CBV?$_Tree_val@U?$_Tree_simple_types@UTelegram@@@std@@@std@@@std@@YAPBV?$_Tree_val@U?$_Tree_simple_types@UTelegram@@@std@@@0@ABV10@@Z ENDP ; std::addressof<std::_Tree_val<std::_Tree_simple_types<Telegram> > const >
_TEXT	ENDS
; Function compile flags: /Odtp /RTCsu
; File C:\Program Files\Microsoft Visual Studio\2022\Community\VC\Tools\MSVC\14.32.31326\include\xstddef
;	COMDAT ??$addressof@$$CBUTelegram@@@std@@YAPBUTelegram@@ABU1@@Z
_TEXT	SEGMENT
__Val$ = 8						; size = 4
??$addressof@$$CBUTelegram@@@std@@YAPBUTelegram@@ABU1@@Z PROC ; std::addressof<Telegram const >, COMDAT

; 252  : _NODISCARD constexpr _Ty* addressof(_Ty& _Val) noexcept {

	push	ebp
	mov	ebp, esp

; 253  :     return __builtin_addressof(_Val);

	mov	eax, DWORD PTR __Val$[ebp]

; 254  : }

	pop	ebp
	ret	0
??$addressof@$$CBUTelegram@@@std@@YAPBUTelegram@@ABU1@@Z ENDP ; std::addressof<Telegram const >
_TEXT	ENDS
; Function compile flags: /Odtp /RTCsu
; File C:\Program Files\Microsoft Visual Studio\2022\Community\VC\Tools\MSVC\14.32.31326\include\xutility
;	COMDAT ??$_Construct_in_place@U_Container_proxy@std@@PAU_Container_base12@2@@std@@YAXAAU_Container_proxy@0@$$QAPAU_Container_base12@0@@Z
_TEXT	SEGMENT
$T1 = -4						; size = 4
__Obj$ = 8						; size = 4
_<_Args_0>$ = 12					; size = 4
??$_Construct_in_place@U_Container_proxy@std@@PAU_Container_base12@2@@std@@YAXAAU_Container_proxy@0@$$QAPAU_Container_base12@0@@Z PROC ; std::_Construct_in_place<std::_Container_proxy,std::_Container_base12 *>, COMDAT

; 142  :     is_nothrow_constructible_v<_Ty, _Types...>) {

	push	ebp
	mov	ebp, esp
	push	ecx
	mov	DWORD PTR [ebp-4], -858993460		; ccccccccH

; 143  : #if _HAS_CXX20
; 144  :     if (_STD is_constant_evaluated()) {
; 145  :         _STD construct_at(_STD addressof(_Obj), _STD forward<_Types>(_Args)...);
; 146  :     } else
; 147  : #endif // _HAS_CXX20
; 148  :     {
; 149  :         ::new (_Voidify_iter(_STD addressof(_Obj))) _Ty(_STD forward<_Types>(_Args)...);

	mov	eax, DWORD PTR __Obj$[ebp]
	push	eax
	call	??$addressof@U_Container_proxy@std@@@std@@YAPAU_Container_proxy@0@AAU10@@Z ; std::addressof<std::_Container_proxy>
	add	esp, 4
	push	eax
	call	??$_Voidify_iter@PAU_Container_proxy@std@@@std@@YAPAXPAU_Container_proxy@0@@Z ; std::_Voidify_iter<std::_Container_proxy *>
	add	esp, 4
	push	eax
	push	8
	call	??2@YAPAXIPAX@Z				; operator new
	add	esp, 8
	mov	DWORD PTR $T1[ebp], eax
	mov	ecx, DWORD PTR _<_Args_0>$[ebp]
	push	ecx
	call	??$forward@PAU_Container_base12@std@@@std@@YA$$QAPAU_Container_base12@0@AAPAU10@@Z ; std::forward<std::_Container_base12 *>
	add	esp, 4
	mov	edx, DWORD PTR [eax]
	push	edx
	mov	ecx, DWORD PTR $T1[ebp]
	call	??0_Container_proxy@std@@QAE@PAU_Container_base12@1@@Z ; std::_Container_proxy::_Container_proxy

; 150  :     }
; 151  : }

	add	esp, 4
	cmp	ebp, esp
	call	__RTC_CheckEsp
	mov	esp, ebp
	pop	ebp
	ret	0
??$_Construct_in_place@U_Container_proxy@std@@PAU_Container_base12@2@@std@@YAXAAU_Container_proxy@0@$$QAPAU_Container_base12@0@@Z ENDP ; std::_Construct_in_place<std::_Container_proxy,std::_Container_base12 *>
_TEXT	ENDS
; Function compile flags: /Odtp /RTCsu
; File C:\Program Files\Microsoft Visual Studio\2022\Community\VC\Tools\MSVC\14.32.31326\include\xstddef
;	COMDAT ??$addressof@U_Container_base12@std@@@std@@YAPAU_Container_base12@0@AAU10@@Z
_TEXT	SEGMENT
__Val$ = 8						; size = 4
??$addressof@U_Container_base12@std@@@std@@YAPAU_Container_base12@0@AAU10@@Z PROC ; std::addressof<std::_Container_base12>, COMDAT

; 252  : _NODISCARD constexpr _Ty* addressof(_Ty& _Val) noexcept {

	push	ebp
	mov	ebp, esp

; 253  :     return __builtin_addressof(_Val);

	mov	eax, DWORD PTR __Val$[ebp]

; 254  : }

	pop	ebp
	ret	0
??$addressof@U_Container_base12@std@@@std@@YAPAU_Container_base12@0@AAU10@@Z ENDP ; std::addressof<std::_Container_base12>
_TEXT	ENDS
; Function compile flags: /Odtp /RTCsu
; File C:\Program Files\Microsoft Visual Studio\2022\Community\VC\Tools\MSVC\14.32.31326\include\xstddef
;	COMDAT ??$_Unfancy@U_Container_proxy@std@@@std@@YAPAU_Container_proxy@0@PAU10@@Z
_TEXT	SEGMENT
__Ptr$ = 8						; size = 4
??$_Unfancy@U_Container_proxy@std@@@std@@YAPAU_Container_proxy@0@PAU10@@Z PROC ; std::_Unfancy<std::_Container_proxy>, COMDAT

; 265  : _NODISCARD constexpr _Ty* _Unfancy(_Ty* _Ptr) noexcept { // do nothing for plain pointers

	push	ebp
	mov	ebp, esp

; 266  :     return _Ptr;

	mov	eax, DWORD PTR __Ptr$[ebp]

; 267  : }

	pop	ebp
	ret	0
??$_Unfancy@U_Container_proxy@std@@@std@@YAPAU_Container_proxy@0@PAU10@@Z ENDP ; std::_Unfancy<std::_Container_proxy>
_TEXT	ENDS
; Function compile flags: /Odtp /RTCsu
; File C:\Program Files\Microsoft Visual Studio\2022\Community\VC\Tools\MSVC\14.32.31326\include\xmemory
;	COMDAT ??1?$_Container_proxy_ptr12@V?$allocator@U_Container_proxy@std@@@std@@@std@@QAE@XZ
_TEXT	SEGMENT
_this$ = -4						; size = 4
??1?$_Container_proxy_ptr12@V?$allocator@U_Container_proxy@std@@@std@@@std@@QAE@XZ PROC ; std::_Container_proxy_ptr12<std::allocator<std::_Container_proxy> >::~_Container_proxy_ptr12<std::allocator<std::_Container_proxy> >, COMDAT
; _this$ = ecx

; 1334 :     _CONSTEXPR20 ~_Container_proxy_ptr12() {

	push	ebp
	mov	ebp, esp
	push	ecx
	mov	DWORD PTR [ebp-4], -858993460		; ccccccccH
	mov	DWORD PTR _this$[ebp], ecx

; 1335 :         if (_Ptr) {

	mov	eax, DWORD PTR _this$[ebp]
	cmp	DWORD PTR [eax], 0
	je	SHORT $LN3@Container_

; 1336 :             _Delete_plain_internal(_Al, _Ptr);

	mov	ecx, DWORD PTR _this$[ebp]
	mov	edx, DWORD PTR [ecx]
	push	edx
	mov	eax, DWORD PTR _this$[ebp]
	mov	ecx, DWORD PTR [eax+4]
	push	ecx
	call	??$_Delete_plain_internal@V?$allocator@U_Container_proxy@std@@@std@@@std@@YAXAAV?$allocator@U_Container_proxy@std@@@0@QAU_Container_proxy@0@@Z ; std::_Delete_plain_internal<std::allocator<std::_Container_proxy> >
	add	esp, 8
$LN3@Container_:

; 1337 :         }
; 1338 :     }

	add	esp, 4
	cmp	ebp, esp
	call	__RTC_CheckEsp
	mov	esp, ebp
	pop	ebp
	ret	0
??1?$_Container_proxy_ptr12@V?$allocator@U_Container_proxy@std@@@std@@@std@@QAE@XZ ENDP ; std::_Container_proxy_ptr12<std::allocator<std::_Container_proxy> >::~_Container_proxy_ptr12<std::allocator<std::_Container_proxy> >
_TEXT	ENDS
; Function compile flags: /Odtp /RTCsu
; File C:\Program Files\Microsoft Visual Studio\2022\Community\VC\Tools\MSVC\14.32.31326\include\xmemory
;	COMDAT ??0?$_Container_proxy_ptr12@V?$allocator@U_Container_proxy@std@@@std@@@std@@QAE@AAV?$allocator@U_Container_proxy@std@@@1@AAU_Container_base12@1@@Z
_TEXT	SEGMENT
$T1 = -8						; size = 4
_this$ = -4						; size = 4
__Al_$ = 8						; size = 4
__Mycont$ = 12						; size = 4
??0?$_Container_proxy_ptr12@V?$allocator@U_Container_proxy@std@@@std@@@std@@QAE@AAV?$allocator@U_Container_proxy@std@@@1@AAU_Container_base12@1@@Z PROC ; std::_Container_proxy_ptr12<std::allocator<std::_Container_proxy> >::_Container_proxy_ptr12<std::allocator<std::_Container_proxy> >, COMDAT
; _this$ = ecx

; 1320 :     _CONSTEXPR20 _Container_proxy_ptr12(_Alloc& _Al_, _Container_base12& _Mycont) : _Al(_Al_) {

	push	ebp
	mov	ebp, esp
	sub	esp, 8
	mov	DWORD PTR [ebp-8], -858993460		; ccccccccH
	mov	DWORD PTR [ebp-4], -858993460		; ccccccccH
	mov	DWORD PTR _this$[ebp], ecx
	mov	ecx, DWORD PTR _this$[ebp]
	call	??0_Basic_container_proxy_ptr12@std@@IAE@XZ ; std::_Basic_container_proxy_ptr12::_Basic_container_proxy_ptr12
	mov	eax, DWORD PTR _this$[ebp]
	mov	ecx, DWORD PTR __Al_$[ebp]
	mov	DWORD PTR [eax+4], ecx

; 1321 :         // create a new _Container_proxy pointing at _Mycont
; 1322 :         _Ptr = _Unfancy(_Al_.allocate(1));

	push	1
	mov	ecx, DWORD PTR __Al_$[ebp]
	call	?allocate@?$allocator@U_Container_proxy@std@@@std@@QAEPAU_Container_proxy@2@I@Z ; std::allocator<std::_Container_proxy>::allocate
	push	eax
	call	??$_Unfancy@U_Container_proxy@std@@@std@@YAPAU_Container_proxy@0@PAU10@@Z ; std::_Unfancy<std::_Container_proxy>
	add	esp, 4
	mov	edx, DWORD PTR _this$[ebp]
	mov	DWORD PTR [edx], eax

; 1323 :         _Construct_in_place(*_Ptr, _STD addressof(_Mycont));

	mov	eax, DWORD PTR __Mycont$[ebp]
	push	eax
	call	??$addressof@U_Container_base12@std@@@std@@YAPAU_Container_base12@0@AAU10@@Z ; std::addressof<std::_Container_base12>
	add	esp, 4
	mov	DWORD PTR $T1[ebp], eax
	lea	ecx, DWORD PTR $T1[ebp]
	push	ecx
	mov	edx, DWORD PTR _this$[ebp]
	mov	eax, DWORD PTR [edx]
	push	eax
	call	??$_Construct_in_place@U_Container_proxy@std@@PAU_Container_base12@2@@std@@YAXAAU_Container_proxy@0@$$QAPAU_Container_base12@0@@Z ; std::_Construct_in_place<std::_Container_proxy,std::_Container_base12 *>
	add	esp, 8

; 1324 :         _Mycont._Myproxy = _Ptr;

	mov	ecx, DWORD PTR __Mycont$[ebp]
	mov	edx, DWORD PTR _this$[ebp]
	mov	eax, DWORD PTR [edx]
	mov	DWORD PTR [ecx], eax

; 1325 :     }

	mov	eax, DWORD PTR _this$[ebp]
	add	esp, 8
	cmp	ebp, esp
	call	__RTC_CheckEsp
	mov	esp, ebp
	pop	ebp
	ret	8
??0?$_Container_proxy_ptr12@V?$allocator@U_Container_proxy@std@@@std@@@std@@QAE@AAV?$allocator@U_Container_proxy@std@@@1@AAU_Container_base12@1@@Z ENDP ; std::_Container_proxy_ptr12<std::allocator<std::_Container_proxy> >::_Container_proxy_ptr12<std::allocator<std::_Container_proxy> >
_TEXT	ENDS
; Function compile flags: /Odtp /RTCsu
; File C:\Program Files\Microsoft Visual Studio\2022\Community\VC\Tools\MSVC\14.32.31326\include\xmemory
;	COMDAT ??$?0U?$_Tree_node@UTelegram@@PAX@std@@@?$allocator@U_Container_proxy@std@@@std@@QAE@ABV?$allocator@U?$_Tree_node@UTelegram@@PAX@std@@@1@@Z
_TEXT	SEGMENT
_this$ = -4						; size = 4
___formal$ = 8						; size = 4
??$?0U?$_Tree_node@UTelegram@@PAX@std@@@?$allocator@U_Container_proxy@std@@@std@@QAE@ABV?$allocator@U?$_Tree_node@UTelegram@@PAX@std@@@1@@Z PROC ; std::allocator<std::_Container_proxy>::allocator<std::_Container_proxy><std::_Tree_node<Telegram,void *> >, COMDAT
; _this$ = ecx

; 823  :     constexpr allocator(const allocator<_Other>&) noexcept {}

	push	ebp
	mov	ebp, esp
	push	ecx
	mov	DWORD PTR _this$[ebp], ecx
	mov	eax, DWORD PTR _this$[ebp]
	mov	esp, ebp
	pop	ebp
	ret	4
??$?0U?$_Tree_node@UTelegram@@PAX@std@@@?$allocator@U_Container_proxy@std@@@std@@QAE@ABV?$allocator@U?$_Tree_node@UTelegram@@PAX@std@@@1@@Z ENDP ; std::allocator<std::_Container_proxy>::allocator<std::_Container_proxy><std::_Tree_node<Telegram,void *> >
_TEXT	ENDS
; Function compile flags: /Odtp /RTCsu
; File C:\Program Files\Microsoft Visual Studio\2022\Community\VC\Tools\MSVC\14.32.31326\include\xtree
;	COMDAT ??$_Erase_head@V?$allocator@U?$_Tree_node@UTelegram@@PAX@std@@@std@@@?$_Tree_val@U?$_Tree_simple_types@UTelegram@@@std@@@std@@QAEXAAV?$allocator@U?$_Tree_node@UTelegram@@PAX@std@@@1@@Z
_TEXT	SEGMENT
_this$ = -4						; size = 4
__Al$ = 8						; size = 4
??$_Erase_head@V?$allocator@U?$_Tree_node@UTelegram@@PAX@std@@@std@@@?$_Tree_val@U?$_Tree_simple_types@UTelegram@@@std@@@std@@QAEXAAV?$allocator@U?$_Tree_node@UTelegram@@PAX@std@@@1@@Z PROC ; std::_Tree_val<std::_Tree_simple_types<Telegram> >::_Erase_head<std::allocator<std::_Tree_node<Telegram,void *> > >, COMDAT
; _this$ = ecx

; 750  :     void _Erase_head(_Alnode& _Al) noexcept {

	push	ebp
	mov	ebp, esp
	push	ecx
	mov	DWORD PTR [ebp-4], -858993460		; ccccccccH
	mov	DWORD PTR _this$[ebp], ecx

; 751  :         this->_Orphan_all();

	mov	ecx, DWORD PTR _this$[ebp]
	call	?_Orphan_all@_Container_base12@std@@QAEXXZ ; std::_Container_base12::_Orphan_all

; 752  :         _Erase_tree(_Al, _Myhead->_Parent);

	mov	eax, DWORD PTR _this$[ebp]
	mov	ecx, DWORD PTR [eax+4]
	mov	edx, DWORD PTR [ecx+4]
	push	edx
	mov	eax, DWORD PTR __Al$[ebp]
	push	eax
	mov	ecx, DWORD PTR _this$[ebp]
	call	??$_Erase_tree@V?$allocator@U?$_Tree_node@UTelegram@@PAX@std@@@std@@@?$_Tree_val@U?$_Tree_simple_types@UTelegram@@@std@@@std@@QAEXAAV?$allocator@U?$_Tree_node@UTelegram@@PAX@std@@@1@PAU?$_Tree_node@UTelegram@@PAX@1@@Z ; std::_Tree_val<std::_Tree_simple_types<Telegram> >::_Erase_tree<std::allocator<std::_Tree_node<Telegram,void *> > >

; 753  :         _Alnode::value_type::_Freenode0(_Al, _Myhead);

	mov	ecx, DWORD PTR _this$[ebp]
	mov	edx, DWORD PTR [ecx+4]
	push	edx
	mov	eax, DWORD PTR __Al$[ebp]
	push	eax
	call	??$_Freenode0@V?$allocator@U?$_Tree_node@UTelegram@@PAX@std@@@std@@@?$_Tree_node@UTelegram@@PAX@std@@SAXAAV?$allocator@U?$_Tree_node@UTelegram@@PAX@std@@@1@PAU01@@Z ; std::_Tree_node<Telegram,void *>::_Freenode0<std::allocator<std::_Tree_node<Telegram,void *> > >
	add	esp, 8

; 754  :     }

	add	esp, 4
	cmp	ebp, esp
	call	__RTC_CheckEsp
	mov	esp, ebp
	pop	ebp
	ret	4
??$_Erase_head@V?$allocator@U?$_Tree_node@UTelegram@@PAX@std@@@std@@@?$_Tree_val@U?$_Tree_simple_types@UTelegram@@@std@@@std@@QAEXAAV?$allocator@U?$_Tree_node@UTelegram@@PAX@std@@@1@@Z ENDP ; std::_Tree_val<std::_Tree_simple_types<Telegram> >::_Erase_head<std::allocator<std::_Tree_node<Telegram,void *> > >
_TEXT	ENDS
; Function compile flags: /Odtp /RTCsu
; File C:\Program Files\Microsoft Visual Studio\2022\Community\VC\Tools\MSVC\14.32.31326\include\xtree
;	COMDAT ??E?$_Tree_unchecked_const_iterator@V?$_Tree_val@U?$_Tree_simple_types@UTelegram@@@std@@@std@@U_Iterator_base0@2@@std@@QAEAAV01@XZ
_TEXT	SEGMENT
__Pnode$1 = -8						; size = 4
_this$ = -4						; size = 4
??E?$_Tree_unchecked_const_iterator@V?$_Tree_val@U?$_Tree_simple_types@UTelegram@@@std@@@std@@U_Iterator_base0@2@@std@@QAEAAV01@XZ PROC ; std::_Tree_unchecked_const_iterator<std::_Tree_val<std::_Tree_simple_types<Telegram> >,std::_Iterator_base0>::operator++, COMDAT
; _this$ = ecx

; 50   :     _Tree_unchecked_const_iterator& operator++() noexcept {

	push	ebp
	mov	ebp, esp
	sub	esp, 8
	mov	DWORD PTR [ebp-8], -858993460		; ccccccccH
	mov	DWORD PTR [ebp-4], -858993460		; ccccccccH
	mov	DWORD PTR _this$[ebp], ecx

; 51   :         if (_Ptr->_Right->_Isnil) { // climb looking for right subtree

	mov	eax, DWORD PTR _this$[ebp]
	mov	ecx, DWORD PTR [eax]
	mov	edx, DWORD PTR [ecx+8]
	movsx	eax, BYTE PTR [edx+13]
	test	eax, eax
	je	SHORT $LN4@operator
$LN2@operator:

; 52   :             _Nodeptr _Pnode;
; 53   :             while (!(_Pnode = _Ptr->_Parent)->_Isnil && _Ptr == _Pnode->_Right) {

	mov	ecx, DWORD PTR _this$[ebp]
	mov	edx, DWORD PTR [ecx]
	mov	eax, DWORD PTR [edx+4]
	mov	DWORD PTR __Pnode$1[ebp], eax
	mov	ecx, DWORD PTR __Pnode$1[ebp]
	movsx	edx, BYTE PTR [ecx+13]
	test	edx, edx
	jne	SHORT $LN3@operator
	mov	eax, DWORD PTR _this$[ebp]
	mov	ecx, DWORD PTR __Pnode$1[ebp]
	mov	edx, DWORD PTR [eax]
	cmp	edx, DWORD PTR [ecx+8]
	jne	SHORT $LN3@operator

; 54   :                 _Ptr = _Pnode; // ==> parent while right subtree

	mov	eax, DWORD PTR _this$[ebp]
	mov	ecx, DWORD PTR __Pnode$1[ebp]
	mov	DWORD PTR [eax], ecx

; 55   :             }

	jmp	SHORT $LN2@operator
$LN3@operator:

; 56   : 
; 57   :             _Ptr = _Pnode; // ==> parent (head if end())

	mov	edx, DWORD PTR _this$[ebp]
	mov	eax, DWORD PTR __Pnode$1[ebp]
	mov	DWORD PTR [edx], eax

; 58   :         } else {

	jmp	SHORT $LN5@operator
$LN4@operator:

; 59   :             _Ptr = _Mytree::_Min(_Ptr->_Right); // ==> smallest of right subtree

	mov	ecx, DWORD PTR _this$[ebp]
	mov	edx, DWORD PTR [ecx]
	mov	eax, DWORD PTR [edx+8]
	push	eax
	call	?_Min@?$_Tree_val@U?$_Tree_simple_types@UTelegram@@@std@@@std@@SAPAU?$_Tree_node@UTelegram@@PAX@2@PAU32@@Z ; std::_Tree_val<std::_Tree_simple_types<Telegram> >::_Min
	add	esp, 4
	mov	ecx, DWORD PTR _this$[ebp]
	mov	DWORD PTR [ecx], eax
$LN5@operator:

; 60   :         }
; 61   : 
; 62   :         return *this;

	mov	eax, DWORD PTR _this$[ebp]

; 63   :     }

	add	esp, 8
	cmp	ebp, esp
	call	__RTC_CheckEsp
	mov	esp, ebp
	pop	ebp
	ret	0
??E?$_Tree_unchecked_const_iterator@V?$_Tree_val@U?$_Tree_simple_types@UTelegram@@@std@@@std@@U_Iterator_base0@2@@std@@QAEAAV01@XZ ENDP ; std::_Tree_unchecked_const_iterator<std::_Tree_val<std::_Tree_simple_types<Telegram> >,std::_Iterator_base0>::operator++
_TEXT	ENDS
; Function compile flags: /Odtp /RTCsu
; File C:\Program Files\Microsoft Visual Studio\2022\Community\VC\Tools\MSVC\14.32.31326\include\xtree
;	COMDAT ??0?$_Tree_unchecked_const_iterator@V?$_Tree_val@U?$_Tree_simple_types@UTelegram@@@std@@@std@@U_Iterator_base0@2@@std@@QAE@PAU?$_Tree_node@UTelegram@@PAX@1@PBV?$_Tree_val@U?$_Tree_simple_types@UTelegram@@@std@@@1@@Z
_TEXT	SEGMENT
_this$ = -4						; size = 4
__Pnode$ = 8						; size = 4
__Plist$ = 12						; size = 4
??0?$_Tree_unchecked_const_iterator@V?$_Tree_val@U?$_Tree_simple_types@UTelegram@@@std@@@std@@U_Iterator_base0@2@@std@@QAE@PAU?$_Tree_node@UTelegram@@PAX@1@PBV?$_Tree_val@U?$_Tree_simple_types@UTelegram@@@std@@@1@@Z PROC ; std::_Tree_unchecked_const_iterator<std::_Tree_val<std::_Tree_simple_types<Telegram> >,std::_Iterator_base0>::_Tree_unchecked_const_iterator<std::_Tree_val<std::_Tree_simple_types<Telegram> >,std::_Iterator_base0>, COMDAT
; _this$ = ecx

; 38   :     _Tree_unchecked_const_iterator(_Nodeptr _Pnode, const _Mytree* _Plist) noexcept : _Ptr(_Pnode) {

	push	ebp
	mov	ebp, esp
	push	ecx
	mov	DWORD PTR [ebp-4], -858993460		; ccccccccH
	mov	DWORD PTR _this$[ebp], ecx
	mov	eax, DWORD PTR _this$[ebp]
	mov	ecx, DWORD PTR __Pnode$[ebp]
	mov	DWORD PTR [eax], ecx

; 39   :         this->_Adopt(_Plist);

	mov	edx, DWORD PTR __Plist$[ebp]
	push	edx
	mov	ecx, DWORD PTR _this$[ebp]
	call	?_Adopt@_Iterator_base0@std@@QAEXPBX@Z	; std::_Iterator_base0::_Adopt

; 40   :     }

	mov	eax, DWORD PTR _this$[ebp]
	add	esp, 4
	cmp	ebp, esp
	call	__RTC_CheckEsp
	mov	esp, ebp
	pop	ebp
	ret	8
??0?$_Tree_unchecked_const_iterator@V?$_Tree_val@U?$_Tree_simple_types@UTelegram@@@std@@@std@@U_Iterator_base0@2@@std@@QAE@PAU?$_Tree_node@UTelegram@@PAX@1@PBV?$_Tree_val@U?$_Tree_simple_types@UTelegram@@@std@@@1@@Z ENDP ; std::_Tree_unchecked_const_iterator<std::_Tree_val<std::_Tree_simple_types<Telegram> >,std::_Iterator_base0>::_Tree_unchecked_const_iterator<std::_Tree_val<std::_Tree_simple_types<Telegram> >,std::_Iterator_base0>
_TEXT	ENDS
; Function compile flags: /Odtp /RTCsu
; File C:\Program Files\Microsoft Visual Studio\2022\Community\VC\Tools\MSVC\14.32.31326\include\xmemory
;	COMDAT ??$_Delete_plain_internal@V?$allocator@U_Container_proxy@std@@@std@@@std@@YAXAAV?$allocator@U_Container_proxy@std@@@0@QAU_Container_proxy@0@@Z
_TEXT	SEGMENT
__Al$ = 8						; size = 4
__Ptr$ = 12						; size = 4
??$_Delete_plain_internal@V?$allocator@U_Container_proxy@std@@@std@@@std@@YAXAAV?$allocator@U_Container_proxy@std@@@0@QAU_Container_proxy@0@@Z PROC ; std::_Delete_plain_internal<std::allocator<std::_Container_proxy> >, COMDAT

; 984  : _CONSTEXPR20 void _Delete_plain_internal(_Alloc& _Al, typename _Alloc::value_type* const _Ptr) noexcept {

	push	ebp
	mov	ebp, esp

; 985  :     // destroy *_Ptr in place, then deallocate _Ptr using _Al; used for internal container types the user didn't name
; 986  :     using _Ty = typename _Alloc::value_type;
; 987  :     _Ptr->~_Ty();
; 988  :     _Deallocate_plain(_Al, _Ptr);

	mov	eax, DWORD PTR __Ptr$[ebp]
	push	eax
	mov	ecx, DWORD PTR __Al$[ebp]
	push	ecx
	call	??$_Deallocate_plain@V?$allocator@U_Container_proxy@std@@@std@@@std@@YAXAAV?$allocator@U_Container_proxy@std@@@0@QAU_Container_proxy@0@@Z ; std::_Deallocate_plain<std::allocator<std::_Container_proxy> >
	add	esp, 8

; 989  : }

	cmp	ebp, esp
	call	__RTC_CheckEsp
	pop	ebp
	ret	0
??$_Delete_plain_internal@V?$allocator@U_Container_proxy@std@@@std@@@std@@YAXAAV?$allocator@U_Container_proxy@std@@@0@QAU_Container_proxy@0@@Z ENDP ; std::_Delete_plain_internal<std::allocator<std::_Container_proxy> >
_TEXT	ENDS
; Function compile flags: /Odtp /RTCsu
; File C:\Program Files\Microsoft Visual Studio\2022\Community\VC\Tools\MSVC\14.32.31326\include\xmemory
;	COMDAT ?allocate@?$allocator@U_Container_proxy@std@@@std@@QAEPAU_Container_proxy@2@I@Z
_TEXT	SEGMENT
_this$ = -4						; size = 4
__Count$ = 8						; size = 4
?allocate@?$allocator@U_Container_proxy@std@@@std@@QAEPAU_Container_proxy@2@I@Z PROC ; std::allocator<std::_Container_proxy>::allocate, COMDAT
; _this$ = ecx

; 833  :     _NODISCARD _CONSTEXPR20 __declspec(allocator) _Ty* allocate(_CRT_GUARDOVERFLOW const size_t _Count) {

	push	ebp
	mov	ebp, esp
	push	ecx
	mov	DWORD PTR [ebp-4], -858993460		; ccccccccH
	mov	DWORD PTR _this$[ebp], ecx

; 834  :         return static_cast<_Ty*>(_Allocate<_New_alignof<_Ty>>(_Get_size_of_n<sizeof(_Ty)>(_Count)));

	mov	eax, DWORD PTR __Count$[ebp]
	push	eax
	call	??$_Get_size_of_n@$07@std@@YAII@Z	; std::_Get_size_of_n<8>
	add	esp, 4
	push	eax
	call	??$_Allocate@$07U_Default_allocate_traits@std@@$0A@@std@@YAPAXI@Z ; std::_Allocate<8,std::_Default_allocate_traits,0>
	add	esp, 4

; 835  :     }

	add	esp, 4
	cmp	ebp, esp
	call	__RTC_CheckEsp
	mov	esp, ebp
	pop	ebp
	ret	4
?allocate@?$allocator@U_Container_proxy@std@@@std@@QAEPAU_Container_proxy@2@I@Z ENDP ; std::allocator<std::_Container_proxy>::allocate
_TEXT	ENDS
; Function compile flags: /Odtp /RTCsu
; File C:\Program Files\Microsoft Visual Studio\2022\Community\VC\Tools\MSVC\14.32.31326\include\xutility
;	COMDAT ?pointer_to@?$pointer_traits@PBUTelegram@@@std@@SAPBUTelegram@@ABU3@@Z
_TEXT	SEGMENT
__Val$ = 8						; size = 4
?pointer_to@?$pointer_traits@PBUTelegram@@@std@@SAPBUTelegram@@ABU3@@Z PROC ; std::pointer_traits<Telegram const *>::pointer_to, COMDAT

; 185  :     _NODISCARD static _CONSTEXPR20 pointer pointer_to(_Reftype _Val) noexcept {

	push	ebp
	mov	ebp, esp

; 186  :         return _STD addressof(_Val);

	mov	eax, DWORD PTR __Val$[ebp]
	push	eax
	call	??$addressof@$$CBUTelegram@@@std@@YAPBUTelegram@@ABU1@@Z ; std::addressof<Telegram const >
	add	esp, 4

; 187  :     }

	cmp	ebp, esp
	call	__RTC_CheckEsp
	pop	ebp
	ret	0
?pointer_to@?$pointer_traits@PBUTelegram@@@std@@SAPBUTelegram@@ABU3@@Z ENDP ; std::pointer_traits<Telegram const *>::pointer_to
_TEXT	ENDS
; Function compile flags: /Odtp /RTCsu
;	COMDAT ??1?$pair@V?$_Tree_const_iterator@V?$_Tree_val@U?$_Tree_simple_types@UTelegram@@@std@@@std@@@std@@_N@std@@QAE@XZ
_TEXT	SEGMENT
_this$ = -4						; size = 4
??1?$pair@V?$_Tree_const_iterator@V?$_Tree_val@U?$_Tree_simple_types@UTelegram@@@std@@@std@@@std@@_N@std@@QAE@XZ PROC ; std::pair<std::_Tree_const_iterator<std::_Tree_val<std::_Tree_simple_types<Telegram> > >,bool>::~pair<std::_Tree_const_iterator<std::_Tree_val<std::_Tree_simple_types<Telegram> > >,bool>, COMDAT
; _this$ = ecx
	push	ebp
	mov	ebp, esp
	push	ecx
	mov	DWORD PTR [ebp-4], -858993460		; ccccccccH
	mov	DWORD PTR _this$[ebp], ecx
	mov	ecx, DWORD PTR _this$[ebp]
	call	??1?$_Tree_const_iterator@V?$_Tree_val@U?$_Tree_simple_types@UTelegram@@@std@@@std@@@std@@QAE@XZ
	add	esp, 4
	cmp	ebp, esp
	call	__RTC_CheckEsp
	mov	esp, ebp
	pop	ebp
	ret	0
??1?$pair@V?$_Tree_const_iterator@V?$_Tree_val@U?$_Tree_simple_types@UTelegram@@@std@@@std@@@std@@_N@std@@QAE@XZ ENDP ; std::pair<std::_Tree_const_iterator<std::_Tree_val<std::_Tree_simple_types<Telegram> > >,bool>::~pair<std::_Tree_const_iterator<std::_Tree_val<std::_Tree_simple_types<Telegram> > >,bool>
_TEXT	ENDS
; Function compile flags: /Odtp /RTCsu
;	COMDAT ??0?$_Tree_const_iterator@V?$_Tree_val@U?$_Tree_simple_types@UTelegram@@@std@@@std@@@std@@QAE@PAU?$_Tree_node@UTelegram@@PAX@1@PBV?$_Tree_val@U?$_Tree_simple_types@UTelegram@@@std@@@1@@Z
_TEXT	SEGMENT
_this$ = -4						; size = 4
___param0$ = 8						; size = 4
___param1$ = 12						; size = 4
??0?$_Tree_const_iterator@V?$_Tree_val@U?$_Tree_simple_types@UTelegram@@@std@@@std@@@std@@QAE@PAU?$_Tree_node@UTelegram@@PAX@1@PBV?$_Tree_val@U?$_Tree_simple_types@UTelegram@@@std@@@1@@Z PROC ; std::_Tree_const_iterator<std::_Tree_val<std::_Tree_simple_types<Telegram> > >::_Tree_const_iterator<std::_Tree_val<std::_Tree_simple_types<Telegram> > >, COMDAT
; _this$ = ecx
	push	ebp
	mov	ebp, esp
	push	ecx
	mov	DWORD PTR [ebp-4], -858993460		; ccccccccH
	mov	DWORD PTR _this$[ebp], ecx
	mov	eax, DWORD PTR ___param1$[ebp]
	push	eax
	mov	ecx, DWORD PTR ___param0$[ebp]
	push	ecx
	mov	ecx, DWORD PTR _this$[ebp]
	call	??0?$_Tree_unchecked_const_iterator@V?$_Tree_val@U?$_Tree_simple_types@UTelegram@@@std@@@std@@U_Iterator_base12@2@@std@@QAE@PAU?$_Tree_node@UTelegram@@PAX@1@PBV?$_Tree_val@U?$_Tree_simple_types@UTelegram@@@std@@@1@@Z ; std::_Tree_unchecked_const_iterator<std::_Tree_val<std::_Tree_simple_types<Telegram> >,std::_Iterator_base12>::_Tree_unchecked_const_iterator<std::_Tree_val<std::_Tree_simple_types<Telegram> >,std::_Iterator_base12>
	mov	eax, DWORD PTR _this$[ebp]
	add	esp, 4
	cmp	ebp, esp
	call	__RTC_CheckEsp
	mov	esp, ebp
	pop	ebp
	ret	8
??0?$_Tree_const_iterator@V?$_Tree_val@U?$_Tree_simple_types@UTelegram@@@std@@@std@@@std@@QAE@PAU?$_Tree_node@UTelegram@@PAX@1@PBV?$_Tree_val@U?$_Tree_simple_types@UTelegram@@@std@@@1@@Z ENDP ; std::_Tree_const_iterator<std::_Tree_val<std::_Tree_simple_types<Telegram> > >::_Tree_const_iterator<std::_Tree_val<std::_Tree_simple_types<Telegram> > >
_TEXT	ENDS
; Function compile flags: /Odtp /RTCsu
;	COMDAT ??0?$_Tree_const_iterator@V?$_Tree_val@U?$_Tree_simple_types@UTelegram@@@std@@@std@@@std@@QAE@$$QAV01@@Z
_TEXT	SEGMENT
_this$ = -4						; size = 4
___that$ = 8						; size = 4
??0?$_Tree_const_iterator@V?$_Tree_val@U?$_Tree_simple_types@UTelegram@@@std@@@std@@@std@@QAE@$$QAV01@@Z PROC ; std::_Tree_const_iterator<std::_Tree_val<std::_Tree_simple_types<Telegram> > >::_Tree_const_iterator<std::_Tree_val<std::_Tree_simple_types<Telegram> > >, COMDAT
; _this$ = ecx
	push	ebp
	mov	ebp, esp
	push	ecx
	mov	DWORD PTR [ebp-4], -858993460		; ccccccccH
	mov	DWORD PTR _this$[ebp], ecx
	mov	eax, DWORD PTR ___that$[ebp]
	push	eax
	mov	ecx, DWORD PTR _this$[ebp]
	call	??0?$_Tree_unchecked_const_iterator@V?$_Tree_val@U?$_Tree_simple_types@UTelegram@@@std@@@std@@U_Iterator_base12@2@@std@@QAE@$$QAV01@@Z
	mov	eax, DWORD PTR _this$[ebp]
	add	esp, 4
	cmp	ebp, esp
	call	__RTC_CheckEsp
	mov	esp, ebp
	pop	ebp
	ret	4
??0?$_Tree_const_iterator@V?$_Tree_val@U?$_Tree_simple_types@UTelegram@@@std@@@std@@@std@@QAE@$$QAV01@@Z ENDP ; std::_Tree_const_iterator<std::_Tree_val<std::_Tree_simple_types<Telegram> > >::_Tree_const_iterator<std::_Tree_val<std::_Tree_simple_types<Telegram> > >
_TEXT	ENDS
; Function compile flags: /Odtp /RTCsu
;	COMDAT ??1?$_Tree_const_iterator@V?$_Tree_val@U?$_Tree_simple_types@UTelegram@@@std@@@std@@@std@@QAE@XZ
_TEXT	SEGMENT
_this$ = -4						; size = 4
??1?$_Tree_const_iterator@V?$_Tree_val@U?$_Tree_simple_types@UTelegram@@@std@@@std@@@std@@QAE@XZ PROC ; std::_Tree_const_iterator<std::_Tree_val<std::_Tree_simple_types<Telegram> > >::~_Tree_const_iterator<std::_Tree_val<std::_Tree_simple_types<Telegram> > >, COMDAT
; _this$ = ecx
	push	ebp
	mov	ebp, esp
	push	ecx
	mov	DWORD PTR [ebp-4], -858993460		; ccccccccH
	mov	DWORD PTR _this$[ebp], ecx
	mov	ecx, DWORD PTR _this$[ebp]
	call	??1?$_Tree_unchecked_const_iterator@V?$_Tree_val@U?$_Tree_simple_types@UTelegram@@@std@@@std@@U_Iterator_base12@2@@std@@QAE@XZ
	add	esp, 4
	cmp	ebp, esp
	call	__RTC_CheckEsp
	mov	esp, ebp
	pop	ebp
	ret	0
??1?$_Tree_const_iterator@V?$_Tree_val@U?$_Tree_simple_types@UTelegram@@@std@@@std@@@std@@QAE@XZ ENDP ; std::_Tree_const_iterator<std::_Tree_val<std::_Tree_simple_types<Telegram> > >::~_Tree_const_iterator<std::_Tree_val<std::_Tree_simple_types<Telegram> > >
_TEXT	ENDS
; Function compile flags: /Odtp /RTCsu
; File C:\Program Files\Microsoft Visual Studio\2022\Community\VC\Tools\MSVC\14.32.31326\include\xtree
;	COMDAT ?_Unwrapped@?$_Tree_const_iterator@V?$_Tree_val@U?$_Tree_simple_types@UTelegram@@@std@@@std@@@std@@QBE?AV?$_Tree_unchecked_const_iterator@V?$_Tree_val@U?$_Tree_simple_types@UTelegram@@@std@@@std@@U_Iterator_base0@2@@2@XZ
_TEXT	SEGMENT
_this$ = -4						; size = 4
___$ReturnUdt$ = 8					; size = 4
?_Unwrapped@?$_Tree_const_iterator@V?$_Tree_val@U?$_Tree_simple_types@UTelegram@@@std@@@std@@@std@@QBE?AV?$_Tree_unchecked_const_iterator@V?$_Tree_val@U?$_Tree_simple_types@UTelegram@@@std@@@std@@U_Iterator_base0@2@@2@XZ PROC ; std::_Tree_const_iterator<std::_Tree_val<std::_Tree_simple_types<Telegram> > >::_Unwrapped, COMDAT
; _this$ = ecx

; 250  :     _NODISCARD _Tree_unchecked_const_iterator<_Mytree> _Unwrapped() const noexcept {

	push	ebp
	mov	ebp, esp
	push	ecx
	mov	DWORD PTR [ebp-4], -858993460		; ccccccccH
	mov	DWORD PTR _this$[ebp], ecx

; 251  :         return _Tree_unchecked_const_iterator<_Mytree>(this->_Ptr, static_cast<const _Mytree*>(this->_Getcont()));

	mov	ecx, DWORD PTR _this$[ebp]
	call	?_Getcont@_Iterator_base12@std@@QBEPBU_Container_base12@2@XZ ; std::_Iterator_base12::_Getcont
	push	eax
	mov	eax, DWORD PTR _this$[ebp]
	mov	ecx, DWORD PTR [eax+8]
	push	ecx
	mov	ecx, DWORD PTR ___$ReturnUdt$[ebp]
	call	??0?$_Tree_unchecked_const_iterator@V?$_Tree_val@U?$_Tree_simple_types@UTelegram@@@std@@@std@@U_Iterator_base0@2@@std@@QAE@PAU?$_Tree_node@UTelegram@@PAX@1@PBV?$_Tree_val@U?$_Tree_simple_types@UTelegram@@@std@@@1@@Z ; std::_Tree_unchecked_const_iterator<std::_Tree_val<std::_Tree_simple_types<Telegram> >,std::_Iterator_base0>::_Tree_unchecked_const_iterator<std::_Tree_val<std::_Tree_simple_types<Telegram> >,std::_Iterator_base0>
	mov	eax, DWORD PTR ___$ReturnUdt$[ebp]

; 252  :     }

	add	esp, 4
	cmp	ebp, esp
	call	__RTC_CheckEsp
	mov	esp, ebp
	pop	ebp
	ret	4
?_Unwrapped@?$_Tree_const_iterator@V?$_Tree_val@U?$_Tree_simple_types@UTelegram@@@std@@@std@@@std@@QBE?AV?$_Tree_unchecked_const_iterator@V?$_Tree_val@U?$_Tree_simple_types@UTelegram@@@std@@@std@@U_Iterator_base0@2@@2@XZ ENDP ; std::_Tree_const_iterator<std::_Tree_val<std::_Tree_simple_types<Telegram> > >::_Unwrapped
_TEXT	ENDS
; Function compile flags: /Odtp /RTCsu
; File C:\Program Files\Microsoft Visual Studio\2022\Community\VC\Tools\MSVC\14.32.31326\include\xtree
;	COMDAT ??C?$_Tree_const_iterator@V?$_Tree_val@U?$_Tree_simple_types@UTelegram@@@std@@@std@@@std@@QBEPBUTelegram@@XZ
_TEXT	SEGMENT
_this$ = -4						; size = 4
??C?$_Tree_const_iterator@V?$_Tree_val@U?$_Tree_simple_types@UTelegram@@@std@@@std@@@std@@QBEPBUTelegram@@XZ PROC ; std::_Tree_const_iterator<std::_Tree_val<std::_Tree_simple_types<Telegram> > >::operator->, COMDAT
; _this$ = ecx

; 189  :     _NODISCARD pointer operator->() const noexcept {

	push	ebp
	mov	ebp, esp
	push	ecx
	mov	DWORD PTR [ebp-4], -858993460		; ccccccccH
	mov	DWORD PTR _this$[ebp], ecx

; 190  :         return pointer_traits<pointer>::pointer_to(**this);

	mov	ecx, DWORD PTR _this$[ebp]
	call	??D?$_Tree_const_iterator@V?$_Tree_val@U?$_Tree_simple_types@UTelegram@@@std@@@std@@@std@@QBEABUTelegram@@XZ ; std::_Tree_const_iterator<std::_Tree_val<std::_Tree_simple_types<Telegram> > >::operator*
	push	eax
	call	?pointer_to@?$pointer_traits@PBUTelegram@@@std@@SAPBUTelegram@@ABU3@@Z ; std::pointer_traits<Telegram const *>::pointer_to
	add	esp, 4

; 191  :     }

	add	esp, 4
	cmp	ebp, esp
	call	__RTC_CheckEsp
	mov	esp, ebp
	pop	ebp
	ret	0
??C?$_Tree_const_iterator@V?$_Tree_val@U?$_Tree_simple_types@UTelegram@@@std@@@std@@@std@@QBEPBUTelegram@@XZ ENDP ; std::_Tree_const_iterator<std::_Tree_val<std::_Tree_simple_types<Telegram> > >::operator->
_TEXT	ENDS
; Function compile flags: /Odtp /RTCsu
; File C:\Program Files\Microsoft Visual Studio\2022\Community\VC\Tools\MSVC\14.32.31326\include\xtree
;	COMDAT ??D?$_Tree_const_iterator@V?$_Tree_val@U?$_Tree_simple_types@UTelegram@@@std@@@std@@@std@@QBEABUTelegram@@XZ
_TEXT	SEGMENT
__Mycont$ = -8						; size = 4
_this$ = -4						; size = 4
??D?$_Tree_const_iterator@V?$_Tree_val@U?$_Tree_simple_types@UTelegram@@@std@@@std@@@std@@QBEABUTelegram@@XZ PROC ; std::_Tree_const_iterator<std::_Tree_val<std::_Tree_simple_types<Telegram> > >::operator*, COMDAT
; _this$ = ecx

; 179  :     _NODISCARD reference operator*() const noexcept {

	push	ebp
	mov	ebp, esp
	sub	esp, 8
	mov	DWORD PTR [ebp-8], -858993460		; ccccccccH
	mov	DWORD PTR [ebp-4], -858993460		; ccccccccH
	mov	DWORD PTR _this$[ebp], ecx

; 180  : #if _ITERATOR_DEBUG_LEVEL == 2
; 181  :         const auto _Mycont = static_cast<const _Mytree*>(this->_Getcont());

	mov	ecx, DWORD PTR _this$[ebp]
	call	?_Getcont@_Iterator_base12@std@@QBEPBU_Container_base12@2@XZ ; std::_Iterator_base12::_Getcont
	mov	DWORD PTR __Mycont$[ebp], eax
$LN4@operator:

; 182  :         _STL_ASSERT(_Mycont, "cannot dereference value-initialized map/set iterator");

	cmp	DWORD PTR __Mycont$[ebp], 0
	je	SHORT $LN7@operator
	jmp	SHORT $LN2@operator
$LN7@operator:
	push	OFFSET ??_C@_0DG@LCFNIIPB@cannot?5dereference?5value?9initia@
	push	OFFSET ??_C@_02DKCKIIND@?$CFs@
	push	0
	push	182					; 000000b6H
	push	OFFSET ??_C@_0GA@PAPBPJHI@C?3?2Program?5Files?2Microsoft?5Visu@
	push	2
	call	__CrtDbgReport
	add	esp, 24					; 00000018H
	cmp	eax, 1
	jne	SHORT $LN19@operator
	int	3
$LN19@operator:
	push	0
	push	182					; 000000b6H
	push	OFFSET ??_C@_1MA@GNMGJLOE@?$AAC?$AA?3?$AA?2?$AAP?$AAr?$AAo?$AAg?$AAr?$AAa?$AAm?$AA?5?$AAF?$AAi?$AAl?$AAe@
	push	OFFSET ??_C@_11LOCGONAA@@
	push	OFFSET ??_C@_1HA@ILGCNILF@?$AA?$CC?$AAc?$AAa?$AAn?$AAn?$AAo?$AAt?$AA?5?$AAd?$AAe?$AAr?$AAe?$AAf?$AAe?$AAr@
	call	__invalid_parameter
	add	esp, 20					; 00000014H
	xor	ecx, ecx
	jne	SHORT $LN7@operator
$LN2@operator:
	xor	edx, edx
	jne	SHORT $LN4@operator
$LN10@operator:

; 183  :         _STL_VERIFY(this->_Ptr != _Mycont->_Myhead, "cannot dereference end map/set iterator");

	mov	eax, DWORD PTR _this$[ebp]
	mov	ecx, DWORD PTR __Mycont$[ebp]
	mov	edx, DWORD PTR [eax+8]
	cmp	edx, DWORD PTR [ecx+4]
	je	SHORT $LN13@operator
	jmp	SHORT $LN8@operator
$LN13@operator:
	push	OFFSET ??_C@_0CI@OKFEHCEB@cannot?5dereference?5end?5map?1set?5@
	push	OFFSET ??_C@_02DKCKIIND@?$CFs@
	push	0
	push	183					; 000000b7H
	push	OFFSET ??_C@_0GA@PAPBPJHI@C?3?2Program?5Files?2Microsoft?5Visu@
	push	2
	call	__CrtDbgReport
	add	esp, 24					; 00000018H
	cmp	eax, 1
	jne	SHORT $LN20@operator
	int	3
$LN20@operator:
	push	0
	push	183					; 000000b7H
	push	OFFSET ??_C@_1MA@GNMGJLOE@?$AAC?$AA?3?$AA?2?$AAP?$AAr?$AAo?$AAg?$AAr?$AAa?$AAm?$AA?5?$AAF?$AAi?$AAl?$AAe@
	push	OFFSET ??_C@_11LOCGONAA@@
	push	OFFSET ??_C@_1FE@NKHAAGMB@?$AA?$CC?$AAc?$AAa?$AAn?$AAn?$AAo?$AAt?$AA?5?$AAd?$AAe?$AAr?$AAe?$AAf?$AAe?$AAr@
	call	__invalid_parameter
	add	esp, 20					; 00000014H
	xor	ecx, ecx
	jne	SHORT $LN13@operator
$LN8@operator:
	xor	edx, edx
	jne	SHORT $LN10@operator

; 184  : #endif // _ITERATOR_DEBUG_LEVEL == 2
; 185  : 
; 186  :         return this->_Ptr->_Myval;

	mov	eax, DWORD PTR _this$[ebp]
	mov	eax, DWORD PTR [eax+8]
	add	eax, 16					; 00000010H

; 187  :     }

	add	esp, 8
	cmp	ebp, esp
	call	__RTC_CheckEsp
	mov	esp, ebp
	pop	ebp
	ret	0
??D?$_Tree_const_iterator@V?$_Tree_val@U?$_Tree_simple_types@UTelegram@@@std@@@std@@@std@@QBEABUTelegram@@XZ ENDP ; std::_Tree_const_iterator<std::_Tree_val<std::_Tree_simple_types<Telegram> > >::operator*
_TEXT	ENDS
; Function compile flags: /Odtp /RTCsu
;	COMDAT ??0?$_Tree_unchecked_const_iterator@V?$_Tree_val@U?$_Tree_simple_types@UTelegram@@@std@@@std@@U_Iterator_base12@2@@std@@QAE@$$QAV01@@Z
_TEXT	SEGMENT
_this$ = -4						; size = 4
___that$ = 8						; size = 4
??0?$_Tree_unchecked_const_iterator@V?$_Tree_val@U?$_Tree_simple_types@UTelegram@@@std@@@std@@U_Iterator_base12@2@@std@@QAE@$$QAV01@@Z PROC ; std::_Tree_unchecked_const_iterator<std::_Tree_val<std::_Tree_simple_types<Telegram> >,std::_Iterator_base12>::_Tree_unchecked_const_iterator<std::_Tree_val<std::_Tree_simple_types<Telegram> >,std::_Iterator_base12>, COMDAT
; _this$ = ecx
	push	ebp
	mov	ebp, esp
	push	ecx
	mov	DWORD PTR [ebp-4], -858993460		; ccccccccH
	mov	DWORD PTR _this$[ebp], ecx
	mov	eax, DWORD PTR ___that$[ebp]
	push	eax
	mov	ecx, DWORD PTR _this$[ebp]
	call	??0_Iterator_base12@std@@QAE@ABU01@@Z	; std::_Iterator_base12::_Iterator_base12
	mov	ecx, DWORD PTR _this$[ebp]
	mov	edx, DWORD PTR ___that$[ebp]
	mov	eax, DWORD PTR [edx+8]
	mov	DWORD PTR [ecx+8], eax
	mov	eax, DWORD PTR _this$[ebp]
	add	esp, 4
	cmp	ebp, esp
	call	__RTC_CheckEsp
	mov	esp, ebp
	pop	ebp
	ret	4
??0?$_Tree_unchecked_const_iterator@V?$_Tree_val@U?$_Tree_simple_types@UTelegram@@@std@@@std@@U_Iterator_base12@2@@std@@QAE@$$QAV01@@Z ENDP ; std::_Tree_unchecked_const_iterator<std::_Tree_val<std::_Tree_simple_types<Telegram> >,std::_Iterator_base12>::_Tree_unchecked_const_iterator<std::_Tree_val<std::_Tree_simple_types<Telegram> >,std::_Iterator_base12>
_TEXT	ENDS
; Function compile flags: /Odtp /RTCsu
;	COMDAT ??1?$_Tree_unchecked_const_iterator@V?$_Tree_val@U?$_Tree_simple_types@UTelegram@@@std@@@std@@U_Iterator_base12@2@@std@@QAE@XZ
_TEXT	SEGMENT
_this$ = -4						; size = 4
??1?$_Tree_unchecked_const_iterator@V?$_Tree_val@U?$_Tree_simple_types@UTelegram@@@std@@@std@@U_Iterator_base12@2@@std@@QAE@XZ PROC ; std::_Tree_unchecked_const_iterator<std::_Tree_val<std::_Tree_simple_types<Telegram> >,std::_Iterator_base12>::~_Tree_unchecked_const_iterator<std::_Tree_val<std::_Tree_simple_types<Telegram> >,std::_Iterator_base12>, COMDAT
; _this$ = ecx
	push	ebp
	mov	ebp, esp
	push	ecx
	mov	DWORD PTR [ebp-4], -858993460		; ccccccccH
	mov	DWORD PTR _this$[ebp], ecx
	mov	ecx, DWORD PTR _this$[ebp]
	call	??1_Iterator_base12@std@@QAE@XZ		; std::_Iterator_base12::~_Iterator_base12
	add	esp, 4
	cmp	ebp, esp
	call	__RTC_CheckEsp
	mov	esp, ebp
	pop	ebp
	ret	0
??1?$_Tree_unchecked_const_iterator@V?$_Tree_val@U?$_Tree_simple_types@UTelegram@@@std@@@std@@U_Iterator_base12@2@@std@@QAE@XZ ENDP ; std::_Tree_unchecked_const_iterator<std::_Tree_val<std::_Tree_simple_types<Telegram> >,std::_Iterator_base12>::~_Tree_unchecked_const_iterator<std::_Tree_val<std::_Tree_simple_types<Telegram> >,std::_Iterator_base12>
_TEXT	ENDS
; Function compile flags: /Odtp /RTCsu
; File C:\Program Files\Microsoft Visual Studio\2022\Community\VC\Tools\MSVC\14.32.31326\include\xtree
;	COMDAT ??0?$_Tree_unchecked_const_iterator@V?$_Tree_val@U?$_Tree_simple_types@UTelegram@@@std@@@std@@U_Iterator_base12@2@@std@@QAE@PAU?$_Tree_node@UTelegram@@PAX@1@PBV?$_Tree_val@U?$_Tree_simple_types@UTelegram@@@std@@@1@@Z
_TEXT	SEGMENT
_this$ = -4						; size = 4
__Pnode$ = 8						; size = 4
__Plist$ = 12						; size = 4
??0?$_Tree_unchecked_const_iterator@V?$_Tree_val@U?$_Tree_simple_types@UTelegram@@@std@@@std@@U_Iterator_base12@2@@std@@QAE@PAU?$_Tree_node@UTelegram@@PAX@1@PBV?$_Tree_val@U?$_Tree_simple_types@UTelegram@@@std@@@1@@Z PROC ; std::_Tree_unchecked_const_iterator<std::_Tree_val<std::_Tree_simple_types<Telegram> >,std::_Iterator_base12>::_Tree_unchecked_const_iterator<std::_Tree_val<std::_Tree_simple_types<Telegram> >,std::_Iterator_base12>, COMDAT
; _this$ = ecx

; 38   :     _Tree_unchecked_const_iterator(_Nodeptr _Pnode, const _Mytree* _Plist) noexcept : _Ptr(_Pnode) {

	push	ebp
	mov	ebp, esp
	push	ecx
	mov	DWORD PTR [ebp-4], -858993460		; ccccccccH
	mov	DWORD PTR _this$[ebp], ecx
	mov	ecx, DWORD PTR _this$[ebp]
	call	??0_Iterator_base12@std@@QAE@XZ		; std::_Iterator_base12::_Iterator_base12
	mov	eax, DWORD PTR _this$[ebp]
	mov	ecx, DWORD PTR __Pnode$[ebp]
	mov	DWORD PTR [eax+8], ecx

; 39   :         this->_Adopt(_Plist);

	mov	edx, DWORD PTR __Plist$[ebp]
	push	edx
	mov	ecx, DWORD PTR _this$[ebp]
	call	?_Adopt@_Iterator_base12@std@@QAEXPBU_Container_base12@2@@Z ; std::_Iterator_base12::_Adopt

; 40   :     }

	mov	eax, DWORD PTR _this$[ebp]
	add	esp, 4
	cmp	ebp, esp
	call	__RTC_CheckEsp
	mov	esp, ebp
	pop	ebp
	ret	8
??0?$_Tree_unchecked_const_iterator@V?$_Tree_val@U?$_Tree_simple_types@UTelegram@@@std@@@std@@U_Iterator_base12@2@@std@@QAE@PAU?$_Tree_node@UTelegram@@PAX@1@PBV?$_Tree_val@U?$_Tree_simple_types@UTelegram@@@std@@@1@@Z ENDP ; std::_Tree_unchecked_const_iterator<std::_Tree_val<std::_Tree_simple_types<Telegram> >,std::_Iterator_base12>::_Tree_unchecked_const_iterator<std::_Tree_val<std::_Tree_simple_types<Telegram> >,std::_Iterator_base12>
_TEXT	ENDS
; Function compile flags: /Odtp /RTCsu
; File C:\Program Files\Microsoft Visual Studio\2022\Community\VC\Tools\MSVC\14.32.31326\include\xtree
;	COMDAT ??$insert@$0A@$0A@@?$_Tree@V?$_Tset_traits@UTelegram@@U?$less@UTelegram@@@std@@V?$allocator@UTelegram@@@3@$0A@@std@@@std@@QAE?AU?$pair@V?$_Tree_const_iterator@V?$_Tree_val@U?$_Tree_simple_types@UTelegram@@@std@@@std@@@std@@_N@1@ABUTelegram@@@Z
_TEXT	SEGMENT
tv81 = -40						; size = 4
$T1 = -36						; size = 4
$T2 = -32						; size = 12
__Result$ = -16						; size = 8
_this$ = -4						; size = 4
___$ReturnUdt$ = 8					; size = 4
__Val$ = 12						; size = 4
??$insert@$0A@$0A@@?$_Tree@V?$_Tset_traits@UTelegram@@U?$less@UTelegram@@@std@@V?$allocator@UTelegram@@@3@$0A@@std@@@std@@QAE?AU?$pair@V?$_Tree_const_iterator@V?$_Tree_val@U?$_Tree_simple_types@UTelegram@@@std@@@std@@@std@@_N@1@ABUTelegram@@@Z PROC ; std::_Tree<std::_Tset_traits<Telegram,std::less<Telegram>,std::allocator<Telegram>,0> >::insert<0,0>, COMDAT
; _this$ = ecx

; 1220 :     pair<iterator, bool> insert(const value_type& _Val) {

	push	ebp
	mov	ebp, esp
	sub	esp, 40					; 00000028H
	push	edi
	push	ecx
	lea	edi, DWORD PTR [ebp-40]
	mov	ecx, 10					; 0000000aH
	mov	eax, -858993460				; ccccccccH
	rep stosd
	pop	ecx
	mov	DWORD PTR _this$[ebp], ecx
	mov	DWORD PTR $T1[ebp], 0

; 1221 :         const auto _Result = _Emplace(_Val);

	mov	eax, DWORD PTR __Val$[ebp]
	push	eax
	lea	ecx, DWORD PTR __Result$[ebp]
	push	ecx
	mov	ecx, DWORD PTR _this$[ebp]
	call	??$_Emplace@ABUTelegram@@@?$_Tree@V?$_Tset_traits@UTelegram@@U?$less@UTelegram@@@std@@V?$allocator@UTelegram@@@3@$0A@@std@@@std@@IAE?AU?$pair@PAU?$_Tree_node@UTelegram@@PAX@std@@_N@1@ABUTelegram@@@Z ; std::_Tree<std::_Tset_traits<Telegram,std::less<Telegram>,std::allocator<Telegram>,0> >::_Emplace<Telegram const &>

; 1222 :         return {iterator(_Result.first, _Get_scary()), _Result.second};

	mov	ecx, DWORD PTR _this$[ebp]
	call	?_Get_scary@?$_Tree@V?$_Tset_traits@UTelegram@@U?$less@UTelegram@@@std@@V?$allocator@UTelegram@@@3@$0A@@std@@@std@@IAEPAV?$_Tree_val@U?$_Tree_simple_types@UTelegram@@@std@@@2@XZ ; std::_Tree<std::_Tset_traits<Telegram,std::less<Telegram>,std::allocator<Telegram>,0> >::_Get_scary
	push	eax
	mov	edx, DWORD PTR __Result$[ebp]
	push	edx
	lea	ecx, DWORD PTR $T2[ebp]
	call	??0?$_Tree_const_iterator@V?$_Tree_val@U?$_Tree_simple_types@UTelegram@@@std@@@std@@@std@@QAE@PAU?$_Tree_node@UTelegram@@PAX@1@PBV?$_Tree_val@U?$_Tree_simple_types@UTelegram@@@std@@@1@@Z
	mov	DWORD PTR tv81[ebp], eax
	lea	eax, DWORD PTR __Result$[ebp+4]
	push	eax
	mov	ecx, DWORD PTR tv81[ebp]
	push	ecx
	mov	ecx, DWORD PTR ___$ReturnUdt$[ebp]
	call	??$?0V?$_Tree_const_iterator@V?$_Tree_val@U?$_Tree_simple_types@UTelegram@@@std@@@std@@@std@@AB_N$0A@@?$pair@V?$_Tree_const_iterator@V?$_Tree_val@U?$_Tree_simple_types@UTelegram@@@std@@@std@@@std@@_N@std@@QAE@$$QAV?$_Tree_const_iterator@V?$_Tree_val@U?$_Tree_simple_types@UTelegram@@@std@@@std@@@1@AB_N@Z ; std::pair<std::_Tree_const_iterator<std::_Tree_val<std::_Tree_simple_types<Telegram> > >,bool>::pair<std::_Tree_const_iterator<std::_Tree_val<std::_Tree_simple_types<Telegram> > >,bool><std::_Tree_const_iterator<std::_Tree_val<std::_Tree_simple_types<Telegram> > >,bool const &,0>
	mov	edx, DWORD PTR $T1[ebp]
	or	edx, 1
	mov	DWORD PTR $T1[ebp], edx
	lea	ecx, DWORD PTR $T2[ebp]
	call	??1?$_Tree_const_iterator@V?$_Tree_val@U?$_Tree_simple_types@UTelegram@@@std@@@std@@@std@@QAE@XZ
	mov	eax, DWORD PTR ___$ReturnUdt$[ebp]

; 1223 :     }

	push	edx
	mov	ecx, ebp
	push	eax
	lea	edx, DWORD PTR $LN8@insert
	call	@_RTC_CheckStackVars@8
	pop	eax
	pop	edx
	pop	edi
	add	esp, 40					; 00000028H
	cmp	ebp, esp
	call	__RTC_CheckEsp
	mov	esp, ebp
	pop	ebp
	ret	8
$LN8@insert:
	DD	1
	DD	$LN7@insert
$LN7@insert:
	DD	-16					; fffffff0H
	DD	8
	DD	$LN6@insert
$LN6@insert:
	DB	95					; 0000005fH
	DB	82					; 00000052H
	DB	101					; 00000065H
	DB	115					; 00000073H
	DB	117					; 00000075H
	DB	108					; 0000006cH
	DB	116					; 00000074H
	DB	0
??$insert@$0A@$0A@@?$_Tree@V?$_Tset_traits@UTelegram@@U?$less@UTelegram@@@std@@V?$allocator@UTelegram@@@3@$0A@@std@@@std@@QAE?AU?$pair@V?$_Tree_const_iterator@V?$_Tree_val@U?$_Tree_simple_types@UTelegram@@@std@@@std@@@std@@_N@1@ABUTelegram@@@Z ENDP ; std::_Tree<std::_Tset_traits<Telegram,std::less<Telegram>,std::allocator<Telegram>,0> >::insert<0,0>
_TEXT	ENDS
; Function compile flags: /Odtp /RTCsu
;	COMDAT ??__Finstance@?1??Instance@MessageDispatcher@@SAPAV1@XZ@YAXXZ
text$yd	SEGMENT
??__Finstance@?1??Instance@MessageDispatcher@@SAPAV1@XZ@YAXXZ PROC ; `MessageDispatcher::Instance'::`2'::`dynamic atexit destructor for 'instance'', COMDAT
	push	ebp
	mov	ebp, esp
	mov	ecx, OFFSET ?instance@?1??Instance@MessageDispatcher@@SAPAV2@XZ@4V2@A
	call	??1MessageDispatcher@@QAE@XZ
	cmp	ebp, esp
	call	__RTC_CheckEsp
	pop	ebp
	ret	0
??__Finstance@?1??Instance@MessageDispatcher@@SAPAV1@XZ@YAXXZ ENDP ; `MessageDispatcher::Instance'::`2'::`dynamic atexit destructor for 'instance''
text$yd	ENDS
; Function compile flags: /Odtp /RTCsu
; File C:\Users\lsy01\OneDrive\바탕 화면\3-2_Study\인공지능\Source\VS2010\Common\misc\FrameCounter.h
;	COMDAT ?GetCurrentFrame@FrameCounter@@QAEJXZ
_TEXT	SEGMENT
_this$ = -4						; size = 4
?GetCurrentFrame@FrameCounter@@QAEJXZ PROC		; FrameCounter::GetCurrentFrame, COMDAT
; _this$ = ecx

; 27   :   long GetCurrentFrame(){return m_lCount;}

	push	ebp
	mov	ebp, esp
	push	ecx
	mov	DWORD PTR _this$[ebp], ecx
	mov	eax, DWORD PTR _this$[ebp]
	mov	eax, DWORD PTR [eax]
	mov	esp, ebp
	pop	ebp
	ret	0
?GetCurrentFrame@FrameCounter@@QAEJXZ ENDP		; FrameCounter::GetCurrentFrame
_TEXT	ENDS
; Function compile flags: /Odtp /RTCsu
;	COMDAT ??1MessageDispatcher@@QAE@XZ
_TEXT	SEGMENT
_this$ = -4						; size = 4
??1MessageDispatcher@@QAE@XZ PROC			; MessageDispatcher::~MessageDispatcher, COMDAT
; _this$ = ecx
	push	ebp
	mov	ebp, esp
	push	ecx
	mov	DWORD PTR [ebp-4], -858993460		; ccccccccH
	mov	DWORD PTR _this$[ebp], ecx
	mov	ecx, DWORD PTR _this$[ebp]
	call	??1?$set@UTelegram@@U?$less@UTelegram@@@std@@V?$allocator@UTelegram@@@3@@std@@QAE@XZ
	add	esp, 4
	cmp	ebp, esp
	call	__RTC_CheckEsp
	mov	esp, ebp
	pop	ebp
	ret	0
??1MessageDispatcher@@QAE@XZ ENDP			; MessageDispatcher::~MessageDispatcher
_TEXT	ENDS
; Function compile flags: /Odtp /RTCsu
; File C:\Users\lsy01\OneDrive\바탕 화면\3-2_Study\인공지능\Source\VS2010\Common\Messaging\MessageDispatcher.cpp
_TEXT	SEGMENT
tv207 = -100						; size = 4
tv204 = -96						; size = 4
tv137 = -92						; size = 4
tv198 = -88						; size = 4
tv193 = -84						; size = 4
$T1 = -80						; size = 4
$T2 = -76						; size = 12
$T3 = -64						; size = 4
$T4 = -60						; size = 12
$T5 = -48						; size = 12
$T6 = -36						; size = 12
$T7 = -21						; size = 1
_pReceiver$8 = -20					; size = 4
_telegram$9 = -16					; size = 4
_CurrentTime$ = -12					; size = 8
_this$ = -4						; size = 4
?DispatchDelayedMessages@MessageDispatcher@@QAEXXZ PROC	; MessageDispatcher::DispatchDelayedMessages
; _this$ = ecx

; 104  : { 

	push	ebp
	mov	ebp, esp
	sub	esp, 100				; 00000064H
	push	edi
	push	ecx
	lea	edi, DWORD PTR [ebp-100]
	mov	ecx, 25					; 00000019H
	mov	eax, -858993460				; ccccccccH
	rep stosd
	pop	ecx
	mov	DWORD PTR _this$[ebp], ecx
	mov	DWORD PTR $T1[ebp], 0

; 105  :   //first get current time
; 106  :   double CurrentTime = TickCounter->GetCurrentFrame(); 

	call	?Instance@FrameCounter@@SAPAV1@XZ	; FrameCounter::Instance
	mov	ecx, eax
	call	?GetCurrentFrame@FrameCounter@@QAEJXZ	; FrameCounter::GetCurrentFrame
	cvtsi2sd xmm0, eax
	movsd	QWORD PTR _CurrentTime$[ebp], xmm0
$LN2@DispatchDe:

; 107  : 
; 108  :   //now peek at the queue to see if any telegrams need dispatching.
; 109  :   //remove all telegrams from the front of the queue that have gone
; 110  :   //past their sell by date
; 111  :   while( !PriorityQ.empty() &&
; 112  : 	     (PriorityQ.begin()->DispatchTime < CurrentTime) && 

	mov	ecx, DWORD PTR _this$[ebp]
	call	?empty@?$_Tree@V?$_Tset_traits@UTelegram@@U?$less@UTelegram@@@std@@V?$allocator@UTelegram@@@3@$0A@@std@@@std@@QBE_NXZ ; std::_Tree<std::_Tset_traits<Telegram,std::less<Telegram>,std::allocator<Telegram>,0> >::empty
	movzx	eax, al
	test	eax, eax
	jne	SHORT $LN5@DispatchDe
	lea	ecx, DWORD PTR $T6[ebp]
	push	ecx
	mov	ecx, DWORD PTR _this$[ebp]
	call	?begin@?$_Tree@V?$_Tset_traits@UTelegram@@U?$less@UTelegram@@@std@@V?$allocator@UTelegram@@@3@$0A@@std@@@std@@QAE?AV?$_Tree_const_iterator@V?$_Tree_val@U?$_Tree_simple_types@UTelegram@@@std@@@std@@@2@XZ ; std::_Tree<std::_Tset_traits<Telegram,std::less<Telegram>,std::allocator<Telegram>,0> >::begin
	mov	DWORD PTR tv193[ebp], eax
	mov	edx, DWORD PTR $T1[ebp]
	or	edx, 1
	mov	DWORD PTR $T1[ebp], edx
	mov	ecx, DWORD PTR tv193[ebp]
	call	??C?$_Tree_const_iterator@V?$_Tree_val@U?$_Tree_simple_types@UTelegram@@@std@@@std@@@std@@QBEPBUTelegram@@XZ ; std::_Tree_const_iterator<std::_Tree_val<std::_Tree_simple_types<Telegram> > >::operator->
	movsd	xmm0, QWORD PTR _CurrentTime$[ebp]
	comisd	xmm0, QWORD PTR [eax+16]
	jbe	SHORT $LN5@DispatchDe
	lea	eax, DWORD PTR $T5[ebp]
	push	eax
	mov	ecx, DWORD PTR _this$[ebp]
	call	?begin@?$_Tree@V?$_Tset_traits@UTelegram@@U?$less@UTelegram@@@std@@V?$allocator@UTelegram@@@3@$0A@@std@@@std@@QAE?AV?$_Tree_const_iterator@V?$_Tree_val@U?$_Tree_simple_types@UTelegram@@@std@@@std@@@2@XZ ; std::_Tree<std::_Tset_traits<Telegram,std::less<Telegram>,std::allocator<Telegram>,0> >::begin
	mov	DWORD PTR tv198[ebp], eax
	mov	ecx, DWORD PTR $T1[ebp]
	or	ecx, 2
	mov	DWORD PTR $T1[ebp], ecx
	mov	ecx, DWORD PTR tv198[ebp]
	call	??C?$_Tree_const_iterator@V?$_Tree_val@U?$_Tree_simple_types@UTelegram@@@std@@@std@@@std@@QBEPBUTelegram@@XZ ; std::_Tree_const_iterator<std::_Tree_val<std::_Tree_simple_types<Telegram> > >::operator->
	movsd	xmm0, QWORD PTR [eax+16]
	comisd	xmm0, QWORD PTR __real@0000000000000000
	jbe	SHORT $LN5@DispatchDe
	mov	DWORD PTR tv137[ebp], 1
	jmp	SHORT $LN6@DispatchDe
$LN5@DispatchDe:
	mov	DWORD PTR tv137[ebp], 0
$LN6@DispatchDe:
	mov	dl, BYTE PTR tv137[ebp]
	mov	BYTE PTR $T7[ebp], dl
	mov	eax, DWORD PTR $T1[ebp]
	and	eax, 2
	je	SHORT $LN11@DispatchDe
	and	DWORD PTR $T1[ebp], -3			; fffffffdH
	lea	ecx, DWORD PTR $T5[ebp]
	call	??1?$_Tree_const_iterator@V?$_Tree_val@U?$_Tree_simple_types@UTelegram@@@std@@@std@@@std@@QAE@XZ
$LN11@DispatchDe:
	mov	ecx, DWORD PTR $T1[ebp]
	and	ecx, 1
	je	SHORT $LN12@DispatchDe
	and	DWORD PTR $T1[ebp], -2			; fffffffeH
	lea	ecx, DWORD PTR $T6[ebp]
	call	??1?$_Tree_const_iterator@V?$_Tree_val@U?$_Tree_simple_types@UTelegram@@@std@@@std@@@std@@QAE@XZ
$LN12@DispatchDe:
	movzx	edx, BYTE PTR $T7[ebp]
	test	edx, edx
	je	SHORT $LN3@DispatchDe

; 113  :          (PriorityQ.begin()->DispatchTime > 0) )
; 114  :   {
; 115  :     //read the telegram from the front of the queue
; 116  :     const Telegram& telegram = *PriorityQ.begin();

	lea	eax, DWORD PTR $T4[ebp]
	push	eax
	mov	ecx, DWORD PTR _this$[ebp]
	call	?begin@?$_Tree@V?$_Tset_traits@UTelegram@@U?$less@UTelegram@@@std@@V?$allocator@UTelegram@@@3@$0A@@std@@@std@@QAE?AV?$_Tree_const_iterator@V?$_Tree_val@U?$_Tree_simple_types@UTelegram@@@std@@@std@@@2@XZ ; std::_Tree<std::_Tset_traits<Telegram,std::less<Telegram>,std::allocator<Telegram>,0> >::begin
	mov	DWORD PTR tv204[ebp], eax
	mov	ecx, DWORD PTR tv204[ebp]
	call	??D?$_Tree_const_iterator@V?$_Tree_val@U?$_Tree_simple_types@UTelegram@@@std@@@std@@@std@@QBEABUTelegram@@XZ ; std::_Tree_const_iterator<std::_Tree_val<std::_Tree_simple_types<Telegram> > >::operator*
	mov	DWORD PTR _telegram$9[ebp], eax
	lea	ecx, DWORD PTR $T4[ebp]
	call	??1?$_Tree_const_iterator@V?$_Tree_val@U?$_Tree_simple_types@UTelegram@@@std@@@std@@@std@@QAE@XZ

; 117  : 
; 118  :     //find the recipient
; 119  :     BaseGameEntity* pReceiver = EntityMgr->GetEntityFromID(telegram.Receiver);

	mov	ecx, DWORD PTR _telegram$9[ebp]
	mov	edx, DWORD PTR [ecx+4]
	push	edx
	call	?Instance@EntityManager@@SAPAV1@XZ	; EntityManager::Instance
	mov	ecx, eax
	call	?GetEntityFromID@EntityManager@@QBEPAVBaseGameEntity@@H@Z ; EntityManager::GetEntityFromID
	mov	DWORD PTR _pReceiver$8[ebp], eax

; 120  : 
; 121  :     #ifdef SHOW_MESSAGING_INFO
; 122  :     debug_con << "\nQueued telegram ready for dispatch: Sent to " 
; 123  :          << pReceiver->ID() << ". Msg is "<< telegram.Msg << "";
; 124  :     #endif
; 125  : 
; 126  :     //send the telegram to the recipient
; 127  :     Discharge(pReceiver, telegram);

	mov	eax, DWORD PTR _telegram$9[ebp]
	push	eax
	mov	ecx, DWORD PTR _pReceiver$8[ebp]
	push	ecx
	mov	ecx, DWORD PTR _this$[ebp]
	call	?Discharge@MessageDispatcher@@AAEXPAVBaseGameEntity@@ABUTelegram@@@Z ; MessageDispatcher::Discharge

; 128  : 
; 129  : 	//remove it from the queue
; 130  :     PriorityQ.erase(PriorityQ.begin());

	sub	esp, 12					; 0000000cH
	mov	edx, esp
	mov	DWORD PTR $T3[ebp], esp
	push	edx
	mov	ecx, DWORD PTR _this$[ebp]
	call	?begin@?$_Tree@V?$_Tset_traits@UTelegram@@U?$less@UTelegram@@@std@@V?$allocator@UTelegram@@@3@$0A@@std@@@std@@QAE?AV?$_Tree_const_iterator@V?$_Tree_val@U?$_Tree_simple_types@UTelegram@@@std@@@std@@@2@XZ ; std::_Tree<std::_Tset_traits<Telegram,std::less<Telegram>,std::allocator<Telegram>,0> >::begin
	lea	eax, DWORD PTR $T2[ebp]
	push	eax
	mov	ecx, DWORD PTR _this$[ebp]
	call	?erase@?$_Tree@V?$_Tset_traits@UTelegram@@U?$less@UTelegram@@@std@@V?$allocator@UTelegram@@@3@$0A@@std@@@std@@QAE?AV?$_Tree_const_iterator@V?$_Tree_val@U?$_Tree_simple_types@UTelegram@@@std@@@std@@@2@V32@@Z ; std::_Tree<std::_Tset_traits<Telegram,std::less<Telegram>,std::allocator<Telegram>,0> >::erase
	mov	DWORD PTR tv207[ebp], eax
	lea	ecx, DWORD PTR $T2[ebp]
	call	??1?$_Tree_const_iterator@V?$_Tree_val@U?$_Tree_simple_types@UTelegram@@@std@@@std@@@std@@QAE@XZ

; 131  :   }

	jmp	$LN2@DispatchDe
$LN3@DispatchDe:

; 132  : }

	pop	edi
	add	esp, 100				; 00000064H
	cmp	ebp, esp
	call	__RTC_CheckEsp
	mov	esp, ebp
	pop	ebp
	ret	0
?DispatchDelayedMessages@MessageDispatcher@@QAEXXZ ENDP	; MessageDispatcher::DispatchDelayedMessages
_TEXT	ENDS
; Function compile flags: /Odtp /RTCsu
; File C:\Users\lsy01\OneDrive\바탕 화면\3-2_Study\인공지능\Source\VS2010\Common\Messaging\MessageDispatcher.cpp
_TEXT	SEGMENT
$T1 = -72						; size = 16
_CurrentTime$2 = -56					; size = 8
_telegram$ = -44					; size = 32
_pReceiver$ = -8					; size = 4
_this$ = -4						; size = 4
_delay$ = 8						; size = 8
_sender$ = 16						; size = 4
_receiver$ = 20						; size = 4
_msg$ = 24						; size = 4
_AdditionalInfo$ = 28					; size = 4
?DispatchMsg@MessageDispatcher@@QAEXNHHHPAX@Z PROC	; MessageDispatcher::DispatchMsg
; _this$ = ecx

; 49   : {

	push	ebp
	mov	ebp, esp
	sub	esp, 72					; 00000048H
	push	edi
	push	ecx
	lea	edi, DWORD PTR [ebp-72]
	mov	ecx, 18					; 00000012H
	mov	eax, -858993460				; ccccccccH
	rep stosd
	pop	ecx
	mov	DWORD PTR _this$[ebp], ecx

; 50   : 
; 51   :   //get a pointer to the receiver
; 52   :   BaseGameEntity* pReceiver = EntityMgr->GetEntityFromID(receiver);

	mov	eax, DWORD PTR _receiver$[ebp]
	push	eax
	call	?Instance@EntityManager@@SAPAV1@XZ	; EntityManager::Instance
	mov	ecx, eax
	call	?GetEntityFromID@EntityManager@@QBEPAVBaseGameEntity@@H@Z ; EntityManager::GetEntityFromID
	mov	DWORD PTR _pReceiver$[ebp], eax

; 53   : 
; 54   :   //make sure the receiver is valid
; 55   :   if (pReceiver == NULL)

	cmp	DWORD PTR _pReceiver$[ebp], 0
	jne	SHORT $LN2@DispatchMs

; 56   :   {
; 57   :     #ifdef SHOW_MESSAGING_INFO
; 58   :     debug_con << "\nWarning! No Receiver with ID of " << receiver << " found" << "";
; 59   :     #endif
; 60   : 
; 61   :     return;

	jmp	SHORT $LN1@DispatchMs
$LN2@DispatchMs:

; 62   :   }
; 63   :   
; 64   :   //create the telegram
; 65   :   Telegram telegram(0, sender, receiver, msg, AdditionalInfo);

	mov	ecx, DWORD PTR _AdditionalInfo$[ebp]
	push	ecx
	mov	edx, DWORD PTR _msg$[ebp]
	push	edx
	mov	eax, DWORD PTR _receiver$[ebp]
	push	eax
	mov	ecx, DWORD PTR _sender$[ebp]
	push	ecx
	sub	esp, 8
	xorps	xmm0, xmm0
	movsd	QWORD PTR [esp], xmm0
	lea	ecx, DWORD PTR _telegram$[ebp]
	call	??0Telegram@@QAE@NHHHPAX@Z		; Telegram::Telegram

; 66   :   
; 67   :   //if there is no delay, route telegram immediately                       
; 68   :   if (delay <= 0.0)                                                        

	xorps	xmm0, xmm0
	comisd	xmm0, QWORD PTR _delay$[ebp]
	jb	SHORT $LN3@DispatchMs

; 69   :   {
; 70   :     #ifdef SHOW_MESSAGING_INFO
; 71   :     debug_con << "\nTelegram dispatched at time: " << TickCounter->GetCurrentFrame()
; 72   :          << " by " << sender << " for " << receiver 
; 73   :          << ". Msg is " << msg << "";
; 74   :     #endif
; 75   : 
; 76   :     //send the telegram to the recipient
; 77   :     Discharge(pReceiver, telegram);

	lea	edx, DWORD PTR _telegram$[ebp]
	push	edx
	mov	eax, DWORD PTR _pReceiver$[ebp]
	push	eax
	mov	ecx, DWORD PTR _this$[ebp]
	call	?Discharge@MessageDispatcher@@AAEXPAVBaseGameEntity@@ABUTelegram@@@Z ; MessageDispatcher::Discharge

; 78   :   }

	jmp	SHORT $LN4@DispatchMs
$LN3@DispatchMs:

; 79   : 
; 80   :   //else calculate the time when the telegram should be dispatched
; 81   :   else
; 82   :   {
; 83   :     double CurrentTime = TickCounter->GetCurrentFrame(); 

	call	?Instance@FrameCounter@@SAPAV1@XZ	; FrameCounter::Instance
	mov	ecx, eax
	call	?GetCurrentFrame@FrameCounter@@QAEJXZ	; FrameCounter::GetCurrentFrame
	cvtsi2sd xmm0, eax
	movsd	QWORD PTR _CurrentTime$2[ebp], xmm0

; 84   : 
; 85   :     telegram.DispatchTime = CurrentTime + delay;

	movsd	xmm0, QWORD PTR _CurrentTime$2[ebp]
	addsd	xmm0, QWORD PTR _delay$[ebp]
	movsd	QWORD PTR _telegram$[ebp+16], xmm0

; 86   : 
; 87   :     //and put it in the queue
; 88   :     PriorityQ.insert(telegram);   

	lea	ecx, DWORD PTR _telegram$[ebp]
	push	ecx
	lea	edx, DWORD PTR $T1[ebp]
	push	edx
	mov	ecx, DWORD PTR _this$[ebp]
	call	??$insert@$0A@$0A@@?$_Tree@V?$_Tset_traits@UTelegram@@U?$less@UTelegram@@@std@@V?$allocator@UTelegram@@@3@$0A@@std@@@std@@QAE?AU?$pair@V?$_Tree_const_iterator@V?$_Tree_val@U?$_Tree_simple_types@UTelegram@@@std@@@std@@@std@@_N@1@ABUTelegram@@@Z ; std::_Tree<std::_Tset_traits<Telegram,std::less<Telegram>,std::allocator<Telegram>,0> >::insert<0,0>
	lea	ecx, DWORD PTR $T1[ebp]
	call	??1?$pair@V?$_Tree_const_iterator@V?$_Tree_val@U?$_Tree_simple_types@UTelegram@@@std@@@std@@@std@@_N@std@@QAE@XZ
$LN4@DispatchMs:
$LN1@DispatchMs:

; 89   : 
; 90   :     #ifdef SHOW_MESSAGING_INFO
; 91   :     debug_con << "\nDelayed telegram from " << sender << " recorded at time " 
; 92   :             << TickCounter->GetCurrentFrame() << " for " << receiver
; 93   :             << ". Msg is " << msg << "";
; 94   :     #endif
; 95   :   }
; 96   : }

	push	edx
	mov	ecx, ebp
	push	eax
	lea	edx, DWORD PTR $LN9@DispatchMs
	call	@_RTC_CheckStackVars@8
	pop	eax
	pop	edx
	pop	edi
	add	esp, 72					; 00000048H
	cmp	ebp, esp
	call	__RTC_CheckEsp
	mov	esp, ebp
	pop	ebp
	ret	24					; 00000018H
	npad	1
$LN9@DispatchMs:
	DD	1
	DD	$LN8@DispatchMs
$LN8@DispatchMs:
	DD	-44					; ffffffd4H
	DD	32					; 00000020H
	DD	$LN7@DispatchMs
$LN7@DispatchMs:
	DB	116					; 00000074H
	DB	101					; 00000065H
	DB	108					; 0000006cH
	DB	101					; 00000065H
	DB	103					; 00000067H
	DB	114					; 00000072H
	DB	97					; 00000061H
	DB	109					; 0000006dH
	DB	0
?DispatchMsg@MessageDispatcher@@QAEXNHHHPAX@Z ENDP	; MessageDispatcher::DispatchMsg
_TEXT	ENDS
; Function compile flags: /Odtp /RTCsu
; File C:\Users\lsy01\OneDrive\바탕 화면\3-2_Study\인공지능\Source\VS2010\Common\Messaging\MessageDispatcher.cpp
_TEXT	SEGMENT
__$EHRec$ = -12						; size = 12
?Instance@MessageDispatcher@@SAPAV1@XZ PROC		; MessageDispatcher::Instance

; 17   : {

	push	ebp
	mov	ebp, esp
	push	-1
	push	__ehhandler$?Instance@MessageDispatcher@@SAPAV1@XZ
	mov	eax, DWORD PTR fs:0
	push	eax
	mov	eax, DWORD PTR ___security_cookie
	xor	eax, ebp
	push	eax
	lea	eax, DWORD PTR __$EHRec$[ebp]
	mov	DWORD PTR fs:0, eax

; 18   :   static MessageDispatcher instance; 

	mov	eax, DWORD PTR __tls_index
	mov	ecx, DWORD PTR fs:__tls_array
	mov	edx, DWORD PTR [ecx+eax*4]
	mov	eax, DWORD PTR ?$TSS0@?1??Instance@MessageDispatcher@@SAPAV2@XZ@4HA
	cmp	eax, DWORD PTR __Init_thread_epoch[edx]
	jle	SHORT $LN2@Instance
	push	OFFSET ?$TSS0@?1??Instance@MessageDispatcher@@SAPAV2@XZ@4HA
	call	__Init_thread_header
	add	esp, 4
	cmp	DWORD PTR ?$TSS0@?1??Instance@MessageDispatcher@@SAPAV2@XZ@4HA, -1
	jne	SHORT $LN2@Instance
	mov	DWORD PTR __$EHRec$[ebp+8], 0
	mov	ecx, OFFSET ?instance@?1??Instance@MessageDispatcher@@SAPAV2@XZ@4V2@A
	call	??0MessageDispatcher@@AAE@XZ		; MessageDispatcher::MessageDispatcher
	push	OFFSET ??__Finstance@?1??Instance@MessageDispatcher@@SAPAV1@XZ@YAXXZ ; `MessageDispatcher::Instance'::`2'::`dynamic atexit destructor for 'instance''
	call	_atexit
	add	esp, 4
	mov	DWORD PTR __$EHRec$[ebp+8], -1
	push	OFFSET ?$TSS0@?1??Instance@MessageDispatcher@@SAPAV2@XZ@4HA
	call	__Init_thread_footer
	add	esp, 4
$LN2@Instance:

; 19   :   
; 20   :   return &instance;

	mov	eax, OFFSET ?instance@?1??Instance@MessageDispatcher@@SAPAV2@XZ@4V2@A

; 21   : }

	mov	ecx, DWORD PTR __$EHRec$[ebp]
	mov	DWORD PTR fs:0, ecx
	pop	ecx
	add	esp, 12					; 0000000cH
	cmp	ebp, esp
	call	__RTC_CheckEsp
	mov	esp, ebp
	pop	ebp
	ret	0
_TEXT	ENDS
text$x	SEGMENT
__unwindfunclet$?Instance@MessageDispatcher@@SAPAV1@XZ$0:
	push	OFFSET ?$TSS0@?1??Instance@MessageDispatcher@@SAPAV2@XZ@4HA
	call	__Init_thread_abort
	pop	ecx
	ret	0
	int	3
	int	3
	int	3
	int	3
	int	3
__ehhandler$?Instance@MessageDispatcher@@SAPAV1@XZ:
	npad	1
	npad	1
	mov	edx, DWORD PTR [esp+8]
	lea	eax, DWORD PTR [edx+12]
	mov	ecx, DWORD PTR [edx-4]
	xor	ecx, eax
	call	@__security_check_cookie@4
	mov	eax, OFFSET __ehfuncinfo$?Instance@MessageDispatcher@@SAPAV1@XZ
	jmp	___CxxFrameHandler3
text$x	ENDS
?Instance@MessageDispatcher@@SAPAV1@XZ ENDP		; MessageDispatcher::Instance
; Function compile flags: /Odtp /RTCsu
; File C:\Users\lsy01\OneDrive\바탕 화면\3-2_Study\인공지능\Source\VS2010\Common\Messaging\MessageDispatcher.h
;	COMDAT ??0MessageDispatcher@@AAE@XZ
_TEXT	SEGMENT
_this$ = -4						; size = 4
??0MessageDispatcher@@AAE@XZ PROC			; MessageDispatcher::MessageDispatcher, COMDAT
; _this$ = ecx

; 47   :   MessageDispatcher(){}

	push	ebp
	mov	ebp, esp
	push	ecx
	mov	DWORD PTR [ebp-4], -858993460		; ccccccccH
	mov	DWORD PTR _this$[ebp], ecx
	mov	ecx, DWORD PTR _this$[ebp]
	call	??0?$set@UTelegram@@U?$less@UTelegram@@@std@@V?$allocator@UTelegram@@@3@@std@@QAE@XZ ; std::set<Telegram,std::less<Telegram>,std::allocator<Telegram> >::set<Telegram,std::less<Telegram>,std::allocator<Telegram> >
	mov	eax, DWORD PTR _this$[ebp]
	add	esp, 4
	cmp	ebp, esp
	call	__RTC_CheckEsp
	mov	esp, ebp
	pop	ebp
	ret	0
??0MessageDispatcher@@AAE@XZ ENDP			; MessageDispatcher::MessageDispatcher
_TEXT	ENDS
; Function compile flags: /Odtp /RTCsu
; File C:\Users\lsy01\OneDrive\바탕 화면\3-2_Study\인공지능\Source\VS2010\Common\Messaging\MessageDispatcher.cpp
_TEXT	SEGMENT
_this$ = -4						; size = 4
_pReceiver$ = 8						; size = 4
_telegram$ = 12						; size = 4
?Discharge@MessageDispatcher@@AAEXPAVBaseGameEntity@@ABUTelegram@@@Z PROC ; MessageDispatcher::Discharge
; _this$ = ecx

; 28   : {

	push	ebp
	mov	ebp, esp
	push	ecx
	push	esi
	mov	DWORD PTR [ebp-4], -858993460		; ccccccccH
	mov	DWORD PTR _this$[ebp], ecx

; 29   :   if (!pReceiver->HandleMessage(telegram))

	mov	esi, esp
	mov	eax, DWORD PTR _telegram$[ebp]
	push	eax
	mov	ecx, DWORD PTR _pReceiver$[ebp]
	mov	edx, DWORD PTR [ecx]
	mov	ecx, DWORD PTR _pReceiver$[ebp]
	mov	eax, DWORD PTR [edx+12]
	call	eax
	cmp	esi, esp
	call	__RTC_CheckEsp

; 30   :   {
; 31   :     //telegram could not be handled
; 32   :     #ifdef SHOW_MESSAGING_INFO
; 33   :     debug_con << "Message not handled" << "";
; 34   :     #endif
; 35   :   }
; 36   : }

	pop	esi
	add	esp, 4
	cmp	ebp, esp
	call	__RTC_CheckEsp
	mov	esp, ebp
	pop	ebp
	ret	8
?Discharge@MessageDispatcher@@AAEXPAVBaseGameEntity@@ABUTelegram@@@Z ENDP ; MessageDispatcher::Discharge
_TEXT	ENDS
; Function compile flags: /Odtp /RTCsu
;	COMDAT ??1?$set@UTelegram@@U?$less@UTelegram@@@std@@V?$allocator@UTelegram@@@3@@std@@QAE@XZ
_TEXT	SEGMENT
_this$ = -4						; size = 4
??1?$set@UTelegram@@U?$less@UTelegram@@@std@@V?$allocator@UTelegram@@@3@@std@@QAE@XZ PROC ; std::set<Telegram,std::less<Telegram>,std::allocator<Telegram> >::~set<Telegram,std::less<Telegram>,std::allocator<Telegram> >, COMDAT
; _this$ = ecx
	push	ebp
	mov	ebp, esp
	push	ecx
	mov	DWORD PTR [ebp-4], -858993460		; ccccccccH
	mov	DWORD PTR _this$[ebp], ecx
	mov	ecx, DWORD PTR _this$[ebp]
	call	??1?$_Tree@V?$_Tset_traits@UTelegram@@U?$less@UTelegram@@@std@@V?$allocator@UTelegram@@@3@$0A@@std@@@std@@QAE@XZ ; std::_Tree<std::_Tset_traits<Telegram,std::less<Telegram>,std::allocator<Telegram>,0> >::~_Tree<std::_Tset_traits<Telegram,std::less<Telegram>,std::allocator<Telegram>,0> >
	add	esp, 4
	cmp	ebp, esp
	call	__RTC_CheckEsp
	mov	esp, ebp
	pop	ebp
	ret	0
??1?$set@UTelegram@@U?$less@UTelegram@@@std@@V?$allocator@UTelegram@@@3@@std@@QAE@XZ ENDP ; std::set<Telegram,std::less<Telegram>,std::allocator<Telegram> >::~set<Telegram,std::less<Telegram>,std::allocator<Telegram> >
_TEXT	ENDS
; Function compile flags: /Odtp /RTCsu
; File C:\Program Files\Microsoft Visual Studio\2022\Community\VC\Tools\MSVC\14.32.31326\include\set
;	COMDAT ??0?$set@UTelegram@@U?$less@UTelegram@@@std@@V?$allocator@UTelegram@@@3@@std@@QAE@XZ
_TEXT	SEGMENT
$T1 = -5						; size = 1
_this$ = -4						; size = 4
??0?$set@UTelegram@@U?$less@UTelegram@@@std@@V?$allocator@UTelegram@@@3@@std@@QAE@XZ PROC ; std::set<Telegram,std::less<Telegram>,std::allocator<Telegram> >::set<Telegram,std::less<Telegram>,std::allocator<Telegram> >, COMDAT
; _this$ = ecx

; 82   :     set() : _Mybase(key_compare()) {}

	push	ebp
	mov	ebp, esp
	sub	esp, 8
	mov	DWORD PTR [ebp-8], -858993460		; ccccccccH
	mov	DWORD PTR [ebp-4], -858993460		; ccccccccH
	mov	DWORD PTR _this$[ebp], ecx
	lea	eax, DWORD PTR $T1[ebp]
	push	eax
	mov	ecx, DWORD PTR _this$[ebp]
	call	??0?$_Tree@V?$_Tset_traits@UTelegram@@U?$less@UTelegram@@@std@@V?$allocator@UTelegram@@@3@$0A@@std@@@std@@QAE@ABU?$less@UTelegram@@@1@@Z ; std::_Tree<std::_Tset_traits<Telegram,std::less<Telegram>,std::allocator<Telegram>,0> >::_Tree<std::_Tset_traits<Telegram,std::less<Telegram>,std::allocator<Telegram>,0> >
	mov	eax, DWORD PTR _this$[ebp]
	add	esp, 8
	cmp	ebp, esp
	call	__RTC_CheckEsp
	mov	esp, ebp
	pop	ebp
	ret	0
??0?$set@UTelegram@@U?$less@UTelegram@@@std@@V?$allocator@UTelegram@@@3@@std@@QAE@XZ ENDP ; std::set<Telegram,std::less<Telegram>,std::allocator<Telegram> >::set<Telegram,std::less<Telegram>,std::allocator<Telegram> >
_TEXT	ENDS
; Function compile flags: /Odtp /RTCsu
; File C:\Program Files\Microsoft Visual Studio\2022\Community\VC\Tools\MSVC\14.32.31326\include\xmemory
;	COMDAT ?_Get_first@?$_Compressed_pair@U?$less@UTelegram@@@std@@V?$_Compressed_pair@V?$allocator@U?$_Tree_node@UTelegram@@PAX@std@@@std@@V?$_Tree_val@U?$_Tree_simple_types@UTelegram@@@std@@@2@$00@2@$00@std@@QBEABU?$less@UTelegram@@@2@XZ
_TEXT	SEGMENT
_this$ = -4						; size = 4
?_Get_first@?$_Compressed_pair@U?$less@UTelegram@@@std@@V?$_Compressed_pair@V?$allocator@U?$_Tree_node@UTelegram@@PAX@std@@@std@@V?$_Tree_val@U?$_Tree_simple_types@UTelegram@@@std@@@2@$00@2@$00@std@@QBEABU?$less@UTelegram@@@2@XZ PROC ; std::_Compressed_pair<std::less<Telegram>,std::_Compressed_pair<std::allocator<std::_Tree_node<Telegram,void *> >,std::_Tree_val<std::_Tree_simple_types<Telegram> >,1>,1>::_Get_first, COMDAT
; _this$ = ecx

; 1381 :     constexpr const _Ty1& _Get_first() const noexcept {

	push	ebp
	mov	ebp, esp
	push	ecx
	mov	DWORD PTR _this$[ebp], ecx

; 1382 :         return *this;

	mov	eax, DWORD PTR _this$[ebp]

; 1383 :     }

	mov	esp, ebp
	pop	ebp
	ret	0
?_Get_first@?$_Compressed_pair@U?$less@UTelegram@@@std@@V?$_Compressed_pair@V?$allocator@U?$_Tree_node@UTelegram@@PAX@std@@@std@@V?$_Tree_val@U?$_Tree_simple_types@UTelegram@@@std@@@2@$00@2@$00@std@@QBEABU?$less@UTelegram@@@2@XZ ENDP ; std::_Compressed_pair<std::less<Telegram>,std::_Compressed_pair<std::allocator<std::_Tree_node<Telegram,void *> >,std::_Tree_val<std::_Tree_simple_types<Telegram> >,1>,1>::_Get_first
_TEXT	ENDS
; Function compile flags: /Odtp /RTCsu
; File C:\Program Files\Microsoft Visual Studio\2022\Community\VC\Tools\MSVC\14.32.31326\include\xmemory
;	COMDAT ?_Get_first@?$_Compressed_pair@V?$allocator@U?$_Tree_node@UTelegram@@PAX@std@@@std@@V?$_Tree_val@U?$_Tree_simple_types@UTelegram@@@std@@@2@$00@std@@QBEABV?$allocator@U?$_Tree_node@UTelegram@@PAX@std@@@2@XZ
_TEXT	SEGMENT
_this$ = -4						; size = 4
?_Get_first@?$_Compressed_pair@V?$allocator@U?$_Tree_node@UTelegram@@PAX@std@@@std@@V?$_Tree_val@U?$_Tree_simple_types@UTelegram@@@std@@@2@$00@std@@QBEABV?$allocator@U?$_Tree_node@UTelegram@@PAX@std@@@2@XZ PROC ; std::_Compressed_pair<std::allocator<std::_Tree_node<Telegram,void *> >,std::_Tree_val<std::_Tree_simple_types<Telegram> >,1>::_Get_first, COMDAT
; _this$ = ecx

; 1381 :     constexpr const _Ty1& _Get_first() const noexcept {

	push	ebp
	mov	ebp, esp
	push	ecx
	mov	DWORD PTR _this$[ebp], ecx

; 1382 :         return *this;

	mov	eax, DWORD PTR _this$[ebp]

; 1383 :     }

	mov	esp, ebp
	pop	ebp
	ret	0
?_Get_first@?$_Compressed_pair@V?$allocator@U?$_Tree_node@UTelegram@@PAX@std@@@std@@V?$_Tree_val@U?$_Tree_simple_types@UTelegram@@@std@@@2@$00@std@@QBEABV?$allocator@U?$_Tree_node@UTelegram@@PAX@std@@@2@XZ ENDP ; std::_Compressed_pair<std::allocator<std::_Tree_node<Telegram,void *> >,std::_Tree_val<std::_Tree_simple_types<Telegram> >,1>::_Get_first
_TEXT	ENDS
; Function compile flags: /Odtp /RTCsu
; File C:\Program Files\Microsoft Visual Studio\2022\Community\VC\Tools\MSVC\14.32.31326\include\xmemory
;	COMDAT ?_Get_first@?$_Compressed_pair@V?$allocator@U?$_Tree_node@UTelegram@@PAX@std@@@std@@V?$_Tree_val@U?$_Tree_simple_types@UTelegram@@@std@@@2@$00@std@@QAEAAV?$allocator@U?$_Tree_node@UTelegram@@PAX@std@@@2@XZ
_TEXT	SEGMENT
_this$ = -4						; size = 4
?_Get_first@?$_Compressed_pair@V?$allocator@U?$_Tree_node@UTelegram@@PAX@std@@@std@@V?$_Tree_val@U?$_Tree_simple_types@UTelegram@@@std@@@2@$00@std@@QAEAAV?$allocator@U?$_Tree_node@UTelegram@@PAX@std@@@2@XZ PROC ; std::_Compressed_pair<std::allocator<std::_Tree_node<Telegram,void *> >,std::_Tree_val<std::_Tree_simple_types<Telegram> >,1>::_Get_first, COMDAT
; _this$ = ecx

; 1377 :     constexpr _Ty1& _Get_first() noexcept {

	push	ebp
	mov	ebp, esp
	push	ecx
	mov	DWORD PTR _this$[ebp], ecx

; 1378 :         return *this;

	mov	eax, DWORD PTR _this$[ebp]

; 1379 :     }

	mov	esp, ebp
	pop	ebp
	ret	0
?_Get_first@?$_Compressed_pair@V?$allocator@U?$_Tree_node@UTelegram@@PAX@std@@@std@@V?$_Tree_val@U?$_Tree_simple_types@UTelegram@@@std@@@2@$00@std@@QAEAAV?$allocator@U?$_Tree_node@UTelegram@@PAX@std@@@2@XZ ENDP ; std::_Compressed_pair<std::allocator<std::_Tree_node<Telegram,void *> >,std::_Tree_val<std::_Tree_simple_types<Telegram> >,1>::_Get_first
_TEXT	ENDS
; Function compile flags: /Odtp /RTCsu
; File C:\Program Files\Microsoft Visual Studio\2022\Community\VC\Tools\MSVC\14.32.31326\include\xtree
;	COMDAT ?_Orphan_ptr@?$_Tree_val@U?$_Tree_simple_types@UTelegram@@@std@@@std@@QAEXQAU?$_Tree_node@UTelegram@@PAX@2@@Z
_TEXT	SEGMENT
__Pnextptr$1 = -24					; size = 4
__Pnext$ = -20						; size = 4
__Lock$ = -12						; size = 4
_this$ = -4						; size = 4
__Ptr$ = 8						; size = 4
?_Orphan_ptr@?$_Tree_val@U?$_Tree_simple_types@UTelegram@@@std@@@std@@QAEXQAU?$_Tree_node@UTelegram@@PAX@2@@Z PROC ; std::_Tree_val<std::_Tree_simple_types<Telegram> >::_Orphan_ptr, COMDAT
; _this$ = ecx

; 713  :     void _Orphan_ptr(const _Nodeptr _Ptr) noexcept {

	push	ebp
	mov	ebp, esp
	sub	esp, 24					; 00000018H
	mov	eax, -858993460				; ccccccccH
	mov	DWORD PTR [ebp-24], eax
	mov	DWORD PTR [ebp-20], eax
	mov	DWORD PTR [ebp-16], eax
	mov	DWORD PTR [ebp-12], eax
	mov	DWORD PTR [ebp-8], eax
	mov	DWORD PTR [ebp-4], eax
	mov	DWORD PTR _this$[ebp], ecx

; 714  : #if _ITERATOR_DEBUG_LEVEL == 2
; 715  :         _Lockit _Lock(_LOCK_DEBUG);

	push	3
	lea	ecx, DWORD PTR __Lock$[ebp]
	call	??0_Lockit@std@@QAE@H@Z			; std::_Lockit::_Lockit

; 716  :         _Iterator_base12** _Pnext = &this->_Myproxy->_Myfirstiter;

	mov	eax, DWORD PTR _this$[ebp]
	mov	ecx, DWORD PTR [eax]
	add	ecx, 4
	mov	DWORD PTR __Pnext$[ebp], ecx
$LN2@Orphan_ptr:

; 717  :         while (*_Pnext) {

	mov	edx, DWORD PTR __Pnext$[ebp]
	cmp	DWORD PTR [edx], 0
	je	SHORT $LN3@Orphan_ptr

; 718  :             const auto _Pnextptr = static_cast<const_iterator&>(**_Pnext)._Ptr;

	mov	eax, DWORD PTR __Pnext$[ebp]
	mov	ecx, DWORD PTR [eax]
	mov	edx, DWORD PTR [ecx+8]
	mov	DWORD PTR __Pnextptr$1[ebp], edx

; 719  :             if (_Pnextptr == _Myhead || (_Ptr != nullptr && _Pnextptr != _Ptr)) {

	mov	eax, DWORD PTR _this$[ebp]
	mov	ecx, DWORD PTR __Pnextptr$1[ebp]
	cmp	ecx, DWORD PTR [eax+4]
	je	SHORT $LN6@Orphan_ptr
	cmp	DWORD PTR __Ptr$[ebp], 0
	je	SHORT $LN4@Orphan_ptr
	mov	edx, DWORD PTR __Pnextptr$1[ebp]
	cmp	edx, DWORD PTR __Ptr$[ebp]
	je	SHORT $LN4@Orphan_ptr
$LN6@Orphan_ptr:

; 720  :                 _Pnext = &(*_Pnext)->_Mynextiter;

	mov	eax, DWORD PTR __Pnext$[ebp]
	mov	ecx, DWORD PTR [eax]
	add	ecx, 4
	mov	DWORD PTR __Pnext$[ebp], ecx

; 721  :             } else { // orphan the iterator

	jmp	SHORT $LN5@Orphan_ptr
$LN4@Orphan_ptr:

; 722  :                 (*_Pnext)->_Myproxy = nullptr;

	mov	edx, DWORD PTR __Pnext$[ebp]
	mov	eax, DWORD PTR [edx]
	mov	DWORD PTR [eax], 0

; 723  :                 *_Pnext             = (*_Pnext)->_Mynextiter;

	mov	ecx, DWORD PTR __Pnext$[ebp]
	mov	edx, DWORD PTR [ecx]
	mov	eax, DWORD PTR __Pnext$[ebp]
	mov	ecx, DWORD PTR [edx+4]
	mov	DWORD PTR [eax], ecx
$LN5@Orphan_ptr:

; 724  :             }
; 725  :         }

	jmp	SHORT $LN2@Orphan_ptr
$LN3@Orphan_ptr:

; 726  : #else // ^^^ _ITERATOR_DEBUG_LEVEL == 2 ^^^ // vvv _ITERATOR_DEBUG_LEVEL != 2 vvv
; 727  :         (void) _Ptr;
; 728  : #endif // _ITERATOR_DEBUG_LEVEL == 2
; 729  :     }

	lea	ecx, DWORD PTR __Lock$[ebp]
	call	??1_Lockit@std@@QAE@XZ			; std::_Lockit::~_Lockit
	push	edx
	mov	ecx, ebp
	push	eax
	lea	edx, DWORD PTR $LN10@Orphan_ptr
	call	@_RTC_CheckStackVars@8
	pop	eax
	pop	edx
	add	esp, 24					; 00000018H
	cmp	ebp, esp
	call	__RTC_CheckEsp
	mov	esp, ebp
	pop	ebp
	ret	4
	npad	3
$LN10@Orphan_ptr:
	DD	1
	DD	$LN9@Orphan_ptr
$LN9@Orphan_ptr:
	DD	-12					; fffffff4H
	DD	4
	DD	$LN8@Orphan_ptr
$LN8@Orphan_ptr:
	DB	95					; 0000005fH
	DB	76					; 0000004cH
	DB	111					; 0000006fH
	DB	99					; 00000063H
	DB	107					; 0000006bH
	DB	0
?_Orphan_ptr@?$_Tree_val@U?$_Tree_simple_types@UTelegram@@@std@@@std@@QAEXQAU?$_Tree_node@UTelegram@@PAX@2@@Z ENDP ; std::_Tree_val<std::_Tree_simple_types<Telegram> >::_Orphan_ptr
_TEXT	ENDS
; Function compile flags: /Odtp /RTCsu
; File C:\Program Files\Microsoft Visual Studio\2022\Community\VC\Tools\MSVC\14.32.31326\include\xtree
;	COMDAT ?_Insert_node@?$_Tree_val@U?$_Tree_simple_types@UTelegram@@@std@@@std@@QAEPAU?$_Tree_node@UTelegram@@PAX@2@U?$_Tree_id@PAU?$_Tree_node@UTelegram@@PAX@std@@@2@QAU32@@Z
_TEXT	SEGMENT
__Parent_sibling$1 = -20				; size = 4
__Parent_sibling$2 = -16				; size = 4
__Pnode$3 = -12						; size = 4
__Head$ = -8						; size = 4
_this$ = -4						; size = 4
__Loc$ = 8						; size = 8
__Newnode$ = 16						; size = 4
?_Insert_node@?$_Tree_val@U?$_Tree_simple_types@UTelegram@@@std@@@std@@QAEPAU?$_Tree_node@UTelegram@@PAX@2@U?$_Tree_id@PAU?$_Tree_node@UTelegram@@PAX@std@@@2@QAU32@@Z PROC ; std::_Tree_val<std::_Tree_simple_types<Telegram> >::_Insert_node, COMDAT
; _this$ = ecx

; 644  :     _Nodeptr _Insert_node(const _Tree_id<_Nodeptr> _Loc, const _Nodeptr _Newnode) noexcept {

	push	ebp
	mov	ebp, esp
	sub	esp, 20					; 00000014H
	mov	eax, -858993460				; ccccccccH
	mov	DWORD PTR [ebp-20], eax
	mov	DWORD PTR [ebp-16], eax
	mov	DWORD PTR [ebp-12], eax
	mov	DWORD PTR [ebp-8], eax
	mov	DWORD PTR [ebp-4], eax
	mov	DWORD PTR _this$[ebp], ecx

; 645  :         ++_Mysize;

	mov	eax, DWORD PTR _this$[ebp]
	mov	ecx, DWORD PTR [eax+8]
	add	ecx, 1
	mov	edx, DWORD PTR _this$[ebp]
	mov	DWORD PTR [edx+8], ecx

; 646  :         const auto _Head  = _Myhead;

	mov	eax, DWORD PTR _this$[ebp]
	mov	ecx, DWORD PTR [eax+4]
	mov	DWORD PTR __Head$[ebp], ecx

; 647  :         _Newnode->_Parent = _Loc._Parent;

	mov	edx, DWORD PTR __Newnode$[ebp]
	mov	eax, DWORD PTR __Loc$[ebp]
	mov	DWORD PTR [edx+4], eax

; 648  :         if (_Loc._Parent == _Head) { // first node in tree, just set head values

	mov	ecx, DWORD PTR __Loc$[ebp]
	cmp	ecx, DWORD PTR __Head$[ebp]
	jne	SHORT $LN5@Insert_nod

; 649  :             _Head->_Left     = _Newnode;

	mov	edx, DWORD PTR __Head$[ebp]
	mov	eax, DWORD PTR __Newnode$[ebp]
	mov	DWORD PTR [edx], eax

; 650  :             _Head->_Parent   = _Newnode;

	mov	ecx, DWORD PTR __Head$[ebp]
	mov	edx, DWORD PTR __Newnode$[ebp]
	mov	DWORD PTR [ecx+4], edx

; 651  :             _Head->_Right    = _Newnode;

	mov	eax, DWORD PTR __Head$[ebp]
	mov	ecx, DWORD PTR __Newnode$[ebp]
	mov	DWORD PTR [eax+8], ecx

; 652  :             _Newnode->_Color = _Black; // the root is black

	mov	edx, DWORD PTR __Newnode$[ebp]
	mov	BYTE PTR [edx+12], 1

; 653  :             return _Newnode;

	mov	eax, DWORD PTR __Newnode$[ebp]
	jmp	$LN18@Insert_nod
$LN5@Insert_nod:

; 654  :         }
; 655  : 
; 656  :         _STL_INTERNAL_CHECK(_Loc._Child != _Tree_child::_Unused);
; 657  :         if (_Loc._Child == _Tree_child::_Right) { // add to right of _Loc._Parent

	cmp	DWORD PTR __Loc$[ebp+4], 0
	jne	SHORT $LN6@Insert_nod

; 658  :             _STL_INTERNAL_CHECK(_Loc._Parent->_Right->_Isnil);
; 659  :             _Loc._Parent->_Right = _Newnode;

	mov	eax, DWORD PTR __Loc$[ebp]
	mov	ecx, DWORD PTR __Newnode$[ebp]
	mov	DWORD PTR [eax+8], ecx

; 660  :             if (_Loc._Parent == _Head->_Right) { // remember rightmost node

	mov	edx, DWORD PTR __Head$[ebp]
	mov	eax, DWORD PTR __Loc$[ebp]
	cmp	eax, DWORD PTR [edx+8]
	jne	SHORT $LN8@Insert_nod

; 661  :                 _Head->_Right = _Newnode;

	mov	ecx, DWORD PTR __Head$[ebp]
	mov	edx, DWORD PTR __Newnode$[ebp]
	mov	DWORD PTR [ecx+8], edx
$LN8@Insert_nod:

; 662  :             }
; 663  :         } else { // add to left of _Loc._Parent

	jmp	SHORT $LN7@Insert_nod
$LN6@Insert_nod:

; 664  :             _STL_INTERNAL_CHECK(_Loc._Parent->_Left->_Isnil);
; 665  :             _Loc._Parent->_Left = _Newnode;

	mov	eax, DWORD PTR __Loc$[ebp]
	mov	ecx, DWORD PTR __Newnode$[ebp]
	mov	DWORD PTR [eax], ecx

; 666  :             if (_Loc._Parent == _Head->_Left) { // remember leftmost node

	mov	edx, DWORD PTR __Head$[ebp]
	mov	eax, DWORD PTR __Loc$[ebp]
	cmp	eax, DWORD PTR [edx]
	jne	SHORT $LN7@Insert_nod

; 667  :                 _Head->_Left = _Newnode;

	mov	ecx, DWORD PTR __Head$[ebp]
	mov	edx, DWORD PTR __Newnode$[ebp]
	mov	DWORD PTR [ecx], edx
$LN7@Insert_nod:

; 668  :             }
; 669  :         }
; 670  : 
; 671  :         for (_Nodeptr _Pnode = _Newnode; _Pnode->_Parent->_Color == _Red;) {

	mov	eax, DWORD PTR __Newnode$[ebp]
	mov	DWORD PTR __Pnode$3[ebp], eax
$LN4@Insert_nod:
	mov	ecx, DWORD PTR __Pnode$3[ebp]
	mov	edx, DWORD PTR [ecx+4]
	movsx	eax, BYTE PTR [edx+12]
	test	eax, eax
	jne	$LN3@Insert_nod

; 672  :             if (_Pnode->_Parent == _Pnode->_Parent->_Parent->_Left) { // fixup red-red in left subtree

	mov	ecx, DWORD PTR __Pnode$3[ebp]
	mov	edx, DWORD PTR [ecx+4]
	mov	eax, DWORD PTR [edx+4]
	mov	ecx, DWORD PTR __Pnode$3[ebp]
	mov	edx, DWORD PTR [ecx+4]
	cmp	edx, DWORD PTR [eax]
	jne	$LN10@Insert_nod

; 673  :                 const auto _Parent_sibling = _Pnode->_Parent->_Parent->_Right;

	mov	eax, DWORD PTR __Pnode$3[ebp]
	mov	ecx, DWORD PTR [eax+4]
	mov	edx, DWORD PTR [ecx+4]
	mov	eax, DWORD PTR [edx+8]
	mov	DWORD PTR __Parent_sibling$2[ebp], eax

; 674  :                 if (_Parent_sibling->_Color == _Red) { // parent's sibling has two red children, blacken both

	mov	ecx, DWORD PTR __Parent_sibling$2[ebp]
	movsx	edx, BYTE PTR [ecx+12]
	test	edx, edx
	jne	SHORT $LN12@Insert_nod

; 675  :                     _Pnode->_Parent->_Color          = _Black;

	mov	eax, DWORD PTR __Pnode$3[ebp]
	mov	ecx, DWORD PTR [eax+4]
	mov	BYTE PTR [ecx+12], 1

; 676  :                     _Parent_sibling->_Color          = _Black;

	mov	edx, DWORD PTR __Parent_sibling$2[ebp]
	mov	BYTE PTR [edx+12], 1

; 677  :                     _Pnode->_Parent->_Parent->_Color = _Red;

	mov	eax, DWORD PTR __Pnode$3[ebp]
	mov	ecx, DWORD PTR [eax+4]
	mov	edx, DWORD PTR [ecx+4]
	mov	BYTE PTR [edx+12], 0

; 678  :                     _Pnode                           = _Pnode->_Parent->_Parent;

	mov	eax, DWORD PTR __Pnode$3[ebp]
	mov	ecx, DWORD PTR [eax+4]
	mov	edx, DWORD PTR [ecx+4]
	mov	DWORD PTR __Pnode$3[ebp], edx

; 679  :                 } else { // parent's sibling has red and black children

	jmp	SHORT $LN13@Insert_nod
$LN12@Insert_nod:

; 680  :                     if (_Pnode == _Pnode->_Parent->_Right) { // rotate right child to left

	mov	eax, DWORD PTR __Pnode$3[ebp]
	mov	ecx, DWORD PTR [eax+4]
	mov	edx, DWORD PTR __Pnode$3[ebp]
	cmp	edx, DWORD PTR [ecx+8]
	jne	SHORT $LN14@Insert_nod

; 681  :                         _Pnode = _Pnode->_Parent;

	mov	eax, DWORD PTR __Pnode$3[ebp]
	mov	ecx, DWORD PTR [eax+4]
	mov	DWORD PTR __Pnode$3[ebp], ecx

; 682  :                         _Lrotate(_Pnode);

	mov	edx, DWORD PTR __Pnode$3[ebp]
	push	edx
	mov	ecx, DWORD PTR _this$[ebp]
	call	?_Lrotate@?$_Tree_val@U?$_Tree_simple_types@UTelegram@@@std@@@std@@QAEXPAU?$_Tree_node@UTelegram@@PAX@2@@Z ; std::_Tree_val<std::_Tree_simple_types<Telegram> >::_Lrotate
$LN14@Insert_nod:

; 683  :                     }
; 684  : 
; 685  :                     _Pnode->_Parent->_Color          = _Black; // propagate red up

	mov	eax, DWORD PTR __Pnode$3[ebp]
	mov	ecx, DWORD PTR [eax+4]
	mov	BYTE PTR [ecx+12], 1

; 686  :                     _Pnode->_Parent->_Parent->_Color = _Red;

	mov	edx, DWORD PTR __Pnode$3[ebp]
	mov	eax, DWORD PTR [edx+4]
	mov	ecx, DWORD PTR [eax+4]
	mov	BYTE PTR [ecx+12], 0

; 687  :                     _Rrotate(_Pnode->_Parent->_Parent);

	mov	edx, DWORD PTR __Pnode$3[ebp]
	mov	eax, DWORD PTR [edx+4]
	mov	ecx, DWORD PTR [eax+4]
	push	ecx
	mov	ecx, DWORD PTR _this$[ebp]
	call	?_Rrotate@?$_Tree_val@U?$_Tree_simple_types@UTelegram@@@std@@@std@@QAEXPAU?$_Tree_node@UTelegram@@PAX@2@@Z ; std::_Tree_val<std::_Tree_simple_types<Telegram> >::_Rrotate
$LN13@Insert_nod:

; 688  :                 }
; 689  :             } else { // fixup red-red in right subtree

	jmp	$LN11@Insert_nod
$LN10@Insert_nod:

; 690  :                 const auto _Parent_sibling = _Pnode->_Parent->_Parent->_Left;

	mov	edx, DWORD PTR __Pnode$3[ebp]
	mov	eax, DWORD PTR [edx+4]
	mov	ecx, DWORD PTR [eax+4]
	mov	edx, DWORD PTR [ecx]
	mov	DWORD PTR __Parent_sibling$1[ebp], edx

; 691  :                 if (_Parent_sibling->_Color == _Red) { // parent's sibling has two red children, blacken both

	mov	eax, DWORD PTR __Parent_sibling$1[ebp]
	movsx	ecx, BYTE PTR [eax+12]
	test	ecx, ecx
	jne	SHORT $LN15@Insert_nod

; 692  :                     _Pnode->_Parent->_Color          = _Black;

	mov	edx, DWORD PTR __Pnode$3[ebp]
	mov	eax, DWORD PTR [edx+4]
	mov	BYTE PTR [eax+12], 1

; 693  :                     _Parent_sibling->_Color          = _Black;

	mov	ecx, DWORD PTR __Parent_sibling$1[ebp]
	mov	BYTE PTR [ecx+12], 1

; 694  :                     _Pnode->_Parent->_Parent->_Color = _Red;

	mov	edx, DWORD PTR __Pnode$3[ebp]
	mov	eax, DWORD PTR [edx+4]
	mov	ecx, DWORD PTR [eax+4]
	mov	BYTE PTR [ecx+12], 0

; 695  :                     _Pnode                           = _Pnode->_Parent->_Parent;

	mov	edx, DWORD PTR __Pnode$3[ebp]
	mov	eax, DWORD PTR [edx+4]
	mov	ecx, DWORD PTR [eax+4]
	mov	DWORD PTR __Pnode$3[ebp], ecx

; 696  :                 } else { // parent's sibling has red and black children

	jmp	SHORT $LN11@Insert_nod
$LN15@Insert_nod:

; 697  :                     if (_Pnode == _Pnode->_Parent->_Left) { // rotate left child to right

	mov	edx, DWORD PTR __Pnode$3[ebp]
	mov	eax, DWORD PTR [edx+4]
	mov	ecx, DWORD PTR __Pnode$3[ebp]
	cmp	ecx, DWORD PTR [eax]
	jne	SHORT $LN17@Insert_nod

; 698  :                         _Pnode = _Pnode->_Parent;

	mov	edx, DWORD PTR __Pnode$3[ebp]
	mov	eax, DWORD PTR [edx+4]
	mov	DWORD PTR __Pnode$3[ebp], eax

; 699  :                         _Rrotate(_Pnode);

	mov	ecx, DWORD PTR __Pnode$3[ebp]
	push	ecx
	mov	ecx, DWORD PTR _this$[ebp]
	call	?_Rrotate@?$_Tree_val@U?$_Tree_simple_types@UTelegram@@@std@@@std@@QAEXPAU?$_Tree_node@UTelegram@@PAX@2@@Z ; std::_Tree_val<std::_Tree_simple_types<Telegram> >::_Rrotate
$LN17@Insert_nod:

; 700  :                     }
; 701  : 
; 702  :                     _Pnode->_Parent->_Color          = _Black; // propagate red up

	mov	edx, DWORD PTR __Pnode$3[ebp]
	mov	eax, DWORD PTR [edx+4]
	mov	BYTE PTR [eax+12], 1

; 703  :                     _Pnode->_Parent->_Parent->_Color = _Red;

	mov	ecx, DWORD PTR __Pnode$3[ebp]
	mov	edx, DWORD PTR [ecx+4]
	mov	eax, DWORD PTR [edx+4]
	mov	BYTE PTR [eax+12], 0

; 704  :                     _Lrotate(_Pnode->_Parent->_Parent);

	mov	ecx, DWORD PTR __Pnode$3[ebp]
	mov	edx, DWORD PTR [ecx+4]
	mov	eax, DWORD PTR [edx+4]
	push	eax
	mov	ecx, DWORD PTR _this$[ebp]
	call	?_Lrotate@?$_Tree_val@U?$_Tree_simple_types@UTelegram@@@std@@@std@@QAEXPAU?$_Tree_node@UTelegram@@PAX@2@@Z ; std::_Tree_val<std::_Tree_simple_types<Telegram> >::_Lrotate
$LN11@Insert_nod:

; 705  :                 }
; 706  :             }
; 707  :         }

	jmp	$LN4@Insert_nod
$LN3@Insert_nod:

; 708  : 
; 709  :         _Head->_Parent->_Color = _Black; // root is always black

	mov	ecx, DWORD PTR __Head$[ebp]
	mov	edx, DWORD PTR [ecx+4]
	mov	BYTE PTR [edx+12], 1

; 710  :         return _Newnode;

	mov	eax, DWORD PTR __Newnode$[ebp]
$LN18@Insert_nod:

; 711  :     }

	add	esp, 20					; 00000014H
	cmp	ebp, esp
	call	__RTC_CheckEsp
	mov	esp, ebp
	pop	ebp
	ret	12					; 0000000cH
?_Insert_node@?$_Tree_val@U?$_Tree_simple_types@UTelegram@@@std@@@std@@QAEPAU?$_Tree_node@UTelegram@@PAX@2@U?$_Tree_id@PAU?$_Tree_node@UTelegram@@PAX@std@@@2@QAU32@@Z ENDP ; std::_Tree_val<std::_Tree_simple_types<Telegram> >::_Insert_node
_TEXT	ENDS
; Function compile flags: /Odtp /RTCsu
; File C:\Program Files\Microsoft Visual Studio\2022\Community\VC\Tools\MSVC\14.32.31326\include\xtree
;	COMDAT ?_Extract@?$_Tree_val@U?$_Tree_simple_types@UTelegram@@@std@@@std@@QAEPAU?$_Tree_node@UTelegram@@PAX@2@V?$_Tree_unchecked_const_iterator@V?$_Tree_val@U?$_Tree_simple_types@UTelegram@@@std@@@std@@U_Iterator_base0@2@@2@@Z
_TEXT	SEGMENT
tv144 = -28						; size = 4
tv133 = -24						; size = 4
__Pnode$ = -20						; size = 4
__Fixnodeparent$ = -16					; size = 4
__Fixnode$ = -12					; size = 4
__Erasednode$ = -8					; size = 4
_this$ = -4						; size = 4
__Where$ = 8						; size = 4
?_Extract@?$_Tree_val@U?$_Tree_simple_types@UTelegram@@@std@@@std@@QAEPAU?$_Tree_node@UTelegram@@PAX@2@V?$_Tree_unchecked_const_iterator@V?$_Tree_val@U?$_Tree_simple_types@UTelegram@@@std@@@std@@U_Iterator_base0@2@@2@@Z PROC ; std::_Tree_val<std::_Tree_simple_types<Telegram> >::_Extract, COMDAT
; _this$ = ecx

; 502  :     _Nodeptr _Extract(_Unchecked_const_iterator _Where) noexcept {

	push	ebp
	mov	ebp, esp
	sub	esp, 28					; 0000001cH
	mov	eax, -858993460				; ccccccccH
	mov	DWORD PTR [ebp-28], eax
	mov	DWORD PTR [ebp-24], eax
	mov	DWORD PTR [ebp-20], eax
	mov	DWORD PTR [ebp-16], eax
	mov	DWORD PTR [ebp-12], eax
	mov	DWORD PTR [ebp-8], eax
	mov	DWORD PTR [ebp-4], eax
	mov	DWORD PTR _this$[ebp], ecx

; 503  :         _Nodeptr _Erasednode = _Where._Ptr; // node to erase

	mov	eax, DWORD PTR __Where$[ebp]
	mov	DWORD PTR __Erasednode$[ebp], eax

; 504  :         ++_Where; // save successor iterator for return

	lea	ecx, DWORD PTR __Where$[ebp]
	call	??E?$_Tree_unchecked_const_iterator@V?$_Tree_val@U?$_Tree_simple_types@UTelegram@@@std@@@std@@U_Iterator_base0@2@@std@@QAEAAV01@XZ ; std::_Tree_unchecked_const_iterator<std::_Tree_val<std::_Tree_simple_types<Telegram> >,std::_Iterator_base0>::operator++

; 505  : 
; 506  :         _Nodeptr _Fixnode; // the node to recolor as needed
; 507  :         _Nodeptr _Fixnodeparent; // parent of _Fixnode (which may be nil)
; 508  :         _Nodeptr _Pnode = _Erasednode;

	mov	ecx, DWORD PTR __Erasednode$[ebp]
	mov	DWORD PTR __Pnode$[ebp], ecx

; 509  : 
; 510  :         if (_Pnode->_Left->_Isnil) {

	mov	edx, DWORD PTR __Pnode$[ebp]
	mov	eax, DWORD PTR [edx]
	movsx	ecx, BYTE PTR [eax+13]
	test	ecx, ecx
	je	SHORT $LN5@Extract

; 511  :             _Fixnode = _Pnode->_Right; // stitch up right subtree

	mov	edx, DWORD PTR __Pnode$[ebp]
	mov	eax, DWORD PTR [edx+8]
	mov	DWORD PTR __Fixnode$[ebp], eax
	jmp	SHORT $LN6@Extract
$LN5@Extract:

; 512  :         } else if (_Pnode->_Right->_Isnil) {

	mov	ecx, DWORD PTR __Pnode$[ebp]
	mov	edx, DWORD PTR [ecx+8]
	movsx	eax, BYTE PTR [edx+13]
	test	eax, eax
	je	SHORT $LN7@Extract

; 513  :             _Fixnode = _Pnode->_Left; // stitch up left subtree

	mov	ecx, DWORD PTR __Pnode$[ebp]
	mov	edx, DWORD PTR [ecx]
	mov	DWORD PTR __Fixnode$[ebp], edx

; 514  :         } else { // two subtrees, must lift successor node to replace erased

	jmp	SHORT $LN6@Extract
$LN7@Extract:

; 515  :             _Pnode   = _Where._Ptr; // _Pnode is successor node

	mov	eax, DWORD PTR __Where$[ebp]
	mov	DWORD PTR __Pnode$[ebp], eax

; 516  :             _Fixnode = _Pnode->_Right; // _Fixnode is only subtree

	mov	ecx, DWORD PTR __Pnode$[ebp]
	mov	edx, DWORD PTR [ecx+8]
	mov	DWORD PTR __Fixnode$[ebp], edx
$LN6@Extract:

; 517  :         }
; 518  : 
; 519  :         if (_Pnode == _Erasednode) { // at most one subtree, relink it

	mov	eax, DWORD PTR __Pnode$[ebp]
	cmp	eax, DWORD PTR __Erasednode$[ebp]
	jne	$LN9@Extract

; 520  :             _Fixnodeparent = _Erasednode->_Parent;

	mov	ecx, DWORD PTR __Erasednode$[ebp]
	mov	edx, DWORD PTR [ecx+4]
	mov	DWORD PTR __Fixnodeparent$[ebp], edx

; 521  :             if (!_Fixnode->_Isnil) {

	mov	eax, DWORD PTR __Fixnode$[ebp]
	movsx	ecx, BYTE PTR [eax+13]
	test	ecx, ecx
	jne	SHORT $LN11@Extract

; 522  :                 _Fixnode->_Parent = _Fixnodeparent; // link up

	mov	edx, DWORD PTR __Fixnode$[ebp]
	mov	eax, DWORD PTR __Fixnodeparent$[ebp]
	mov	DWORD PTR [edx+4], eax
$LN11@Extract:

; 523  :             }
; 524  : 
; 525  :             if (_Myhead->_Parent == _Erasednode) {

	mov	ecx, DWORD PTR _this$[ebp]
	mov	edx, DWORD PTR [ecx+4]
	mov	eax, DWORD PTR [edx+4]
	cmp	eax, DWORD PTR __Erasednode$[ebp]
	jne	SHORT $LN12@Extract

; 526  :                 _Myhead->_Parent = _Fixnode; // link down from root

	mov	ecx, DWORD PTR _this$[ebp]
	mov	edx, DWORD PTR [ecx+4]
	mov	eax, DWORD PTR __Fixnode$[ebp]
	mov	DWORD PTR [edx+4], eax
	jmp	SHORT $LN13@Extract
$LN12@Extract:

; 527  :             } else if (_Fixnodeparent->_Left == _Erasednode) {

	mov	ecx, DWORD PTR __Fixnodeparent$[ebp]
	mov	edx, DWORD PTR [ecx]
	cmp	edx, DWORD PTR __Erasednode$[ebp]
	jne	SHORT $LN14@Extract

; 528  :                 _Fixnodeparent->_Left = _Fixnode; // link down to left

	mov	eax, DWORD PTR __Fixnodeparent$[ebp]
	mov	ecx, DWORD PTR __Fixnode$[ebp]
	mov	DWORD PTR [eax], ecx

; 529  :             } else {

	jmp	SHORT $LN13@Extract
$LN14@Extract:

; 530  :                 _Fixnodeparent->_Right = _Fixnode; // link down to right

	mov	edx, DWORD PTR __Fixnodeparent$[ebp]
	mov	eax, DWORD PTR __Fixnode$[ebp]
	mov	DWORD PTR [edx+8], eax
$LN13@Extract:

; 531  :             }
; 532  : 
; 533  :             if (_Myhead->_Left == _Erasednode) {

	mov	ecx, DWORD PTR _this$[ebp]
	mov	edx, DWORD PTR [ecx+4]
	mov	eax, DWORD PTR [edx]
	cmp	eax, DWORD PTR __Erasednode$[ebp]
	jne	SHORT $LN16@Extract

; 534  :                 _Myhead->_Left = _Fixnode->_Isnil ? _Fixnodeparent // smallest is parent of erased node

	mov	ecx, DWORD PTR __Fixnode$[ebp]
	movsx	edx, BYTE PTR [ecx+13]
	test	edx, edx
	je	SHORT $LN42@Extract
	mov	eax, DWORD PTR __Fixnodeparent$[ebp]
	mov	DWORD PTR tv133[ebp], eax
	jmp	SHORT $LN43@Extract
$LN42@Extract:
	mov	ecx, DWORD PTR __Fixnode$[ebp]
	push	ecx
	call	?_Min@?$_Tree_val@U?$_Tree_simple_types@UTelegram@@@std@@@std@@SAPAU?$_Tree_node@UTelegram@@PAX@2@PAU32@@Z ; std::_Tree_val<std::_Tree_simple_types<Telegram> >::_Min
	add	esp, 4
	mov	DWORD PTR tv133[ebp], eax
$LN43@Extract:
	mov	edx, DWORD PTR _this$[ebp]
	mov	eax, DWORD PTR [edx+4]
	mov	ecx, DWORD PTR tv133[ebp]
	mov	DWORD PTR [eax], ecx
$LN16@Extract:

; 535  :                                                   : _Min(_Fixnode); // smallest in relinked subtree
; 536  :             }
; 537  : 
; 538  :             if (_Myhead->_Right == _Erasednode) {

	mov	edx, DWORD PTR _this$[ebp]
	mov	eax, DWORD PTR [edx+4]
	mov	ecx, DWORD PTR [eax+8]
	cmp	ecx, DWORD PTR __Erasednode$[ebp]
	jne	SHORT $LN17@Extract

; 539  :                 _Myhead->_Right = _Fixnode->_Isnil ? _Fixnodeparent // largest is parent of erased node

	mov	edx, DWORD PTR __Fixnode$[ebp]
	movsx	eax, BYTE PTR [edx+13]
	test	eax, eax
	je	SHORT $LN44@Extract
	mov	ecx, DWORD PTR __Fixnodeparent$[ebp]
	mov	DWORD PTR tv144[ebp], ecx
	jmp	SHORT $LN45@Extract
$LN44@Extract:
	mov	edx, DWORD PTR __Fixnode$[ebp]
	push	edx
	call	?_Max@?$_Tree_val@U?$_Tree_simple_types@UTelegram@@@std@@@std@@SAPAU?$_Tree_node@UTelegram@@PAX@2@PAU32@@Z ; std::_Tree_val<std::_Tree_simple_types<Telegram> >::_Max
	add	esp, 4
	mov	DWORD PTR tv144[ebp], eax
$LN45@Extract:
	mov	eax, DWORD PTR _this$[ebp]
	mov	ecx, DWORD PTR [eax+4]
	mov	edx, DWORD PTR tv144[ebp]
	mov	DWORD PTR [ecx+8], edx
$LN17@Extract:

; 540  :                                                    : _Max(_Fixnode); // largest in relinked subtree
; 541  :             }
; 542  :         } else { // erased has two subtrees, _Pnode is successor to erased

	jmp	$LN10@Extract
$LN9@Extract:

; 543  :             _Erasednode->_Left->_Parent = _Pnode; // link left up

	mov	eax, DWORD PTR __Erasednode$[ebp]
	mov	ecx, DWORD PTR [eax]
	mov	edx, DWORD PTR __Pnode$[ebp]
	mov	DWORD PTR [ecx+4], edx

; 544  :             _Pnode->_Left               = _Erasednode->_Left; // link successor down

	mov	eax, DWORD PTR __Pnode$[ebp]
	mov	ecx, DWORD PTR __Erasednode$[ebp]
	mov	edx, DWORD PTR [ecx]
	mov	DWORD PTR [eax], edx

; 545  : 
; 546  :             if (_Pnode == _Erasednode->_Right) {

	mov	eax, DWORD PTR __Erasednode$[ebp]
	mov	ecx, DWORD PTR __Pnode$[ebp]
	cmp	ecx, DWORD PTR [eax+8]
	jne	SHORT $LN18@Extract

; 547  :                 _Fixnodeparent = _Pnode; // successor is next to erased

	mov	edx, DWORD PTR __Pnode$[ebp]
	mov	DWORD PTR __Fixnodeparent$[ebp], edx

; 548  :             } else { // successor further down, link in place of erased

	jmp	SHORT $LN19@Extract
$LN18@Extract:

; 549  :                 _Fixnodeparent = _Pnode->_Parent; // parent is successor's

	mov	eax, DWORD PTR __Pnode$[ebp]
	mov	ecx, DWORD PTR [eax+4]
	mov	DWORD PTR __Fixnodeparent$[ebp], ecx

; 550  :                 if (!_Fixnode->_Isnil) {

	mov	edx, DWORD PTR __Fixnode$[ebp]
	movsx	eax, BYTE PTR [edx+13]
	test	eax, eax
	jne	SHORT $LN20@Extract

; 551  :                     _Fixnode->_Parent = _Fixnodeparent; // link fix up

	mov	ecx, DWORD PTR __Fixnode$[ebp]
	mov	edx, DWORD PTR __Fixnodeparent$[ebp]
	mov	DWORD PTR [ecx+4], edx
$LN20@Extract:

; 552  :                 }
; 553  : 
; 554  :                 _Fixnodeparent->_Left        = _Fixnode; // link fix down

	mov	eax, DWORD PTR __Fixnodeparent$[ebp]
	mov	ecx, DWORD PTR __Fixnode$[ebp]
	mov	DWORD PTR [eax], ecx

; 555  :                 _Pnode->_Right               = _Erasednode->_Right; // link next down

	mov	edx, DWORD PTR __Pnode$[ebp]
	mov	eax, DWORD PTR __Erasednode$[ebp]
	mov	ecx, DWORD PTR [eax+8]
	mov	DWORD PTR [edx+8], ecx

; 556  :                 _Erasednode->_Right->_Parent = _Pnode; // right up

	mov	edx, DWORD PTR __Erasednode$[ebp]
	mov	eax, DWORD PTR [edx+8]
	mov	ecx, DWORD PTR __Pnode$[ebp]
	mov	DWORD PTR [eax+4], ecx
$LN19@Extract:

; 557  :             }
; 558  : 
; 559  :             if (_Myhead->_Parent == _Erasednode) {

	mov	edx, DWORD PTR _this$[ebp]
	mov	eax, DWORD PTR [edx+4]
	mov	ecx, DWORD PTR [eax+4]
	cmp	ecx, DWORD PTR __Erasednode$[ebp]
	jne	SHORT $LN21@Extract

; 560  :                 _Myhead->_Parent = _Pnode; // link down from root

	mov	edx, DWORD PTR _this$[ebp]
	mov	eax, DWORD PTR [edx+4]
	mov	ecx, DWORD PTR __Pnode$[ebp]
	mov	DWORD PTR [eax+4], ecx
	jmp	SHORT $LN22@Extract
$LN21@Extract:

; 561  :             } else if (_Erasednode->_Parent->_Left == _Erasednode) {

	mov	edx, DWORD PTR __Erasednode$[ebp]
	mov	eax, DWORD PTR [edx+4]
	mov	ecx, DWORD PTR [eax]
	cmp	ecx, DWORD PTR __Erasednode$[ebp]
	jne	SHORT $LN23@Extract

; 562  :                 _Erasednode->_Parent->_Left = _Pnode; // link down to left

	mov	edx, DWORD PTR __Erasednode$[ebp]
	mov	eax, DWORD PTR [edx+4]
	mov	ecx, DWORD PTR __Pnode$[ebp]
	mov	DWORD PTR [eax], ecx

; 563  :             } else {

	jmp	SHORT $LN22@Extract
$LN23@Extract:

; 564  :                 _Erasednode->_Parent->_Right = _Pnode; // link down to right

	mov	edx, DWORD PTR __Erasednode$[ebp]
	mov	eax, DWORD PTR [edx+4]
	mov	ecx, DWORD PTR __Pnode$[ebp]
	mov	DWORD PTR [eax+8], ecx
$LN22@Extract:

; 565  :             }
; 566  : 
; 567  :             _Pnode->_Parent = _Erasednode->_Parent; // link successor up

	mov	edx, DWORD PTR __Pnode$[ebp]
	mov	eax, DWORD PTR __Erasednode$[ebp]
	mov	ecx, DWORD PTR [eax+4]
	mov	DWORD PTR [edx+4], ecx

; 568  :             _STD swap(_Pnode->_Color, _Erasednode->_Color); // recolor it

	mov	edx, DWORD PTR __Erasednode$[ebp]
	add	edx, 12					; 0000000cH
	push	edx
	mov	eax, DWORD PTR __Pnode$[ebp]
	add	eax, 12					; 0000000cH
	push	eax
	call	??$swap@D$0A@@std@@YAXAAD0@Z		; std::swap<char,0>
	add	esp, 8
$LN10@Extract:

; 569  :         }
; 570  : 
; 571  :         if (_Erasednode->_Color == _Black) { // erasing black link, must recolor/rebalance tree

	mov	ecx, DWORD PTR __Erasednode$[ebp]
	movsx	edx, BYTE PTR [ecx+12]
	cmp	edx, 1
	jne	$LN25@Extract

; 572  :             for (; _Fixnode != _Myhead->_Parent && _Fixnode->_Color == _Black; _Fixnodeparent = _Fixnode->_Parent) {

	jmp	SHORT $LN4@Extract
$LN2@Extract:
	mov	eax, DWORD PTR __Fixnode$[ebp]
	mov	ecx, DWORD PTR [eax+4]
	mov	DWORD PTR __Fixnodeparent$[ebp], ecx
$LN4@Extract:
	mov	edx, DWORD PTR _this$[ebp]
	mov	eax, DWORD PTR [edx+4]
	mov	ecx, DWORD PTR __Fixnode$[ebp]
	cmp	ecx, DWORD PTR [eax+4]
	je	$LN3@Extract
	mov	edx, DWORD PTR __Fixnode$[ebp]
	movsx	eax, BYTE PTR [edx+12]
	cmp	eax, 1
	jne	$LN3@Extract

; 573  :                 if (_Fixnode == _Fixnodeparent->_Left) { // fixup left subtree

	mov	ecx, DWORD PTR __Fixnodeparent$[ebp]
	mov	edx, DWORD PTR __Fixnode$[ebp]
	cmp	edx, DWORD PTR [ecx]
	jne	$LN26@Extract

; 574  :                     _Pnode = _Fixnodeparent->_Right;

	mov	eax, DWORD PTR __Fixnodeparent$[ebp]
	mov	ecx, DWORD PTR [eax+8]
	mov	DWORD PTR __Pnode$[ebp], ecx

; 575  :                     if (_Pnode->_Color == _Red) { // rotate red up from right subtree

	mov	edx, DWORD PTR __Pnode$[ebp]
	movsx	eax, BYTE PTR [edx+12]
	test	eax, eax
	jne	SHORT $LN28@Extract

; 576  :                         _Pnode->_Color         = _Black;

	mov	ecx, DWORD PTR __Pnode$[ebp]
	mov	BYTE PTR [ecx+12], 1

; 577  :                         _Fixnodeparent->_Color = _Red;

	mov	edx, DWORD PTR __Fixnodeparent$[ebp]
	mov	BYTE PTR [edx+12], 0

; 578  :                         _Lrotate(_Fixnodeparent);

	mov	eax, DWORD PTR __Fixnodeparent$[ebp]
	push	eax
	mov	ecx, DWORD PTR _this$[ebp]
	call	?_Lrotate@?$_Tree_val@U?$_Tree_simple_types@UTelegram@@@std@@@std@@QAEXPAU?$_Tree_node@UTelegram@@PAX@2@@Z ; std::_Tree_val<std::_Tree_simple_types<Telegram> >::_Lrotate

; 579  :                         _Pnode = _Fixnodeparent->_Right;

	mov	ecx, DWORD PTR __Fixnodeparent$[ebp]
	mov	edx, DWORD PTR [ecx+8]
	mov	DWORD PTR __Pnode$[ebp], edx
$LN28@Extract:

; 580  :                     }
; 581  : 
; 582  :                     if (_Pnode->_Isnil) {

	mov	eax, DWORD PTR __Pnode$[ebp]
	movsx	ecx, BYTE PTR [eax+13]
	test	ecx, ecx
	je	SHORT $LN29@Extract

; 583  :                         _Fixnode = _Fixnodeparent; // shouldn't happen

	mov	edx, DWORD PTR __Fixnodeparent$[ebp]
	mov	DWORD PTR __Fixnode$[ebp], edx

; 584  :                     } else if (_Pnode->_Left->_Color == _Black

	jmp	$LN30@Extract
$LN29@Extract:

; 585  :                                && _Pnode->_Right->_Color == _Black) { // redden right subtree with black children

	mov	eax, DWORD PTR __Pnode$[ebp]
	mov	ecx, DWORD PTR [eax]
	movsx	edx, BYTE PTR [ecx+12]
	cmp	edx, 1
	jne	SHORT $LN31@Extract
	mov	eax, DWORD PTR __Pnode$[ebp]
	mov	ecx, DWORD PTR [eax+8]
	movsx	edx, BYTE PTR [ecx+12]
	cmp	edx, 1
	jne	SHORT $LN31@Extract

; 586  :                         _Pnode->_Color = _Red;

	mov	eax, DWORD PTR __Pnode$[ebp]
	mov	BYTE PTR [eax+12], 0

; 587  :                         _Fixnode       = _Fixnodeparent;

	mov	ecx, DWORD PTR __Fixnodeparent$[ebp]
	mov	DWORD PTR __Fixnode$[ebp], ecx

; 588  :                     } else { // must rearrange right subtree

	jmp	SHORT $LN30@Extract
$LN31@Extract:

; 589  :                         if (_Pnode->_Right->_Color == _Black) { // rotate red up from left sub-subtree

	mov	edx, DWORD PTR __Pnode$[ebp]
	mov	eax, DWORD PTR [edx+8]
	movsx	ecx, BYTE PTR [eax+12]
	cmp	ecx, 1
	jne	SHORT $LN33@Extract

; 590  :                             _Pnode->_Left->_Color = _Black;

	mov	edx, DWORD PTR __Pnode$[ebp]
	mov	eax, DWORD PTR [edx]
	mov	BYTE PTR [eax+12], 1

; 591  :                             _Pnode->_Color        = _Red;

	mov	ecx, DWORD PTR __Pnode$[ebp]
	mov	BYTE PTR [ecx+12], 0

; 592  :                             _Rrotate(_Pnode);

	mov	edx, DWORD PTR __Pnode$[ebp]
	push	edx
	mov	ecx, DWORD PTR _this$[ebp]
	call	?_Rrotate@?$_Tree_val@U?$_Tree_simple_types@UTelegram@@@std@@@std@@QAEXPAU?$_Tree_node@UTelegram@@PAX@2@@Z ; std::_Tree_val<std::_Tree_simple_types<Telegram> >::_Rrotate

; 593  :                             _Pnode = _Fixnodeparent->_Right;

	mov	eax, DWORD PTR __Fixnodeparent$[ebp]
	mov	ecx, DWORD PTR [eax+8]
	mov	DWORD PTR __Pnode$[ebp], ecx
$LN33@Extract:

; 594  :                         }
; 595  : 
; 596  :                         _Pnode->_Color         = _Fixnodeparent->_Color;

	mov	edx, DWORD PTR __Pnode$[ebp]
	mov	eax, DWORD PTR __Fixnodeparent$[ebp]
	mov	cl, BYTE PTR [eax+12]
	mov	BYTE PTR [edx+12], cl

; 597  :                         _Fixnodeparent->_Color = _Black;

	mov	edx, DWORD PTR __Fixnodeparent$[ebp]
	mov	BYTE PTR [edx+12], 1

; 598  :                         _Pnode->_Right->_Color = _Black;

	mov	eax, DWORD PTR __Pnode$[ebp]
	mov	ecx, DWORD PTR [eax+8]
	mov	BYTE PTR [ecx+12], 1

; 599  :                         _Lrotate(_Fixnodeparent);

	mov	edx, DWORD PTR __Fixnodeparent$[ebp]
	push	edx
	mov	ecx, DWORD PTR _this$[ebp]
	call	?_Lrotate@?$_Tree_val@U?$_Tree_simple_types@UTelegram@@@std@@@std@@QAEXPAU?$_Tree_node@UTelegram@@PAX@2@@Z ; std::_Tree_val<std::_Tree_simple_types<Telegram> >::_Lrotate

; 600  :                         break; // tree now recolored/rebalanced

	jmp	$LN3@Extract
$LN30@Extract:

; 601  :                     }
; 602  :                 } else { // fixup right subtree

	jmp	$LN27@Extract
$LN26@Extract:

; 603  :                     _Pnode = _Fixnodeparent->_Left;

	mov	eax, DWORD PTR __Fixnodeparent$[ebp]
	mov	ecx, DWORD PTR [eax]
	mov	DWORD PTR __Pnode$[ebp], ecx

; 604  :                     if (_Pnode->_Color == _Red) { // rotate red up from left subtree

	mov	edx, DWORD PTR __Pnode$[ebp]
	movsx	eax, BYTE PTR [edx+12]
	test	eax, eax
	jne	SHORT $LN34@Extract

; 605  :                         _Pnode->_Color         = _Black;

	mov	ecx, DWORD PTR __Pnode$[ebp]
	mov	BYTE PTR [ecx+12], 1

; 606  :                         _Fixnodeparent->_Color = _Red;

	mov	edx, DWORD PTR __Fixnodeparent$[ebp]
	mov	BYTE PTR [edx+12], 0

; 607  :                         _Rrotate(_Fixnodeparent);

	mov	eax, DWORD PTR __Fixnodeparent$[ebp]
	push	eax
	mov	ecx, DWORD PTR _this$[ebp]
	call	?_Rrotate@?$_Tree_val@U?$_Tree_simple_types@UTelegram@@@std@@@std@@QAEXPAU?$_Tree_node@UTelegram@@PAX@2@@Z ; std::_Tree_val<std::_Tree_simple_types<Telegram> >::_Rrotate

; 608  :                         _Pnode = _Fixnodeparent->_Left;

	mov	ecx, DWORD PTR __Fixnodeparent$[ebp]
	mov	edx, DWORD PTR [ecx]
	mov	DWORD PTR __Pnode$[ebp], edx
$LN34@Extract:

; 609  :                     }
; 610  : 
; 611  :                     if (_Pnode->_Isnil) {

	mov	eax, DWORD PTR __Pnode$[ebp]
	movsx	ecx, BYTE PTR [eax+13]
	test	ecx, ecx
	je	SHORT $LN35@Extract

; 612  :                         _Fixnode = _Fixnodeparent; // shouldn't happen

	mov	edx, DWORD PTR __Fixnodeparent$[ebp]
	mov	DWORD PTR __Fixnode$[ebp], edx

; 613  :                     } else if (_Pnode->_Right->_Color == _Black

	jmp	$LN27@Extract
$LN35@Extract:

; 614  :                                && _Pnode->_Left->_Color == _Black) { // redden left subtree with black children

	mov	eax, DWORD PTR __Pnode$[ebp]
	mov	ecx, DWORD PTR [eax+8]
	movsx	edx, BYTE PTR [ecx+12]
	cmp	edx, 1
	jne	SHORT $LN37@Extract
	mov	eax, DWORD PTR __Pnode$[ebp]
	mov	ecx, DWORD PTR [eax]
	movsx	edx, BYTE PTR [ecx+12]
	cmp	edx, 1
	jne	SHORT $LN37@Extract

; 615  :                         _Pnode->_Color = _Red;

	mov	eax, DWORD PTR __Pnode$[ebp]
	mov	BYTE PTR [eax+12], 0

; 616  :                         _Fixnode       = _Fixnodeparent;

	mov	ecx, DWORD PTR __Fixnodeparent$[ebp]
	mov	DWORD PTR __Fixnode$[ebp], ecx

; 617  :                     } else { // must rearrange left subtree

	jmp	SHORT $LN27@Extract
$LN37@Extract:

; 618  :                         if (_Pnode->_Left->_Color == _Black) { // rotate red up from right sub-subtree

	mov	edx, DWORD PTR __Pnode$[ebp]
	mov	eax, DWORD PTR [edx]
	movsx	ecx, BYTE PTR [eax+12]
	cmp	ecx, 1
	jne	SHORT $LN39@Extract

; 619  :                             _Pnode->_Right->_Color = _Black;

	mov	edx, DWORD PTR __Pnode$[ebp]
	mov	eax, DWORD PTR [edx+8]
	mov	BYTE PTR [eax+12], 1

; 620  :                             _Pnode->_Color         = _Red;

	mov	ecx, DWORD PTR __Pnode$[ebp]
	mov	BYTE PTR [ecx+12], 0

; 621  :                             _Lrotate(_Pnode);

	mov	edx, DWORD PTR __Pnode$[ebp]
	push	edx
	mov	ecx, DWORD PTR _this$[ebp]
	call	?_Lrotate@?$_Tree_val@U?$_Tree_simple_types@UTelegram@@@std@@@std@@QAEXPAU?$_Tree_node@UTelegram@@PAX@2@@Z ; std::_Tree_val<std::_Tree_simple_types<Telegram> >::_Lrotate

; 622  :                             _Pnode = _Fixnodeparent->_Left;

	mov	eax, DWORD PTR __Fixnodeparent$[ebp]
	mov	ecx, DWORD PTR [eax]
	mov	DWORD PTR __Pnode$[ebp], ecx
$LN39@Extract:

; 623  :                         }
; 624  : 
; 625  :                         _Pnode->_Color         = _Fixnodeparent->_Color;

	mov	edx, DWORD PTR __Pnode$[ebp]
	mov	eax, DWORD PTR __Fixnodeparent$[ebp]
	mov	cl, BYTE PTR [eax+12]
	mov	BYTE PTR [edx+12], cl

; 626  :                         _Fixnodeparent->_Color = _Black;

	mov	edx, DWORD PTR __Fixnodeparent$[ebp]
	mov	BYTE PTR [edx+12], 1

; 627  :                         _Pnode->_Left->_Color  = _Black;

	mov	eax, DWORD PTR __Pnode$[ebp]
	mov	ecx, DWORD PTR [eax]
	mov	BYTE PTR [ecx+12], 1

; 628  :                         _Rrotate(_Fixnodeparent);

	mov	edx, DWORD PTR __Fixnodeparent$[ebp]
	push	edx
	mov	ecx, DWORD PTR _this$[ebp]
	call	?_Rrotate@?$_Tree_val@U?$_Tree_simple_types@UTelegram@@@std@@@std@@QAEXPAU?$_Tree_node@UTelegram@@PAX@2@@Z ; std::_Tree_val<std::_Tree_simple_types<Telegram> >::_Rrotate

; 629  :                         break; // tree now recolored/rebalanced

	jmp	SHORT $LN3@Extract
$LN27@Extract:

; 630  :                     }
; 631  :                 }
; 632  :             }

	jmp	$LN2@Extract
$LN3@Extract:

; 633  : 
; 634  :             _Fixnode->_Color = _Black; // stopping node is black

	mov	eax, DWORD PTR __Fixnode$[ebp]
	mov	BYTE PTR [eax+12], 1
$LN25@Extract:

; 635  :         }
; 636  : 
; 637  :         if (0 < _Mysize) {

	mov	ecx, DWORD PTR _this$[ebp]
	cmp	DWORD PTR [ecx+8], 0
	jbe	SHORT $LN40@Extract

; 638  :             --_Mysize;

	mov	edx, DWORD PTR _this$[ebp]
	mov	eax, DWORD PTR [edx+8]
	sub	eax, 1
	mov	ecx, DWORD PTR _this$[ebp]
	mov	DWORD PTR [ecx+8], eax
$LN40@Extract:

; 639  :         }
; 640  : 
; 641  :         return _Erasednode;

	mov	eax, DWORD PTR __Erasednode$[ebp]

; 642  :     }

	add	esp, 28					; 0000001cH
	cmp	ebp, esp
	call	__RTC_CheckEsp
	mov	esp, ebp
	pop	ebp
	ret	4
?_Extract@?$_Tree_val@U?$_Tree_simple_types@UTelegram@@@std@@@std@@QAEPAU?$_Tree_node@UTelegram@@PAX@2@V?$_Tree_unchecked_const_iterator@V?$_Tree_val@U?$_Tree_simple_types@UTelegram@@@std@@@std@@U_Iterator_base0@2@@2@@Z ENDP ; std::_Tree_val<std::_Tree_simple_types<Telegram> >::_Extract
_TEXT	ENDS
; Function compile flags: /Odtp /RTCsu
; File C:\Program Files\Microsoft Visual Studio\2022\Community\VC\Tools\MSVC\14.32.31326\include\xtree
;	COMDAT ?_Rrotate@?$_Tree_val@U?$_Tree_simple_types@UTelegram@@@std@@@std@@QAEXPAU?$_Tree_node@UTelegram@@PAX@2@@Z
_TEXT	SEGMENT
__Pnode$ = -8						; size = 4
_this$ = -4						; size = 4
__Wherenode$ = 8					; size = 4
?_Rrotate@?$_Tree_val@U?$_Tree_simple_types@UTelegram@@@std@@@std@@QAEXPAU?$_Tree_node@UTelegram@@PAX@2@@Z PROC ; std::_Tree_val<std::_Tree_simple_types<Telegram> >::_Rrotate, COMDAT
; _this$ = ecx

; 480  :     void _Rrotate(_Nodeptr _Wherenode) noexcept { // promote left node to root of subtree

	push	ebp
	mov	ebp, esp
	sub	esp, 8
	mov	DWORD PTR _this$[ebp], ecx

; 481  :         _Nodeptr _Pnode   = _Wherenode->_Left;

	mov	eax, DWORD PTR __Wherenode$[ebp]
	mov	ecx, DWORD PTR [eax]
	mov	DWORD PTR __Pnode$[ebp], ecx

; 482  :         _Wherenode->_Left = _Pnode->_Right;

	mov	edx, DWORD PTR __Wherenode$[ebp]
	mov	eax, DWORD PTR __Pnode$[ebp]
	mov	ecx, DWORD PTR [eax+8]
	mov	DWORD PTR [edx], ecx

; 483  : 
; 484  :         if (!_Pnode->_Right->_Isnil) {

	mov	edx, DWORD PTR __Pnode$[ebp]
	mov	eax, DWORD PTR [edx+8]
	movsx	ecx, BYTE PTR [eax+13]
	test	ecx, ecx
	jne	SHORT $LN2@Rrotate

; 485  :             _Pnode->_Right->_Parent = _Wherenode;

	mov	edx, DWORD PTR __Pnode$[ebp]
	mov	eax, DWORD PTR [edx+8]
	mov	ecx, DWORD PTR __Wherenode$[ebp]
	mov	DWORD PTR [eax+4], ecx
$LN2@Rrotate:

; 486  :         }
; 487  : 
; 488  :         _Pnode->_Parent = _Wherenode->_Parent;

	mov	edx, DWORD PTR __Pnode$[ebp]
	mov	eax, DWORD PTR __Wherenode$[ebp]
	mov	ecx, DWORD PTR [eax+4]
	mov	DWORD PTR [edx+4], ecx

; 489  : 
; 490  :         if (_Wherenode == _Myhead->_Parent) {

	mov	edx, DWORD PTR _this$[ebp]
	mov	eax, DWORD PTR [edx+4]
	mov	ecx, DWORD PTR __Wherenode$[ebp]
	cmp	ecx, DWORD PTR [eax+4]
	jne	SHORT $LN3@Rrotate

; 491  :             _Myhead->_Parent = _Pnode;

	mov	edx, DWORD PTR _this$[ebp]
	mov	eax, DWORD PTR [edx+4]
	mov	ecx, DWORD PTR __Pnode$[ebp]
	mov	DWORD PTR [eax+4], ecx
	jmp	SHORT $LN4@Rrotate
$LN3@Rrotate:

; 492  :         } else if (_Wherenode == _Wherenode->_Parent->_Right) {

	mov	edx, DWORD PTR __Wherenode$[ebp]
	mov	eax, DWORD PTR [edx+4]
	mov	ecx, DWORD PTR __Wherenode$[ebp]
	cmp	ecx, DWORD PTR [eax+8]
	jne	SHORT $LN5@Rrotate

; 493  :             _Wherenode->_Parent->_Right = _Pnode;

	mov	edx, DWORD PTR __Wherenode$[ebp]
	mov	eax, DWORD PTR [edx+4]
	mov	ecx, DWORD PTR __Pnode$[ebp]
	mov	DWORD PTR [eax+8], ecx

; 494  :         } else {

	jmp	SHORT $LN4@Rrotate
$LN5@Rrotate:

; 495  :             _Wherenode->_Parent->_Left = _Pnode;

	mov	edx, DWORD PTR __Wherenode$[ebp]
	mov	eax, DWORD PTR [edx+4]
	mov	ecx, DWORD PTR __Pnode$[ebp]
	mov	DWORD PTR [eax], ecx
$LN4@Rrotate:

; 496  :         }
; 497  : 
; 498  :         _Pnode->_Right      = _Wherenode;

	mov	edx, DWORD PTR __Pnode$[ebp]
	mov	eax, DWORD PTR __Wherenode$[ebp]
	mov	DWORD PTR [edx+8], eax

; 499  :         _Wherenode->_Parent = _Pnode;

	mov	ecx, DWORD PTR __Wherenode$[ebp]
	mov	edx, DWORD PTR __Pnode$[ebp]
	mov	DWORD PTR [ecx+4], edx

; 500  :     }

	mov	esp, ebp
	pop	ebp
	ret	4
?_Rrotate@?$_Tree_val@U?$_Tree_simple_types@UTelegram@@@std@@@std@@QAEXPAU?$_Tree_node@UTelegram@@PAX@2@@Z ENDP ; std::_Tree_val<std::_Tree_simple_types<Telegram> >::_Rrotate
_TEXT	ENDS
; Function compile flags: /Odtp /RTCsu
; File C:\Program Files\Microsoft Visual Studio\2022\Community\VC\Tools\MSVC\14.32.31326\include\xtree
;	COMDAT ?_Lrotate@?$_Tree_val@U?$_Tree_simple_types@UTelegram@@@std@@@std@@QAEXPAU?$_Tree_node@UTelegram@@PAX@2@@Z
_TEXT	SEGMENT
__Pnode$ = -8						; size = 4
_this$ = -4						; size = 4
__Wherenode$ = 8					; size = 4
?_Lrotate@?$_Tree_val@U?$_Tree_simple_types@UTelegram@@@std@@@std@@QAEXPAU?$_Tree_node@UTelegram@@PAX@2@@Z PROC ; std::_Tree_val<std::_Tree_simple_types<Telegram> >::_Lrotate, COMDAT
; _this$ = ecx

; 458  :     void _Lrotate(_Nodeptr _Wherenode) noexcept { // promote right node to root of subtree

	push	ebp
	mov	ebp, esp
	sub	esp, 8
	mov	DWORD PTR _this$[ebp], ecx

; 459  :         _Nodeptr _Pnode    = _Wherenode->_Right;

	mov	eax, DWORD PTR __Wherenode$[ebp]
	mov	ecx, DWORD PTR [eax+8]
	mov	DWORD PTR __Pnode$[ebp], ecx

; 460  :         _Wherenode->_Right = _Pnode->_Left;

	mov	edx, DWORD PTR __Wherenode$[ebp]
	mov	eax, DWORD PTR __Pnode$[ebp]
	mov	ecx, DWORD PTR [eax]
	mov	DWORD PTR [edx+8], ecx

; 461  : 
; 462  :         if (!_Pnode->_Left->_Isnil) {

	mov	edx, DWORD PTR __Pnode$[ebp]
	mov	eax, DWORD PTR [edx]
	movsx	ecx, BYTE PTR [eax+13]
	test	ecx, ecx
	jne	SHORT $LN2@Lrotate

; 463  :             _Pnode->_Left->_Parent = _Wherenode;

	mov	edx, DWORD PTR __Pnode$[ebp]
	mov	eax, DWORD PTR [edx]
	mov	ecx, DWORD PTR __Wherenode$[ebp]
	mov	DWORD PTR [eax+4], ecx
$LN2@Lrotate:

; 464  :         }
; 465  : 
; 466  :         _Pnode->_Parent = _Wherenode->_Parent;

	mov	edx, DWORD PTR __Pnode$[ebp]
	mov	eax, DWORD PTR __Wherenode$[ebp]
	mov	ecx, DWORD PTR [eax+4]
	mov	DWORD PTR [edx+4], ecx

; 467  : 
; 468  :         if (_Wherenode == _Myhead->_Parent) {

	mov	edx, DWORD PTR _this$[ebp]
	mov	eax, DWORD PTR [edx+4]
	mov	ecx, DWORD PTR __Wherenode$[ebp]
	cmp	ecx, DWORD PTR [eax+4]
	jne	SHORT $LN3@Lrotate

; 469  :             _Myhead->_Parent = _Pnode;

	mov	edx, DWORD PTR _this$[ebp]
	mov	eax, DWORD PTR [edx+4]
	mov	ecx, DWORD PTR __Pnode$[ebp]
	mov	DWORD PTR [eax+4], ecx
	jmp	SHORT $LN4@Lrotate
$LN3@Lrotate:

; 470  :         } else if (_Wherenode == _Wherenode->_Parent->_Left) {

	mov	edx, DWORD PTR __Wherenode$[ebp]
	mov	eax, DWORD PTR [edx+4]
	mov	ecx, DWORD PTR __Wherenode$[ebp]
	cmp	ecx, DWORD PTR [eax]
	jne	SHORT $LN5@Lrotate

; 471  :             _Wherenode->_Parent->_Left = _Pnode;

	mov	edx, DWORD PTR __Wherenode$[ebp]
	mov	eax, DWORD PTR [edx+4]
	mov	ecx, DWORD PTR __Pnode$[ebp]
	mov	DWORD PTR [eax], ecx

; 472  :         } else {

	jmp	SHORT $LN4@Lrotate
$LN5@Lrotate:

; 473  :             _Wherenode->_Parent->_Right = _Pnode;

	mov	edx, DWORD PTR __Wherenode$[ebp]
	mov	eax, DWORD PTR [edx+4]
	mov	ecx, DWORD PTR __Pnode$[ebp]
	mov	DWORD PTR [eax+8], ecx
$LN4@Lrotate:

; 474  :         }
; 475  : 
; 476  :         _Pnode->_Left       = _Wherenode;

	mov	edx, DWORD PTR __Pnode$[ebp]
	mov	eax, DWORD PTR __Wherenode$[ebp]
	mov	DWORD PTR [edx], eax

; 477  :         _Wherenode->_Parent = _Pnode;

	mov	ecx, DWORD PTR __Wherenode$[ebp]
	mov	edx, DWORD PTR __Pnode$[ebp]
	mov	DWORD PTR [ecx+4], edx

; 478  :     }

	mov	esp, ebp
	pop	ebp
	ret	4
?_Lrotate@?$_Tree_val@U?$_Tree_simple_types@UTelegram@@@std@@@std@@QAEXPAU?$_Tree_node@UTelegram@@PAX@2@@Z ENDP ; std::_Tree_val<std::_Tree_simple_types<Telegram> >::_Lrotate
_TEXT	ENDS
; Function compile flags: /Odtp /RTCsu
; File C:\Program Files\Microsoft Visual Studio\2022\Community\VC\Tools\MSVC\14.32.31326\include\xtree
;	COMDAT ?_Min@?$_Tree_val@U?$_Tree_simple_types@UTelegram@@@std@@@std@@SAPAU?$_Tree_node@UTelegram@@PAX@2@PAU32@@Z
_TEXT	SEGMENT
__Pnode$ = 8						; size = 4
?_Min@?$_Tree_val@U?$_Tree_simple_types@UTelegram@@@std@@@std@@SAPAU?$_Tree_node@UTelegram@@PAX@2@PAU32@@Z PROC ; std::_Tree_val<std::_Tree_simple_types<Telegram> >::_Min, COMDAT

; 450  :     static _Nodeptr _Min(_Nodeptr _Pnode) noexcept { // return leftmost node in subtree at _Pnode

	push	ebp
	mov	ebp, esp
$LN2@Min:

; 451  :         while (!_Pnode->_Left->_Isnil) {

	mov	eax, DWORD PTR __Pnode$[ebp]
	mov	ecx, DWORD PTR [eax]
	movsx	edx, BYTE PTR [ecx+13]
	test	edx, edx
	jne	SHORT $LN3@Min

; 452  :             _Pnode = _Pnode->_Left;

	mov	eax, DWORD PTR __Pnode$[ebp]
	mov	ecx, DWORD PTR [eax]
	mov	DWORD PTR __Pnode$[ebp], ecx

; 453  :         }

	jmp	SHORT $LN2@Min
$LN3@Min:

; 454  : 
; 455  :         return _Pnode;

	mov	eax, DWORD PTR __Pnode$[ebp]

; 456  :     }

	pop	ebp
	ret	0
?_Min@?$_Tree_val@U?$_Tree_simple_types@UTelegram@@@std@@@std@@SAPAU?$_Tree_node@UTelegram@@PAX@2@PAU32@@Z ENDP ; std::_Tree_val<std::_Tree_simple_types<Telegram> >::_Min
_TEXT	ENDS
; Function compile flags: /Odtp /RTCsu
; File C:\Program Files\Microsoft Visual Studio\2022\Community\VC\Tools\MSVC\14.32.31326\include\xtree
;	COMDAT ?_Max@?$_Tree_val@U?$_Tree_simple_types@UTelegram@@@std@@@std@@SAPAU?$_Tree_node@UTelegram@@PAX@2@PAU32@@Z
_TEXT	SEGMENT
__Pnode$ = 8						; size = 4
?_Max@?$_Tree_val@U?$_Tree_simple_types@UTelegram@@@std@@@std@@SAPAU?$_Tree_node@UTelegram@@PAX@2@PAU32@@Z PROC ; std::_Tree_val<std::_Tree_simple_types<Telegram> >::_Max, COMDAT

; 442  :     static _Nodeptr _Max(_Nodeptr _Pnode) noexcept { // return rightmost node in subtree at _Pnode

	push	ebp
	mov	ebp, esp
$LN2@Max:

; 443  :         while (!_Pnode->_Right->_Isnil) {

	mov	eax, DWORD PTR __Pnode$[ebp]
	mov	ecx, DWORD PTR [eax+8]
	movsx	edx, BYTE PTR [ecx+13]
	test	edx, edx
	jne	SHORT $LN3@Max

; 444  :             _Pnode = _Pnode->_Right;

	mov	eax, DWORD PTR __Pnode$[ebp]
	mov	ecx, DWORD PTR [eax+8]
	mov	DWORD PTR __Pnode$[ebp], ecx

; 445  :         }

	jmp	SHORT $LN2@Max
$LN3@Max:

; 446  : 
; 447  :         return _Pnode;

	mov	eax, DWORD PTR __Pnode$[ebp]

; 448  :     }

	pop	ebp
	ret	0
?_Max@?$_Tree_val@U?$_Tree_simple_types@UTelegram@@@std@@@std@@SAPAU?$_Tree_node@UTelegram@@PAX@2@PAU32@@Z ENDP ; std::_Tree_val<std::_Tree_simple_types<Telegram> >::_Max
_TEXT	ENDS
; Function compile flags: /Odtp /RTCsu
; File C:\Program Files\Microsoft Visual Studio\2022\Community\VC\Tools\MSVC\14.32.31326\include\xtree
;	COMDAT ??0?$_Tree_val@U?$_Tree_simple_types@UTelegram@@@std@@@std@@QAE@XZ
_TEXT	SEGMENT
_this$ = -4						; size = 4
??0?$_Tree_val@U?$_Tree_simple_types@UTelegram@@@std@@@std@@QAE@XZ PROC ; std::_Tree_val<std::_Tree_simple_types<Telegram> >::_Tree_val<std::_Tree_simple_types<Telegram> >, COMDAT
; _this$ = ecx

; 435  :     _Tree_val() noexcept : _Myhead(), _Mysize(0) {}

	push	ebp
	mov	ebp, esp
	push	ecx
	mov	DWORD PTR [ebp-4], -858993460		; ccccccccH
	mov	DWORD PTR _this$[ebp], ecx
	mov	ecx, DWORD PTR _this$[ebp]
	call	??0_Container_base12@std@@QAE@XZ	; std::_Container_base12::_Container_base12
	mov	eax, DWORD PTR _this$[ebp]
	mov	DWORD PTR [eax+4], 0
	mov	ecx, DWORD PTR _this$[ebp]
	mov	DWORD PTR [ecx+8], 0
	mov	eax, DWORD PTR _this$[ebp]
	add	esp, 4
	cmp	ebp, esp
	call	__RTC_CheckEsp
	mov	esp, ebp
	pop	ebp
	ret	0
??0?$_Tree_val@U?$_Tree_simple_types@UTelegram@@@std@@@std@@QAE@XZ ENDP ; std::_Tree_val<std::_Tree_simple_types<Telegram> >::_Tree_val<std::_Tree_simple_types<Telegram> >
_TEXT	ENDS
; Function compile flags: /Odtp /RTCsu
; File C:\Program Files\Microsoft Visual Studio\2022\Community\VC\Tools\MSVC\14.32.31326\include\xstddef
;	COMDAT ??R?$less@UTelegram@@@std@@QBE_NABUTelegram@@0@Z
_TEXT	SEGMENT
_this$ = -4						; size = 4
__Left$ = 8						; size = 4
__Right$ = 12						; size = 4
??R?$less@UTelegram@@@std@@QBE_NABUTelegram@@0@Z PROC	; std::less<Telegram>::operator(), COMDAT
; _this$ = ecx

; 116  :     _NODISCARD constexpr bool operator()(const _Ty& _Left, const _Ty& _Right) const {

	push	ebp
	mov	ebp, esp
	push	ecx
	mov	DWORD PTR [ebp-4], -858993460		; ccccccccH
	mov	DWORD PTR _this$[ebp], ecx

; 117  :         return _Left < _Right;

	mov	eax, DWORD PTR __Right$[ebp]
	push	eax
	mov	ecx, DWORD PTR __Left$[ebp]
	push	ecx
	call	??M@YA_NABUTelegram@@0@Z		; operator<
	add	esp, 8

; 118  :     }

	add	esp, 4
	cmp	ebp, esp
	call	__RTC_CheckEsp
	mov	esp, ebp
	pop	ebp
	ret	8
??R?$less@UTelegram@@@std@@QBE_NABUTelegram@@0@Z ENDP	; std::less<Telegram>::operator()
_TEXT	ENDS
; Function compile flags: /Odtp /RTCsu
; File C:\Program Files\Microsoft Visual Studio\2022\Community\VC\Tools\MSVC\14.32.31326\include\xtree
;	COMDAT ?_Get_scary@?$_Tree@V?$_Tset_traits@UTelegram@@U?$less@UTelegram@@@std@@V?$allocator@UTelegram@@@3@$0A@@std@@@std@@IBEPBV?$_Tree_val@U?$_Tree_simple_types@UTelegram@@@std@@@2@XZ
_TEXT	SEGMENT
_this$ = -4						; size = 4
?_Get_scary@?$_Tree@V?$_Tset_traits@UTelegram@@U?$less@UTelegram@@@std@@V?$allocator@UTelegram@@@3@$0A@@std@@@std@@IBEPBV?$_Tree_val@U?$_Tree_simple_types@UTelegram@@@std@@@2@XZ PROC ; std::_Tree<std::_Tset_traits<Telegram,std::less<Telegram>,std::allocator<Telegram>,0> >::_Get_scary, COMDAT
; _this$ = ecx

; 1963 :     const _Scary_val* _Get_scary() const noexcept {

	push	ebp
	mov	ebp, esp
	push	ecx
	mov	DWORD PTR [ebp-4], -858993460		; ccccccccH
	mov	DWORD PTR _this$[ebp], ecx

; 1964 :         return _STD addressof(_Mypair._Myval2._Myval2);

	mov	eax, DWORD PTR _this$[ebp]
	push	eax
	call	??$addressof@$$CBV?$_Tree_val@U?$_Tree_simple_types@UTelegram@@@std@@@std@@@std@@YAPBV?$_Tree_val@U?$_Tree_simple_types@UTelegram@@@std@@@0@ABV10@@Z ; std::addressof<std::_Tree_val<std::_Tree_simple_types<Telegram> > const >
	add	esp, 4

; 1965 :     }

	add	esp, 4
	cmp	ebp, esp
	call	__RTC_CheckEsp
	mov	esp, ebp
	pop	ebp
	ret	0
?_Get_scary@?$_Tree@V?$_Tset_traits@UTelegram@@U?$less@UTelegram@@@std@@V?$allocator@UTelegram@@@3@$0A@@std@@@std@@IBEPBV?$_Tree_val@U?$_Tree_simple_types@UTelegram@@@std@@@2@XZ ENDP ; std::_Tree<std::_Tset_traits<Telegram,std::less<Telegram>,std::allocator<Telegram>,0> >::_Get_scary
_TEXT	ENDS
; Function compile flags: /Odtp /RTCsu
; File C:\Program Files\Microsoft Visual Studio\2022\Community\VC\Tools\MSVC\14.32.31326\include\xtree
;	COMDAT ?_Get_scary@?$_Tree@V?$_Tset_traits@UTelegram@@U?$less@UTelegram@@@std@@V?$allocator@UTelegram@@@3@$0A@@std@@@std@@IAEPAV?$_Tree_val@U?$_Tree_simple_types@UTelegram@@@std@@@2@XZ
_TEXT	SEGMENT
_this$ = -4						; size = 4
?_Get_scary@?$_Tree@V?$_Tset_traits@UTelegram@@U?$less@UTelegram@@@std@@V?$allocator@UTelegram@@@3@$0A@@std@@@std@@IAEPAV?$_Tree_val@U?$_Tree_simple_types@UTelegram@@@std@@@2@XZ PROC ; std::_Tree<std::_Tset_traits<Telegram,std::less<Telegram>,std::allocator<Telegram>,0> >::_Get_scary, COMDAT
; _this$ = ecx

; 1959 :     _Scary_val* _Get_scary() noexcept {

	push	ebp
	mov	ebp, esp
	push	ecx
	mov	DWORD PTR [ebp-4], -858993460		; ccccccccH
	mov	DWORD PTR _this$[ebp], ecx

; 1960 :         return _STD addressof(_Mypair._Myval2._Myval2);

	mov	eax, DWORD PTR _this$[ebp]
	push	eax
	call	??$addressof@V?$_Tree_val@U?$_Tree_simple_types@UTelegram@@@std@@@std@@@std@@YAPAV?$_Tree_val@U?$_Tree_simple_types@UTelegram@@@std@@@0@AAV10@@Z ; std::addressof<std::_Tree_val<std::_Tree_simple_types<Telegram> > >
	add	esp, 4

; 1961 :     }

	add	esp, 4
	cmp	ebp, esp
	call	__RTC_CheckEsp
	mov	esp, ebp
	pop	ebp
	ret	0
?_Get_scary@?$_Tree@V?$_Tset_traits@UTelegram@@U?$less@UTelegram@@@std@@V?$allocator@UTelegram@@@3@$0A@@std@@@std@@IAEPAV?$_Tree_val@U?$_Tree_simple_types@UTelegram@@@std@@@2@XZ ENDP ; std::_Tree<std::_Tset_traits<Telegram,std::less<Telegram>,std::allocator<Telegram>,0> >::_Get_scary
_TEXT	ENDS
; Function compile flags: /Odtp /RTCsu
; File C:\Program Files\Microsoft Visual Studio\2022\Community\VC\Tools\MSVC\14.32.31326\include\xtree
;	COMDAT ?_Getal@?$_Tree@V?$_Tset_traits@UTelegram@@U?$less@UTelegram@@@std@@V?$allocator@UTelegram@@@3@$0A@@std@@@std@@IBEABV?$allocator@U?$_Tree_node@UTelegram@@PAX@std@@@2@XZ
_TEXT	SEGMENT
_this$ = -4						; size = 4
?_Getal@?$_Tree@V?$_Tset_traits@UTelegram@@U?$less@UTelegram@@@std@@V?$allocator@UTelegram@@@3@$0A@@std@@@std@@IBEABV?$allocator@U?$_Tree_node@UTelegram@@PAX@std@@@2@XZ PROC ; std::_Tree<std::_Tset_traits<Telegram,std::less<Telegram>,std::allocator<Telegram>,0> >::_Getal, COMDAT
; _this$ = ecx

; 1955 :     const _Alnode& _Getal() const noexcept {

	push	ebp
	mov	ebp, esp
	push	ecx
	mov	DWORD PTR [ebp-4], -858993460		; ccccccccH
	mov	DWORD PTR _this$[ebp], ecx

; 1956 :         return _Mypair._Myval2._Get_first();

	mov	ecx, DWORD PTR _this$[ebp]
	call	?_Get_first@?$_Compressed_pair@V?$allocator@U?$_Tree_node@UTelegram@@PAX@std@@@std@@V?$_Tree_val@U?$_Tree_simple_types@UTelegram@@@std@@@2@$00@std@@QBEABV?$allocator@U?$_Tree_node@UTelegram@@PAX@std@@@2@XZ ; std::_Compressed_pair<std::allocator<std::_Tree_node<Telegram,void *> >,std::_Tree_val<std::_Tree_simple_types<Telegram> >,1>::_Get_first

; 1957 :     }

	add	esp, 4
	cmp	ebp, esp
	call	__RTC_CheckEsp
	mov	esp, ebp
	pop	ebp
	ret	0
?_Getal@?$_Tree@V?$_Tset_traits@UTelegram@@U?$less@UTelegram@@@std@@V?$allocator@UTelegram@@@3@$0A@@std@@@std@@IBEABV?$allocator@U?$_Tree_node@UTelegram@@PAX@std@@@2@XZ ENDP ; std::_Tree<std::_Tset_traits<Telegram,std::less<Telegram>,std::allocator<Telegram>,0> >::_Getal
_TEXT	ENDS
; Function compile flags: /Odtp /RTCsu
; File C:\Program Files\Microsoft Visual Studio\2022\Community\VC\Tools\MSVC\14.32.31326\include\xtree
;	COMDAT ?_Getal@?$_Tree@V?$_Tset_traits@UTelegram@@U?$less@UTelegram@@@std@@V?$allocator@UTelegram@@@3@$0A@@std@@@std@@IAEAAV?$allocator@U?$_Tree_node@UTelegram@@PAX@std@@@2@XZ
_TEXT	SEGMENT
_this$ = -4						; size = 4
?_Getal@?$_Tree@V?$_Tset_traits@UTelegram@@U?$less@UTelegram@@@std@@V?$allocator@UTelegram@@@3@$0A@@std@@@std@@IAEAAV?$allocator@U?$_Tree_node@UTelegram@@PAX@std@@@2@XZ PROC ; std::_Tree<std::_Tset_traits<Telegram,std::less<Telegram>,std::allocator<Telegram>,0> >::_Getal, COMDAT
; _this$ = ecx

; 1951 :     _Alnode& _Getal() noexcept {

	push	ebp
	mov	ebp, esp
	push	ecx
	mov	DWORD PTR [ebp-4], -858993460		; ccccccccH
	mov	DWORD PTR _this$[ebp], ecx

; 1952 :         return _Mypair._Myval2._Get_first();

	mov	ecx, DWORD PTR _this$[ebp]
	call	?_Get_first@?$_Compressed_pair@V?$allocator@U?$_Tree_node@UTelegram@@PAX@std@@@std@@V?$_Tree_val@U?$_Tree_simple_types@UTelegram@@@std@@@2@$00@std@@QAEAAV?$allocator@U?$_Tree_node@UTelegram@@PAX@std@@@2@XZ ; std::_Compressed_pair<std::allocator<std::_Tree_node<Telegram,void *> >,std::_Tree_val<std::_Tree_simple_types<Telegram> >,1>::_Get_first

; 1953 :     }

	add	esp, 4
	cmp	ebp, esp
	call	__RTC_CheckEsp
	mov	esp, ebp
	pop	ebp
	ret	0
?_Getal@?$_Tree@V?$_Tset_traits@UTelegram@@U?$less@UTelegram@@@std@@V?$allocator@UTelegram@@@3@$0A@@std@@@std@@IAEAAV?$allocator@U?$_Tree_node@UTelegram@@PAX@std@@@2@XZ ENDP ; std::_Tree<std::_Tset_traits<Telegram,std::less<Telegram>,std::allocator<Telegram>,0> >::_Getal
_TEXT	ENDS
; Function compile flags: /Odtp /RTCsu
; File C:\Program Files\Microsoft Visual Studio\2022\Community\VC\Tools\MSVC\14.32.31326\include\xtree
;	COMDAT ?_Getcomp@?$_Tree@V?$_Tset_traits@UTelegram@@U?$less@UTelegram@@@std@@V?$allocator@UTelegram@@@3@$0A@@std@@@std@@IBEABU?$less@UTelegram@@@2@XZ
_TEXT	SEGMENT
_this$ = -4						; size = 4
?_Getcomp@?$_Tree@V?$_Tset_traits@UTelegram@@U?$less@UTelegram@@@std@@V?$allocator@UTelegram@@@3@$0A@@std@@@std@@IBEABU?$less@UTelegram@@@2@XZ PROC ; std::_Tree<std::_Tset_traits<Telegram,std::less<Telegram>,std::allocator<Telegram>,0> >::_Getcomp, COMDAT
; _this$ = ecx

; 1947 :     const key_compare& _Getcomp() const noexcept {

	push	ebp
	mov	ebp, esp
	push	ecx
	mov	DWORD PTR [ebp-4], -858993460		; ccccccccH
	mov	DWORD PTR _this$[ebp], ecx

; 1948 :         return _Mypair._Get_first();

	mov	ecx, DWORD PTR _this$[ebp]
	call	?_Get_first@?$_Compressed_pair@U?$less@UTelegram@@@std@@V?$_Compressed_pair@V?$allocator@U?$_Tree_node@UTelegram@@PAX@std@@@std@@V?$_Tree_val@U?$_Tree_simple_types@UTelegram@@@std@@@2@$00@2@$00@std@@QBEABU?$less@UTelegram@@@2@XZ ; std::_Compressed_pair<std::less<Telegram>,std::_Compressed_pair<std::allocator<std::_Tree_node<Telegram,void *> >,std::_Tree_val<std::_Tree_simple_types<Telegram> >,1>,1>::_Get_first

; 1949 :     }

	add	esp, 4
	cmp	ebp, esp
	call	__RTC_CheckEsp
	mov	esp, ebp
	pop	ebp
	ret	0
?_Getcomp@?$_Tree@V?$_Tset_traits@UTelegram@@U?$less@UTelegram@@@std@@V?$allocator@UTelegram@@@3@$0A@@std@@@std@@IBEABU?$less@UTelegram@@@2@XZ ENDP ; std::_Tree<std::_Tset_traits<Telegram,std::less<Telegram>,std::allocator<Telegram>,0> >::_Getcomp
_TEXT	ENDS
; Function compile flags: /Odtp /RTCsu
; File C:\Program Files\Microsoft Visual Studio\2022\Community\VC\Tools\MSVC\14.32.31326\include\xtree
;	COMDAT ?_Alloc_sentinel_and_proxy@?$_Tree@V?$_Tset_traits@UTelegram@@U?$less@UTelegram@@@std@@V?$allocator@UTelegram@@@3@$0A@@std@@@std@@IAEXXZ
_TEXT	SEGMENT
__Proxy$ = -48						; size = 8
_$S17$ = -29						; size = 1
__Alproxy$ = -24					; size = 4
__Scary$ = -20						; size = 4
_this$ = -16						; size = 4
__$EHRec$ = -12						; size = 12
?_Alloc_sentinel_and_proxy@?$_Tree@V?$_Tset_traits@UTelegram@@U?$less@UTelegram@@@std@@V?$allocator@UTelegram@@@3@$0A@@std@@@std@@IAEXXZ PROC ; std::_Tree<std::_Tset_traits<Telegram,std::less<Telegram>,std::allocator<Telegram>,0> >::_Alloc_sentinel_and_proxy, COMDAT
; _this$ = ecx

; 1930 :     void _Alloc_sentinel_and_proxy() {

	push	ebp
	mov	ebp, esp
	push	-1
	push	__ehhandler$?_Alloc_sentinel_and_proxy@?$_Tree@V?$_Tset_traits@UTelegram@@U?$less@UTelegram@@@std@@V?$allocator@UTelegram@@@3@$0A@@std@@@std@@IAEXXZ
	mov	eax, DWORD PTR fs:0
	push	eax
	sub	esp, 40					; 00000028H
	push	edi
	push	ecx
	lea	edi, DWORD PTR [ebp-52]
	mov	ecx, 10					; 0000000aH
	mov	eax, -858993460				; ccccccccH
	rep stosd
	pop	ecx
	mov	eax, DWORD PTR ___security_cookie
	xor	eax, ebp
	push	eax
	lea	eax, DWORD PTR __$EHRec$[ebp]
	mov	DWORD PTR fs:0, eax
	mov	DWORD PTR _this$[ebp], ecx

; 1931 :         const auto _Scary = _Get_scary();

	mov	ecx, DWORD PTR _this$[ebp]
	call	?_Get_scary@?$_Tree@V?$_Tset_traits@UTelegram@@U?$less@UTelegram@@@std@@V?$allocator@UTelegram@@@3@$0A@@std@@@std@@IAEPAV?$_Tree_val@U?$_Tree_simple_types@UTelegram@@@std@@@2@XZ ; std::_Tree<std::_Tset_traits<Telegram,std::less<Telegram>,std::allocator<Telegram>,0> >::_Get_scary
	mov	DWORD PTR __Scary$[ebp], eax

; 1932 :         auto&& _Alproxy   = _GET_PROXY_ALLOCATOR(_Alnode, _Getal());

	mov	ecx, DWORD PTR _this$[ebp]
	call	?_Getal@?$_Tree@V?$_Tset_traits@UTelegram@@U?$less@UTelegram@@@std@@V?$allocator@UTelegram@@@3@$0A@@std@@@std@@IAEAAV?$allocator@U?$_Tree_node@UTelegram@@PAX@std@@@2@XZ ; std::_Tree<std::_Tset_traits<Telegram,std::less<Telegram>,std::allocator<Telegram>,0> >::_Getal
	push	eax
	lea	ecx, DWORD PTR _$S17$[ebp]
	call	??$?0U?$_Tree_node@UTelegram@@PAX@std@@@?$allocator@U_Container_proxy@std@@@std@@QAE@ABV?$allocator@U?$_Tree_node@UTelegram@@PAX@std@@@1@@Z ; std::allocator<std::_Container_proxy>::allocator<std::_Container_proxy><std::_Tree_node<Telegram,void *> >
	lea	eax, DWORD PTR _$S17$[ebp]
	mov	DWORD PTR __Alproxy$[ebp], eax

; 1933 :         _Container_proxy_ptr<_Alnode> _Proxy(_Alproxy, *_Scary);

	mov	ecx, DWORD PTR __Scary$[ebp]
	push	ecx
	mov	edx, DWORD PTR __Alproxy$[ebp]
	push	edx
	lea	ecx, DWORD PTR __Proxy$[ebp]
	call	??0?$_Container_proxy_ptr12@V?$allocator@U_Container_proxy@std@@@std@@@std@@QAE@AAV?$allocator@U_Container_proxy@std@@@1@AAU_Container_base12@1@@Z ; std::_Container_proxy_ptr12<std::allocator<std::_Container_proxy> >::_Container_proxy_ptr12<std::allocator<std::_Container_proxy> >
	mov	DWORD PTR __$EHRec$[ebp+8], 0

; 1934 :         _Scary->_Myhead = _Node::_Buyheadnode(_Getal());

	mov	ecx, DWORD PTR _this$[ebp]
	call	?_Getal@?$_Tree@V?$_Tset_traits@UTelegram@@U?$less@UTelegram@@@std@@V?$allocator@UTelegram@@@3@$0A@@std@@@std@@IAEAAV?$allocator@U?$_Tree_node@UTelegram@@PAX@std@@@2@XZ ; std::_Tree<std::_Tset_traits<Telegram,std::less<Telegram>,std::allocator<Telegram>,0> >::_Getal
	push	eax
	call	??$_Buyheadnode@V?$allocator@U?$_Tree_node@UTelegram@@PAX@std@@@std@@@?$_Tree_node@UTelegram@@PAX@std@@SAPAU01@AAV?$allocator@U?$_Tree_node@UTelegram@@PAX@std@@@1@@Z ; std::_Tree_node<Telegram,void *>::_Buyheadnode<std::allocator<std::_Tree_node<Telegram,void *> > >
	add	esp, 4
	mov	ecx, DWORD PTR __Scary$[ebp]
	mov	DWORD PTR [ecx+4], eax

; 1935 :         _Proxy._Release();

	lea	ecx, DWORD PTR __Proxy$[ebp]
	call	?_Release@_Basic_container_proxy_ptr12@std@@QAEXXZ ; std::_Basic_container_proxy_ptr12::_Release

; 1936 :     }

	mov	DWORD PTR __$EHRec$[ebp+8], -1
	lea	ecx, DWORD PTR __Proxy$[ebp]
	call	??1?$_Container_proxy_ptr12@V?$allocator@U_Container_proxy@std@@@std@@@std@@QAE@XZ ; std::_Container_proxy_ptr12<std::allocator<std::_Container_proxy> >::~_Container_proxy_ptr12<std::allocator<std::_Container_proxy> >
	push	edx
	mov	ecx, ebp
	push	eax
	lea	edx, DWORD PTR $LN8@Alloc_sent
	call	@_RTC_CheckStackVars@8
	pop	eax
	pop	edx
	mov	ecx, DWORD PTR __$EHRec$[ebp]
	mov	DWORD PTR fs:0, ecx
	pop	ecx
	pop	edi
	add	esp, 52					; 00000034H
	cmp	ebp, esp
	call	__RTC_CheckEsp
	mov	esp, ebp
	pop	ebp
	ret	0
$LN8@Alloc_sent:
	DD	2
	DD	$LN7@Alloc_sent
$LN7@Alloc_sent:
	DD	-29					; ffffffe3H
	DD	1
	DD	$LN4@Alloc_sent
	DD	-48					; ffffffd0H
	DD	8
	DD	$LN5@Alloc_sent
$LN5@Alloc_sent:
	DB	95					; 0000005fH
	DB	80					; 00000050H
	DB	114					; 00000072H
	DB	111					; 0000006fH
	DB	120					; 00000078H
	DB	121					; 00000079H
	DB	0
$LN4@Alloc_sent:
	DB	36					; 00000024H
	DB	83					; 00000053H
	DB	49					; 00000031H
	DB	55					; 00000037H
	DB	0
_TEXT	ENDS
;	COMDAT text$x
text$x	SEGMENT
__unwindfunclet$?_Alloc_sentinel_and_proxy@?$_Tree@V?$_Tset_traits@UTelegram@@U?$less@UTelegram@@@std@@V?$allocator@UTelegram@@@3@$0A@@std@@@std@@IAEXXZ$0:
	lea	ecx, DWORD PTR __Proxy$[ebp]
	jmp	??1?$_Container_proxy_ptr12@V?$allocator@U_Container_proxy@std@@@std@@@std@@QAE@XZ ; std::_Container_proxy_ptr12<std::allocator<std::_Container_proxy> >::~_Container_proxy_ptr12<std::allocator<std::_Container_proxy> >
	int	3
	int	3
	int	3
	int	3
	int	3
__ehhandler$?_Alloc_sentinel_and_proxy@?$_Tree@V?$_Tset_traits@UTelegram@@U?$less@UTelegram@@@std@@V?$allocator@UTelegram@@@3@$0A@@std@@@std@@IAEXXZ:
	npad	1
	npad	1
	mov	edx, DWORD PTR [esp+8]
	lea	eax, DWORD PTR [edx+12]
	mov	ecx, DWORD PTR [edx-48]
	xor	ecx, eax
	call	@__security_check_cookie@4
	mov	eax, OFFSET __ehfuncinfo$?_Alloc_sentinel_and_proxy@?$_Tree@V?$_Tset_traits@UTelegram@@U?$less@UTelegram@@@std@@V?$allocator@UTelegram@@@3@$0A@@std@@@std@@IAEXXZ
	jmp	___CxxFrameHandler3
text$x	ENDS
?_Alloc_sentinel_and_proxy@?$_Tree@V?$_Tset_traits@UTelegram@@U?$less@UTelegram@@@std@@V?$allocator@UTelegram@@@3@$0A@@std@@@std@@IAEXXZ ENDP ; std::_Tree<std::_Tset_traits<Telegram,std::less<Telegram>,std::allocator<Telegram>,0> >::_Alloc_sentinel_and_proxy
; Function compile flags: /Odtp /RTCsu
; File C:\Program Files\Microsoft Visual Studio\2022\Community\VC\Tools\MSVC\14.32.31326\include\xtree
;	COMDAT ?_Check_grow_by_1@?$_Tree@V?$_Tset_traits@UTelegram@@U?$less@UTelegram@@@std@@V?$allocator@UTelegram@@@3@$0A@@std@@@std@@IAEXXZ
_TEXT	SEGMENT
_this$ = -4						; size = 4
?_Check_grow_by_1@?$_Tree@V?$_Tset_traits@UTelegram@@U?$less@UTelegram@@@std@@V?$allocator@UTelegram@@@3@$0A@@std@@@std@@IAEXXZ PROC ; std::_Tree<std::_Tset_traits<Telegram,std::less<Telegram>,std::allocator<Telegram>,0> >::_Check_grow_by_1, COMDAT
; _this$ = ecx

; 1618 :     void _Check_grow_by_1() {

	push	ebp
	mov	ebp, esp
	push	ecx
	push	esi
	mov	DWORD PTR [ebp-4], -858993460		; ccccccccH
	mov	DWORD PTR _this$[ebp], ecx

; 1619 :         if (max_size() == _Get_scary()->_Mysize) {

	mov	ecx, DWORD PTR _this$[ebp]
	call	?max_size@?$_Tree@V?$_Tset_traits@UTelegram@@U?$less@UTelegram@@@std@@V?$allocator@UTelegram@@@3@$0A@@std@@@std@@QBEIXZ ; std::_Tree<std::_Tset_traits<Telegram,std::less<Telegram>,std::allocator<Telegram>,0> >::max_size
	mov	esi, eax
	mov	ecx, DWORD PTR _this$[ebp]
	call	?_Get_scary@?$_Tree@V?$_Tset_traits@UTelegram@@U?$less@UTelegram@@@std@@V?$allocator@UTelegram@@@3@$0A@@std@@@std@@IAEPAV?$_Tree_val@U?$_Tree_simple_types@UTelegram@@@std@@@2@XZ ; std::_Tree<std::_Tset_traits<Telegram,std::less<Telegram>,std::allocator<Telegram>,0> >::_Get_scary
	cmp	esi, DWORD PTR [eax+8]
	jne	SHORT $LN3@Check_grow

; 1620 :             _Throw_tree_length_error();

	call	?_Throw_tree_length_error@std@@YAXXZ	; std::_Throw_tree_length_error
$LN3@Check_grow:

; 1621 :         }
; 1622 :     }

	pop	esi
	add	esp, 4
	cmp	ebp, esp
	call	__RTC_CheckEsp
	mov	esp, ebp
	pop	ebp
	ret	0
?_Check_grow_by_1@?$_Tree@V?$_Tset_traits@UTelegram@@U?$less@UTelegram@@@std@@V?$allocator@UTelegram@@@3@$0A@@std@@@std@@IAEXXZ ENDP ; std::_Tree<std::_Tset_traits<Telegram,std::less<Telegram>,std::allocator<Telegram>,0> >::_Check_grow_by_1
_TEXT	ENDS
; Function compile flags: /Odtp /RTCsu
; File C:\Program Files\Microsoft Visual Studio\2022\Community\VC\Tools\MSVC\14.32.31326\include\xtree
;	COMDAT ?erase@?$_Tree@V?$_Tset_traits@UTelegram@@U?$less@UTelegram@@@std@@V?$allocator@UTelegram@@@3@$0A@@std@@@std@@QAE?AV?$_Tree_const_iterator@V?$_Tree_val@U?$_Tree_simple_types@UTelegram@@@std@@@std@@@2@V32@@Z
_TEXT	SEGMENT
$T1 = -12						; size = 4
__Scary$ = -8						; size = 4
_this$ = -4						; size = 4
___$ReturnUdt$ = 8					; size = 4
__Where$ = 12						; size = 12
?erase@?$_Tree@V?$_Tset_traits@UTelegram@@U?$less@UTelegram@@@std@@V?$allocator@UTelegram@@@3@$0A@@std@@@std@@QAE?AV?$_Tree_const_iterator@V?$_Tree_val@U?$_Tree_simple_types@UTelegram@@@std@@@std@@@2@V32@@Z PROC ; std::_Tree<std::_Tset_traits<Telegram,std::less<Telegram>,std::allocator<Telegram>,0> >::erase, COMDAT
; _this$ = ecx

; 1318 :     iterator erase(const_iterator _Where) noexcept /* strengthened */ {

	push	ebp
	mov	ebp, esp
	sub	esp, 12					; 0000000cH
	mov	DWORD PTR [ebp-12], -858993460		; ccccccccH
	mov	DWORD PTR [ebp-8], -858993460		; ccccccccH
	mov	DWORD PTR [ebp-4], -858993460		; ccccccccH
	mov	DWORD PTR _this$[ebp], ecx

; 1319 :         const auto _Scary = _Get_scary();

	mov	ecx, DWORD PTR _this$[ebp]
	call	?_Get_scary@?$_Tree@V?$_Tset_traits@UTelegram@@U?$less@UTelegram@@@std@@V?$allocator@UTelegram@@@3@$0A@@std@@@std@@IAEPAV?$_Tree_val@U?$_Tree_simple_types@UTelegram@@@std@@@2@XZ ; std::_Tree<std::_Tset_traits<Telegram,std::less<Telegram>,std::allocator<Telegram>,0> >::_Get_scary
	mov	DWORD PTR __Scary$[ebp], eax
$LN4@erase:

; 1320 : #if _ITERATOR_DEBUG_LEVEL == 2
; 1321 :         _STL_VERIFY(_Where._Getcont() == _Scary, "map/set erase iterator from incorrect container");

	lea	ecx, DWORD PTR __Where$[ebp]
	call	?_Getcont@_Iterator_base12@std@@QBEPBU_Container_base12@2@XZ ; std::_Iterator_base12::_Getcont
	cmp	eax, DWORD PTR __Scary$[ebp]
	jne	SHORT $LN7@erase
	jmp	SHORT $LN2@erase
$LN7@erase:
	push	OFFSET ??_C@_0DA@GGPHOHEL@map?1set?5erase?5iterator?5from?5inc@
	push	OFFSET ??_C@_02DKCKIIND@?$CFs@
	push	0
	push	1321					; 00000529H
	push	OFFSET ??_C@_0GA@PAPBPJHI@C?3?2Program?5Files?2Microsoft?5Visu@
	push	2
	call	__CrtDbgReport
	add	esp, 24					; 00000018H
	cmp	eax, 1
	jne	SHORT $LN19@erase
	int	3
$LN19@erase:
	push	0
	push	1321					; 00000529H
	push	OFFSET ??_C@_1MA@GNMGJLOE@?$AAC?$AA?3?$AA?2?$AAP?$AAr?$AAo?$AAg?$AAr?$AAa?$AAm?$AA?5?$AAF?$AAi?$AAl?$AAe@
	push	OFFSET ??_C@_11LOCGONAA@@
	push	OFFSET ??_C@_1GE@FENJBJJO@?$AA?$CC?$AAm?$AAa?$AAp?$AA?1?$AAs?$AAe?$AAt?$AA?5?$AAe?$AAr?$AAa?$AAs?$AAe?$AA?5@
	call	__invalid_parameter
	add	esp, 20					; 00000014H
	xor	ecx, ecx
	jne	SHORT $LN7@erase
$LN2@erase:
	xor	edx, edx
	jne	SHORT $LN4@erase
$LN10@erase:

; 1322 :         _STL_VERIFY(!_Where._Ptr->_Isnil, "cannot erase map/set end() iterator");

	mov	eax, DWORD PTR __Where$[ebp+8]
	movsx	ecx, BYTE PTR [eax+13]
	test	ecx, ecx
	jne	SHORT $LN13@erase
	jmp	SHORT $LN8@erase
$LN13@erase:
	push	OFFSET ??_C@_0CE@JAJNKOFK@cannot?5erase?5map?1set?5end?$CI?$CJ?5iter@
	push	OFFSET ??_C@_02DKCKIIND@?$CFs@
	push	0
	push	1322					; 0000052aH
	push	OFFSET ??_C@_0GA@PAPBPJHI@C?3?2Program?5Files?2Microsoft?5Visu@
	push	2
	call	__CrtDbgReport
	add	esp, 24					; 00000018H
	cmp	eax, 1
	jne	SHORT $LN20@erase
	int	3
$LN20@erase:
	push	0
	push	1322					; 0000052aH
	push	OFFSET ??_C@_1MA@GNMGJLOE@?$AAC?$AA?3?$AA?2?$AAP?$AAr?$AAo?$AAg?$AAr?$AAa?$AAm?$AA?5?$AAF?$AAi?$AAl?$AAe@
	push	OFFSET ??_C@_11LOCGONAA@@
	push	OFFSET ??_C@_1EM@MEAEPHLP@?$AA?$CC?$AAc?$AAa?$AAn?$AAn?$AAo?$AAt?$AA?5?$AAe?$AAr?$AAa?$AAs?$AAe?$AA?5?$AAm@
	call	__invalid_parameter
	add	esp, 20					; 00000014H
	xor	eax, eax
	jne	SHORT $LN13@erase
$LN8@erase:
	xor	ecx, ecx
	jne	SHORT $LN10@erase

; 1323 : #endif // _ITERATOR_DEBUG_LEVEL == 2
; 1324 :         return iterator(_Erase_unchecked(_Where._Unwrapped()), _Scary);

	mov	edx, DWORD PTR __Scary$[ebp]
	push	edx
	lea	eax, DWORD PTR $T1[ebp]
	push	eax
	lea	ecx, DWORD PTR __Where$[ebp]
	call	?_Unwrapped@?$_Tree_const_iterator@V?$_Tree_val@U?$_Tree_simple_types@UTelegram@@@std@@@std@@@std@@QBE?AV?$_Tree_unchecked_const_iterator@V?$_Tree_val@U?$_Tree_simple_types@UTelegram@@@std@@@std@@U_Iterator_base0@2@@2@XZ ; std::_Tree_const_iterator<std::_Tree_val<std::_Tree_simple_types<Telegram> > >::_Unwrapped
	mov	ecx, DWORD PTR [eax]
	push	ecx
	mov	ecx, DWORD PTR _this$[ebp]
	call	?_Erase_unchecked@?$_Tree@V?$_Tset_traits@UTelegram@@U?$less@UTelegram@@@std@@V?$allocator@UTelegram@@@3@$0A@@std@@@std@@AAEPAU?$_Tree_node@UTelegram@@PAX@2@V?$_Tree_unchecked_const_iterator@V?$_Tree_val@U?$_Tree_simple_types@UTelegram@@@std@@@std@@U_Iterator_base0@2@@2@@Z ; std::_Tree<std::_Tset_traits<Telegram,std::less<Telegram>,std::allocator<Telegram>,0> >::_Erase_unchecked
	push	eax
	mov	ecx, DWORD PTR ___$ReturnUdt$[ebp]
	call	??0?$_Tree_const_iterator@V?$_Tree_val@U?$_Tree_simple_types@UTelegram@@@std@@@std@@@std@@QAE@PAU?$_Tree_node@UTelegram@@PAX@1@PBV?$_Tree_val@U?$_Tree_simple_types@UTelegram@@@std@@@1@@Z
	lea	ecx, DWORD PTR __Where$[ebp]
	call	??1?$_Tree_const_iterator@V?$_Tree_val@U?$_Tree_simple_types@UTelegram@@@std@@@std@@@std@@QAE@XZ
	mov	eax, DWORD PTR ___$ReturnUdt$[ebp]

; 1325 :     }

	add	esp, 12					; 0000000cH
	cmp	ebp, esp
	call	__RTC_CheckEsp
	mov	esp, ebp
	pop	ebp
	ret	16					; 00000010H
?erase@?$_Tree@V?$_Tset_traits@UTelegram@@U?$less@UTelegram@@@std@@V?$allocator@UTelegram@@@3@$0A@@std@@@std@@QAE?AV?$_Tree_const_iterator@V?$_Tree_val@U?$_Tree_simple_types@UTelegram@@@std@@@std@@@2@V32@@Z ENDP ; std::_Tree<std::_Tset_traits<Telegram,std::less<Telegram>,std::allocator<Telegram>,0> >::erase
_TEXT	ENDS
; Function compile flags: /Odtp /RTCsu
; File C:\Program Files\Microsoft Visual Studio\2022\Community\VC\Tools\MSVC\14.32.31326\include\xtree
;	COMDAT ?_Erase_unchecked@?$_Tree@V?$_Tset_traits@UTelegram@@U?$less@UTelegram@@@std@@V?$allocator@UTelegram@@@3@$0A@@std@@@std@@AAEPAU?$_Tree_node@UTelegram@@PAX@2@V?$_Tree_unchecked_const_iterator@V?$_Tree_val@U?$_Tree_simple_types@UTelegram@@@std@@@std@@U_Iterator_base0@2@@2@@Z
_TEXT	SEGMENT
__Erasednode$ = -24					; size = 4
__Successor$ = -16					; size = 4
__Scary$ = -8						; size = 4
_this$ = -4						; size = 4
__Where$ = 8						; size = 4
?_Erase_unchecked@?$_Tree@V?$_Tset_traits@UTelegram@@U?$less@UTelegram@@@std@@V?$allocator@UTelegram@@@3@$0A@@std@@@std@@AAEPAU?$_Tree_node@UTelegram@@PAX@2@V?$_Tree_unchecked_const_iterator@V?$_Tree_val@U?$_Tree_simple_types@UTelegram@@@std@@@std@@U_Iterator_base0@2@@2@@Z PROC ; std::_Tree<std::_Tset_traits<Telegram,std::less<Telegram>,std::allocator<Telegram>,0> >::_Erase_unchecked, COMDAT
; _this$ = ecx

; 1273 :     _Nodeptr _Erase_unchecked(_Unchecked_const_iterator _Where) noexcept {

	push	ebp
	mov	ebp, esp
	sub	esp, 24					; 00000018H
	mov	eax, -858993460				; ccccccccH
	mov	DWORD PTR [ebp-24], eax
	mov	DWORD PTR [ebp-20], eax
	mov	DWORD PTR [ebp-16], eax
	mov	DWORD PTR [ebp-12], eax
	mov	DWORD PTR [ebp-8], eax
	mov	DWORD PTR [ebp-4], eax
	mov	DWORD PTR _this$[ebp], ecx

; 1274 :         const auto _Scary                    = _Get_scary();

	mov	ecx, DWORD PTR _this$[ebp]
	call	?_Get_scary@?$_Tree@V?$_Tset_traits@UTelegram@@U?$less@UTelegram@@@std@@V?$allocator@UTelegram@@@3@$0A@@std@@@std@@IAEPAV?$_Tree_val@U?$_Tree_simple_types@UTelegram@@@std@@@2@XZ ; std::_Tree<std::_Tset_traits<Telegram,std::less<Telegram>,std::allocator<Telegram>,0> >::_Get_scary
	mov	DWORD PTR __Scary$[ebp], eax

; 1275 :         _Unchecked_const_iterator _Successor = _Where;

	mov	eax, DWORD PTR __Where$[ebp]
	mov	DWORD PTR __Successor$[ebp], eax

; 1276 :         ++_Successor; // save successor iterator for return

	lea	ecx, DWORD PTR __Successor$[ebp]
	call	??E?$_Tree_unchecked_const_iterator@V?$_Tree_val@U?$_Tree_simple_types@UTelegram@@@std@@@std@@U_Iterator_base0@2@@std@@QAEAAV01@XZ ; std::_Tree_unchecked_const_iterator<std::_Tree_val<std::_Tree_simple_types<Telegram> >,std::_Iterator_base0>::operator++

; 1277 :         _Nodeptr _Erasednode = _Scary->_Extract(_Where); // node to erase

	mov	ecx, DWORD PTR __Where$[ebp]
	push	ecx
	mov	ecx, DWORD PTR __Scary$[ebp]
	call	?_Extract@?$_Tree_val@U?$_Tree_simple_types@UTelegram@@@std@@@std@@QAEPAU?$_Tree_node@UTelegram@@PAX@2@V?$_Tree_unchecked_const_iterator@V?$_Tree_val@U?$_Tree_simple_types@UTelegram@@@std@@@std@@U_Iterator_base0@2@@2@@Z ; std::_Tree_val<std::_Tree_simple_types<Telegram> >::_Extract
	mov	DWORD PTR __Erasednode$[ebp], eax

; 1278 :         _Scary->_Orphan_ptr(_Erasednode);

	mov	edx, DWORD PTR __Erasednode$[ebp]
	push	edx
	mov	ecx, DWORD PTR __Scary$[ebp]
	call	?_Orphan_ptr@?$_Tree_val@U?$_Tree_simple_types@UTelegram@@@std@@@std@@QAEXQAU?$_Tree_node@UTelegram@@PAX@2@@Z ; std::_Tree_val<std::_Tree_simple_types<Telegram> >::_Orphan_ptr

; 1279 :         _Node::_Freenode(_Getal(), _Erasednode); // delete erased node

	mov	eax, DWORD PTR __Erasednode$[ebp]
	push	eax
	mov	ecx, DWORD PTR _this$[ebp]
	call	?_Getal@?$_Tree@V?$_Tset_traits@UTelegram@@U?$less@UTelegram@@@std@@V?$allocator@UTelegram@@@3@$0A@@std@@@std@@IAEAAV?$allocator@U?$_Tree_node@UTelegram@@PAX@std@@@2@XZ ; std::_Tree<std::_Tset_traits<Telegram,std::less<Telegram>,std::allocator<Telegram>,0> >::_Getal
	push	eax
	call	??$_Freenode@V?$allocator@U?$_Tree_node@UTelegram@@PAX@std@@@std@@@?$_Tree_node@UTelegram@@PAX@std@@SAXAAV?$allocator@U?$_Tree_node@UTelegram@@PAX@std@@@1@PAU01@@Z ; std::_Tree_node<Telegram,void *>::_Freenode<std::allocator<std::_Tree_node<Telegram,void *> > >
	add	esp, 8

; 1280 :         return _Successor._Ptr; // return successor nodeptr

	mov	eax, DWORD PTR __Successor$[ebp]

; 1281 :     }

	push	edx
	mov	ecx, ebp
	push	eax
	lea	edx, DWORD PTR $LN5@Erase_unch
	call	@_RTC_CheckStackVars@8
	pop	eax
	pop	edx
	add	esp, 24					; 00000018H
	cmp	ebp, esp
	call	__RTC_CheckEsp
	mov	esp, ebp
	pop	ebp
	ret	4
	npad	3
$LN5@Erase_unch:
	DD	1
	DD	$LN4@Erase_unch
$LN4@Erase_unch:
	DD	-16					; fffffff0H
	DD	4
	DD	$LN3@Erase_unch
$LN3@Erase_unch:
	DB	95					; 0000005fH
	DB	83					; 00000053H
	DB	117					; 00000075H
	DB	99					; 00000063H
	DB	99					; 00000063H
	DB	101					; 00000065H
	DB	115					; 00000073H
	DB	115					; 00000073H
	DB	111					; 0000006fH
	DB	114					; 00000072H
	DB	0
?_Erase_unchecked@?$_Tree@V?$_Tset_traits@UTelegram@@U?$less@UTelegram@@@std@@V?$allocator@UTelegram@@@3@$0A@@std@@@std@@AAEPAU?$_Tree_node@UTelegram@@PAX@2@V?$_Tree_unchecked_const_iterator@V?$_Tree_val@U?$_Tree_simple_types@UTelegram@@@std@@@std@@U_Iterator_base0@2@@2@@Z ENDP ; std::_Tree<std::_Tset_traits<Telegram,std::less<Telegram>,std::allocator<Telegram>,0> >::_Erase_unchecked
_TEXT	ENDS
; Function compile flags: /Odtp /RTCsu
; File C:\Program Files\Microsoft Visual Studio\2022\Community\VC\Tools\MSVC\14.32.31326\include\xtree
;	COMDAT ?empty@?$_Tree@V?$_Tset_traits@UTelegram@@U?$less@UTelegram@@@std@@V?$allocator@UTelegram@@@3@$0A@@std@@@std@@QBE_NXZ
_TEXT	SEGMENT
tv68 = -8						; size = 4
_this$ = -4						; size = 4
?empty@?$_Tree@V?$_Tset_traits@UTelegram@@U?$less@UTelegram@@@std@@V?$allocator@UTelegram@@@3@$0A@@std@@@std@@QBE_NXZ PROC ; std::_Tree<std::_Tset_traits<Telegram,std::less<Telegram>,std::allocator<Telegram>,0> >::empty, COMDAT
; _this$ = ecx

; 1203 :     _NODISCARD bool empty() const noexcept {

	push	ebp
	mov	ebp, esp
	sub	esp, 8
	mov	DWORD PTR [ebp-8], -858993460		; ccccccccH
	mov	DWORD PTR [ebp-4], -858993460		; ccccccccH
	mov	DWORD PTR _this$[ebp], ecx

; 1204 :         return _Get_scary()->_Mysize == 0;

	mov	ecx, DWORD PTR _this$[ebp]
	call	?_Get_scary@?$_Tree@V?$_Tset_traits@UTelegram@@U?$less@UTelegram@@@std@@V?$allocator@UTelegram@@@3@$0A@@std@@@std@@IBEPBV?$_Tree_val@U?$_Tree_simple_types@UTelegram@@@std@@@2@XZ ; std::_Tree<std::_Tset_traits<Telegram,std::less<Telegram>,std::allocator<Telegram>,0> >::_Get_scary
	cmp	DWORD PTR [eax+8], 0
	jne	SHORT $LN3@empty
	mov	DWORD PTR tv68[ebp], 1
	jmp	SHORT $LN4@empty
$LN3@empty:
	mov	DWORD PTR tv68[ebp], 0
$LN4@empty:
	mov	al, BYTE PTR tv68[ebp]

; 1205 :     }

	add	esp, 8
	cmp	ebp, esp
	call	__RTC_CheckEsp
	mov	esp, ebp
	pop	ebp
	ret	0
?empty@?$_Tree@V?$_Tset_traits@UTelegram@@U?$less@UTelegram@@@std@@V?$allocator@UTelegram@@@3@$0A@@std@@@std@@QBE_NXZ ENDP ; std::_Tree<std::_Tset_traits<Telegram,std::less<Telegram>,std::allocator<Telegram>,0> >::empty
_TEXT	ENDS
; Function compile flags: /Odtp /RTCsu
; File C:\Program Files\Microsoft Visual Studio\2022\Community\VC\Tools\MSVC\14.32.31326\include\xtree
;	COMDAT ?max_size@?$_Tree@V?$_Tset_traits@UTelegram@@U?$less@UTelegram@@@std@@V?$allocator@UTelegram@@@3@$0A@@std@@@std@@QBEIXZ
_TEXT	SEGMENT
$T1 = -12						; size = 4
$T2 = -8						; size = 4
_this$ = -4						; size = 4
?max_size@?$_Tree@V?$_Tset_traits@UTelegram@@U?$less@UTelegram@@@std@@V?$allocator@UTelegram@@@3@$0A@@std@@@std@@QBEIXZ PROC ; std::_Tree<std::_Tset_traits<Telegram,std::less<Telegram>,std::allocator<Telegram>,0> >::max_size, COMDAT
; _this$ = ecx

; 1198 :     _NODISCARD size_type max_size() const noexcept {

	push	ebp
	mov	ebp, esp
	sub	esp, 12					; 0000000cH
	mov	DWORD PTR [ebp-12], -858993460		; ccccccccH
	mov	DWORD PTR [ebp-8], -858993460		; ccccccccH
	mov	DWORD PTR [ebp-4], -858993460		; ccccccccH
	mov	DWORD PTR _this$[ebp], ecx

; 1199 :         return (_STD min)(

	mov	ecx, DWORD PTR _this$[ebp]
	call	?_Getal@?$_Tree@V?$_Tset_traits@UTelegram@@U?$less@UTelegram@@@std@@V?$allocator@UTelegram@@@3@$0A@@std@@@std@@IBEABV?$allocator@U?$_Tree_node@UTelegram@@PAX@std@@@2@XZ ; std::_Tree<std::_Tset_traits<Telegram,std::less<Telegram>,std::allocator<Telegram>,0> >::_Getal
	push	eax
	call	?max_size@?$_Default_allocator_traits@V?$allocator@U?$_Tree_node@UTelegram@@PAX@std@@@std@@@std@@SAIABV?$allocator@U?$_Tree_node@UTelegram@@PAX@std@@@2@@Z ; std::_Default_allocator_traits<std::allocator<std::_Tree_node<Telegram,void *> > >::max_size
	add	esp, 4
	mov	DWORD PTR $T2[ebp], eax
	call	?max@?$numeric_limits@H@std@@SAHXZ	; std::numeric_limits<int>::max
	mov	DWORD PTR $T1[ebp], eax
	lea	eax, DWORD PTR $T2[ebp]
	push	eax
	lea	ecx, DWORD PTR $T1[ebp]
	push	ecx
	call	??$min@I@std@@YAABIABI0@Z		; std::min<unsigned int>
	add	esp, 8
	mov	eax, DWORD PTR [eax]

; 1200 :             static_cast<size_type>((numeric_limits<difference_type>::max)()), _Alnode_traits::max_size(_Getal()));
; 1201 :     }

	add	esp, 12					; 0000000cH
	cmp	ebp, esp
	call	__RTC_CheckEsp
	mov	esp, ebp
	pop	ebp
	ret	0
?max_size@?$_Tree@V?$_Tset_traits@UTelegram@@U?$less@UTelegram@@@std@@V?$allocator@UTelegram@@@3@$0A@@std@@@std@@QBEIXZ ENDP ; std::_Tree<std::_Tset_traits<Telegram,std::less<Telegram>,std::allocator<Telegram>,0> >::max_size
_TEXT	ENDS
; Function compile flags: /Odtp /RTCsu
; File C:\Program Files\Microsoft Visual Studio\2022\Community\VC\Tools\MSVC\14.32.31326\include\xtree
;	COMDAT ?begin@?$_Tree@V?$_Tset_traits@UTelegram@@U?$less@UTelegram@@@std@@V?$allocator@UTelegram@@@3@$0A@@std@@@std@@QAE?AV?$_Tree_const_iterator@V?$_Tree_val@U?$_Tree_simple_types@UTelegram@@@std@@@std@@@2@XZ
_TEXT	SEGMENT
__Scary$ = -8						; size = 4
_this$ = -4						; size = 4
___$ReturnUdt$ = 8					; size = 4
?begin@?$_Tree@V?$_Tset_traits@UTelegram@@U?$less@UTelegram@@@std@@V?$allocator@UTelegram@@@3@$0A@@std@@@std@@QAE?AV?$_Tree_const_iterator@V?$_Tree_val@U?$_Tree_simple_types@UTelegram@@@std@@@std@@@2@XZ PROC ; std::_Tree<std::_Tset_traits<Telegram,std::less<Telegram>,std::allocator<Telegram>,0> >::begin, COMDAT
; _this$ = ecx

; 1126 :     _NODISCARD iterator begin() noexcept {

	push	ebp
	mov	ebp, esp
	sub	esp, 8
	mov	DWORD PTR [ebp-8], -858993460		; ccccccccH
	mov	DWORD PTR [ebp-4], -858993460		; ccccccccH
	mov	DWORD PTR _this$[ebp], ecx

; 1127 :         const auto _Scary = _Get_scary();

	mov	ecx, DWORD PTR _this$[ebp]
	call	?_Get_scary@?$_Tree@V?$_Tset_traits@UTelegram@@U?$less@UTelegram@@@std@@V?$allocator@UTelegram@@@3@$0A@@std@@@std@@IAEPAV?$_Tree_val@U?$_Tree_simple_types@UTelegram@@@std@@@2@XZ ; std::_Tree<std::_Tset_traits<Telegram,std::less<Telegram>,std::allocator<Telegram>,0> >::_Get_scary
	mov	DWORD PTR __Scary$[ebp], eax

; 1128 :         return iterator(_Scary->_Myhead->_Left, _Scary);

	mov	eax, DWORD PTR __Scary$[ebp]
	push	eax
	mov	ecx, DWORD PTR __Scary$[ebp]
	mov	edx, DWORD PTR [ecx+4]
	mov	eax, DWORD PTR [edx]
	push	eax
	mov	ecx, DWORD PTR ___$ReturnUdt$[ebp]
	call	??0?$_Tree_const_iterator@V?$_Tree_val@U?$_Tree_simple_types@UTelegram@@@std@@@std@@@std@@QAE@PAU?$_Tree_node@UTelegram@@PAX@1@PBV?$_Tree_val@U?$_Tree_simple_types@UTelegram@@@std@@@1@@Z
	mov	eax, DWORD PTR ___$ReturnUdt$[ebp]

; 1129 :     }

	add	esp, 8
	cmp	ebp, esp
	call	__RTC_CheckEsp
	mov	esp, ebp
	pop	ebp
	ret	4
?begin@?$_Tree@V?$_Tset_traits@UTelegram@@U?$less@UTelegram@@@std@@V?$allocator@UTelegram@@@3@$0A@@std@@@std@@QAE?AV?$_Tree_const_iterator@V?$_Tree_val@U?$_Tree_simple_types@UTelegram@@@std@@@std@@@2@XZ ENDP ; std::_Tree<std::_Tset_traits<Telegram,std::less<Telegram>,std::allocator<Telegram>,0> >::begin
_TEXT	ENDS
; Function compile flags: /Odtp /RTCsu
; File C:\Program Files\Microsoft Visual Studio\2022\Community\VC\Tools\MSVC\14.32.31326\include\xtree
;	COMDAT ??1?$_Tree@V?$_Tset_traits@UTelegram@@U?$less@UTelegram@@@std@@V?$allocator@UTelegram@@@3@$0A@@std@@@std@@QAE@XZ
_TEXT	SEGMENT
_$S3$ = -17						; size = 1
__Alproxy$ = -12					; size = 4
__Scary$ = -8						; size = 4
_this$ = -4						; size = 4
??1?$_Tree@V?$_Tset_traits@UTelegram@@U?$less@UTelegram@@@std@@V?$allocator@UTelegram@@@3@$0A@@std@@@std@@QAE@XZ PROC ; std::_Tree<std::_Tset_traits<Telegram,std::less<Telegram>,std::allocator<Telegram>,0> >::~_Tree<std::_Tset_traits<Telegram,std::less<Telegram>,std::allocator<Telegram>,0> >, COMDAT
; _this$ = ecx

; 1081 :     ~_Tree() noexcept {

	push	ebp
	mov	ebp, esp
	sub	esp, 24					; 00000018H
	mov	eax, -858993460				; ccccccccH
	mov	DWORD PTR [ebp-24], eax
	mov	DWORD PTR [ebp-20], eax
	mov	DWORD PTR [ebp-16], eax
	mov	DWORD PTR [ebp-12], eax
	mov	DWORD PTR [ebp-8], eax
	mov	DWORD PTR [ebp-4], eax
	mov	DWORD PTR _this$[ebp], ecx

; 1082 :         const auto _Scary = _Get_scary();

	mov	ecx, DWORD PTR _this$[ebp]
	call	?_Get_scary@?$_Tree@V?$_Tset_traits@UTelegram@@U?$less@UTelegram@@@std@@V?$allocator@UTelegram@@@3@$0A@@std@@@std@@IAEPAV?$_Tree_val@U?$_Tree_simple_types@UTelegram@@@std@@@2@XZ ; std::_Tree<std::_Tset_traits<Telegram,std::less<Telegram>,std::allocator<Telegram>,0> >::_Get_scary
	mov	DWORD PTR __Scary$[ebp], eax

; 1083 :         _Scary->_Erase_head(_Getal());

	mov	ecx, DWORD PTR _this$[ebp]
	call	?_Getal@?$_Tree@V?$_Tset_traits@UTelegram@@U?$less@UTelegram@@@std@@V?$allocator@UTelegram@@@3@$0A@@std@@@std@@IAEAAV?$allocator@U?$_Tree_node@UTelegram@@PAX@std@@@2@XZ ; std::_Tree<std::_Tset_traits<Telegram,std::less<Telegram>,std::allocator<Telegram>,0> >::_Getal
	push	eax
	mov	ecx, DWORD PTR __Scary$[ebp]
	call	??$_Erase_head@V?$allocator@U?$_Tree_node@UTelegram@@PAX@std@@@std@@@?$_Tree_val@U?$_Tree_simple_types@UTelegram@@@std@@@std@@QAEXAAV?$allocator@U?$_Tree_node@UTelegram@@PAX@std@@@1@@Z ; std::_Tree_val<std::_Tree_simple_types<Telegram> >::_Erase_head<std::allocator<std::_Tree_node<Telegram,void *> > >

; 1084 : #if _ITERATOR_DEBUG_LEVEL != 0 // TRANSITION, ABI
; 1085 :         auto&& _Alproxy = _GET_PROXY_ALLOCATOR(_Alnode, _Getal());

	mov	ecx, DWORD PTR _this$[ebp]
	call	?_Getal@?$_Tree@V?$_Tset_traits@UTelegram@@U?$less@UTelegram@@@std@@V?$allocator@UTelegram@@@3@$0A@@std@@@std@@IAEAAV?$allocator@U?$_Tree_node@UTelegram@@PAX@std@@@2@XZ ; std::_Tree<std::_Tset_traits<Telegram,std::less<Telegram>,std::allocator<Telegram>,0> >::_Getal
	push	eax
	lea	ecx, DWORD PTR _$S3$[ebp]
	call	??$?0U?$_Tree_node@UTelegram@@PAX@std@@@?$allocator@U_Container_proxy@std@@@std@@QAE@ABV?$allocator@U?$_Tree_node@UTelegram@@PAX@std@@@1@@Z ; std::allocator<std::_Container_proxy>::allocator<std::_Container_proxy><std::_Tree_node<Telegram,void *> >
	lea	eax, DWORD PTR _$S3$[ebp]
	mov	DWORD PTR __Alproxy$[ebp], eax

; 1086 :         _Delete_plain_internal(_Alproxy, _Scary->_Myproxy);

	mov	ecx, DWORD PTR __Scary$[ebp]
	mov	edx, DWORD PTR [ecx]
	push	edx
	mov	eax, DWORD PTR __Alproxy$[ebp]
	push	eax
	call	??$_Delete_plain_internal@V?$allocator@U_Container_proxy@std@@@std@@@std@@YAXAAV?$allocator@U_Container_proxy@std@@@0@QAU_Container_proxy@0@@Z ; std::_Delete_plain_internal<std::allocator<std::_Container_proxy> >
	add	esp, 8

; 1087 : #endif // _ITERATOR_DEBUG_LEVEL != 0
; 1088 :     }

	push	edx
	mov	ecx, ebp
	push	eax
	lea	edx, DWORD PTR $LN5@Tree
	call	@_RTC_CheckStackVars@8
	pop	eax
	pop	edx
	add	esp, 24					; 00000018H
	cmp	ebp, esp
	call	__RTC_CheckEsp
	mov	esp, ebp
	pop	ebp
	ret	0
$LN5@Tree:
	DD	1
	DD	$LN4@Tree
$LN4@Tree:
	DD	-17					; ffffffefH
	DD	1
	DD	$LN3@Tree
$LN3@Tree:
	DB	36					; 00000024H
	DB	83					; 00000053H
	DB	51					; 00000033H
	DB	0
??1?$_Tree@V?$_Tset_traits@UTelegram@@U?$less@UTelegram@@@std@@V?$allocator@UTelegram@@@3@$0A@@std@@@std@@QAE@XZ ENDP ; std::_Tree<std::_Tset_traits<Telegram,std::less<Telegram>,std::allocator<Telegram>,0> >::~_Tree<std::_Tset_traits<Telegram,std::less<Telegram>,std::allocator<Telegram>,0> >
_TEXT	ENDS
; Function compile flags: /Odtp /RTCsu
; File C:\Program Files\Microsoft Visual Studio\2022\Community\VC\Tools\MSVC\14.32.31326\include\xtree
;	COMDAT ??0?$_Tree@V?$_Tset_traits@UTelegram@@U?$less@UTelegram@@@std@@V?$allocator@UTelegram@@@3@$0A@@std@@@std@@QAE@ABU?$less@UTelegram@@@1@@Z
_TEXT	SEGMENT
$T1 = -6						; size = 1
$T2 = -5						; size = 1
_this$ = -4						; size = 4
__Parg$ = 8						; size = 4
??0?$_Tree@V?$_Tset_traits@UTelegram@@U?$less@UTelegram@@@std@@V?$allocator@UTelegram@@@3@$0A@@std@@@std@@QAE@ABU?$less@UTelegram@@@1@@Z PROC ; std::_Tree<std::_Tset_traits<Telegram,std::less<Telegram>,std::allocator<Telegram>,0> >::_Tree<std::_Tset_traits<Telegram,std::less<Telegram>,std::allocator<Telegram>,0> >, COMDAT
; _this$ = ecx

; 883  :     _Tree(const key_compare& _Parg) : _Mypair(_One_then_variadic_args_t{}, _Parg, _Zero_then_variadic_args_t{}) {

	push	ebp
	mov	ebp, esp
	sub	esp, 8
	mov	DWORD PTR [ebp-8], -858993460		; ccccccccH
	mov	DWORD PTR [ebp-4], -858993460		; ccccccccH
	mov	DWORD PTR _this$[ebp], ecx
	lea	eax, DWORD PTR $T2[ebp]
	push	eax
	mov	ecx, DWORD PTR __Parg$[ebp]
	push	ecx
	movzx	edx, BYTE PTR $T1[ebp]
	push	edx
	mov	ecx, DWORD PTR _this$[ebp]
	call	??$?0ABU?$less@UTelegram@@@std@@U_Zero_then_variadic_args_t@1@@?$_Compressed_pair@U?$less@UTelegram@@@std@@V?$_Compressed_pair@V?$allocator@U?$_Tree_node@UTelegram@@PAX@std@@@std@@V?$_Tree_val@U?$_Tree_simple_types@UTelegram@@@std@@@2@$00@2@$00@std@@QAE@U_One_then_variadic_args_t@1@ABU?$less@UTelegram@@@1@$$QAU_Zero_then_variadic_args_t@1@@Z ; std::_Compressed_pair<std::less<Telegram>,std::_Compressed_pair<std::allocator<std::_Tree_node<Telegram,void *> >,std::_Tree_val<std::_Tree_simple_types<Telegram> >,1>,1>::_Compressed_pair<std::less<Telegram>,std::_Compressed_pair<std::allocator<std::_Tree_node<Telegram,void *> >,std::_Tree_val<std::_Tree_simple_types<Telegram> >,1>,1><std::less<Telegram> const &,std::_Zero_then_variadic_args_t>

; 884  :         _Alloc_sentinel_and_proxy();

	mov	ecx, DWORD PTR _this$[ebp]
	call	?_Alloc_sentinel_and_proxy@?$_Tree@V?$_Tset_traits@UTelegram@@U?$less@UTelegram@@@std@@V?$allocator@UTelegram@@@3@$0A@@std@@@std@@IAEXXZ ; std::_Tree<std::_Tset_traits<Telegram,std::less<Telegram>,std::allocator<Telegram>,0> >::_Alloc_sentinel_and_proxy

; 885  :     }

	mov	eax, DWORD PTR _this$[ebp]
	add	esp, 8
	cmp	ebp, esp
	call	__RTC_CheckEsp
	mov	esp, ebp
	pop	ebp
	ret	4
??0?$_Tree@V?$_Tset_traits@UTelegram@@U?$less@UTelegram@@@std@@V?$allocator@UTelegram@@@3@$0A@@std@@@std@@QAE@ABU?$less@UTelegram@@@1@@Z ENDP ; std::_Tree<std::_Tset_traits<Telegram,std::less<Telegram>,std::allocator<Telegram>,0> >::_Tree<std::_Tset_traits<Telegram,std::less<Telegram>,std::allocator<Telegram>,0> >
_TEXT	ENDS
; Function compile flags: /Odtp /RTCsu
; File C:\Program Files\Microsoft Visual Studio\2022\Community\VC\Tools\MSVC\14.32.31326\include\xmemory
;	COMDAT ?max_size@?$_Default_allocator_traits@V?$allocator@U?$_Tree_node@UTelegram@@PAX@std@@@std@@@std@@SAIABV?$allocator@U?$_Tree_node@UTelegram@@PAX@std@@@2@@Z
_TEXT	SEGMENT
___formal$ = 8						; size = 4
?max_size@?$_Default_allocator_traits@V?$allocator@U?$_Tree_node@UTelegram@@PAX@std@@@std@@@std@@SAIABV?$allocator@U?$_Tree_node@UTelegram@@PAX@std@@@2@@Z PROC ; std::_Default_allocator_traits<std::allocator<std::_Tree_node<Telegram,void *> > >::max_size, COMDAT

; 693  :     _NODISCARD static _CONSTEXPR20 size_type max_size(const _Alloc&) noexcept {

	push	ebp
	mov	ebp, esp

; 694  :         return static_cast<size_t>(-1) / sizeof(value_type);

	mov	eax, 89478485				; 05555555H

; 695  :     }

	pop	ebp
	ret	0
?max_size@?$_Default_allocator_traits@V?$allocator@U?$_Tree_node@UTelegram@@PAX@std@@@std@@@std@@SAIABV?$allocator@U?$_Tree_node@UTelegram@@PAX@std@@@2@@Z ENDP ; std::_Default_allocator_traits<std::allocator<std::_Tree_node<Telegram,void *> > >::max_size
_TEXT	ENDS
; Function compile flags: /Odtp /RTCsu
; File C:\Program Files\Microsoft Visual Studio\2022\Community\VC\Tools\MSVC\14.32.31326\include\xmemory
;	COMDAT ?deallocate@?$_Default_allocator_traits@V?$allocator@U?$_Tree_node@UTelegram@@PAX@std@@@std@@@std@@SAXAAV?$allocator@U?$_Tree_node@UTelegram@@PAX@std@@@2@QAU?$_Tree_node@UTelegram@@PAX@2@I@Z
_TEXT	SEGMENT
__Al$ = 8						; size = 4
__Ptr$ = 12						; size = 4
__Count$ = 16						; size = 4
?deallocate@?$_Default_allocator_traits@V?$allocator@U?$_Tree_node@UTelegram@@PAX@std@@@std@@@std@@SAXAAV?$allocator@U?$_Tree_node@UTelegram@@PAX@std@@@2@QAU?$_Tree_node@UTelegram@@PAX@2@I@Z PROC ; std::_Default_allocator_traits<std::allocator<std::_Tree_node<Telegram,void *> > >::deallocate, COMDAT

; 659  :     static _CONSTEXPR20 void deallocate(_Alloc& _Al, const pointer _Ptr, const size_type _Count) {

	push	ebp
	mov	ebp, esp

; 660  :         // no overflow check on the following multiply; we assume _Allocate did that check
; 661  : #if _HAS_CXX20 // TRANSITION, GH-1532
; 662  :         if (_STD is_constant_evaluated()) {
; 663  :             _Al.deallocate(_Ptr, _Count);
; 664  :         } else
; 665  : #endif // _HAS_CXX20
; 666  :         {
; 667  :             (void) _Al;
; 668  :             _Deallocate<_New_alignof<value_type>>(_Ptr, sizeof(value_type) * _Count);

	imul	eax, DWORD PTR __Count$[ebp], 48
	push	eax
	mov	ecx, DWORD PTR __Ptr$[ebp]
	push	ecx
	call	??$_Deallocate@$07$0A@@std@@YAXPAXI@Z	; std::_Deallocate<8,0>
	add	esp, 8

; 669  :         }
; 670  :     }

	cmp	ebp, esp
	call	__RTC_CheckEsp
	pop	ebp
	ret	0
?deallocate@?$_Default_allocator_traits@V?$allocator@U?$_Tree_node@UTelegram@@PAX@std@@@std@@@std@@SAXAAV?$allocator@U?$_Tree_node@UTelegram@@PAX@std@@@2@QAU?$_Tree_node@UTelegram@@PAX@2@I@Z ENDP ; std::_Default_allocator_traits<std::allocator<std::_Tree_node<Telegram,void *> > >::deallocate
_TEXT	ENDS
; Function compile flags: /Odtp /RTCsu
; File C:\Program Files\Microsoft Visual Studio\2022\Community\VC\Tools\MSVC\14.32.31326\include\xmemory
;	COMDAT ?allocate@?$allocator@U?$_Tree_node@UTelegram@@PAX@std@@@std@@QAEPAU?$_Tree_node@UTelegram@@PAX@2@I@Z
_TEXT	SEGMENT
_this$ = -4						; size = 4
__Count$ = 8						; size = 4
?allocate@?$allocator@U?$_Tree_node@UTelegram@@PAX@std@@@std@@QAEPAU?$_Tree_node@UTelegram@@PAX@2@I@Z PROC ; std::allocator<std::_Tree_node<Telegram,void *> >::allocate, COMDAT
; _this$ = ecx

; 833  :     _NODISCARD _CONSTEXPR20 __declspec(allocator) _Ty* allocate(_CRT_GUARDOVERFLOW const size_t _Count) {

	push	ebp
	mov	ebp, esp
	push	ecx
	mov	DWORD PTR [ebp-4], -858993460		; ccccccccH
	mov	DWORD PTR _this$[ebp], ecx

; 834  :         return static_cast<_Ty*>(_Allocate<_New_alignof<_Ty>>(_Get_size_of_n<sizeof(_Ty)>(_Count)));

	mov	eax, DWORD PTR __Count$[ebp]
	push	eax
	call	??$_Get_size_of_n@$0DA@@std@@YAII@Z	; std::_Get_size_of_n<48>
	add	esp, 4
	push	eax
	call	??$_Allocate@$07U_Default_allocate_traits@std@@$0A@@std@@YAPAXI@Z ; std::_Allocate<8,std::_Default_allocate_traits,0>
	add	esp, 4

; 835  :     }

	add	esp, 4
	cmp	ebp, esp
	call	__RTC_CheckEsp
	mov	esp, ebp
	pop	ebp
	ret	4
?allocate@?$allocator@U?$_Tree_node@UTelegram@@PAX@std@@@std@@QAEPAU?$_Tree_node@UTelegram@@PAX@2@I@Z ENDP ; std::allocator<std::_Tree_node<Telegram,void *> >::allocate
_TEXT	ENDS
; Function compile flags: /Odtp /RTCsu
; File C:\Program Files\Microsoft Visual Studio\2022\Community\VC\Tools\MSVC\14.32.31326\include\xmemory
;	COMDAT ?deallocate@?$allocator@U?$_Tree_node@UTelegram@@PAX@std@@@std@@QAEXQAU?$_Tree_node@UTelegram@@PAX@2@I@Z
_TEXT	SEGMENT
_this$ = -4						; size = 4
__Ptr$ = 8						; size = 4
__Count$ = 12						; size = 4
?deallocate@?$allocator@U?$_Tree_node@UTelegram@@PAX@std@@@std@@QAEXQAU?$_Tree_node@UTelegram@@PAX@2@I@Z PROC ; std::allocator<std::_Tree_node<Telegram,void *> >::deallocate, COMDAT
; _this$ = ecx

; 827  :     _CONSTEXPR20 void deallocate(_Ty* const _Ptr, const size_t _Count) {

	push	ebp
	mov	ebp, esp
	push	ecx
	mov	DWORD PTR [ebp-4], -858993460		; ccccccccH
	mov	DWORD PTR _this$[ebp], ecx
$LN4@deallocate:

; 828  :         _STL_ASSERT(_Ptr != nullptr || _Count == 0, "null pointer cannot point to a block of non-zero size");

	cmp	DWORD PTR __Ptr$[ebp], 0
	jne	SHORT $LN10@deallocate
	cmp	DWORD PTR __Count$[ebp], 0
	jne	SHORT $LN7@deallocate
$LN10@deallocate:
	jmp	SHORT $LN2@deallocate
$LN7@deallocate:
	push	OFFSET ??_C@_0DG@KGHKKGBC@null?5pointer?5cannot?5point?5to?5a?5@
	push	OFFSET ??_C@_02DKCKIIND@?$CFs@
	push	0
	push	828					; 0000033cH
	push	OFFSET ??_C@_0GC@DJFHHHKN@C?3?2Program?5Files?2Microsoft?5Visu@
	push	2
	call	__CrtDbgReport
	add	esp, 24					; 00000018H
	cmp	eax, 1
	jne	SHORT $LN12@deallocate
	int	3
$LN12@deallocate:
	push	0
	push	828					; 0000033cH
	push	OFFSET ??_C@_1ME@GEFGDEOM@?$AAC?$AA?3?$AA?2?$AAP?$AAr?$AAo?$AAg?$AAr?$AAa?$AAm?$AA?5?$AAF?$AAi?$AAl?$AAe@
	push	OFFSET ??_C@_11LOCGONAA@@
	push	OFFSET ??_C@_1HA@FACCKGGH@?$AA?$CC?$AAn?$AAu?$AAl?$AAl?$AA?5?$AAp?$AAo?$AAi?$AAn?$AAt?$AAe?$AAr?$AA?5?$AAc@
	call	__invalid_parameter
	add	esp, 20					; 00000014H
	xor	ecx, ecx
	jne	SHORT $LN7@deallocate
$LN2@deallocate:
	xor	edx, edx
	jne	SHORT $LN4@deallocate

; 829  :         // no overflow check on the following multiply; we assume _Allocate did that check
; 830  :         _Deallocate<_New_alignof<_Ty>>(_Ptr, sizeof(_Ty) * _Count);

	imul	eax, DWORD PTR __Count$[ebp], 48
	push	eax
	mov	ecx, DWORD PTR __Ptr$[ebp]
	push	ecx
	call	??$_Deallocate@$07$0A@@std@@YAXPAXI@Z	; std::_Deallocate<8,0>
	add	esp, 8

; 831  :     }

	add	esp, 4
	cmp	ebp, esp
	call	__RTC_CheckEsp
	mov	esp, ebp
	pop	ebp
	ret	8
?deallocate@?$allocator@U?$_Tree_node@UTelegram@@PAX@std@@@std@@QAEXQAU?$_Tree_node@UTelegram@@PAX@2@I@Z ENDP ; std::allocator<std::_Tree_node<Telegram,void *> >::deallocate
_TEXT	ENDS
; Function compile flags: /Odtp /RTCsu
; File C:\Program Files\Microsoft Visual Studio\2022\Community\VC\Tools\MSVC\14.32.31326\include\xmemory
;	COMDAT ??0?$allocator@U?$_Tree_node@UTelegram@@PAX@std@@@std@@QAE@XZ
_TEXT	SEGMENT
_this$ = -4						; size = 4
??0?$allocator@U?$_Tree_node@UTelegram@@PAX@std@@@std@@QAE@XZ PROC ; std::allocator<std::_Tree_node<Telegram,void *> >::allocator<std::_Tree_node<Telegram,void *> >, COMDAT
; _this$ = ecx

; 819  :     constexpr allocator() noexcept {}

	push	ebp
	mov	ebp, esp
	push	ecx
	mov	DWORD PTR _this$[ebp], ecx
	mov	eax, DWORD PTR _this$[ebp]
	mov	esp, ebp
	pop	ebp
	ret	0
??0?$allocator@U?$_Tree_node@UTelegram@@PAX@std@@@std@@QAE@XZ ENDP ; std::allocator<std::_Tree_node<Telegram,void *> >::allocator<std::_Tree_node<Telegram,void *> >
_TEXT	ENDS
; Function compile flags: /Odtp /RTCsu
; File C:\Program Files\Microsoft Visual Studio\2022\Community\VC\Tools\MSVC\14.32.31326\include\set
;	COMDAT ?_Kfn@?$_Tset_traits@UTelegram@@U?$less@UTelegram@@@std@@V?$allocator@UTelegram@@@3@$0A@@std@@SAABUTelegram@@ABU3@@Z
_TEXT	SEGMENT
__Val$ = 8						; size = 4
?_Kfn@?$_Tset_traits@UTelegram@@U?$less@UTelegram@@@std@@V?$allocator@UTelegram@@@3@$0A@@std@@SAABUTelegram@@ABU3@@Z PROC ; std::_Tset_traits<Telegram,std::less<Telegram>,std::allocator<Telegram>,0>::_Kfn, COMDAT

; 46   :     static const _Kty& _Kfn(const value_type& _Val) { // extract key from element value

	push	ebp
	mov	ebp, esp

; 47   :         return _Val;

	mov	eax, DWORD PTR __Val$[ebp]

; 48   :     }

	pop	ebp
	ret	0
?_Kfn@?$_Tset_traits@UTelegram@@U?$less@UTelegram@@@std@@V?$allocator@UTelegram@@@3@$0A@@std@@SAABUTelegram@@ABU3@@Z ENDP ; std::_Tset_traits<Telegram,std::less<Telegram>,std::allocator<Telegram>,0>::_Kfn
_TEXT	ENDS
; Function compile flags: /Odtp /RTCsu
; File C:\Users\lsy01\OneDrive\바탕 화면\3-2_Study\인공지능\Source\VS2010\Common\Messaging\Telegram.h
;	COMDAT ??M@YA_NABUTelegram@@0@Z
_TEXT	SEGMENT
tv72 = -4						; size = 4
_t1$ = 8						; size = 4
_t2$ = 12						; size = 4
??M@YA_NABUTelegram@@0@Z PROC				; operator<, COMDAT

; 76   : {

	push	ebp
	mov	ebp, esp
	push	ecx
	mov	DWORD PTR [ebp-4], -858993460		; ccccccccH

; 77   :   if (t1 == t2)

	mov	eax, DWORD PTR _t2$[ebp]
	push	eax
	mov	ecx, DWORD PTR _t1$[ebp]
	push	ecx
	call	??8@YA_NABUTelegram@@0@Z		; operator==
	add	esp, 8
	movzx	edx, al
	test	edx, edx
	je	SHORT $LN2@operator

; 78   :   {
; 79   :     return false;

	xor	al, al
	jmp	SHORT $LN3@operator

; 80   :   }

	jmp	SHORT $LN3@operator
$LN2@operator:

; 81   : 
; 82   :   else
; 83   :   {
; 84   :     return  (t1.DispatchTime < t2.DispatchTime);

	mov	eax, DWORD PTR _t2$[ebp]
	mov	ecx, DWORD PTR _t1$[ebp]
	movsd	xmm0, QWORD PTR [eax+16]
	comisd	xmm0, QWORD PTR [ecx+16]
	jbe	SHORT $LN5@operator
	mov	DWORD PTR tv72[ebp], 1
	jmp	SHORT $LN6@operator
$LN5@operator:
	mov	DWORD PTR tv72[ebp], 0
$LN6@operator:
	mov	al, BYTE PTR tv72[ebp]
$LN3@operator:

; 85   :   }
; 86   : }

	add	esp, 4
	cmp	ebp, esp
	call	__RTC_CheckEsp
	mov	esp, ebp
	pop	ebp
	ret	0
??M@YA_NABUTelegram@@0@Z ENDP				; operator<
_TEXT	ENDS
; Function compile flags: /Odtp /RTCsu
; File C:\Users\lsy01\OneDrive\바탕 화면\3-2_Study\인공지능\Source\VS2010\Common\Messaging\Telegram.h
;	COMDAT ??8@YA_NABUTelegram@@0@Z
_TEXT	SEGMENT
tv79 = -12						; size = 4
tv88 = -8						; size = 8
_t1$ = 8						; size = 4
_t2$ = 12						; size = 4
??8@YA_NABUTelegram@@0@Z PROC				; operator==, COMDAT

; 68   : {

	push	ebp
	mov	ebp, esp
	sub	esp, 12					; 0000000cH
	mov	DWORD PTR [ebp-12], -858993460		; ccccccccH
	mov	DWORD PTR [ebp-8], -858993460		; ccccccccH
	mov	DWORD PTR [ebp-4], -858993460		; ccccccccH

; 69   :   return ( fabs(t1.DispatchTime-t2.DispatchTime) < SmallestDelay) &&

	mov	eax, DWORD PTR _t1$[ebp]
	mov	ecx, DWORD PTR _t2$[ebp]
	movsd	xmm0, QWORD PTR [eax+16]
	subsd	xmm0, QWORD PTR [ecx+16]
	sub	esp, 8
	movsd	QWORD PTR [esp], xmm0
	call	_fabs
	add	esp, 8
	fstp	QWORD PTR tv88[ebp]
	movsd	xmm0, QWORD PTR __real@3fd0000000000000
	comisd	xmm0, QWORD PTR tv88[ebp]
	jbe	SHORT $LN3@operator
	mov	edx, DWORD PTR _t1$[ebp]
	mov	eax, DWORD PTR _t2$[ebp]
	mov	ecx, DWORD PTR [edx]
	cmp	ecx, DWORD PTR [eax]
	jne	SHORT $LN3@operator
	mov	edx, DWORD PTR _t1$[ebp]
	mov	eax, DWORD PTR _t2$[ebp]
	mov	ecx, DWORD PTR [edx+4]
	cmp	ecx, DWORD PTR [eax+4]
	jne	SHORT $LN3@operator
	mov	edx, DWORD PTR _t1$[ebp]
	mov	eax, DWORD PTR _t2$[ebp]
	mov	ecx, DWORD PTR [edx+8]
	cmp	ecx, DWORD PTR [eax+8]
	jne	SHORT $LN3@operator
	mov	DWORD PTR tv79[ebp], 1
	jmp	SHORT $LN4@operator
$LN3@operator:
	mov	DWORD PTR tv79[ebp], 0
$LN4@operator:
	mov	al, BYTE PTR tv79[ebp]

; 70   :           (t1.Sender == t2.Sender)        &&
; 71   :           (t1.Receiver == t2.Receiver)    &&
; 72   :           (t1.Msg == t2.Msg);
; 73   : }

	add	esp, 12					; 0000000cH
	cmp	ebp, esp
	call	__RTC_CheckEsp
	mov	esp, ebp
	pop	ebp
	ret	0
??8@YA_NABUTelegram@@0@Z ENDP				; operator==
_TEXT	ENDS
; Function compile flags: /Odtp /RTCsu
; File C:\Users\lsy01\OneDrive\바탕 화면\3-2_Study\인공지능\Source\VS2010\Common\Messaging\Telegram.h
;	COMDAT ??0Telegram@@QAE@NHHHPAX@Z
_TEXT	SEGMENT
_this$ = -4						; size = 4
_time$ = 8						; size = 8
_sender$ = 16						; size = 4
_receiver$ = 20						; size = 4
_msg$ = 24						; size = 4
_info$ = 28						; size = 4
??0Telegram@@QAE@NHHHPAX@Z PROC				; Telegram::Telegram, COMDAT
; _this$ = ecx

; 55   :   {}

	push	ebp
	mov	ebp, esp
	push	ecx
	mov	DWORD PTR _this$[ebp], ecx

; 51   :                                Sender(sender),

	mov	eax, DWORD PTR _this$[ebp]
	mov	ecx, DWORD PTR _sender$[ebp]
	mov	DWORD PTR [eax], ecx

; 52   :                                Receiver(receiver),

	mov	edx, DWORD PTR _this$[ebp]
	mov	eax, DWORD PTR _receiver$[ebp]
	mov	DWORD PTR [edx+4], eax

; 53   :                                Msg(msg),

	mov	ecx, DWORD PTR _this$[ebp]
	mov	edx, DWORD PTR _msg$[ebp]
	mov	DWORD PTR [ecx+8], edx

; 50   :            void*  info = NULL): DispatchTime(time),

	mov	eax, DWORD PTR _this$[ebp]
	movsd	xmm0, QWORD PTR _time$[ebp]
	movsd	QWORD PTR [eax+16], xmm0

; 54   :                                ExtraInfo(info)

	mov	ecx, DWORD PTR _this$[ebp]
	mov	edx, DWORD PTR _info$[ebp]
	mov	DWORD PTR [ecx+24], edx

; 55   :   {}

	mov	eax, DWORD PTR _this$[ebp]
	mov	esp, ebp
	pop	ebp
	ret	24					; 00000018H
??0Telegram@@QAE@NHHHPAX@Z ENDP				; Telegram::Telegram
_TEXT	ENDS
; Function compile flags: /Odtp /RTCsu
; File C:\Program Files\Microsoft Visual Studio\2022\Community\VC\Tools\MSVC\14.32.31326\include\xlocale
;	COMDAT ??0id@locale@std@@QAE@I@Z
_TEXT	SEGMENT
_this$ = -4						; size = 4
__Val$ = 8						; size = 4
??0id@locale@std@@QAE@I@Z PROC				; std::locale::id::id, COMDAT
; _this$ = ecx

; 96   :         __CLR_OR_THIS_CALL id(size_t _Val = 0) : _Id(_Val) {}

	push	ebp
	mov	ebp, esp
	push	ecx
	mov	DWORD PTR _this$[ebp], ecx
	mov	eax, DWORD PTR _this$[ebp]
	mov	ecx, DWORD PTR __Val$[ebp]
	mov	DWORD PTR [eax], ecx
	mov	eax, DWORD PTR _this$[ebp]
	mov	esp, ebp
	pop	ebp
	ret	4
??0id@locale@std@@QAE@I@Z ENDP				; std::locale::id::id
_TEXT	ENDS
; Function compile flags: /Odtp /RTCsu
; File C:\Program Files\Microsoft Visual Studio\2022\Community\VC\Tools\MSVC\14.32.31326\include\xtree
;	COMDAT ?_Throw_tree_length_error@std@@YAXXZ
_TEXT	SEGMENT
?_Throw_tree_length_error@std@@YAXXZ PROC		; std::_Throw_tree_length_error, COMDAT

; 415  : [[noreturn]] inline void _Throw_tree_length_error() {

	push	ebp
	mov	ebp, esp

; 416  :     _Xlength_error("map/set too long");

	push	OFFSET ??_C@_0BB@GCADKGJO@map?1set?5too?5long@
	call	?_Xlength_error@std@@YAXPBD@Z		; std::_Xlength_error
$LN2@Throw_tree:

; 417  : }

	cmp	ebp, esp
	call	__RTC_CheckEsp
	pop	ebp
	ret	0
?_Throw_tree_length_error@std@@YAXXZ ENDP		; std::_Throw_tree_length_error
_TEXT	ENDS
; Function compile flags: /Odtp /RTCsu
; File C:\Program Files\Microsoft Visual Studio\2022\Community\VC\Tools\MSVC\14.32.31326\include\xmemory
;	COMDAT ??0_Basic_container_proxy_ptr12@std@@IAE@XZ
_TEXT	SEGMENT
_this$ = -4						; size = 4
??0_Basic_container_proxy_ptr12@std@@IAE@XZ PROC	; std::_Basic_container_proxy_ptr12::_Basic_container_proxy_ptr12, COMDAT
; _this$ = ecx

; 1304 :     _CONSTEXPR20 _Basic_container_proxy_ptr12()                       = default;

	push	ebp
	mov	ebp, esp
	push	ecx
	mov	DWORD PTR _this$[ebp], ecx

; 1297 :     _Container_proxy* _Ptr = nullptr;

	mov	eax, DWORD PTR _this$[ebp]
	mov	DWORD PTR [eax], 0

; 1304 :     _CONSTEXPR20 _Basic_container_proxy_ptr12()                       = default;

	mov	eax, DWORD PTR _this$[ebp]
	mov	esp, ebp
	pop	ebp
	ret	0
??0_Basic_container_proxy_ptr12@std@@IAE@XZ ENDP	; std::_Basic_container_proxy_ptr12::_Basic_container_proxy_ptr12
_TEXT	ENDS
; Function compile flags: /Odtp /RTCsu
; File C:\Program Files\Microsoft Visual Studio\2022\Community\VC\Tools\MSVC\14.32.31326\include\xmemory
;	COMDAT ?_Release@_Basic_container_proxy_ptr12@std@@QAEXXZ
_TEXT	SEGMENT
_this$ = -4						; size = 4
?_Release@_Basic_container_proxy_ptr12@std@@QAEXXZ PROC	; std::_Basic_container_proxy_ptr12::_Release, COMDAT
; _this$ = ecx

; 1299 :     constexpr void _Release() noexcept { // disengage this _Basic_container_proxy_ptr12

	push	ebp
	mov	ebp, esp
	push	ecx
	mov	DWORD PTR _this$[ebp], ecx

; 1300 :         _Ptr = nullptr;

	mov	eax, DWORD PTR _this$[ebp]
	mov	DWORD PTR [eax], 0

; 1301 :     }

	mov	esp, ebp
	pop	ebp
	ret	0
?_Release@_Basic_container_proxy_ptr12@std@@QAEXXZ ENDP	; std::_Basic_container_proxy_ptr12::_Release
_TEXT	ENDS
; Function compile flags: /Odtp /RTCsu
; File C:\Program Files\Microsoft Visual Studio\2022\Community\VC\Tools\MSVC\14.32.31326\include\xmemory
;	COMDAT ?_Orphan_me_locked_v3@_Iterator_base12@std@@AAEXXZ
_TEXT	SEGMENT
__Lock$ = -12						; size = 4
_this$ = -4						; size = 4
?_Orphan_me_locked_v3@_Iterator_base12@std@@AAEXXZ PROC	; std::_Iterator_base12::_Orphan_me_locked_v3, COMDAT
; _this$ = ecx

; 1212 :     void _Orphan_me_locked_v3() noexcept {

	push	ebp
	mov	ebp, esp
	sub	esp, 16					; 00000010H
	mov	eax, -858993460				; ccccccccH
	mov	DWORD PTR [ebp-16], eax
	mov	DWORD PTR [ebp-12], eax
	mov	DWORD PTR [ebp-8], eax
	mov	DWORD PTR [ebp-4], eax
	mov	DWORD PTR _this$[ebp], ecx

; 1213 :         _Lockit _Lock(_LOCK_DEBUG);

	push	3
	lea	ecx, DWORD PTR __Lock$[ebp]
	call	??0_Lockit@std@@QAE@H@Z			; std::_Lockit::_Lockit

; 1214 :         _Orphan_me_unlocked_v3();

	mov	ecx, DWORD PTR _this$[ebp]
	call	?_Orphan_me_unlocked_v3@_Iterator_base12@std@@AAEXXZ ; std::_Iterator_base12::_Orphan_me_unlocked_v3

; 1215 :     }

	lea	ecx, DWORD PTR __Lock$[ebp]
	call	??1_Lockit@std@@QAE@XZ			; std::_Lockit::~_Lockit
	push	edx
	mov	ecx, ebp
	push	eax
	lea	edx, DWORD PTR $LN5@Orphan_me_
	call	@_RTC_CheckStackVars@8
	pop	eax
	pop	edx
	add	esp, 16					; 00000010H
	cmp	ebp, esp
	call	__RTC_CheckEsp
	mov	esp, ebp
	pop	ebp
	ret	0
	npad	1
$LN5@Orphan_me_:
	DD	1
	DD	$LN4@Orphan_me_
$LN4@Orphan_me_:
	DD	-12					; fffffff4H
	DD	4
	DD	$LN3@Orphan_me_
$LN3@Orphan_me_:
	DB	95					; 0000005fH
	DB	76					; 0000004cH
	DB	111					; 0000006fH
	DB	99					; 00000063H
	DB	107					; 0000006bH
	DB	0
?_Orphan_me_locked_v3@_Iterator_base12@std@@AAEXXZ ENDP	; std::_Iterator_base12::_Orphan_me_locked_v3
_TEXT	ENDS
; Function compile flags: /Odtp /RTCsu
; File C:\Program Files\Microsoft Visual Studio\2022\Community\VC\Tools\MSVC\14.32.31326\include\xmemory
;	COMDAT ?_Orphan_me_unlocked_v3@_Iterator_base12@std@@AAEXXZ
_TEXT	SEGMENT
__Temp$1 = -12						; size = 4
__Pnext$ = -8						; size = 4
_this$ = -4						; size = 4
?_Orphan_me_unlocked_v3@_Iterator_base12@std@@AAEXXZ PROC ; std::_Iterator_base12::_Orphan_me_unlocked_v3, COMDAT
; _this$ = ecx

; 1195 :     _CONSTEXPR20 void _Orphan_me_unlocked_v3() noexcept {

	push	ebp
	mov	ebp, esp
	sub	esp, 12					; 0000000cH
	mov	DWORD PTR [ebp-12], -858993460		; ccccccccH
	mov	DWORD PTR [ebp-8], -858993460		; ccccccccH
	mov	DWORD PTR [ebp-4], -858993460		; ccccccccH
	mov	DWORD PTR _this$[ebp], ecx

; 1196 :         if (!_Myproxy) { // already orphaned

	mov	eax, DWORD PTR _this$[ebp]
	cmp	DWORD PTR [eax], 0
	jne	SHORT $LN10@Orphan_me_

; 1197 :             return;

	jmp	$LN13@Orphan_me_
$LN10@Orphan_me_:

; 1198 :         }
; 1199 : 
; 1200 :         // adopted, remove self from list
; 1201 :         _Iterator_base12** _Pnext = &_Myproxy->_Myfirstiter;

	mov	ecx, DWORD PTR _this$[ebp]
	mov	edx, DWORD PTR [ecx]
	add	edx, 4
	mov	DWORD PTR __Pnext$[ebp], edx
$LN2@Orphan_me_:

; 1202 :         while (*_Pnext && *_Pnext != this) {

	mov	eax, DWORD PTR __Pnext$[ebp]
	cmp	DWORD PTR [eax], 0
	je	SHORT $LN6@Orphan_me_
	mov	ecx, DWORD PTR __Pnext$[ebp]
	mov	edx, DWORD PTR [ecx]
	cmp	edx, DWORD PTR _this$[ebp]
	je	SHORT $LN6@Orphan_me_

; 1203 :             const auto _Temp = *_Pnext; // TRANSITION, VSO-1269037

	mov	eax, DWORD PTR __Pnext$[ebp]
	mov	ecx, DWORD PTR [eax]
	mov	DWORD PTR __Temp$1[ebp], ecx

; 1204 :             _Pnext           = &_Temp->_Mynextiter;

	mov	edx, DWORD PTR __Temp$1[ebp]
	add	edx, 4
	mov	DWORD PTR __Pnext$[ebp], edx

; 1205 :         }

	jmp	SHORT $LN2@Orphan_me_
$LN6@Orphan_me_:

; 1206 : 
; 1207 :         _STL_VERIFY(*_Pnext, "ITERATOR LIST CORRUPTED!");

	mov	eax, DWORD PTR __Pnext$[ebp]
	cmp	DWORD PTR [eax], 0
	je	SHORT $LN9@Orphan_me_
	jmp	SHORT $LN4@Orphan_me_
$LN9@Orphan_me_:
	push	OFFSET ??_C@_0BJ@LFDBABJJ@ITERATOR?5LIST?5CORRUPTED?$CB@
	push	OFFSET ??_C@_02DKCKIIND@?$CFs@
	push	0
	push	1207					; 000004b7H
	push	OFFSET ??_C@_0GC@DJFHHHKN@C?3?2Program?5Files?2Microsoft?5Visu@
	push	2
	call	__CrtDbgReport
	add	esp, 24					; 00000018H
	cmp	eax, 1
	jne	SHORT $LN14@Orphan_me_
	int	3
$LN14@Orphan_me_:
	push	0
	push	1207					; 000004b7H
	push	OFFSET ??_C@_1ME@GEFGDEOM@?$AAC?$AA?3?$AA?2?$AAP?$AAr?$AAo?$AAg?$AAr?$AAa?$AAm?$AA?5?$AAF?$AAi?$AAl?$AAe@
	push	OFFSET ??_C@_11LOCGONAA@@
	push	OFFSET ??_C@_1DG@PLBPCAEM@?$AA?$CC?$AAI?$AAT?$AAE?$AAR?$AAA?$AAT?$AAO?$AAR?$AA?5?$AAL?$AAI?$AAS?$AAT?$AA?5@
	call	__invalid_parameter
	add	esp, 20					; 00000014H
	xor	edx, edx
	jne	SHORT $LN9@Orphan_me_
$LN4@Orphan_me_:
	xor	eax, eax
	jne	SHORT $LN6@Orphan_me_

; 1208 :         *_Pnext  = _Mynextiter;

	mov	ecx, DWORD PTR __Pnext$[ebp]
	mov	edx, DWORD PTR _this$[ebp]
	mov	eax, DWORD PTR [edx+4]
	mov	DWORD PTR [ecx], eax

; 1209 :         _Myproxy = nullptr;

	mov	ecx, DWORD PTR _this$[ebp]
	mov	DWORD PTR [ecx], 0
$LN13@Orphan_me_:

; 1210 :     }

	add	esp, 12					; 0000000cH
	cmp	ebp, esp
	call	__RTC_CheckEsp
	mov	esp, ebp
	pop	ebp
	ret	0
?_Orphan_me_unlocked_v3@_Iterator_base12@std@@AAEXXZ ENDP ; std::_Iterator_base12::_Orphan_me_unlocked_v3
_TEXT	ENDS
; Function compile flags: /Odtp /RTCsu
; File C:\Program Files\Microsoft Visual Studio\2022\Community\VC\Tools\MSVC\14.32.31326\include\xmemory
;	COMDAT ?_Adopt_locked@_Iterator_base12@std@@AAEXPBU_Container_base12@2@@Z
_TEXT	SEGMENT
__Lock$ = -12						; size = 4
_this$ = -4						; size = 4
__Parent$ = 8						; size = 4
?_Adopt_locked@_Iterator_base12@std@@AAEXPBU_Container_base12@2@@Z PROC ; std::_Iterator_base12::_Adopt_locked, COMDAT
; _this$ = ecx

; 1190 :     void _Adopt_locked(const _Container_base12* _Parent) noexcept {

	push	ebp
	mov	ebp, esp
	sub	esp, 16					; 00000010H
	mov	eax, -858993460				; ccccccccH
	mov	DWORD PTR [ebp-16], eax
	mov	DWORD PTR [ebp-12], eax
	mov	DWORD PTR [ebp-8], eax
	mov	DWORD PTR [ebp-4], eax
	mov	DWORD PTR _this$[ebp], ecx

; 1191 :         _Lockit _Lock(_LOCK_DEBUG);

	push	3
	lea	ecx, DWORD PTR __Lock$[ebp]
	call	??0_Lockit@std@@QAE@H@Z			; std::_Lockit::_Lockit

; 1192 :         _Adopt_unlocked(_Parent);

	mov	eax, DWORD PTR __Parent$[ebp]
	push	eax
	mov	ecx, DWORD PTR _this$[ebp]
	call	?_Adopt_unlocked@_Iterator_base12@std@@AAEXPBU_Container_base12@2@@Z ; std::_Iterator_base12::_Adopt_unlocked

; 1193 :     }

	lea	ecx, DWORD PTR __Lock$[ebp]
	call	??1_Lockit@std@@QAE@XZ			; std::_Lockit::~_Lockit
	push	edx
	mov	ecx, ebp
	push	eax
	lea	edx, DWORD PTR $LN5@Adopt_lock
	call	@_RTC_CheckStackVars@8
	pop	eax
	pop	edx
	add	esp, 16					; 00000010H
	cmp	ebp, esp
	call	__RTC_CheckEsp
	mov	esp, ebp
	pop	ebp
	ret	4
	npad	3
$LN5@Adopt_lock:
	DD	1
	DD	$LN4@Adopt_lock
$LN4@Adopt_lock:
	DD	-12					; fffffff4H
	DD	4
	DD	$LN3@Adopt_lock
$LN3@Adopt_lock:
	DB	95					; 0000005fH
	DB	76					; 0000004cH
	DB	111					; 0000006fH
	DB	99					; 00000063H
	DB	107					; 0000006bH
	DB	0
?_Adopt_locked@_Iterator_base12@std@@AAEXPBU_Container_base12@2@@Z ENDP ; std::_Iterator_base12::_Adopt_locked
_TEXT	ENDS
; Function compile flags: /Odtp /RTCsu
; File C:\Program Files\Microsoft Visual Studio\2022\Community\VC\Tools\MSVC\14.32.31326\include\xmemory
;	COMDAT ?_Adopt_unlocked@_Iterator_base12@std@@AAEXPBU_Container_base12@2@@Z
_TEXT	SEGMENT
__Parent_proxy$ = -8					; size = 4
_this$ = -4						; size = 4
__Parent$ = 8						; size = 4
?_Adopt_unlocked@_Iterator_base12@std@@AAEXPBU_Container_base12@2@@Z PROC ; std::_Iterator_base12::_Adopt_unlocked, COMDAT
; _this$ = ecx

; 1173 :     _CONSTEXPR20 void _Adopt_unlocked(const _Container_base12* _Parent) noexcept {

	push	ebp
	mov	ebp, esp
	sub	esp, 8
	mov	DWORD PTR [ebp-8], -858993460		; ccccccccH
	mov	DWORD PTR [ebp-4], -858993460		; ccccccccH
	mov	DWORD PTR _this$[ebp], ecx

; 1174 :         if (!_Parent) {

	cmp	DWORD PTR __Parent$[ebp], 0
	jne	SHORT $LN2@Adopt_unlo

; 1175 :             _Orphan_me_unlocked_v3();

	mov	ecx, DWORD PTR _this$[ebp]
	call	?_Orphan_me_unlocked_v3@_Iterator_base12@std@@AAEXXZ ; std::_Iterator_base12::_Orphan_me_unlocked_v3

; 1176 :             return;

	jmp	SHORT $LN5@Adopt_unlo
$LN2@Adopt_unlo:

; 1177 :         }
; 1178 : 
; 1179 :         _Container_proxy* _Parent_proxy = _Parent->_Myproxy;

	mov	eax, DWORD PTR __Parent$[ebp]
	mov	ecx, DWORD PTR [eax]
	mov	DWORD PTR __Parent_proxy$[ebp], ecx

; 1180 :         if (_Myproxy != _Parent_proxy) { // change parentage

	mov	edx, DWORD PTR _this$[ebp]
	mov	eax, DWORD PTR [edx]
	cmp	eax, DWORD PTR __Parent_proxy$[ebp]
	je	SHORT $LN5@Adopt_unlo

; 1181 :             if (_Myproxy) { // adopted, remove self from list

	mov	ecx, DWORD PTR _this$[ebp]
	cmp	DWORD PTR [ecx], 0
	je	SHORT $LN4@Adopt_unlo

; 1182 :                 _Orphan_me_unlocked_v3();

	mov	ecx, DWORD PTR _this$[ebp]
	call	?_Orphan_me_unlocked_v3@_Iterator_base12@std@@AAEXXZ ; std::_Iterator_base12::_Orphan_me_unlocked_v3
$LN4@Adopt_unlo:

; 1183 :             }
; 1184 :             _Mynextiter                 = _Parent_proxy->_Myfirstiter;

	mov	edx, DWORD PTR _this$[ebp]
	mov	eax, DWORD PTR __Parent_proxy$[ebp]
	mov	ecx, DWORD PTR [eax+4]
	mov	DWORD PTR [edx+4], ecx

; 1185 :             _Parent_proxy->_Myfirstiter = this;

	mov	edx, DWORD PTR __Parent_proxy$[ebp]
	mov	eax, DWORD PTR _this$[ebp]
	mov	DWORD PTR [edx+4], eax

; 1186 :             _Myproxy                    = _Parent_proxy;

	mov	ecx, DWORD PTR _this$[ebp]
	mov	edx, DWORD PTR __Parent_proxy$[ebp]
	mov	DWORD PTR [ecx], edx
$LN5@Adopt_unlo:

; 1187 :         }
; 1188 :     }

	add	esp, 8
	cmp	ebp, esp
	call	__RTC_CheckEsp
	mov	esp, ebp
	pop	ebp
	ret	4
?_Adopt_unlocked@_Iterator_base12@std@@AAEXPBU_Container_base12@2@@Z ENDP ; std::_Iterator_base12::_Adopt_unlocked
_TEXT	ENDS
; Function compile flags: /Odtp /RTCsu
; File C:\Program Files\Microsoft Visual Studio\2022\Community\VC\Tools\MSVC\14.32.31326\include\xmemory
;	COMDAT ?_Assign_locked@_Iterator_base12@std@@AAEXABU12@@Z
_TEXT	SEGMENT
__Lock$ = -12						; size = 4
_this$ = -4						; size = 4
__Right$ = 8						; size = 4
?_Assign_locked@_Iterator_base12@std@@AAEXABU12@@Z PROC	; std::_Iterator_base12::_Assign_locked, COMDAT
; _this$ = ecx

; 1168 :     void _Assign_locked(const _Iterator_base12& _Right) noexcept {

	push	ebp
	mov	ebp, esp
	sub	esp, 16					; 00000010H
	mov	eax, -858993460				; ccccccccH
	mov	DWORD PTR [ebp-16], eax
	mov	DWORD PTR [ebp-12], eax
	mov	DWORD PTR [ebp-8], eax
	mov	DWORD PTR [ebp-4], eax
	mov	DWORD PTR _this$[ebp], ecx

; 1169 :         _Lockit _Lock(_LOCK_DEBUG);

	push	3
	lea	ecx, DWORD PTR __Lock$[ebp]
	call	??0_Lockit@std@@QAE@H@Z			; std::_Lockit::_Lockit

; 1170 :         _Assign_unlocked(_Right);

	mov	eax, DWORD PTR __Right$[ebp]
	push	eax
	mov	ecx, DWORD PTR _this$[ebp]
	call	?_Assign_unlocked@_Iterator_base12@std@@AAEXABU12@@Z ; std::_Iterator_base12::_Assign_unlocked

; 1171 :     }

	lea	ecx, DWORD PTR __Lock$[ebp]
	call	??1_Lockit@std@@QAE@XZ			; std::_Lockit::~_Lockit
	push	edx
	mov	ecx, ebp
	push	eax
	lea	edx, DWORD PTR $LN5@Assign_loc
	call	@_RTC_CheckStackVars@8
	pop	eax
	pop	edx
	add	esp, 16					; 00000010H
	cmp	ebp, esp
	call	__RTC_CheckEsp
	mov	esp, ebp
	pop	ebp
	ret	4
	npad	3
$LN5@Assign_loc:
	DD	1
	DD	$LN4@Assign_loc
$LN4@Assign_loc:
	DD	-12					; fffffff4H
	DD	4
	DD	$LN3@Assign_loc
$LN3@Assign_loc:
	DB	95					; 0000005fH
	DB	76					; 0000004cH
	DB	111					; 0000006fH
	DB	99					; 00000063H
	DB	107					; 0000006bH
	DB	0
?_Assign_locked@_Iterator_base12@std@@AAEXABU12@@Z ENDP	; std::_Iterator_base12::_Assign_locked
_TEXT	ENDS
; Function compile flags: /Odtp /RTCsu
; File C:\Program Files\Microsoft Visual Studio\2022\Community\VC\Tools\MSVC\14.32.31326\include\xmemory
;	COMDAT ?_Assign_unlocked@_Iterator_base12@std@@AAEXABU12@@Z
_TEXT	SEGMENT
_this$ = -4						; size = 4
__Right$ = 8						; size = 4
?_Assign_unlocked@_Iterator_base12@std@@AAEXABU12@@Z PROC ; std::_Iterator_base12::_Assign_unlocked, COMDAT
; _this$ = ecx

; 1156 :     _CONSTEXPR20 void _Assign_unlocked(const _Iterator_base12& _Right) noexcept {

	push	ebp
	mov	ebp, esp
	push	ecx
	mov	DWORD PTR [ebp-4], -858993460		; ccccccccH
	mov	DWORD PTR _this$[ebp], ecx

; 1157 :         if (_Myproxy == _Right._Myproxy) {

	mov	eax, DWORD PTR _this$[ebp]
	mov	ecx, DWORD PTR __Right$[ebp]
	mov	edx, DWORD PTR [eax]
	cmp	edx, DWORD PTR [ecx]
	jne	SHORT $LN2@Assign_unl

; 1158 :             return;

	jmp	SHORT $LN5@Assign_unl
$LN2@Assign_unl:

; 1159 :         }
; 1160 : 
; 1161 :         if (_Right._Myproxy) {

	mov	eax, DWORD PTR __Right$[ebp]
	cmp	DWORD PTR [eax], 0
	je	SHORT $LN3@Assign_unl

; 1162 :             _Adopt_unlocked(_Right._Myproxy->_Mycont);

	mov	ecx, DWORD PTR __Right$[ebp]
	mov	edx, DWORD PTR [ecx]
	mov	eax, DWORD PTR [edx]
	push	eax
	mov	ecx, DWORD PTR _this$[ebp]
	call	?_Adopt_unlocked@_Iterator_base12@std@@AAEXPBU_Container_base12@2@@Z ; std::_Iterator_base12::_Adopt_unlocked

; 1163 :         } else { // becoming invalid, disown current parent

	jmp	SHORT $LN5@Assign_unl
$LN3@Assign_unl:

; 1164 :             _Orphan_me_unlocked_v3();

	mov	ecx, DWORD PTR _this$[ebp]
	call	?_Orphan_me_unlocked_v3@_Iterator_base12@std@@AAEXXZ ; std::_Iterator_base12::_Orphan_me_unlocked_v3
$LN5@Assign_unl:

; 1165 :         }
; 1166 :     }

	add	esp, 4
	cmp	ebp, esp
	call	__RTC_CheckEsp
	mov	esp, ebp
	pop	ebp
	ret	4
?_Assign_unlocked@_Iterator_base12@std@@AAEXABU12@@Z ENDP ; std::_Iterator_base12::_Assign_unlocked
_TEXT	ENDS
; Function compile flags: /Odtp /RTCsu
; File C:\Program Files\Microsoft Visual Studio\2022\Community\VC\Tools\MSVC\14.32.31326\include\xmemory
;	COMDAT ?_Getcont@_Iterator_base12@std@@QBEPBU_Container_base12@2@XZ
_TEXT	SEGMENT
tv68 = -8						; size = 4
_this$ = -4						; size = 4
?_Getcont@_Iterator_base12@std@@QBEPBU_Container_base12@2@XZ PROC ; std::_Iterator_base12::_Getcont, COMDAT
; _this$ = ecx

; 1145 :     _CONSTEXPR20 const _Container_base12* _Getcont() const noexcept {

	push	ebp
	mov	ebp, esp
	sub	esp, 8
	mov	DWORD PTR _this$[ebp], ecx

; 1146 :         return _Myproxy ? _Myproxy->_Mycont : nullptr;

	mov	eax, DWORD PTR _this$[ebp]
	cmp	DWORD PTR [eax], 0
	je	SHORT $LN3@Getcont
	mov	ecx, DWORD PTR _this$[ebp]
	mov	edx, DWORD PTR [ecx]
	mov	eax, DWORD PTR [edx]
	mov	DWORD PTR tv68[ebp], eax
	jmp	SHORT $LN4@Getcont
$LN3@Getcont:
	mov	DWORD PTR tv68[ebp], 0
$LN4@Getcont:
	mov	eax, DWORD PTR tv68[ebp]

; 1147 :     }

	mov	esp, ebp
	pop	ebp
	ret	0
?_Getcont@_Iterator_base12@std@@QBEPBU_Container_base12@2@XZ ENDP ; std::_Iterator_base12::_Getcont
_TEXT	ENDS
; Function compile flags: /Odtp /RTCsu
; File C:\Program Files\Microsoft Visual Studio\2022\Community\VC\Tools\MSVC\14.32.31326\include\xmemory
;	COMDAT ?_Adopt@_Iterator_base12@std@@QAEXPBU_Container_base12@2@@Z
_TEXT	SEGMENT
_this$ = -4						; size = 4
__Parent$ = 8						; size = 4
?_Adopt@_Iterator_base12@std@@QAEXPBU_Container_base12@2@@Z PROC ; std::_Iterator_base12::_Adopt, COMDAT
; _this$ = ecx

; 1125 :     _CONSTEXPR20 void _Adopt(const _Container_base12* _Parent) noexcept {

	push	ebp
	mov	ebp, esp
	push	ecx
	mov	DWORD PTR [ebp-4], -858993460		; ccccccccH
	mov	DWORD PTR _this$[ebp], ecx

; 1126 : #if _HAS_CXX20
; 1127 :         if (_STD is_constant_evaluated()) {
; 1128 :             _Adopt_unlocked(_Parent);
; 1129 :         } else
; 1130 : #endif // _HAS_CXX20
; 1131 :         {
; 1132 :             _Adopt_locked(_Parent);

	mov	eax, DWORD PTR __Parent$[ebp]
	push	eax
	mov	ecx, DWORD PTR _this$[ebp]
	call	?_Adopt_locked@_Iterator_base12@std@@AAEXPBU_Container_base12@2@@Z ; std::_Iterator_base12::_Adopt_locked

; 1133 :         }
; 1134 :     }

	add	esp, 4
	cmp	ebp, esp
	call	__RTC_CheckEsp
	mov	esp, ebp
	pop	ebp
	ret	4
?_Adopt@_Iterator_base12@std@@QAEXPBU_Container_base12@2@@Z ENDP ; std::_Iterator_base12::_Adopt
_TEXT	ENDS
; Function compile flags: /Odtp /RTCsu
; File C:\Program Files\Microsoft Visual Studio\2022\Community\VC\Tools\MSVC\14.32.31326\include\xmemory
;	COMDAT ??1_Iterator_base12@std@@QAE@XZ
_TEXT	SEGMENT
_this$ = -4						; size = 4
??1_Iterator_base12@std@@QAE@XZ PROC			; std::_Iterator_base12::~_Iterator_base12, COMDAT
; _this$ = ecx

; 1114 :     _CONSTEXPR20 ~_Iterator_base12() noexcept {

	push	ebp
	mov	ebp, esp
	push	ecx
	mov	DWORD PTR [ebp-4], -858993460		; ccccccccH
	mov	DWORD PTR _this$[ebp], ecx

; 1115 : #if _HAS_CXX20
; 1116 :         if (_STD is_constant_evaluated()) {
; 1117 :             _Orphan_me_unlocked_v3();
; 1118 :         } else
; 1119 : #endif // _HAS_CXX20
; 1120 :         {
; 1121 :             _Orphan_me_locked_v3();

	mov	ecx, DWORD PTR _this$[ebp]
	call	?_Orphan_me_locked_v3@_Iterator_base12@std@@AAEXXZ ; std::_Iterator_base12::_Orphan_me_locked_v3

; 1122 :         }
; 1123 :     }

	add	esp, 4
	cmp	ebp, esp
	call	__RTC_CheckEsp
	mov	esp, ebp
	pop	ebp
	ret	0
??1_Iterator_base12@std@@QAE@XZ ENDP			; std::_Iterator_base12::~_Iterator_base12
_TEXT	ENDS
; Function compile flags: /Odtp /RTCsu
; File C:\Program Files\Microsoft Visual Studio\2022\Community\VC\Tools\MSVC\14.32.31326\include\xmemory
;	COMDAT ??4_Iterator_base12@std@@QAEAAU01@ABU01@@Z
_TEXT	SEGMENT
_this$ = -4						; size = 4
__Right$ = 8						; size = 4
??4_Iterator_base12@std@@QAEAAU01@ABU01@@Z PROC		; std::_Iterator_base12::operator=, COMDAT
; _this$ = ecx

; 1097 :     _CONSTEXPR20 _Iterator_base12& operator=(const _Iterator_base12& _Right) noexcept {

	push	ebp
	mov	ebp, esp
	push	ecx
	mov	DWORD PTR [ebp-4], -858993460		; ccccccccH
	mov	DWORD PTR _this$[ebp], ecx

; 1098 : #if _ITERATOR_DEBUG_LEVEL == 2
; 1099 : #if _HAS_CXX20
; 1100 :         if (_STD is_constant_evaluated()) {
; 1101 :             _Assign_unlocked(_Right);
; 1102 :         } else
; 1103 : #endif // _HAS_CXX20
; 1104 :         {
; 1105 :             _Assign_locked(_Right);

	mov	eax, DWORD PTR __Right$[ebp]
	push	eax
	mov	ecx, DWORD PTR _this$[ebp]
	call	?_Assign_locked@_Iterator_base12@std@@AAEXABU12@@Z ; std::_Iterator_base12::_Assign_locked

; 1106 :         }
; 1107 : #else // ^^^ _ITERATOR_DEBUG_LEVEL == 2 ^^^ / vvv _ITERATOR_DEBUG_LEVEL != 2 vvv
; 1108 :         _Myproxy = _Right._Myproxy;
; 1109 : #endif // _ITERATOR_DEBUG_LEVEL != 2
; 1110 :         return *this;

	mov	eax, DWORD PTR _this$[ebp]

; 1111 :     }

	add	esp, 4
	cmp	ebp, esp
	call	__RTC_CheckEsp
	mov	esp, ebp
	pop	ebp
	ret	4
??4_Iterator_base12@std@@QAEAAU01@ABU01@@Z ENDP		; std::_Iterator_base12::operator=
_TEXT	ENDS
; Function compile flags: /Odtp /RTCsu
; File C:\Program Files\Microsoft Visual Studio\2022\Community\VC\Tools\MSVC\14.32.31326\include\xmemory
;	COMDAT ??0_Iterator_base12@std@@QAE@ABU01@@Z
_TEXT	SEGMENT
_this$ = -4						; size = 4
__Right$ = 8						; size = 4
??0_Iterator_base12@std@@QAE@ABU01@@Z PROC		; std::_Iterator_base12::_Iterator_base12, COMDAT
; _this$ = ecx

; 1093 :     _CONSTEXPR20 _Iterator_base12(const _Iterator_base12& _Right) noexcept {

	push	ebp
	mov	ebp, esp
	push	ecx
	mov	DWORD PTR [ebp-4], -858993460		; ccccccccH
	mov	DWORD PTR _this$[ebp], ecx

; 1096 : 
; 1097 :     _CONSTEXPR20 _Iterator_base12& operator=(const _Iterator_base12& _Right) noexcept {
; 1098 : #if _ITERATOR_DEBUG_LEVEL == 2
; 1099 : #if _HAS_CXX20
; 1100 :         if (_STD is_constant_evaluated()) {
; 1101 :             _Assign_unlocked(_Right);
; 1102 :         } else
; 1103 : #endif // _HAS_CXX20
; 1104 :         {
; 1105 :             _Assign_locked(_Right);
; 1106 :         }
; 1107 : #else // ^^^ _ITERATOR_DEBUG_LEVEL == 2 ^^^ / vvv _ITERATOR_DEBUG_LEVEL != 2 vvv
; 1108 :         _Myproxy = _Right._Myproxy;
; 1109 : #endif // _ITERATOR_DEBUG_LEVEL != 2
; 1110 :         return *this;
; 1111 :     }
; 1112 : 
; 1113 : #if _ITERATOR_DEBUG_LEVEL == 2
; 1114 :     _CONSTEXPR20 ~_Iterator_base12() noexcept {
; 1115 : #if _HAS_CXX20
; 1116 :         if (_STD is_constant_evaluated()) {
; 1117 :             _Orphan_me_unlocked_v3();
; 1118 :         } else
; 1119 : #endif // _HAS_CXX20
; 1120 :         {
; 1121 :             _Orphan_me_locked_v3();
; 1122 :         }
; 1123 :     }
; 1124 : 
; 1125 :     _CONSTEXPR20 void _Adopt(const _Container_base12* _Parent) noexcept {
; 1126 : #if _HAS_CXX20
; 1127 :         if (_STD is_constant_evaluated()) {
; 1128 :             _Adopt_unlocked(_Parent);
; 1129 :         } else
; 1130 : #endif // _HAS_CXX20
; 1131 :         {
; 1132 :             _Adopt_locked(_Parent);
; 1133 :         }
; 1134 :     }
; 1135 : #else // ^^^ _ITERATOR_DEBUG_LEVEL == 2 ^^^ / vvv _ITERATOR_DEBUG_LEVEL != 2 vvv
; 1136 :     _CONSTEXPR20 void _Adopt(const _Container_base12* _Parent) noexcept {
; 1137 :         if (_Parent) { // have a parent, do adoption
; 1138 :             _Myproxy = _Parent->_Myproxy;
; 1139 :         } else { // no future parent, just disown current parent
; 1140 :             _Myproxy = nullptr;
; 1141 :         }
; 1142 :     }
; 1143 : #endif // _ITERATOR_DEBUG_LEVEL != 2
; 1144 : 
; 1145 :     _CONSTEXPR20 const _Container_base12* _Getcont() const noexcept {
; 1146 :         return _Myproxy ? _Myproxy->_Mycont : nullptr;
; 1147 :     }
; 1148 : 
; 1149 :     static constexpr bool _Unwrap_when_unverified = _ITERATOR_DEBUG_LEVEL == 0;
; 1150 : 
; 1151 :     mutable _Container_proxy* _Myproxy    = nullptr;

	mov	eax, DWORD PTR _this$[ebp]
	mov	DWORD PTR [eax], 0

; 1152 :     mutable _Iterator_base12* _Mynextiter = nullptr;

	mov	ecx, DWORD PTR _this$[ebp]
	mov	DWORD PTR [ecx+4], 0

; 1094 :         *this = _Right;

	mov	edx, DWORD PTR __Right$[ebp]
	push	edx
	mov	ecx, DWORD PTR _this$[ebp]
	call	??4_Iterator_base12@std@@QAEAAU01@ABU01@@Z ; std::_Iterator_base12::operator=

; 1095 :     }

	mov	eax, DWORD PTR _this$[ebp]
	add	esp, 4
	cmp	ebp, esp
	call	__RTC_CheckEsp
	mov	esp, ebp
	pop	ebp
	ret	4
??0_Iterator_base12@std@@QAE@ABU01@@Z ENDP		; std::_Iterator_base12::_Iterator_base12
_TEXT	ENDS
; Function compile flags: /Odtp /RTCsu
; File C:\Program Files\Microsoft Visual Studio\2022\Community\VC\Tools\MSVC\14.32.31326\include\xmemory
;	COMDAT ??0_Iterator_base12@std@@QAE@XZ
_TEXT	SEGMENT
_this$ = -4						; size = 4
??0_Iterator_base12@std@@QAE@XZ PROC			; std::_Iterator_base12::_Iterator_base12, COMDAT
; _this$ = ecx

; 1091 :     _CONSTEXPR20 _Iterator_base12() noexcept = default; // construct orphaned iterator

	push	ebp
	mov	ebp, esp
	push	ecx
	mov	DWORD PTR _this$[ebp], ecx

; 1092 : 
; 1093 :     _CONSTEXPR20 _Iterator_base12(const _Iterator_base12& _Right) noexcept {
; 1094 :         *this = _Right;
; 1095 :     }
; 1096 : 
; 1097 :     _CONSTEXPR20 _Iterator_base12& operator=(const _Iterator_base12& _Right) noexcept {
; 1098 : #if _ITERATOR_DEBUG_LEVEL == 2
; 1099 : #if _HAS_CXX20
; 1100 :         if (_STD is_constant_evaluated()) {
; 1101 :             _Assign_unlocked(_Right);
; 1102 :         } else
; 1103 : #endif // _HAS_CXX20
; 1104 :         {
; 1105 :             _Assign_locked(_Right);
; 1106 :         }
; 1107 : #else // ^^^ _ITERATOR_DEBUG_LEVEL == 2 ^^^ / vvv _ITERATOR_DEBUG_LEVEL != 2 vvv
; 1108 :         _Myproxy = _Right._Myproxy;
; 1109 : #endif // _ITERATOR_DEBUG_LEVEL != 2
; 1110 :         return *this;
; 1111 :     }
; 1112 : 
; 1113 : #if _ITERATOR_DEBUG_LEVEL == 2
; 1114 :     _CONSTEXPR20 ~_Iterator_base12() noexcept {
; 1115 : #if _HAS_CXX20
; 1116 :         if (_STD is_constant_evaluated()) {
; 1117 :             _Orphan_me_unlocked_v3();
; 1118 :         } else
; 1119 : #endif // _HAS_CXX20
; 1120 :         {
; 1121 :             _Orphan_me_locked_v3();
; 1122 :         }
; 1123 :     }
; 1124 : 
; 1125 :     _CONSTEXPR20 void _Adopt(const _Container_base12* _Parent) noexcept {
; 1126 : #if _HAS_CXX20
; 1127 :         if (_STD is_constant_evaluated()) {
; 1128 :             _Adopt_unlocked(_Parent);
; 1129 :         } else
; 1130 : #endif // _HAS_CXX20
; 1131 :         {
; 1132 :             _Adopt_locked(_Parent);
; 1133 :         }
; 1134 :     }
; 1135 : #else // ^^^ _ITERATOR_DEBUG_LEVEL == 2 ^^^ / vvv _ITERATOR_DEBUG_LEVEL != 2 vvv
; 1136 :     _CONSTEXPR20 void _Adopt(const _Container_base12* _Parent) noexcept {
; 1137 :         if (_Parent) { // have a parent, do adoption
; 1138 :             _Myproxy = _Parent->_Myproxy;
; 1139 :         } else { // no future parent, just disown current parent
; 1140 :             _Myproxy = nullptr;
; 1141 :         }
; 1142 :     }
; 1143 : #endif // _ITERATOR_DEBUG_LEVEL != 2
; 1144 : 
; 1145 :     _CONSTEXPR20 const _Container_base12* _Getcont() const noexcept {
; 1146 :         return _Myproxy ? _Myproxy->_Mycont : nullptr;
; 1147 :     }
; 1148 : 
; 1149 :     static constexpr bool _Unwrap_when_unverified = _ITERATOR_DEBUG_LEVEL == 0;
; 1150 : 
; 1151 :     mutable _Container_proxy* _Myproxy    = nullptr;

	mov	eax, DWORD PTR _this$[ebp]
	mov	DWORD PTR [eax], 0

; 1152 :     mutable _Iterator_base12* _Mynextiter = nullptr;

	mov	ecx, DWORD PTR _this$[ebp]
	mov	DWORD PTR [ecx+4], 0

; 1091 :     _CONSTEXPR20 _Iterator_base12() noexcept = default; // construct orphaned iterator

	mov	eax, DWORD PTR _this$[ebp]
	mov	esp, ebp
	pop	ebp
	ret	0
??0_Iterator_base12@std@@QAE@XZ ENDP			; std::_Iterator_base12::_Iterator_base12
_TEXT	ENDS
; Function compile flags: /Odtp /RTCsu
; File C:\Program Files\Microsoft Visual Studio\2022\Community\VC\Tools\MSVC\14.32.31326\include\xmemory
;	COMDAT ?_Orphan_all_locked_v3@_Container_base12@std@@AAEXXZ
_TEXT	SEGMENT
__Lock$ = -12						; size = 4
_this$ = -4						; size = 4
?_Orphan_all_locked_v3@_Container_base12@std@@AAEXXZ PROC ; std::_Container_base12::_Orphan_all_locked_v3, COMDAT
; _this$ = ecx

; 1078 :     void _Orphan_all_locked_v3() noexcept {

	push	ebp
	mov	ebp, esp
	sub	esp, 16					; 00000010H
	mov	eax, -858993460				; ccccccccH
	mov	DWORD PTR [ebp-16], eax
	mov	DWORD PTR [ebp-12], eax
	mov	DWORD PTR [ebp-8], eax
	mov	DWORD PTR [ebp-4], eax
	mov	DWORD PTR _this$[ebp], ecx

; 1079 :         _Lockit _Lock(_LOCK_DEBUG);

	push	3
	lea	ecx, DWORD PTR __Lock$[ebp]
	call	??0_Lockit@std@@QAE@H@Z			; std::_Lockit::_Lockit

; 1080 :         _Orphan_all_unlocked_v3();

	mov	ecx, DWORD PTR _this$[ebp]
	call	?_Orphan_all_unlocked_v3@_Container_base12@std@@AAEXXZ ; std::_Container_base12::_Orphan_all_unlocked_v3

; 1081 :     }

	lea	ecx, DWORD PTR __Lock$[ebp]
	call	??1_Lockit@std@@QAE@XZ			; std::_Lockit::~_Lockit
	push	edx
	mov	ecx, ebp
	push	eax
	lea	edx, DWORD PTR $LN5@Orphan_all
	call	@_RTC_CheckStackVars@8
	pop	eax
	pop	edx
	add	esp, 16					; 00000010H
	cmp	ebp, esp
	call	__RTC_CheckEsp
	mov	esp, ebp
	pop	ebp
	ret	0
	npad	1
$LN5@Orphan_all:
	DD	1
	DD	$LN4@Orphan_all
$LN4@Orphan_all:
	DD	-12					; fffffff4H
	DD	4
	DD	$LN3@Orphan_all
$LN3@Orphan_all:
	DB	95					; 0000005fH
	DB	76					; 0000004cH
	DB	111					; 0000006fH
	DB	99					; 00000063H
	DB	107					; 0000006bH
	DB	0
?_Orphan_all_locked_v3@_Container_base12@std@@AAEXXZ ENDP ; std::_Container_base12::_Orphan_all_locked_v3
_TEXT	ENDS
; Function compile flags: /Odtp /RTCsu
; File C:\Program Files\Microsoft Visual Studio\2022\Community\VC\Tools\MSVC\14.32.31326\include\xmemory
;	COMDAT ?_Orphan_all_unlocked_v3@_Container_base12@std@@AAEXXZ
_TEXT	SEGMENT
__Pnext$1 = -8						; size = 4
_this$ = -4						; size = 4
?_Orphan_all_unlocked_v3@_Container_base12@std@@AAEXXZ PROC ; std::_Container_base12::_Orphan_all_unlocked_v3, COMDAT
; _this$ = ecx

; 1219 : _CONSTEXPR20 void _Container_base12::_Orphan_all_unlocked_v3() noexcept {

	push	ebp
	mov	ebp, esp
	sub	esp, 8
	mov	DWORD PTR _this$[ebp], ecx

; 1220 :     if (!_Myproxy) { // no proxy, already done

	mov	eax, DWORD PTR _this$[ebp]
	cmp	DWORD PTR [eax], 0
	jne	SHORT $LN5@Orphan_all

; 1221 :         return;

	jmp	SHORT $LN6@Orphan_all
$LN5@Orphan_all:

; 1222 :     }
; 1223 : 
; 1224 :     // proxy allocated, drain it
; 1225 :     for (auto& _Pnext = _Myproxy->_Myfirstiter; _Pnext; _Pnext = _Pnext->_Mynextiter) { // TRANSITION, VSO-1269037

	mov	ecx, DWORD PTR _this$[ebp]
	mov	edx, DWORD PTR [ecx]
	add	edx, 4
	mov	DWORD PTR __Pnext$1[ebp], edx
	jmp	SHORT $LN4@Orphan_all
$LN2@Orphan_all:
	mov	eax, DWORD PTR __Pnext$1[ebp]
	mov	ecx, DWORD PTR [eax]
	mov	edx, DWORD PTR __Pnext$1[ebp]
	mov	eax, DWORD PTR [ecx+4]
	mov	DWORD PTR [edx], eax
$LN4@Orphan_all:
	mov	ecx, DWORD PTR __Pnext$1[ebp]
	cmp	DWORD PTR [ecx], 0
	je	SHORT $LN3@Orphan_all

; 1226 :         _Pnext->_Myproxy = nullptr;

	mov	edx, DWORD PTR __Pnext$1[ebp]
	mov	eax, DWORD PTR [edx]
	mov	DWORD PTR [eax], 0

; 1227 :     }

	jmp	SHORT $LN2@Orphan_all
$LN3@Orphan_all:

; 1228 :     _Myproxy->_Myfirstiter = nullptr;

	mov	ecx, DWORD PTR _this$[ebp]
	mov	edx, DWORD PTR [ecx]
	mov	DWORD PTR [edx+4], 0
$LN6@Orphan_all:

; 1229 : }

	mov	esp, ebp
	pop	ebp
	ret	0
?_Orphan_all_unlocked_v3@_Container_base12@std@@AAEXXZ ENDP ; std::_Container_base12::_Orphan_all_unlocked_v3
_TEXT	ENDS
; Function compile flags: /Odtp /RTCsu
; File C:\Program Files\Microsoft Visual Studio\2022\Community\VC\Tools\MSVC\14.32.31326\include\xmemory
;	COMDAT ?_Orphan_all@_Container_base12@std@@QAEXXZ
_TEXT	SEGMENT
_this$ = -4						; size = 4
?_Orphan_all@_Container_base12@std@@QAEXXZ PROC		; std::_Container_base12::_Orphan_all, COMDAT
; _this$ = ecx

; 1231 : _CONSTEXPR20 void _Container_base12::_Orphan_all() noexcept {

	push	ebp
	mov	ebp, esp
	push	ecx
	mov	DWORD PTR [ebp-4], -858993460		; ccccccccH
	mov	DWORD PTR _this$[ebp], ecx

; 1232 : #if _ITERATOR_DEBUG_LEVEL == 2
; 1233 : #if _HAS_CXX20
; 1234 :     if (_STD is_constant_evaluated()) {
; 1235 :         _Orphan_all_unlocked_v3();
; 1236 :     } else
; 1237 : #endif // _HAS_CXX20
; 1238 :     {
; 1239 :         _Orphan_all_locked_v3();

	mov	ecx, DWORD PTR _this$[ebp]
	call	?_Orphan_all_locked_v3@_Container_base12@std@@AAEXXZ ; std::_Container_base12::_Orphan_all_locked_v3

; 1240 :     }
; 1241 : #endif // _ITERATOR_DEBUG_LEVEL == 2
; 1242 : }

	add	esp, 4
	cmp	ebp, esp
	call	__RTC_CheckEsp
	mov	esp, ebp
	pop	ebp
	ret	0
?_Orphan_all@_Container_base12@std@@QAEXXZ ENDP		; std::_Container_base12::_Orphan_all
_TEXT	ENDS
; Function compile flags: /Odtp /RTCsu
; File C:\Program Files\Microsoft Visual Studio\2022\Community\VC\Tools\MSVC\14.32.31326\include\xmemory
;	COMDAT ??0_Container_base12@std@@QAE@XZ
_TEXT	SEGMENT
_this$ = -4						; size = 4
??0_Container_base12@std@@QAE@XZ PROC			; std::_Container_base12::_Container_base12, COMDAT
; _this$ = ecx

; 1047 :     _CONSTEXPR20 _Container_base12() noexcept = default;

	push	ebp
	mov	ebp, esp
	push	ecx
	mov	DWORD PTR _this$[ebp], ecx

; 1048 : 
; 1049 :     _Container_base12(const _Container_base12&) = delete;
; 1050 :     _Container_base12& operator=(const _Container_base12&) = delete;
; 1051 : 
; 1052 :     _CONSTEXPR20 void _Orphan_all() noexcept;
; 1053 :     _CONSTEXPR20 void _Swap_proxy_and_iterators(_Container_base12&) noexcept;
; 1054 : 
; 1055 :     template <class _Alloc>
; 1056 :     _CONSTEXPR20 void _Alloc_proxy(_Alloc&& _Al) {
; 1057 :         _Container_proxy* const _New_proxy = _Unfancy(_Al.allocate(1));
; 1058 :         _Construct_in_place(*_New_proxy, this);
; 1059 :         _Myproxy            = _New_proxy;
; 1060 :         _New_proxy->_Mycont = this;
; 1061 :     }
; 1062 : 
; 1063 :     template <class _Alloc>
; 1064 :     _CONSTEXPR20 void _Reload_proxy(_Alloc&& _Old_alloc, _Alloc&& _New_alloc) {
; 1065 :         // pre: no iterators refer to the existing proxy
; 1066 :         _Container_proxy* const _New_proxy = _Unfancy(_New_alloc.allocate(1));
; 1067 :         _Construct_in_place(*_New_proxy, this);
; 1068 :         _New_proxy->_Mycont = this;
; 1069 :         _Delete_plain_internal(_Old_alloc, _STD exchange(_Myproxy, _New_proxy));
; 1070 :     }
; 1071 : 
; 1072 :     _Container_proxy* _Myproxy = nullptr;

	mov	eax, DWORD PTR _this$[ebp]
	mov	DWORD PTR [eax], 0

; 1047 :     _CONSTEXPR20 _Container_base12() noexcept = default;

	mov	eax, DWORD PTR _this$[ebp]
	mov	esp, ebp
	pop	ebp
	ret	0
??0_Container_base12@std@@QAE@XZ ENDP			; std::_Container_base12::_Container_base12
_TEXT	ENDS
; Function compile flags: /Odtp /RTCsu
; File C:\Program Files\Microsoft Visual Studio\2022\Community\VC\Tools\MSVC\14.32.31326\include\xmemory
;	COMDAT ??0_Container_proxy@std@@QAE@PAU_Container_base12@1@@Z
_TEXT	SEGMENT
_this$ = -4						; size = 4
__Mycont_$ = 8						; size = 4
??0_Container_proxy@std@@QAE@PAU_Container_base12@1@@Z PROC ; std::_Container_proxy::_Container_proxy, COMDAT
; _this$ = ecx

; 1039 :     _CONSTEXPR20 _Container_proxy(_Container_base12* _Mycont_) noexcept : _Mycont(_Mycont_) {}

	push	ebp
	mov	ebp, esp
	push	ecx
	mov	DWORD PTR _this$[ebp], ecx
	mov	eax, DWORD PTR _this$[ebp]
	mov	ecx, DWORD PTR __Mycont_$[ebp]
	mov	DWORD PTR [eax], ecx

; 1040 : 
; 1041 :     const _Container_base12* _Mycont       = nullptr;
; 1042 :     mutable _Iterator_base12* _Myfirstiter = nullptr;

	mov	edx, DWORD PTR _this$[ebp]
	mov	DWORD PTR [edx+4], 0

; 1039 :     _CONSTEXPR20 _Container_proxy(_Container_base12* _Mycont_) noexcept : _Mycont(_Mycont_) {}

	mov	eax, DWORD PTR _this$[ebp]
	mov	esp, ebp
	pop	ebp
	ret	4
??0_Container_proxy@std@@QAE@PAU_Container_base12@1@@Z ENDP ; std::_Container_proxy::_Container_proxy
_TEXT	ENDS
; Function compile flags: /Odtp /RTCsu
; File C:\Program Files\Microsoft Visual Studio\2022\Community\VC\Tools\MSVC\14.32.31326\include\xmemory
;	COMDAT ?_Adopt@_Iterator_base0@std@@QAEXPBX@Z
_TEXT	SEGMENT
_this$ = -4						; size = 4
___formal$ = 8						; size = 4
?_Adopt@_Iterator_base0@std@@QAEXPBX@Z PROC		; std::_Iterator_base0::_Adopt, COMDAT
; _this$ = ecx

; 1028 :     _CONSTEXPR20 void _Adopt(const void*) noexcept {}

	push	ebp
	mov	ebp, esp
	push	ecx
	mov	DWORD PTR _this$[ebp], ecx
	mov	esp, ebp
	pop	ebp
	ret	4
?_Adopt@_Iterator_base0@std@@QAEXPBX@Z ENDP		; std::_Iterator_base0::_Adopt
_TEXT	ENDS
; Function compile flags: /Odtp /RTCsu
; File C:\Program Files\Microsoft Visual Studio\2022\Community\VC\Tools\MSVC\14.32.31326\include\xmemory
;	COMDAT ?_Adjust_manually_vector_aligned@std@@YAXAAPAXAAI@Z
_TEXT	SEGMENT
__Back_shift$ = -16					; size = 4
__Min_back_shift$ = -12					; size = 4
__Ptr_container$ = -8					; size = 4
__Ptr_user$ = -4					; size = 4
__Ptr$ = 8						; size = 4
__Bytes$ = 12						; size = 4
?_Adjust_manually_vector_aligned@std@@YAXAAPAXAAI@Z PROC ; std::_Adjust_manually_vector_aligned, COMDAT

; 145  : inline void _Adjust_manually_vector_aligned(void*& _Ptr, size_t& _Bytes) {

	push	ebp
	mov	ebp, esp
	sub	esp, 16					; 00000010H
	mov	eax, -858993460				; ccccccccH
	mov	DWORD PTR [ebp-16], eax
	mov	DWORD PTR [ebp-12], eax
	mov	DWORD PTR [ebp-8], eax
	mov	DWORD PTR [ebp-4], eax

; 146  :     // adjust parameters from _Allocate_manually_vector_aligned to pass to operator delete
; 147  :     _Bytes += _Non_user_size;

	mov	eax, DWORD PTR __Bytes$[ebp]
	mov	ecx, DWORD PTR [eax]
	add	ecx, 39					; 00000027H
	mov	edx, DWORD PTR __Bytes$[ebp]
	mov	DWORD PTR [edx], ecx

; 148  : 
; 149  :     const uintptr_t* const _Ptr_user = static_cast<uintptr_t*>(_Ptr);

	mov	eax, DWORD PTR __Ptr$[ebp]
	mov	ecx, DWORD PTR [eax]
	mov	DWORD PTR __Ptr_user$[ebp], ecx

; 150  :     const uintptr_t _Ptr_container   = _Ptr_user[-1];

	mov	edx, 4
	imul	eax, edx, -1
	mov	ecx, DWORD PTR __Ptr_user$[ebp]
	mov	edx, DWORD PTR [ecx+eax]
	mov	DWORD PTR __Ptr_container$[ebp], edx
$LN4@Adjust_man:

; 151  : 
; 152  :     // If the following asserts, it likely means that we are performing
; 153  :     // an aligned delete on memory coming from an unaligned allocation.
; 154  :     _STL_ASSERT(_Ptr_user[-2] == _Big_allocation_sentinel, "invalid argument");

	mov	eax, 4
	imul	ecx, eax, -2
	mov	edx, DWORD PTR __Ptr_user$[ebp]
	cmp	DWORD PTR [edx+ecx], -84215046		; fafafafaH
	jne	SHORT $LN7@Adjust_man
	jmp	SHORT $LN2@Adjust_man
$LN7@Adjust_man:
	push	OFFSET ??_C@_0BB@FCMFBGOM@invalid?5argument@
	push	OFFSET ??_C@_02DKCKIIND@?$CFs@
	push	0
	push	154					; 0000009aH
	push	OFFSET ??_C@_0GC@DJFHHHKN@C?3?2Program?5Files?2Microsoft?5Visu@
	push	2
	call	__CrtDbgReport
	add	esp, 24					; 00000018H
	cmp	eax, 1
	jne	SHORT $LN19@Adjust_man
	int	3
$LN19@Adjust_man:
	push	0
	push	154					; 0000009aH
	push	OFFSET ??_C@_1ME@GEFGDEOM@?$AAC?$AA?3?$AA?2?$AAP?$AAr?$AAo?$AAg?$AAr?$AAa?$AAm?$AA?5?$AAF?$AAi?$AAl?$AAe@
	push	OFFSET ??_C@_11LOCGONAA@@
	push	OFFSET ??_C@_1CG@JNLFBNGN@?$AA?$CC?$AAi?$AAn?$AAv?$AAa?$AAl?$AAi?$AAd?$AA?5?$AAa?$AAr?$AAg?$AAu?$AAm?$AAe@
	call	__invalid_parameter
	add	esp, 20					; 00000014H
	xor	ecx, ecx
	jne	SHORT $LN7@Adjust_man
$LN2@Adjust_man:
	xor	edx, edx
	jne	SHORT $LN4@Adjust_man

; 155  : 
; 156  :     // Extra paranoia on aligned allocation/deallocation; ensure _Ptr_container is
; 157  :     // in range [_Min_back_shift, _Non_user_size]
; 158  : #ifdef _DEBUG
; 159  :     constexpr uintptr_t _Min_back_shift = 2 * sizeof(void*);

	mov	DWORD PTR __Min_back_shift$[ebp], 8

; 160  : #else // ^^^ _DEBUG ^^^ // vvv !_DEBUG vvv
; 161  :     constexpr uintptr_t _Min_back_shift = sizeof(void*);
; 162  : #endif // _DEBUG
; 163  :     const uintptr_t _Back_shift = reinterpret_cast<uintptr_t>(_Ptr) - _Ptr_container;

	mov	eax, DWORD PTR __Ptr$[ebp]
	mov	ecx, DWORD PTR [eax]
	sub	ecx, DWORD PTR __Ptr_container$[ebp]
	mov	DWORD PTR __Back_shift$[ebp], ecx
$LN10@Adjust_man:

; 164  :     _STL_VERIFY(_Back_shift >= _Min_back_shift && _Back_shift <= _Non_user_size, "invalid argument");

	cmp	DWORD PTR __Back_shift$[ebp], 8
	jb	SHORT $LN13@Adjust_man
	cmp	DWORD PTR __Back_shift$[ebp], 39	; 00000027H
	ja	SHORT $LN13@Adjust_man
	jmp	SHORT $LN8@Adjust_man
$LN13@Adjust_man:
	push	OFFSET ??_C@_0BB@FCMFBGOM@invalid?5argument@
	push	OFFSET ??_C@_02DKCKIIND@?$CFs@
	push	0
	push	164					; 000000a4H
	push	OFFSET ??_C@_0GC@DJFHHHKN@C?3?2Program?5Files?2Microsoft?5Visu@
	push	2
	call	__CrtDbgReport
	add	esp, 24					; 00000018H
	cmp	eax, 1
	jne	SHORT $LN20@Adjust_man
	int	3
$LN20@Adjust_man:
	push	0
	push	164					; 000000a4H
	push	OFFSET ??_C@_1ME@GEFGDEOM@?$AAC?$AA?3?$AA?2?$AAP?$AAr?$AAo?$AAg?$AAr?$AAa?$AAm?$AA?5?$AAF?$AAi?$AAl?$AAe@
	push	OFFSET ??_C@_11LOCGONAA@@
	push	OFFSET ??_C@_1CG@JNLFBNGN@?$AA?$CC?$AAi?$AAn?$AAv?$AAa?$AAl?$AAi?$AAd?$AA?5?$AAa?$AAr?$AAg?$AAu?$AAm?$AAe@
	call	__invalid_parameter
	add	esp, 20					; 00000014H
	xor	eax, eax
	jne	SHORT $LN13@Adjust_man
$LN8@Adjust_man:
	xor	ecx, ecx
	jne	SHORT $LN10@Adjust_man

; 165  :     _Ptr = reinterpret_cast<void*>(_Ptr_container);

	mov	edx, DWORD PTR __Ptr$[ebp]
	mov	eax, DWORD PTR __Ptr_container$[ebp]
	mov	DWORD PTR [edx], eax

; 166  : }

	add	esp, 16					; 00000010H
	cmp	ebp, esp
	call	__RTC_CheckEsp
	mov	esp, ebp
	pop	ebp
	ret	0
?_Adjust_manually_vector_aligned@std@@YAXAAPAXAAI@Z ENDP ; std::_Adjust_manually_vector_aligned
_TEXT	ENDS
; Function compile flags: /Odtp /RTCsu
; File C:\Program Files\Microsoft Visual Studio\2022\Community\VC\Tools\MSVC\14.32.31326\include\xmemory
;	COMDAT ?_Allocate@_Default_allocate_traits@std@@SAPAXI@Z
_TEXT	SEGMENT
__Bytes$ = 8						; size = 4
?_Allocate@_Default_allocate_traits@std@@SAPAXI@Z PROC	; std::_Default_allocate_traits::_Allocate, COMDAT

; 78   :         void* _Allocate(const size_t _Bytes) {

	push	ebp
	mov	ebp, esp

; 79   :         return ::operator new(_Bytes);

	mov	eax, DWORD PTR __Bytes$[ebp]
	push	eax
	call	??2@YAPAXI@Z				; operator new
	add	esp, 4

; 80   :     }

	cmp	ebp, esp
	call	__RTC_CheckEsp
	pop	ebp
	ret	0
?_Allocate@_Default_allocate_traits@std@@SAPAXI@Z ENDP	; std::_Default_allocate_traits::_Allocate
_TEXT	ENDS
; Function compile flags: /Odtp /RTCsu
; File C:\Program Files\Microsoft Visual Studio\2022\Community\VC\Tools\MSVC\14.32.31326\include\exception
;	COMDAT ?_Throw_bad_array_new_length@std@@YAXXZ
_TEXT	SEGMENT
$T1 = -12						; size = 12
?_Throw_bad_array_new_length@std@@YAXXZ PROC		; std::_Throw_bad_array_new_length, COMDAT

; 317  : [[noreturn]] inline void _Throw_bad_array_new_length() {

	push	ebp
	mov	ebp, esp
	sub	esp, 12					; 0000000cH
	mov	DWORD PTR [ebp-12], -858993460		; ccccccccH
	mov	DWORD PTR [ebp-8], -858993460		; ccccccccH
	mov	DWORD PTR [ebp-4], -858993460		; ccccccccH

; 318  :     _THROW(bad_array_new_length{});

	lea	ecx, DWORD PTR $T1[ebp]
	call	??0bad_array_new_length@std@@QAE@XZ	; std::bad_array_new_length::bad_array_new_length
	push	OFFSET __TI3?AVbad_array_new_length@std@@
	lea	eax, DWORD PTR $T1[ebp]
	push	eax
	call	__CxxThrowException@8
$LN2@Throw_bad_:

; 319  : }

	add	esp, 12					; 0000000cH
	cmp	ebp, esp
	call	__RTC_CheckEsp
	mov	esp, ebp
	pop	ebp
	ret	0
?_Throw_bad_array_new_length@std@@YAXXZ ENDP		; std::_Throw_bad_array_new_length
_TEXT	ENDS
; Function compile flags: /Odtp /RTCsu
;	COMDAT ??_Gbad_array_new_length@std@@UAEPAXI@Z
_TEXT	SEGMENT
_this$ = -4						; size = 4
___flags$ = 8						; size = 4
??_Gbad_array_new_length@std@@UAEPAXI@Z PROC		; std::bad_array_new_length::`scalar deleting destructor', COMDAT
; _this$ = ecx
	push	ebp
	mov	ebp, esp
	push	ecx
	mov	DWORD PTR [ebp-4], -858993460		; ccccccccH
	mov	DWORD PTR _this$[ebp], ecx
	mov	ecx, DWORD PTR _this$[ebp]
	call	??1bad_array_new_length@std@@UAE@XZ
	mov	eax, DWORD PTR ___flags$[ebp]
	and	eax, 1
	je	SHORT $LN2@scalar
	push	12					; 0000000cH
	mov	ecx, DWORD PTR _this$[ebp]
	push	ecx
	call	??3@YAXPAXI@Z				; operator delete
	add	esp, 8
$LN2@scalar:
	mov	eax, DWORD PTR _this$[ebp]
	add	esp, 4
	cmp	ebp, esp
	call	__RTC_CheckEsp
	mov	esp, ebp
	pop	ebp
	ret	4
??_Gbad_array_new_length@std@@UAEPAXI@Z ENDP		; std::bad_array_new_length::`scalar deleting destructor'
_TEXT	ENDS
; Function compile flags: /Odtp /RTCsu
;	COMDAT ??0bad_array_new_length@std@@QAE@ABV01@@Z
_TEXT	SEGMENT
_this$ = -4						; size = 4
___that$ = 8						; size = 4
??0bad_array_new_length@std@@QAE@ABV01@@Z PROC		; std::bad_array_new_length::bad_array_new_length, COMDAT
; _this$ = ecx
	push	ebp
	mov	ebp, esp
	push	ecx
	mov	DWORD PTR [ebp-4], -858993460		; ccccccccH
	mov	DWORD PTR _this$[ebp], ecx
	mov	eax, DWORD PTR ___that$[ebp]
	push	eax
	mov	ecx, DWORD PTR _this$[ebp]
	call	??0bad_alloc@std@@QAE@ABV01@@Z
	mov	ecx, DWORD PTR _this$[ebp]
	mov	DWORD PTR [ecx], OFFSET ??_7bad_array_new_length@std@@6B@
	mov	eax, DWORD PTR _this$[ebp]
	add	esp, 4
	cmp	ebp, esp
	call	__RTC_CheckEsp
	mov	esp, ebp
	pop	ebp
	ret	4
??0bad_array_new_length@std@@QAE@ABV01@@Z ENDP		; std::bad_array_new_length::bad_array_new_length
_TEXT	ENDS
; Function compile flags: /Odtp /RTCsu
;	COMDAT ??1bad_array_new_length@std@@UAE@XZ
_TEXT	SEGMENT
_this$ = -4						; size = 4
??1bad_array_new_length@std@@UAE@XZ PROC		; std::bad_array_new_length::~bad_array_new_length, COMDAT
; _this$ = ecx
	push	ebp
	mov	ebp, esp
	push	ecx
	mov	DWORD PTR [ebp-4], -858993460		; ccccccccH
	mov	DWORD PTR _this$[ebp], ecx
	mov	ecx, DWORD PTR _this$[ebp]
	call	??1bad_alloc@std@@UAE@XZ
	add	esp, 4
	cmp	ebp, esp
	call	__RTC_CheckEsp
	mov	esp, ebp
	pop	ebp
	ret	0
??1bad_array_new_length@std@@UAE@XZ ENDP		; std::bad_array_new_length::~bad_array_new_length
_TEXT	ENDS
; Function compile flags: /Odtp /RTCsu
; File C:\Program Files\Microsoft Visual Studio\2022\Community\VC\Tools\MSVC\14.32.31326\include\vcruntime_exception.h
;	COMDAT ??0bad_array_new_length@std@@QAE@XZ
_TEXT	SEGMENT
_this$ = -4						; size = 4
??0bad_array_new_length@std@@QAE@XZ PROC		; std::bad_array_new_length::bad_array_new_length, COMDAT
; _this$ = ecx

; 141  :     {

	push	ebp
	mov	ebp, esp
	push	ecx
	mov	DWORD PTR [ebp-4], -858993460		; ccccccccH
	mov	DWORD PTR _this$[ebp], ecx

; 140  :         : bad_alloc("bad array new length")

	push	OFFSET ??_C@_0BF@KINCDENJ@bad?5array?5new?5length@
	mov	ecx, DWORD PTR _this$[ebp]
	call	??0bad_alloc@std@@AAE@QBD@Z		; std::bad_alloc::bad_alloc

; 141  :     {

	mov	eax, DWORD PTR _this$[ebp]
	mov	DWORD PTR [eax], OFFSET ??_7bad_array_new_length@std@@6B@

; 142  :     }

	mov	eax, DWORD PTR _this$[ebp]
	add	esp, 4
	cmp	ebp, esp
	call	__RTC_CheckEsp
	mov	esp, ebp
	pop	ebp
	ret	0
??0bad_array_new_length@std@@QAE@XZ ENDP		; std::bad_array_new_length::bad_array_new_length
_TEXT	ENDS
; Function compile flags: /Odtp /RTCsu
;	COMDAT ??_Gbad_alloc@std@@UAEPAXI@Z
_TEXT	SEGMENT
_this$ = -4						; size = 4
___flags$ = 8						; size = 4
??_Gbad_alloc@std@@UAEPAXI@Z PROC			; std::bad_alloc::`scalar deleting destructor', COMDAT
; _this$ = ecx
	push	ebp
	mov	ebp, esp
	push	ecx
	mov	DWORD PTR [ebp-4], -858993460		; ccccccccH
	mov	DWORD PTR _this$[ebp], ecx
	mov	ecx, DWORD PTR _this$[ebp]
	call	??1bad_alloc@std@@UAE@XZ
	mov	eax, DWORD PTR ___flags$[ebp]
	and	eax, 1
	je	SHORT $LN2@scalar
	push	12					; 0000000cH
	mov	ecx, DWORD PTR _this$[ebp]
	push	ecx
	call	??3@YAXPAXI@Z				; operator delete
	add	esp, 8
$LN2@scalar:
	mov	eax, DWORD PTR _this$[ebp]
	add	esp, 4
	cmp	ebp, esp
	call	__RTC_CheckEsp
	mov	esp, ebp
	pop	ebp
	ret	4
??_Gbad_alloc@std@@UAEPAXI@Z ENDP			; std::bad_alloc::`scalar deleting destructor'
_TEXT	ENDS
; Function compile flags: /Odtp /RTCsu
;	COMDAT ??0bad_alloc@std@@QAE@ABV01@@Z
_TEXT	SEGMENT
_this$ = -4						; size = 4
___that$ = 8						; size = 4
??0bad_alloc@std@@QAE@ABV01@@Z PROC			; std::bad_alloc::bad_alloc, COMDAT
; _this$ = ecx
	push	ebp
	mov	ebp, esp
	push	ecx
	mov	DWORD PTR [ebp-4], -858993460		; ccccccccH
	mov	DWORD PTR _this$[ebp], ecx
	mov	eax, DWORD PTR ___that$[ebp]
	push	eax
	mov	ecx, DWORD PTR _this$[ebp]
	call	??0exception@std@@QAE@ABV01@@Z		; std::exception::exception
	mov	ecx, DWORD PTR _this$[ebp]
	mov	DWORD PTR [ecx], OFFSET ??_7bad_alloc@std@@6B@
	mov	eax, DWORD PTR _this$[ebp]
	add	esp, 4
	cmp	ebp, esp
	call	__RTC_CheckEsp
	mov	esp, ebp
	pop	ebp
	ret	4
??0bad_alloc@std@@QAE@ABV01@@Z ENDP			; std::bad_alloc::bad_alloc
_TEXT	ENDS
; Function compile flags: /Odtp /RTCsu
;	COMDAT ??1bad_alloc@std@@UAE@XZ
_TEXT	SEGMENT
_this$ = -4						; size = 4
??1bad_alloc@std@@UAE@XZ PROC				; std::bad_alloc::~bad_alloc, COMDAT
; _this$ = ecx
	push	ebp
	mov	ebp, esp
	push	ecx
	mov	DWORD PTR [ebp-4], -858993460		; ccccccccH
	mov	DWORD PTR _this$[ebp], ecx
	mov	ecx, DWORD PTR _this$[ebp]
	call	??1exception@std@@UAE@XZ		; std::exception::~exception
	add	esp, 4
	cmp	ebp, esp
	call	__RTC_CheckEsp
	mov	esp, ebp
	pop	ebp
	ret	0
??1bad_alloc@std@@UAE@XZ ENDP				; std::bad_alloc::~bad_alloc
_TEXT	ENDS
; Function compile flags: /Odtp /RTCsu
; File C:\Program Files\Microsoft Visual Studio\2022\Community\VC\Tools\MSVC\14.32.31326\include\vcruntime_exception.h
;	COMDAT ??0bad_alloc@std@@AAE@QBD@Z
_TEXT	SEGMENT
_this$ = -4						; size = 4
__Message$ = 8						; size = 4
??0bad_alloc@std@@AAE@QBD@Z PROC			; std::bad_alloc::bad_alloc, COMDAT
; _this$ = ecx

; 130  :     {

	push	ebp
	mov	ebp, esp
	push	ecx
	mov	DWORD PTR [ebp-4], -858993460		; ccccccccH
	mov	DWORD PTR _this$[ebp], ecx

; 129  :         : exception(_Message, 1)

	push	1
	mov	eax, DWORD PTR __Message$[ebp]
	push	eax
	mov	ecx, DWORD PTR _this$[ebp]
	call	??0exception@std@@QAE@QBDH@Z		; std::exception::exception

; 130  :     {

	mov	ecx, DWORD PTR _this$[ebp]
	mov	DWORD PTR [ecx], OFFSET ??_7bad_alloc@std@@6B@

; 131  :     }

	mov	eax, DWORD PTR _this$[ebp]
	add	esp, 4
	cmp	ebp, esp
	call	__RTC_CheckEsp
	mov	esp, ebp
	pop	ebp
	ret	4
??0bad_alloc@std@@AAE@QBD@Z ENDP			; std::bad_alloc::bad_alloc
_TEXT	ENDS
; Function compile flags: /Odtp /RTCsu
;	COMDAT ??_Gexception@std@@UAEPAXI@Z
_TEXT	SEGMENT
_this$ = -4						; size = 4
___flags$ = 8						; size = 4
??_Gexception@std@@UAEPAXI@Z PROC			; std::exception::`scalar deleting destructor', COMDAT
; _this$ = ecx
	push	ebp
	mov	ebp, esp
	push	ecx
	mov	DWORD PTR [ebp-4], -858993460		; ccccccccH
	mov	DWORD PTR _this$[ebp], ecx
	mov	ecx, DWORD PTR _this$[ebp]
	call	??1exception@std@@UAE@XZ		; std::exception::~exception
	mov	eax, DWORD PTR ___flags$[ebp]
	and	eax, 1
	je	SHORT $LN2@scalar
	push	12					; 0000000cH
	mov	ecx, DWORD PTR _this$[ebp]
	push	ecx
	call	??3@YAXPAXI@Z				; operator delete
	add	esp, 8
$LN2@scalar:
	mov	eax, DWORD PTR _this$[ebp]
	add	esp, 4
	cmp	ebp, esp
	call	__RTC_CheckEsp
	mov	esp, ebp
	pop	ebp
	ret	4
??_Gexception@std@@UAEPAXI@Z ENDP			; std::exception::`scalar deleting destructor'
_TEXT	ENDS
; Function compile flags: /Odtp /RTCsu
; File C:\Program Files\Microsoft Visual Studio\2022\Community\VC\Tools\MSVC\14.32.31326\include\vcruntime_exception.h
;	COMDAT ?what@exception@std@@UBEPBDXZ
_TEXT	SEGMENT
tv69 = -8						; size = 4
_this$ = -4						; size = 4
?what@exception@std@@UBEPBDXZ PROC			; std::exception::what, COMDAT
; _this$ = ecx

; 94   :     {

	push	ebp
	mov	ebp, esp
	sub	esp, 8
	mov	DWORD PTR _this$[ebp], ecx

; 95   :         return _Data._What ? _Data._What : "Unknown exception";

	mov	eax, DWORD PTR _this$[ebp]
	cmp	DWORD PTR [eax+4], 0
	je	SHORT $LN3@what
	mov	ecx, DWORD PTR _this$[ebp]
	mov	edx, DWORD PTR [ecx+4]
	mov	DWORD PTR tv69[ebp], edx
	jmp	SHORT $LN4@what
$LN3@what:
	mov	DWORD PTR tv69[ebp], OFFSET ??_C@_0BC@EOODALEL@Unknown?5exception@
$LN4@what:
	mov	eax, DWORD PTR tv69[ebp]

; 96   :     }

	mov	esp, ebp
	pop	ebp
	ret	0
?what@exception@std@@UBEPBDXZ ENDP			; std::exception::what
_TEXT	ENDS
; Function compile flags: /Odtp /RTCsu
; File C:\Program Files\Microsoft Visual Studio\2022\Community\VC\Tools\MSVC\14.32.31326\include\vcruntime_exception.h
;	COMDAT ??1exception@std@@UAE@XZ
_TEXT	SEGMENT
_this$ = -4						; size = 4
??1exception@std@@UAE@XZ PROC				; std::exception::~exception, COMDAT
; _this$ = ecx

; 89   :     {

	push	ebp
	mov	ebp, esp
	push	ecx
	mov	DWORD PTR [ebp-4], -858993460		; ccccccccH
	mov	DWORD PTR _this$[ebp], ecx
	mov	eax, DWORD PTR _this$[ebp]
	mov	DWORD PTR [eax], OFFSET ??_7exception@std@@6B@

; 90   :         __std_exception_destroy(&_Data);

	mov	ecx, DWORD PTR _this$[ebp]
	add	ecx, 4
	push	ecx
	call	___std_exception_destroy
	add	esp, 4

; 91   :     }

	add	esp, 4
	cmp	ebp, esp
	call	__RTC_CheckEsp
	mov	esp, ebp
	pop	ebp
	ret	0
??1exception@std@@UAE@XZ ENDP				; std::exception::~exception
_TEXT	ENDS
; Function compile flags: /Odtp /RTCsu
; File C:\Program Files\Microsoft Visual Studio\2022\Community\VC\Tools\MSVC\14.32.31326\include\vcruntime_exception.h
;	COMDAT ??0exception@std@@QAE@ABV01@@Z
_TEXT	SEGMENT
_this$ = -4						; size = 4
__Other$ = 8						; size = 4
??0exception@std@@QAE@ABV01@@Z PROC			; std::exception::exception, COMDAT
; _this$ = ecx

; 72   :     {

	push	ebp
	mov	ebp, esp
	push	ecx
	mov	DWORD PTR [ebp-4], -858993460		; ccccccccH
	mov	DWORD PTR _this$[ebp], ecx
	mov	eax, DWORD PTR _this$[ebp]
	mov	DWORD PTR [eax], OFFSET ??_7exception@std@@6B@

; 71   :         : _Data()

	xor	ecx, ecx
	mov	edx, DWORD PTR _this$[ebp]
	add	edx, 4
	mov	DWORD PTR [edx], ecx
	mov	DWORD PTR [edx+4], ecx

; 73   :         __std_exception_copy(&_Other._Data, &_Data);

	mov	eax, DWORD PTR _this$[ebp]
	add	eax, 4
	push	eax
	mov	ecx, DWORD PTR __Other$[ebp]
	add	ecx, 4
	push	ecx
	call	___std_exception_copy
	add	esp, 8

; 74   :     }

	mov	eax, DWORD PTR _this$[ebp]
	add	esp, 4
	cmp	ebp, esp
	call	__RTC_CheckEsp
	mov	esp, ebp
	pop	ebp
	ret	4
??0exception@std@@QAE@ABV01@@Z ENDP			; std::exception::exception
_TEXT	ENDS
; Function compile flags: /Odtp /RTCsu
; File C:\Program Files\Microsoft Visual Studio\2022\Community\VC\Tools\MSVC\14.32.31326\include\vcruntime_exception.h
;	COMDAT ??0exception@std@@QAE@QBDH@Z
_TEXT	SEGMENT
_this$ = -4						; size = 4
__Message$ = 8						; size = 4
___formal$ = 12						; size = 4
??0exception@std@@QAE@QBDH@Z PROC			; std::exception::exception, COMDAT
; _this$ = ecx

; 66   :     {

	push	ebp
	mov	ebp, esp
	push	ecx
	mov	DWORD PTR _this$[ebp], ecx
	mov	eax, DWORD PTR _this$[ebp]
	mov	DWORD PTR [eax], OFFSET ??_7exception@std@@6B@

; 65   :         : _Data()

	xor	ecx, ecx
	mov	edx, DWORD PTR _this$[ebp]
	add	edx, 4
	mov	DWORD PTR [edx], ecx
	mov	DWORD PTR [edx+4], ecx

; 67   :         _Data._What = _Message;

	mov	eax, DWORD PTR _this$[ebp]
	mov	ecx, DWORD PTR __Message$[ebp]
	mov	DWORD PTR [eax+4], ecx

; 68   :     }

	mov	eax, DWORD PTR _this$[ebp]
	mov	esp, ebp
	pop	ebp
	ret	8
??0exception@std@@QAE@QBDH@Z ENDP			; std::exception::exception
_TEXT	ENDS
; Function compile flags: /Odtp /RTCsu
; File C:\Program Files\Microsoft Visual Studio\2022\Community\VC\Tools\MSVC\14.32.31326\include\vcruntime_new.h
;	COMDAT ??2@YAPAXIPAX@Z
_TEXT	SEGMENT
__Size$ = 8						; size = 4
__Where$ = 12						; size = 4
??2@YAPAXIPAX@Z PROC					; operator new, COMDAT

; 167  :     {

	push	ebp
	mov	ebp, esp

; 168  :         (void)_Size;
; 169  :         return _Where;

	mov	eax, DWORD PTR __Where$[ebp]

; 170  :     }

	pop	ebp
	ret	0
??2@YAPAXIPAX@Z ENDP					; operator new
_TEXT	ENDS
; Function compile flags: /Odtp /RTCsu
; File C:\Program Files\Microsoft Visual Studio\2022\Community\VC\Tools\MSVC\14.32.31326\include\limits
;	COMDAT ?max@?$numeric_limits@H@std@@SAHXZ
_TEXT	SEGMENT
?max@?$numeric_limits@H@std@@SAHXZ PROC			; std::numeric_limits<int>::max, COMDAT

; 552  :     _NODISCARD static constexpr int(max)() noexcept {

	push	ebp
	mov	ebp, esp

; 553  :         return INT_MAX;

	mov	eax, 2147483647				; 7fffffffH

; 554  :     }

	pop	ebp
	ret	0
?max@?$numeric_limits@H@std@@SAHXZ ENDP			; std::numeric_limits<int>::max
_TEXT	ENDS
; Function compile flags: /Odtp /RTCsu
; File C:\Users\lsy01\OneDrive\바탕 화면\3-2_Study\인공지능\Source\VS2010\Common\Messaging\MessageDispatcher.cpp
;	COMDAT ?__empty_global_delete@@YAXPAXI@Z
_TEXT	SEGMENT
___formal$ = 8						; size = 4
___formal$ = 12						; size = 4
?__empty_global_delete@@YAXPAXI@Z PROC			; __empty_global_delete, COMDAT

	push	ebp
	mov	ebp, esp
	pop	ebp
	ret	0
?__empty_global_delete@@YAXPAXI@Z ENDP			; __empty_global_delete
_TEXT	ENDS
; Function compile flags: /Odtp /RTCsu
; File C:\Users\lsy01\OneDrive\바탕 화면\3-2_Study\인공지능\Source\VS2010\Common\Messaging\MessageDispatcher.cpp
;	COMDAT ?__empty_global_delete@@YAXPAX@Z
_TEXT	SEGMENT
___formal$ = 8						; size = 4
?__empty_global_delete@@YAXPAX@Z PROC			; __empty_global_delete, COMDAT

	push	ebp
	mov	ebp, esp
	pop	ebp
	ret	0
?__empty_global_delete@@YAXPAX@Z ENDP			; __empty_global_delete
_TEXT	ENDS
END
