; Listing generated by Microsoft (R) Optimizing Compiler Version 19.32.31329.0 

	TITLE	C:\Users\lsy01\OneDrive\바탕 화면\3-2_Study\인공지능\Source\VS2010\Buckland_Chapter7 to 10_Raven\Debug\Projectile_Pellet.obj
	.686P
	.XMM
	include listing.inc
	.model	flat

INCLUDELIB LIBCMTD
INCLUDELIB OLDNAMES

CONST	SEGMENT
$SG172120 DB	'Pellet_MaxForce', 00H
$SG172121 DB	'Pellet_Mass', 00H
$SG172122 DB	'Pellet_MaxSpeed', 00H
$SG172123 DB	'Pellet_Scale', 00H
	ORG $+3
$SG172124 DB	'Pellet_Damage', 00H
	ORG $+2
$SG172125 DB	'Pellet_Persistance', 00H
	ORG $+1
$SG181566 DB	'invalid argument', 00H
	ORG $+3
$SG181567 DB	'%s', 00H
	ORG $+1
$SG181568 DB	'C:\Program Files\Microsoft Visual Studio\2022\Community\'
	DB	'VC\Tools\MSVC\14.32.31326\include\xmemory', 00H
	ORG $+2
$SG181570 DB	00H, 00H
	ORG $+2
$SG181569 DB	'C', 00H, ':', 00H, '\', 00H, 'P', 00H, 'r', 00H, 'o', 00H
	DB	'g', 00H, 'r', 00H, 'a', 00H, 'm', 00H, ' ', 00H, 'F', 00H, 'i'
	DB	00H, 'l', 00H, 'e', 00H, 's', 00H, '\', 00H, 'M', 00H, 'i', 00H
	DB	'c', 00H, 'r', 00H, 'o', 00H, 's', 00H, 'o', 00H, 'f', 00H, 't'
	DB	00H, ' ', 00H, 'V', 00H, 'i', 00H, 's', 00H, 'u', 00H, 'a', 00H
	DB	'l', 00H, ' ', 00H, 'S', 00H, 't', 00H, 'u', 00H, 'd', 00H, 'i'
	DB	00H, 'o', 00H, '\', 00H, '2', 00H, '0', 00H, '2', 00H, '2', 00H
	DB	'\', 00H, 'C', 00H, 'o', 00H, 'm', 00H, 'm', 00H, 'u', 00H, 'n'
	DB	00H, 'i', 00H, 't', 00H, 'y', 00H, '\', 00H, 'V', 00H, 'C', 00H
	DB	'\', 00H, 'T', 00H, 'o', 00H, 'o', 00H, 'l', 00H, 's', 00H, '\'
	DB	00H, 'M', 00H, 'S', 00H, 'V', 00H, 'C', 00H, '\', 00H, '1', 00H
	DB	'4', 00H, '.', 00H, '3', 00H, '2', 00H, '.', 00H, '3', 00H, '1'
	DB	00H, '3', 00H, '2', 00H, '6', 00H, '\', 00H, 'i', 00H, 'n', 00H
	DB	'c', 00H, 'l', 00H, 'u', 00H, 'd', 00H, 'e', 00H, '\', 00H, 'x'
	DB	00H, 'm', 00H, 'e', 00H, 'm', 00H, 'o', 00H, 'r', 00H, 'y', 00H
	DB	00H, 00H
$SG181571 DB	'"', 00H, 'i', 00H, 'n', 00H, 'v', 00H, 'a', 00H, 'l', 00H
	DB	'i', 00H, 'd', 00H, ' ', 00H, 'a', 00H, 'r', 00H, 'g', 00H, 'u'
	DB	00H, 'm', 00H, 'e', 00H, 'n', 00H, 't', 00H, '"', 00H, 00H, 00H
	ORG $+2
?colors@@3QBKB DD 0ffH					; colors
	DD	0ff0000H
	DD	0ff00H
	DD	00H
	DD	0c8c8ffH
	DD	0c8c8c8H
	DD	0ffffH
	DD	0aaffH
	DD	0aa00ffH
	DD	05a85H
	DD	0ffffffH
	DD	06400H
	DD	0ffff00H
	DD	0c8c8c8H
	DD	0e6e6ffH
$SG181718 DB	'C:\Program Files\Microsoft Visual Studio\2022\Community\'
	DB	'VC\Tools\MSVC\14.32.31326\include\xlocale', 00H
CONST	ENDS
PUBLIC	?__empty_global_delete@@YAXPAX@Z		; __empty_global_delete
PUBLIC	?__empty_global_delete@@YAXPAXI@Z		; __empty_global_delete
PUBLIC	??2@YAPAXIPAX@Z					; operator new
PUBLIC	?max@?$numeric_limits@H@std@@SAHXZ		; std::numeric_limits<int>::max
PUBLIC	?epsilon@?$numeric_limits@N@std@@SANXZ		; std::numeric_limits<double>::epsilon
PUBLIC	??0exception@std@@QAE@QBD@Z			; std::exception::exception
PUBLIC	??0exception@std@@QAE@QBDH@Z			; std::exception::exception
PUBLIC	??0exception@std@@QAE@ABV01@@Z			; std::exception::exception
PUBLIC	??1exception@std@@UAE@XZ			; std::exception::~exception
PUBLIC	?what@exception@std@@UBEPBDXZ			; std::exception::what
PUBLIC	??_Gexception@std@@UAEPAXI@Z			; std::exception::`scalar deleting destructor'
PUBLIC	??0bad_alloc@std@@AAE@QBD@Z			; std::bad_alloc::bad_alloc
PUBLIC	??1bad_alloc@std@@UAE@XZ			; std::bad_alloc::~bad_alloc
PUBLIC	??0bad_alloc@std@@QAE@ABV01@@Z			; std::bad_alloc::bad_alloc
PUBLIC	??_Gbad_alloc@std@@UAEPAXI@Z			; std::bad_alloc::`scalar deleting destructor'
PUBLIC	??0bad_array_new_length@std@@QAE@XZ		; std::bad_array_new_length::bad_array_new_length
PUBLIC	??1bad_array_new_length@std@@UAE@XZ		; std::bad_array_new_length::~bad_array_new_length
PUBLIC	??0bad_array_new_length@std@@QAE@ABV01@@Z	; std::bad_array_new_length::bad_array_new_length
PUBLIC	??_Gbad_array_new_length@std@@UAEPAXI@Z		; std::bad_array_new_length::`scalar deleting destructor'
PUBLIC	?_Throw_bad_array_new_length@std@@YAXXZ		; std::_Throw_bad_array_new_length
PUBLIC	?_Allocate@_Default_allocate_traits@std@@SAPAXI@Z ; std::_Default_allocate_traits::_Allocate
PUBLIC	?_Adjust_manually_vector_aligned@std@@YAXAAPAXAAI@Z ; std::_Adjust_manually_vector_aligned
PUBLIC	??0_Container_proxy@std@@QAE@PAU_Container_base12@1@@Z ; std::_Container_proxy::_Container_proxy
PUBLIC	??0_Container_base12@std@@QAE@XZ		; std::_Container_base12::_Container_base12
PUBLIC	?_Orphan_all@_Container_base12@std@@QAEXXZ	; std::_Container_base12::_Orphan_all
PUBLIC	?_Orphan_all_unlocked_v3@_Container_base12@std@@AAEXXZ ; std::_Container_base12::_Orphan_all_unlocked_v3
PUBLIC	?_Orphan_all_locked_v3@_Container_base12@std@@AAEXXZ ; std::_Container_base12::_Orphan_all_locked_v3
PUBLIC	??0_Iterator_base12@std@@QAE@XZ			; std::_Iterator_base12::_Iterator_base12
PUBLIC	??1_Iterator_base12@std@@QAE@XZ			; std::_Iterator_base12::~_Iterator_base12
PUBLIC	?_Adopt@_Iterator_base12@std@@QAEXPBU_Container_base12@2@@Z ; std::_Iterator_base12::_Adopt
PUBLIC	?_Getcont@_Iterator_base12@std@@QBEPBU_Container_base12@2@XZ ; std::_Iterator_base12::_Getcont
PUBLIC	?_Adopt_unlocked@_Iterator_base12@std@@AAEXPBU_Container_base12@2@@Z ; std::_Iterator_base12::_Adopt_unlocked
PUBLIC	?_Adopt_locked@_Iterator_base12@std@@AAEXPBU_Container_base12@2@@Z ; std::_Iterator_base12::_Adopt_locked
PUBLIC	?_Orphan_me_unlocked_v3@_Iterator_base12@std@@AAEXXZ ; std::_Iterator_base12::_Orphan_me_unlocked_v3
PUBLIC	?_Orphan_me_locked_v3@_Iterator_base12@std@@AAEXXZ ; std::_Iterator_base12::_Orphan_me_locked_v3
PUBLIC	?_Release@_Basic_container_proxy_ptr12@std@@QAEXXZ ; std::_Basic_container_proxy_ptr12::_Release
PUBLIC	??0_Basic_container_proxy_ptr12@std@@IAE@XZ	; std::_Basic_container_proxy_ptr12::_Basic_container_proxy_ptr12
PUBLIC	?copy@?$_Char_traits@DH@std@@SAPADQADQBDI@Z	; std::_Char_traits<char,int>::copy
PUBLIC	?move@?$_Char_traits@DH@std@@SAPADQADQBDI@Z	; std::_Char_traits<char,int>::move
PUBLIC	?length@?$_Narrow_char_traits@DH@std@@SAIQBD@Z	; std::_Narrow_char_traits<char,int>::length
PUBLIC	?assign@?$_Narrow_char_traits@DH@std@@SAXAADABD@Z ; std::_Narrow_char_traits<char,int>::assign
PUBLIC	?_Xlen_string@std@@YAXXZ			; std::_Xlen_string
PUBLIC	??0?$allocator@D@std@@QAE@XZ			; std::allocator<char>::allocator<char>
PUBLIC	?deallocate@?$allocator@D@std@@QAEXQADI@Z	; std::allocator<char>::deallocate
PUBLIC	?allocate@?$allocator@D@std@@QAEPADI@Z		; std::allocator<char>::allocate
PUBLIC	?max_size@?$_Default_allocator_traits@V?$allocator@D@std@@@std@@SAIABV?$allocator@D@2@@Z ; std::_Default_allocator_traits<std::allocator<char> >::max_size
PUBLIC	?select_on_container_copy_construction@?$_Default_allocator_traits@V?$allocator@D@std@@@std@@SA?AV?$allocator@D@2@ABV32@@Z ; std::_Default_allocator_traits<std::allocator<char> >::select_on_container_copy_construction
PUBLIC	??0?$_String_val@U?$_Simple_types@D@std@@@std@@QAE@XZ ; std::_String_val<std::_Simple_types<char> >::_String_val<std::_Simple_types<char> >
PUBLIC	?_Myptr@?$_String_val@U?$_Simple_types@D@std@@@std@@QAEPADXZ ; std::_String_val<std::_Simple_types<char> >::_Myptr
PUBLIC	?_Myptr@?$_String_val@U?$_Simple_types@D@std@@@std@@QBEPBDXZ ; std::_String_val<std::_Simple_types<char> >::_Myptr
PUBLIC	?_Large_string_engaged@?$_String_val@U?$_Simple_types@D@std@@@std@@QBE_NXZ ; std::_String_val<std::_Simple_types<char> >::_Large_string_engaged
PUBLIC	??0_Bxty@?$_String_val@U?$_Simple_types@D@std@@@std@@QAE@XZ ; std::_String_val<std::_Simple_types<char> >::_Bxty::_Bxty
PUBLIC	??1_Bxty@?$_String_val@U?$_Simple_types@D@std@@@std@@QAE@XZ ; std::_String_val<std::_Simple_types<char> >::_Bxty::~_Bxty
PUBLIC	??1?$_String_val@U?$_Simple_types@D@std@@@std@@QAE@XZ ; std::_String_val<std::_Simple_types<char> >::~_String_val<std::_Simple_types<char> >
PUBLIC	??0?$basic_string@DU?$char_traits@D@std@@V?$allocator@D@2@@std@@QAE@QBD@Z ; std::basic_string<char,std::char_traits<char>,std::allocator<char> >::basic_string<char,std::char_traits<char>,std::allocator<char> >
PUBLIC	??0?$basic_string@DU?$char_traits@D@std@@V?$allocator@D@2@@std@@QAE@U_String_constructor_concat_tag@1@ABV01@QBDI2I@Z ; std::basic_string<char,std::char_traits<char>,std::allocator<char> >::basic_string<char,std::char_traits<char>,std::allocator<char> >
PUBLIC	??1?$basic_string@DU?$char_traits@D@std@@V?$allocator@D@2@@std@@QAE@XZ ; std::basic_string<char,std::char_traits<char>,std::allocator<char> >::~basic_string<char,std::char_traits<char>,std::allocator<char> >
PUBLIC	?assign@?$basic_string@DU?$char_traits@D@std@@V?$allocator@D@2@@std@@QAEAAV12@QBDI@Z ; std::basic_string<char,std::char_traits<char>,std::allocator<char> >::assign
PUBLIC	?assign@?$basic_string@DU?$char_traits@D@std@@V?$allocator@D@2@@std@@QAEAAV12@QBD@Z ; std::basic_string<char,std::char_traits<char>,std::allocator<char> >::assign
PUBLIC	?c_str@?$basic_string@DU?$char_traits@D@std@@V?$allocator@D@2@@std@@QBEPBDXZ ; std::basic_string<char,std::char_traits<char>,std::allocator<char> >::c_str
PUBLIC	?size@?$basic_string@DU?$char_traits@D@std@@V?$allocator@D@2@@std@@QBEIXZ ; std::basic_string<char,std::char_traits<char>,std::allocator<char> >::size
PUBLIC	?max_size@?$basic_string@DU?$char_traits@D@std@@V?$allocator@D@2@@std@@QBEIXZ ; std::basic_string<char,std::char_traits<char>,std::allocator<char> >::max_size
PUBLIC	?_Calculate_growth@?$basic_string@DU?$char_traits@D@std@@V?$allocator@D@2@@std@@CAIIII@Z ; std::basic_string<char,std::char_traits<char>,std::allocator<char> >::_Calculate_growth
PUBLIC	?_Calculate_growth@?$basic_string@DU?$char_traits@D@std@@V?$allocator@D@2@@std@@ABEII@Z ; std::basic_string<char,std::char_traits<char>,std::allocator<char> >::_Calculate_growth
PUBLIC	?_Tidy_init@?$basic_string@DU?$char_traits@D@std@@V?$allocator@D@2@@std@@AAEXXZ ; std::basic_string<char,std::char_traits<char>,std::allocator<char> >::_Tidy_init
PUBLIC	?_Tidy_deallocate@?$basic_string@DU?$char_traits@D@std@@V?$allocator@D@2@@std@@AAEXXZ ; std::basic_string<char,std::char_traits<char>,std::allocator<char> >::_Tidy_deallocate
PUBLIC	?_Getal@?$basic_string@DU?$char_traits@D@std@@V?$allocator@D@2@@std@@AAEAAV?$allocator@D@2@XZ ; std::basic_string<char,std::char_traits<char>,std::allocator<char> >::_Getal
PUBLIC	?_Getal@?$basic_string@DU?$char_traits@D@std@@V?$allocator@D@2@@std@@ABEABV?$allocator@D@2@XZ ; std::basic_string<char,std::char_traits<char>,std::allocator<char> >::_Getal
PUBLIC	?_Get_first@?$_Compressed_pair@V?$allocator@D@std@@V?$_String_val@U?$_Simple_types@D@std@@@2@$00@std@@QAEAAV?$allocator@D@2@XZ ; std::_Compressed_pair<std::allocator<char>,std::_String_val<std::_Simple_types<char> >,1>::_Get_first
PUBLIC	?_Get_first@?$_Compressed_pair@V?$allocator@D@std@@V?$_String_val@U?$_Simple_types@D@std@@@2@$00@std@@QBEABV?$allocator@D@2@XZ ; std::_Compressed_pair<std::allocator<char>,std::_String_val<std::_Simple_types<char> >,1>::_Get_first
PUBLIC	??1?$_Compressed_pair@V?$allocator@D@std@@V?$_String_val@U?$_Simple_types@D@std@@@2@$00@std@@QAE@XZ ; std::_Compressed_pair<std::allocator<char>,std::_String_val<std::_Simple_types<char> >,1>::~_Compressed_pair<std::allocator<char>,std::_String_val<std::_Simple_types<char> >,1>
PUBLIC	??0runtime_error@std@@QAE@ABV?$basic_string@DU?$char_traits@D@std@@V?$allocator@D@2@@1@@Z ; std::runtime_error::runtime_error
PUBLIC	??1runtime_error@std@@UAE@XZ			; std::runtime_error::~runtime_error
PUBLIC	??0runtime_error@std@@QAE@ABV01@@Z		; std::runtime_error::runtime_error
PUBLIC	??_Gruntime_error@std@@UAEPAXI@Z		; std::runtime_error::`scalar deleting destructor'
PUBLIC	??0id@locale@std@@QAE@I@Z			; std::locale::id::id
PUBLIC	??0Vector2D@@QAE@XZ				; Vector2D::Vector2D
PUBLIC	??0Vector2D@@QAE@NN@Z				; Vector2D::Vector2D
PUBLIC	?Length@Vector2D@@QBENXZ			; Vector2D::Length
PUBLIC	?Normalize@Vector2D@@QAEXXZ			; Vector2D::Normalize
PUBLIC	?Dot@Vector2D@@QBENABU1@@Z			; Vector2D::Dot
PUBLIC	?Perp@Vector2D@@QBE?AU1@XZ			; Vector2D::Perp
PUBLIC	?Truncate@Vector2D@@QAEXN@Z			; Vector2D::Truncate
PUBLIC	??YVector2D@@QAEABU0@ABU0@@Z			; Vector2D::operator+=
PUBLIC	??XVector2D@@QAEABU0@ABN@Z			; Vector2D::operator*=
PUBLIC	??D@YA?AUVector2D@@ABU0@N@Z			; operator*
PUBLIC	??D@YA?AUVector2D@@NABU0@@Z			; operator*
PUBLIC	??G@YA?AUVector2D@@ABU0@0@Z			; operator-
PUBLIC	??H@YA?AUVector2D@@ABU0@0@Z			; operator+
PUBLIC	??K@YA?AUVector2D@@ABU0@N@Z			; operator/
PUBLIC	?Vec2DNormalize@@YA?AUVector2D@@ABU1@@Z		; Vec2DNormalize
PUBLIC	?Vec2DDistance@@YANABUVector2D@@0@Z		; Vec2DDistance
PUBLIC	?Vec2DDistanceSq@@YANABUVector2D@@0@Z		; Vec2DDistanceSq
PUBLIC	??0Matrix@C2DMatrix@@QAE@XZ			; C2DMatrix::Matrix::Matrix
PUBLIC	??0C2DMatrix@@QAE@XZ				; C2DMatrix::C2DMatrix
PUBLIC	?Identity@C2DMatrix@@QAEXXZ			; C2DMatrix::Identity
PUBLIC	?TransformVector2Ds@C2DMatrix@@QAEXAAUVector2D@@@Z ; C2DMatrix::TransformVector2Ds
PUBLIC	?_11@C2DMatrix@@QAEXN@Z				; C2DMatrix::_11
PUBLIC	?_12@C2DMatrix@@QAEXN@Z				; C2DMatrix::_12
PUBLIC	?_21@C2DMatrix@@QAEXN@Z				; C2DMatrix::_21
PUBLIC	?_22@C2DMatrix@@QAEXN@Z				; C2DMatrix::_22
PUBLIC	?_31@C2DMatrix@@QAEXN@Z				; C2DMatrix::_31
PUBLIC	?_32@C2DMatrix@@QAEXN@Z				; C2DMatrix::_32
PUBLIC	?PointToLocalSpace@@YA?AUVector2D@@ABU1@AAU1@11@Z ; PointToLocalSpace
PUBLIC	?LineIntersection2D@@YA_NUVector2D@@000AANAAU1@@Z ; LineIntersection2D
PUBLIC	?GetLineSegmentCircleClosestIntersectionPoint@@YA_NUVector2D@@00NAAU1@@Z ; GetLineSegmentCircleClosestIntersectionPoint
PUBLIC	??1BaseGameEntity@@UAE@XZ			; BaseGameEntity::~BaseGameEntity
PUBLIC	?Update@BaseGameEntity@@UAEXXZ			; BaseGameEntity::Update
PUBLIC	?HandleMessage@BaseGameEntity@@UAE_NABUTelegram@@@Z ; BaseGameEntity::HandleMessage
PUBLIC	?Write@BaseGameEntity@@UBEXAAV?$basic_ostream@DU?$char_traits@D@std@@@std@@@Z ; BaseGameEntity::Write
PUBLIC	?Read@BaseGameEntity@@UAEXAAV?$basic_ifstream@DU?$char_traits@D@std@@@std@@@Z ; BaseGameEntity::Read
PUBLIC	?GetNextValidID@BaseGameEntity@@SAHXZ		; BaseGameEntity::GetNextValidID
PUBLIC	?Pos@BaseGameEntity@@QBE?AUVector2D@@XZ		; BaseGameEntity::Pos
PUBLIC	?BRadius@BaseGameEntity@@QBENXZ			; BaseGameEntity::BRadius
PUBLIC	?ID@BaseGameEntity@@QBEHXZ			; BaseGameEntity::ID
PUBLIC	??_GBaseGameEntity@@UAEPAXI@Z			; BaseGameEntity::`scalar deleting destructor'
PUBLIC	??0MovingEntity@@QAE@UVector2D@@N0N0N0NN@Z	; MovingEntity::MovingEntity
PUBLIC	??1MovingEntity@@UAE@XZ				; MovingEntity::~MovingEntity
PUBLIC	?Velocity@MovingEntity@@QBE?AUVector2D@@XZ	; MovingEntity::Velocity
PUBLIC	?MaxSpeed@MovingEntity@@QBENXZ			; MovingEntity::MaxSpeed
PUBLIC	??_GMovingEntity@@UAEPAXI@Z			; MovingEntity::`scalar deleting destructor'
PUBLIC	?GetTickCount@CrudeTimer@@QAENXZ		; CrudeTimer::GetTickCount
PUBLIC	??0Raven_Projectile@@QAE@UVector2D@@PAVRaven_Game@@H00HNNNN@Z ; Raven_Projectile::Raven_Projectile
PUBLIC	?Write@Raven_Projectile@@UBEXAAV?$basic_ostream@DU?$char_traits@D@std@@@std@@@Z ; Raven_Projectile::Write
PUBLIC	?Read@Raven_Projectile@@UAEXAAV?$basic_ifstream@DU?$char_traits@D@std@@@std@@@Z ; Raven_Projectile::Read
PUBLIC	?HasImpacted@Raven_Projectile@@QBE_NXZ		; Raven_Projectile::HasImpacted
PUBLIC	??1Raven_Projectile@@UAE@XZ			; Raven_Projectile::~Raven_Projectile
PUBLIC	??_GRaven_Projectile@@UAEPAXI@Z			; Raven_Projectile::`scalar deleting destructor'
PUBLIC	?TestForImpact@Pellet@@AAEXXZ			; Pellet::TestForImpact
PUBLIC	?isVisibleToPlayer@Pellet@@ABE_NXZ		; Pellet::isVisibleToPlayer
PUBLIC	??0Pellet@@QAE@PAVRaven_Bot@@UVector2D@@@Z	; Pellet::Pellet
PUBLIC	?Render@Pellet@@UAEXXZ				; Pellet::Render
PUBLIC	?Update@Pellet@@UAEXXZ				; Pellet::Update
PUBLIC	??1Pellet@@UAE@XZ				; Pellet::~Pellet
PUBLIC	??_GPellet@@UAEPAXI@Z				; Pellet::`scalar deleting destructor'
PUBLIC	??$?HDU?$char_traits@D@std@@V?$allocator@D@1@@std@@YA?AV?$basic_string@DU?$char_traits@D@std@@V?$allocator@D@2@@0@ABV10@QBD@Z ; std::operator+<char,std::char_traits<char>,std::allocator<char> >
PUBLIC	?GetInt@Scriptor@@QAEHPAD@Z			; Scriptor::GetInt
PUBLIC	?GetDouble@Scriptor@@QAENPAD@Z			; Scriptor::GetDouble
PUBLIC	??$PopLuaNumber@H@@YAHPAUlua_State@@PBD@Z	; PopLuaNumber<int>
PUBLIC	??$PopLuaNumber@N@@YANPAUlua_State@@PBD@Z	; PopLuaNumber<double>
PUBLIC	?YellowPen@Cgdi@@QAEXXZ				; Cgdi::YellowPen
PUBLIC	?BrownBrush@Cgdi@@QAEXXZ			; Cgdi::BrownBrush
PUBLIC	?Line@Cgdi@@QAEXUVector2D@@0@Z			; Cgdi::Line
PUBLIC	?Circle@Cgdi@@QAEXUVector2D@@N@Z		; Cgdi::Circle
PUBLIC	?Facing@Raven_Bot@@QBE?AUVector2D@@XZ		; Raven_Bot::Facing
PUBLIC	?GetWorld@Raven_Bot@@QAEQAVRaven_Game@@XZ	; Raven_Bot::GetWorld
PUBLIC	?From@Wall2D@@QBE?AUVector2D@@XZ		; Wall2D::From
PUBLIC	?To@Wall2D@@QBE?AUVector2D@@XZ			; Wall2D::To
PUBLIC	?GetMap@Raven_Game@@QAEQAVRaven_Map@@XZ		; Raven_Game::GetMap
PUBLIC	?begin@?$vector@PAVWall2D@@V?$allocator@PAVWall2D@@@std@@@std@@QBE?AV?$_Vector_const_iterator@V?$_Vector_val@U?$_Simple_types@PAVWall2D@@@std@@@std@@@2@XZ ; std::vector<Wall2D *,std::allocator<Wall2D *> >::begin
PUBLIC	?end@?$vector@PAVWall2D@@V?$allocator@PAVWall2D@@@std@@@std@@QBE?AV?$_Vector_const_iterator@V?$_Vector_val@U?$_Simple_types@PAVWall2D@@@std@@@std@@@2@XZ ; std::vector<Wall2D *,std::allocator<Wall2D *> >::end
PUBLIC	?GetWalls@Raven_Map@@QBEABV?$vector@PAVWall2D@@V?$allocator@PAVWall2D@@@std@@@std@@XZ ; Raven_Map::GetWalls
PUBLIC	??$FindClosestPointOfIntersectionWithWalls@V?$vector@PAVWall2D@@V?$allocator@PAVWall2D@@@std@@@std@@@@YA_NUVector2D@@0AANAAU0@ABV?$vector@PAVWall2D@@V?$allocator@PAVWall2D@@@std@@@std@@@Z ; FindClosestPointOfIntersectionWithWalls<std::vector<Wall2D *,std::allocator<Wall2D *> > >
PUBLIC	?allocate@?$allocator@U_Container_proxy@std@@@std@@QAEPAU_Container_proxy@2@I@Z ; std::allocator<std::_Container_proxy>::allocate
PUBLIC	??$_Delete_plain_internal@V?$allocator@U_Container_proxy@std@@@std@@@std@@YAXAAV?$allocator@U_Container_proxy@std@@@0@QAU_Container_proxy@0@@Z ; std::_Delete_plain_internal<std::allocator<std::_Container_proxy> >
PUBLIC	??$min@I@std@@YAABIABI0@Z			; std::min<unsigned int>
PUBLIC	??0?$_Container_proxy_ptr12@V?$allocator@U_Container_proxy@std@@@std@@@std@@QAE@AAV?$allocator@U_Container_proxy@std@@@1@AAU_Container_base12@1@@Z ; std::_Container_proxy_ptr12<std::allocator<std::_Container_proxy> >::_Container_proxy_ptr12<std::allocator<std::_Container_proxy> >
PUBLIC	??1?$_Container_proxy_ptr12@V?$allocator@U_Container_proxy@std@@@std@@@std@@QAE@XZ ; std::_Container_proxy_ptr12<std::allocator<std::_Container_proxy> >::~_Container_proxy_ptr12<std::allocator<std::_Container_proxy> >
PUBLIC	??$_Convert_size@I@std@@YAII@Z			; std::_Convert_size<unsigned int>
PUBLIC	??$?0D@?$allocator@U_Container_proxy@std@@@std@@QAE@ABV?$allocator@D@1@@Z ; std::allocator<std::_Container_proxy>::allocator<std::_Container_proxy><char>
PUBLIC	??$?0V?$allocator@D@std@@$$V@?$_Compressed_pair@V?$allocator@D@std@@V?$_String_val@U?$_Simple_types@D@std@@@2@$00@std@@QAE@U_One_then_variadic_args_t@1@$$QAV?$allocator@D@1@@Z ; std::_Compressed_pair<std::allocator<char>,std::_String_val<std::_Simple_types<char> >,1>::_Compressed_pair<std::allocator<char>,std::_String_val<std::_Simple_types<char> >,1><std::allocator<char> >
PUBLIC	??$?0$$V@?$_Compressed_pair@V?$allocator@D@std@@V?$_String_val@U?$_Simple_types@D@std@@@2@$00@std@@QAE@U_Zero_then_variadic_args_t@1@@Z ; std::_Compressed_pair<std::allocator<char>,std::_String_val<std::_Simple_types<char> >,1>::_Compressed_pair<std::allocator<char>,std::_String_val<std::_Simple_types<char> >,1><>
PUBLIC	??$_Unfancy@U_Container_proxy@std@@@std@@YAPAU_Container_proxy@0@PAU10@@Z ; std::_Unfancy<std::_Container_proxy>
PUBLIC	??$addressof@U_Container_base12@std@@@std@@YAPAU_Container_base12@0@AAU10@@Z ; std::addressof<std::_Container_base12>
PUBLIC	??$_Construct_in_place@U_Container_proxy@std@@PAU_Container_base12@2@@std@@YAXAAU_Container_proxy@0@$$QAPAU_Container_base12@0@@Z ; std::_Construct_in_place<std::_Container_proxy,std::_Container_base12 *>
PUBLIC	??$_Destroy_in_place@PAD@std@@YAXAAPAD@Z	; std::_Destroy_in_place<char *>
PUBLIC	??R<lambda_9366063389c5f42a00a5088cf24e69de>@@QBE@QADIQBD@Z ; <lambda_9366063389c5f42a00a5088cf24e69de>::operator()
PUBLIC	??$_Reallocate_for@V<lambda_9366063389c5f42a00a5088cf24e69de>@@PBD@?$basic_string@DU?$char_traits@D@std@@V?$allocator@D@2@@std@@AAEAAV01@IV<lambda_9366063389c5f42a00a5088cf24e69de>@@PBD@Z ; std::basic_string<char,std::char_traits<char>,std::allocator<char> >::_Reallocate_for<<lambda_9366063389c5f42a00a5088cf24e69de>,char const *>
PUBLIC	??$_Construct_in_place@PADABQAD@std@@YAXAAPADABQAD@Z ; std::_Construct_in_place<char *,char * const &>
PUBLIC	??$_Unfancy@D@std@@YAPADPAD@Z			; std::_Unfancy<char>
PUBLIC	??$max@I@std@@YAABIABI0@Z			; std::max<unsigned int>
PUBLIC	??$_Get_size_of_n@$07@std@@YAII@Z		; std::_Get_size_of_n<8>
PUBLIC	??$_Allocate@$07U_Default_allocate_traits@std@@$0A@@std@@YAPAXI@Z ; std::_Allocate<8,std::_Default_allocate_traits,0>
PUBLIC	??$_Deallocate@$07$0A@@std@@YAXPAXI@Z		; std::_Deallocate<8,0>
PUBLIC	??$_Get_size_of_n@$00@std@@YAII@Z		; std::_Get_size_of_n<1>
PUBLIC	??0?$_Vector_const_iterator@V?$_Vector_val@U?$_Simple_types@PAVWall2D@@@std@@@std@@@std@@QAE@PAPAVWall2D@@PBU_Container_base12@1@@Z ; std::_Vector_const_iterator<std::_Vector_val<std::_Simple_types<Wall2D *> > >::_Vector_const_iterator<std::_Vector_val<std::_Simple_types<Wall2D *> > >
PUBLIC	??D?$_Vector_const_iterator@V?$_Vector_val@U?$_Simple_types@PAVWall2D@@@std@@@std@@@std@@QBEABQAVWall2D@@XZ ; std::_Vector_const_iterator<std::_Vector_val<std::_Simple_types<Wall2D *> > >::operator*
PUBLIC	??E?$_Vector_const_iterator@V?$_Vector_val@U?$_Simple_types@PAVWall2D@@@std@@@std@@@std@@QAEAAV01@XZ ; std::_Vector_const_iterator<std::_Vector_val<std::_Simple_types<Wall2D *> > >::operator++
PUBLIC	??8?$_Vector_const_iterator@V?$_Vector_val@U?$_Simple_types@PAVWall2D@@@std@@@std@@@std@@QBE_NABV01@@Z ; std::_Vector_const_iterator<std::_Vector_val<std::_Simple_types<Wall2D *> > >::operator==
PUBLIC	??9?$_Vector_const_iterator@V?$_Vector_val@U?$_Simple_types@PAVWall2D@@@std@@@std@@@std@@QBE_NABV01@@Z ; std::_Vector_const_iterator<std::_Vector_val<std::_Simple_types<Wall2D *> > >::operator!=
PUBLIC	?_Compat@?$_Vector_const_iterator@V?$_Vector_val@U?$_Simple_types@PAVWall2D@@@std@@@std@@@std@@QBEXABV12@@Z ; std::_Vector_const_iterator<std::_Vector_val<std::_Simple_types<Wall2D *> > >::_Compat
PUBLIC	??1?$_Vector_const_iterator@V?$_Vector_val@U?$_Simple_types@PAVWall2D@@@std@@@std@@@std@@QAE@XZ ; std::_Vector_const_iterator<std::_Vector_val<std::_Simple_types<Wall2D *> > >::~_Vector_const_iterator<std::_Vector_val<std::_Simple_types<Wall2D *> > >
PUBLIC	??$_Deallocate_plain@V?$allocator@U_Container_proxy@std@@@std@@@std@@YAXAAV?$allocator@U_Container_proxy@std@@@0@QAU_Container_proxy@0@@Z ; std::_Deallocate_plain<std::allocator<std::_Container_proxy> >
PUBLIC	??$forward@V?$allocator@D@std@@@std@@YA$$QAV?$allocator@D@0@AAV10@@Z ; std::forward<std::allocator<char> >
PUBLIC	??$addressof@U_Container_proxy@std@@@std@@YAPAU_Container_proxy@0@AAU10@@Z ; std::addressof<std::_Container_proxy>
PUBLIC	??$_Voidify_iter@PAU_Container_proxy@std@@@std@@YAPAXPAU_Container_proxy@0@@Z ; std::_Voidify_iter<std::_Container_proxy *>
PUBLIC	??$forward@PAU_Container_base12@std@@@std@@YA$$QAPAU_Container_base12@0@AAPAU10@@Z ; std::forward<std::_Container_base12 *>
PUBLIC	??$addressof@PAD@std@@YAPAPADAAPAD@Z		; std::addressof<char *>
PUBLIC	??$_Voidify_iter@PAPAD@std@@YAPAXPAPAD@Z	; std::_Voidify_iter<char * *>
PUBLIC	??$forward@ABQAD@std@@YAABQADABQAD@Z		; std::forward<char * const &>
PUBLIC	??$_Allocate_manually_vector_aligned@U_Default_allocate_traits@std@@@std@@YAPAXI@Z ; std::_Allocate_manually_vector_aligned<std::_Default_allocate_traits>
PUBLIC	??$addressof@$$CBV?$_Vector_val@U?$_Simple_types@PAVWall2D@@@std@@@std@@@std@@YAPBV?$_Vector_val@U?$_Simple_types@PAVWall2D@@@std@@@0@ABV10@@Z ; std::addressof<std::_Vector_val<std::_Simple_types<Wall2D *> > const >
PUBLIC	?deallocate@?$_Default_allocator_traits@V?$allocator@U_Container_proxy@std@@@std@@@std@@SAXAAV?$allocator@U_Container_proxy@std@@@2@QAU_Container_proxy@2@I@Z ; std::_Default_allocator_traits<std::allocator<std::_Container_proxy> >::deallocate
PUBLIC	??_7exception@std@@6B@				; std::exception::`vftable'
PUBLIC	??_C@_0BC@EOODALEL@Unknown?5exception@		; `string'
PUBLIC	??_7bad_alloc@std@@6B@				; std::bad_alloc::`vftable'
PUBLIC	??_7bad_array_new_length@std@@6B@		; std::bad_array_new_length::`vftable'
PUBLIC	??_C@_0BF@KINCDENJ@bad?5array?5new?5length@	; `string'
PUBLIC	__TI3?AVbad_array_new_length@std@@
PUBLIC	__CTA3?AVbad_array_new_length@std@@
PUBLIC	??_R0?AVbad_array_new_length@std@@@8		; std::bad_array_new_length `RTTI Type Descriptor'
PUBLIC	__CT??_R0?AVbad_array_new_length@std@@@8??0bad_array_new_length@std@@QAE@ABV01@@Z12
PUBLIC	??_R0?AVbad_alloc@std@@@8			; std::bad_alloc `RTTI Type Descriptor'
PUBLIC	__CT??_R0?AVbad_alloc@std@@@8??0bad_alloc@std@@QAE@ABV01@@Z12
PUBLIC	??_R0?AVexception@std@@@8			; std::exception `RTTI Type Descriptor'
PUBLIC	__CT??_R0?AVexception@std@@@8??0exception@std@@QAE@ABV01@@Z12
PUBLIC	??_C@_0BB@FCMFBGOM@invalid?5argument@		; `string'
PUBLIC	??_C@_02DKCKIIND@?$CFs@				; `string'
PUBLIC	??_C@_0GC@DJFHHHKN@C?3?2Program?5Files?2Microsoft?5Visu@ ; `string'
PUBLIC	??_C@_1ME@GEFGDEOM@?$AAC?$AA?3?$AA?2?$AAP?$AAr?$AAo?$AAg?$AAr?$AAa?$AAm?$AA?5?$AAF?$AAi?$AAl?$AAe@ ; `string'
PUBLIC	??_C@_11LOCGONAA@@				; `string'
PUBLIC	??_C@_1CG@JNLFBNGN@?$AA?$CC?$AAi?$AAn?$AAv?$AAa?$AAl?$AAi?$AAd?$AA?5?$AAa?$AAr?$AAg?$AAu?$AAm?$AAe@ ; `string'
PUBLIC	??_C@_0BJ@LFDBABJJ@ITERATOR?5LIST?5CORRUPTED?$CB@ ; `string'
PUBLIC	??_C@_1DG@PLBPCAEM@?$AA?$CC?$AAI?$AAT?$AAE?$AAR?$AAA?$AAT?$AAO?$AAR?$AA?5?$AAL?$AAI?$AAS?$AAT?$AA?5@ ; `string'
PUBLIC	??_C@_0BA@JFNIOLAK@string?5too?5long@		; `string'
PUBLIC	?_BUF_SIZE@?$basic_string@DU?$char_traits@D@std@@V?$allocator@D@2@@std@@0IB ; std::basic_string<char,std::char_traits<char>,std::allocator<char> >::_BUF_SIZE
PUBLIC	??_7runtime_error@std@@6B@			; std::runtime_error::`vftable'
PUBLIC	??_R0?AVruntime_error@std@@@8			; std::runtime_error `RTTI Type Descriptor'
PUBLIC	__CT??_R0?AVruntime_error@std@@@8??0runtime_error@std@@QAE@ABV01@@Z12
PUBLIC	??_7BaseGameEntity@@6B@				; BaseGameEntity::`vftable'
PUBLIC	??_7MovingEntity@@6B@				; MovingEntity::`vftable'
PUBLIC	??_7Raven_Projectile@@6B@			; Raven_Projectile::`vftable'
PUBLIC	??_7Pellet@@6B@					; Pellet::`vftable'
PUBLIC	__TI2?AVruntime_error@std@@
PUBLIC	__CTA2?AVruntime_error@std@@
PUBLIC	?id@?$codecvt@DDU_Mbstatet@@@std@@2V0locale@2@A	; std::codecvt<char,char,_Mbstatet>::id
PUBLIC	?id@?$num_put@DV?$ostreambuf_iterator@DU?$char_traits@D@std@@@std@@@std@@2V0locale@2@A ; std::num_put<char,std::ostreambuf_iterator<char,std::char_traits<char> > >::id
PUBLIC	??_C@_0GB@GDCALCPO@C?3?2Program?5Files?2Microsoft?5Visu@ ; `string'
PUBLIC	??_C@_1MC@BJDJHFOD@?$AAC?$AA?3?$AA?2?$AAP?$AAr?$AAo?$AAg?$AAr?$AAa?$AAm?$AA?5?$AAF?$AAi?$AAl?$AAe@ ; `string'
PUBLIC	?id@?$numpunct@D@std@@2V0locale@2@A		; std::numpunct<char>::id
PUBLIC	??_C@_0DG@KGHKKGBC@null?5pointer?5cannot?5point?5to?5a?5@ ; `string'
PUBLIC	??_C@_1HA@FACCKGGH@?$AA?$CC?$AAn?$AAu?$AAl?$AAl?$AA?5?$AAp?$AAo?$AAi?$AAn?$AAt?$AAe?$AAr?$AA?5?$AAc@ ; `string'
PUBLIC	??_C@_0CB@NOKEJIID@?$DMPopLuaNumber?$DO?5Cannot?5retrieve?3@ ; `string'
PUBLIC	?id@?$num_get@DV?$istreambuf_iterator@DU?$char_traits@D@std@@@std@@@std@@2V0locale@2@A ; std::num_get<char,std::istreambuf_iterator<char,std::char_traits<char> > >::id
PUBLIC	??_C@_0DC@KEKNBAEB@can?8t?5increment?5value?9initializ@ ; `string'
PUBLIC	??_C@_1GI@EDCILPL@?$AA?$CC?$AAc?$AAa?$AAn?$AA?8?$AAt?$AA?5?$AAi?$AAn?$AAc?$AAr?$AAe?$AAm?$AAe?$AAn@ ; `string'
PUBLIC	??_C@_0CJ@OAAAAGPM@can?8t?5increment?5vector?5iterator@ ; `string'
PUBLIC	??_C@_1FG@LDPPKMGP@?$AA?$CC?$AAc?$AAa?$AAn?$AA?8?$AAt?$AA?5?$AAi?$AAn?$AAc?$AAr?$AAe?$AAm?$AAe?$AAn@ ; `string'
PUBLIC	??_C@_0DE@CHADHGFF@can?8t?5dereference?5value?9initial@ ; `string'
PUBLIC	??_C@_1GM@FNBFNBEL@?$AA?$CC?$AAc?$AAa?$AAn?$AA?8?$AAt?$AA?5?$AAd?$AAe?$AAr?$AAe?$AAf?$AAe?$AAr?$AAe@ ; `string'
PUBLIC	??_C@_0CP@MDHADBHN@can?8t?5dereference?5out?5of?5range?5@ ; `string'
PUBLIC	??_C@_1GC@JDCKOLAC@?$AA?$CC?$AAc?$AAa?$AAn?$AA?8?$AAt?$AA?5?$AAd?$AAe?$AAr?$AAe?$AAf?$AAe?$AAr?$AAe@ ; `string'
PUBLIC	??_C@_0BO@CAOBBIOC@vector?5iterators?5incompatible@ ; `string'
PUBLIC	??_C@_1EA@DJDGNIII@?$AA?$CC?$AAv?$AAe?$AAc?$AAt?$AAo?$AAr?$AA?5?$AAi?$AAt?$AAe?$AAr?$AAa?$AAt?$AAo@ ; `string'
PUBLIC	??_R4exception@std@@6B@				; std::exception::`RTTI Complete Object Locator'
PUBLIC	??_R3exception@std@@8				; std::exception::`RTTI Class Hierarchy Descriptor'
PUBLIC	??_R2exception@std@@8				; std::exception::`RTTI Base Class Array'
PUBLIC	??_R1A@?0A@EA@exception@std@@8			; std::exception::`RTTI Base Class Descriptor at (0,-1,0,64)'
PUBLIC	??_R4bad_alloc@std@@6B@				; std::bad_alloc::`RTTI Complete Object Locator'
PUBLIC	??_R3bad_alloc@std@@8				; std::bad_alloc::`RTTI Class Hierarchy Descriptor'
PUBLIC	??_R2bad_alloc@std@@8				; std::bad_alloc::`RTTI Base Class Array'
PUBLIC	??_R1A@?0A@EA@bad_alloc@std@@8			; std::bad_alloc::`RTTI Base Class Descriptor at (0,-1,0,64)'
PUBLIC	??_R4bad_array_new_length@std@@6B@		; std::bad_array_new_length::`RTTI Complete Object Locator'
PUBLIC	??_R3bad_array_new_length@std@@8		; std::bad_array_new_length::`RTTI Class Hierarchy Descriptor'
PUBLIC	??_R2bad_array_new_length@std@@8		; std::bad_array_new_length::`RTTI Base Class Array'
PUBLIC	??_R1A@?0A@EA@bad_array_new_length@std@@8	; std::bad_array_new_length::`RTTI Base Class Descriptor at (0,-1,0,64)'
PUBLIC	??_R4runtime_error@std@@6B@			; std::runtime_error::`RTTI Complete Object Locator'
PUBLIC	??_R3runtime_error@std@@8			; std::runtime_error::`RTTI Class Hierarchy Descriptor'
PUBLIC	??_R2runtime_error@std@@8			; std::runtime_error::`RTTI Base Class Array'
PUBLIC	??_R1A@?0A@EA@runtime_error@std@@8		; std::runtime_error::`RTTI Base Class Descriptor at (0,-1,0,64)'
PUBLIC	??_R4BaseGameEntity@@6B@			; BaseGameEntity::`RTTI Complete Object Locator'
PUBLIC	??_R0?AVBaseGameEntity@@@8			; BaseGameEntity `RTTI Type Descriptor'
PUBLIC	??_R3BaseGameEntity@@8				; BaseGameEntity::`RTTI Class Hierarchy Descriptor'
PUBLIC	??_R2BaseGameEntity@@8				; BaseGameEntity::`RTTI Base Class Array'
PUBLIC	??_R1A@?0A@EA@BaseGameEntity@@8			; BaseGameEntity::`RTTI Base Class Descriptor at (0,-1,0,64)'
PUBLIC	??_R4MovingEntity@@6B@				; MovingEntity::`RTTI Complete Object Locator'
PUBLIC	??_R0?AVMovingEntity@@@8			; MovingEntity `RTTI Type Descriptor'
PUBLIC	??_R3MovingEntity@@8				; MovingEntity::`RTTI Class Hierarchy Descriptor'
PUBLIC	??_R2MovingEntity@@8				; MovingEntity::`RTTI Base Class Array'
PUBLIC	??_R1A@?0A@EA@MovingEntity@@8			; MovingEntity::`RTTI Base Class Descriptor at (0,-1,0,64)'
PUBLIC	??_R4Raven_Projectile@@6B@			; Raven_Projectile::`RTTI Complete Object Locator'
PUBLIC	??_R0?AVRaven_Projectile@@@8			; Raven_Projectile `RTTI Type Descriptor'
PUBLIC	??_R3Raven_Projectile@@8			; Raven_Projectile::`RTTI Class Hierarchy Descriptor'
PUBLIC	??_R2Raven_Projectile@@8			; Raven_Projectile::`RTTI Base Class Array'
PUBLIC	??_R1A@?0A@EA@Raven_Projectile@@8		; Raven_Projectile::`RTTI Base Class Descriptor at (0,-1,0,64)'
PUBLIC	??_R4Pellet@@6B@				; Pellet::`RTTI Complete Object Locator'
PUBLIC	??_R0?AVPellet@@@8				; Pellet `RTTI Type Descriptor'
PUBLIC	??_R3Pellet@@8					; Pellet::`RTTI Class Hierarchy Descriptor'
PUBLIC	??_R2Pellet@@8					; Pellet::`RTTI Base Class Array'
PUBLIC	??_R1A@?0A@EA@Pellet@@8				; Pellet::`RTTI Base Class Descriptor at (0,-1,0,64)'
PUBLIC	__real@0000000000000000
PUBLIC	__real@3cb0000000000000
PUBLIC	__real@3f50624dd2f1a9fc
PUBLIC	__real@3ff0000000000000
PUBLIC	__real@4008000000000000
PUBLIC	__real@7fefffffffffffff
PUBLIC	__xmm@41f00000000000000000000000000000
PUBLIC	__xmm@80000000000000008000000000000000
EXTRN	__purecall:PROC
EXTRN	??2@YAPAXI@Z:PROC				; operator new
EXTRN	??3@YAXPAXI@Z:PROC				; operator delete
EXTRN	__invalid_parameter:PROC
EXTRN	_fabs:PROC
EXTRN	_sqrt:PROC
EXTRN	_memcpy:PROC
EXTRN	_memmove:PROC
EXTRN	_strlen:PROC
EXTRN	__imp__Ellipse@20:PROC
EXTRN	__imp__LineTo@12:PROC
EXTRN	__imp__SelectObject@8:PROC
EXTRN	__imp__MoveToEx@16:PROC
EXTRN	__imp__timeGetTime@0:PROC
EXTRN	__CrtDbgReport:PROC
EXTRN	??0_Lockit@std@@QAE@H@Z:PROC			; std::_Lockit::_Lockit
EXTRN	??1_Lockit@std@@QAE@XZ:PROC			; std::_Lockit::~_Lockit
EXTRN	?_Xlength_error@std@@YAXPBD@Z:PROC		; std::_Xlength_error
EXTRN	___std_exception_copy:PROC
EXTRN	___std_exception_destroy:PROC
EXTRN	??_Eexception@std@@UAEPAXI@Z:PROC		; std::exception::`vector deleting destructor'
EXTRN	??_Ebad_alloc@std@@UAEPAXI@Z:PROC		; std::bad_alloc::`vector deleting destructor'
EXTRN	??_Ebad_array_new_length@std@@UAEPAXI@Z:PROC	; std::bad_array_new_length::`vector deleting destructor'
EXTRN	??_Eruntime_error@std@@UAEPAXI@Z:PROC		; std::runtime_error::`vector deleting destructor'
EXTRN	??0BaseGameEntity@@IAE@H@Z:PROC			; BaseGameEntity::BaseGameEntity
EXTRN	??_EBaseGameEntity@@UAEPAXI@Z:PROC		; BaseGameEntity::`vector deleting destructor'
EXTRN	??_EMovingEntity@@UAEPAXI@Z:PROC		; MovingEntity::`vector deleting destructor'
EXTRN	?Instance@CrudeTimer@@SAPAV1@XZ:PROC		; CrudeTimer::Instance
EXTRN	?GetClosestIntersectingBot@Raven_Projectile@@IBEPAVRaven_Bot@@UVector2D@@0@Z:PROC ; Raven_Projectile::GetClosestIntersectingBot
EXTRN	??_ERaven_Projectile@@UAEPAXI@Z:PROC		; Raven_Projectile::`vector deleting destructor'
EXTRN	??_EPellet@@UAEPAXI@Z:PROC			; Pellet::`vector deleting destructor'
EXTRN	_lua_settop:PROC
EXTRN	_lua_isnumber:PROC
EXTRN	_lua_tonumberx:PROC
EXTRN	_lua_getglobal:PROC
EXTRN	?Instance@Raven_Scriptor@@SAPAV1@XZ:PROC	; Raven_Scriptor::Instance
EXTRN	?Instance@Cgdi@@SAPAV1@XZ:PROC			; Cgdi::Instance
EXTRN	?Instance@MessageDispatcher@@SAPAV1@XZ:PROC	; MessageDispatcher::Instance
EXTRN	?DispatchMsg@MessageDispatcher@@QAEXNHHHPAX@Z:PROC ; MessageDispatcher::DispatchMsg
EXTRN	@_RTC_CheckStackVars@8:PROC
EXTRN	@__security_check_cookie@4:PROC
EXTRN	__CxxThrowException@8:PROC
EXTRN	__RTC_CheckEsp:PROC
EXTRN	__RTC_InitBase:PROC
EXTRN	__RTC_Shutdown:PROC
EXTRN	___CxxFrameHandler3:PROC
EXTRN	__ftol2_sse:PROC
EXTRN	??_7type_info@@6B@:QWORD			; type_info::`vftable'
EXTRN	?m_iNextValidID@BaseGameEntity@@0HA:DWORD	; BaseGameEntity::m_iNextValidID
EXTRN	___security_cookie:DWORD
EXTRN	__fltused:DWORD
;	COMDAT ?id@?$codecvt@DDU_Mbstatet@@@std@@2V0locale@2@A
_BSS	SEGMENT
?id@?$codecvt@DDU_Mbstatet@@@std@@2V0locale@2@A DD 01H DUP (?) ; std::codecvt<char,char,_Mbstatet>::id
_BSS	ENDS
;	COMDAT ?id@?$num_put@DV?$ostreambuf_iterator@DU?$char_traits@D@std@@@std@@@std@@2V0locale@2@A
_BSS	SEGMENT
?id@?$num_put@DV?$ostreambuf_iterator@DU?$char_traits@D@std@@@std@@@std@@2V0locale@2@A DD 01H DUP (?) ; std::num_put<char,std::ostreambuf_iterator<char,std::char_traits<char> > >::id
_BSS	ENDS
;	COMDAT ?id@?$numpunct@D@std@@2V0locale@2@A
_BSS	SEGMENT
?id@?$numpunct@D@std@@2V0locale@2@A DD 01H DUP (?)	; std::numpunct<char>::id
_BSS	ENDS
;	COMDAT ?id@?$num_get@DV?$istreambuf_iterator@DU?$char_traits@D@std@@@std@@@std@@2V0locale@2@A
_BSS	SEGMENT
?id@?$num_get@DV?$istreambuf_iterator@DU?$char_traits@D@std@@@std@@@std@@2V0locale@2@A DD 01H DUP (?) ; std::num_get<char,std::istreambuf_iterator<char,std::char_traits<char> > >::id
_BSS	ENDS
;	COMDAT CRT$XCU
CRT$XCU	SEGMENT
??id$initializer$@?$num_put@DV?$ostreambuf_iterator@DU?$char_traits@D@std@@@std@@@std@@2P6AXXZA@@3P6AXXZA DD FLAT:??__E?id@?$num_put@DV?$ostreambuf_iterator@DU?$char_traits@D@std@@@std@@@std@@2V0locale@2@A@@YAXXZ ; ??id$initializer$@?$num_put@DV?$ostreambuf_iterator@DU?$char_traits@D@std@@@std@@@std@@2P6AXXZA@@3P6AXXZA
CRT$XCU	ENDS
;	COMDAT __xmm@80000000000000008000000000000000
CONST	SEGMENT
__xmm@80000000000000008000000000000000 DB 00H, 00H, 00H, 00H, 00H, 00H, 00H
	DB	080H, 00H, 00H, 00H, 00H, 00H, 00H, 00H, 080H
CONST	ENDS
;	COMDAT __xmm@41f00000000000000000000000000000
CONST	SEGMENT
__xmm@41f00000000000000000000000000000 DB 00H, 00H, 00H, 00H, 00H, 00H, 00H
	DB	00H, 00H, 00H, 00H, 00H, 00H, 00H, 0f0H, 'A'
CONST	ENDS
;	COMDAT __real@7fefffffffffffff
CONST	SEGMENT
__real@7fefffffffffffff DQ 07fefffffffffffffr	; 1.79769e+308
CONST	ENDS
;	COMDAT __real@4008000000000000
CONST	SEGMENT
__real@4008000000000000 DQ 04008000000000000r	; 3
CONST	ENDS
;	COMDAT __real@3ff0000000000000
CONST	SEGMENT
__real@3ff0000000000000 DQ 03ff0000000000000r	; 1
CONST	ENDS
;	COMDAT __real@3f50624dd2f1a9fc
CONST	SEGMENT
__real@3f50624dd2f1a9fc DQ 03f50624dd2f1a9fcr	; 0.001
CONST	ENDS
;	COMDAT __real@3cb0000000000000
CONST	SEGMENT
__real@3cb0000000000000 DQ 03cb0000000000000r	; 2.22045e-16
CONST	ENDS
;	COMDAT __real@0000000000000000
CONST	SEGMENT
__real@0000000000000000 DQ 00000000000000000r	; 0
CONST	ENDS
;	COMDAT rtc$TMZ
rtc$TMZ	SEGMENT
__RTC_Shutdown.rtc$TMZ DD FLAT:__RTC_Shutdown
rtc$TMZ	ENDS
;	COMDAT rtc$IMZ
rtc$IMZ	SEGMENT
__RTC_InitBase.rtc$IMZ DD FLAT:__RTC_InitBase
rtc$IMZ	ENDS
;	COMDAT ??_R1A@?0A@EA@Pellet@@8
rdata$r	SEGMENT
??_R1A@?0A@EA@Pellet@@8 DD FLAT:??_R0?AVPellet@@@8	; Pellet::`RTTI Base Class Descriptor at (0,-1,0,64)'
	DD	03H
	DD	00H
	DD	0ffffffffH
	DD	00H
	DD	040H
	DD	FLAT:??_R3Pellet@@8
rdata$r	ENDS
;	COMDAT ??_R2Pellet@@8
rdata$r	SEGMENT
??_R2Pellet@@8 DD FLAT:??_R1A@?0A@EA@Pellet@@8		; Pellet::`RTTI Base Class Array'
	DD	FLAT:??_R1A@?0A@EA@Raven_Projectile@@8
	DD	FLAT:??_R1A@?0A@EA@MovingEntity@@8
	DD	FLAT:??_R1A@?0A@EA@BaseGameEntity@@8
rdata$r	ENDS
;	COMDAT ??_R3Pellet@@8
rdata$r	SEGMENT
??_R3Pellet@@8 DD 00H					; Pellet::`RTTI Class Hierarchy Descriptor'
	DD	00H
	DD	04H
	DD	FLAT:??_R2Pellet@@8
rdata$r	ENDS
;	COMDAT ??_R0?AVPellet@@@8
data$rs	SEGMENT
??_R0?AVPellet@@@8 DD FLAT:??_7type_info@@6B@		; Pellet `RTTI Type Descriptor'
	DD	00H
	DB	'.?AVPellet@@', 00H
data$rs	ENDS
;	COMDAT ??_R4Pellet@@6B@
rdata$r	SEGMENT
??_R4Pellet@@6B@ DD 00H					; Pellet::`RTTI Complete Object Locator'
	DD	00H
	DD	00H
	DD	FLAT:??_R0?AVPellet@@@8
	DD	FLAT:??_R3Pellet@@8
rdata$r	ENDS
;	COMDAT ??_R1A@?0A@EA@Raven_Projectile@@8
rdata$r	SEGMENT
??_R1A@?0A@EA@Raven_Projectile@@8 DD FLAT:??_R0?AVRaven_Projectile@@@8 ; Raven_Projectile::`RTTI Base Class Descriptor at (0,-1,0,64)'
	DD	02H
	DD	00H
	DD	0ffffffffH
	DD	00H
	DD	040H
	DD	FLAT:??_R3Raven_Projectile@@8
rdata$r	ENDS
;	COMDAT ??_R2Raven_Projectile@@8
rdata$r	SEGMENT
??_R2Raven_Projectile@@8 DD FLAT:??_R1A@?0A@EA@Raven_Projectile@@8 ; Raven_Projectile::`RTTI Base Class Array'
	DD	FLAT:??_R1A@?0A@EA@MovingEntity@@8
	DD	FLAT:??_R1A@?0A@EA@BaseGameEntity@@8
rdata$r	ENDS
;	COMDAT ??_R3Raven_Projectile@@8
rdata$r	SEGMENT
??_R3Raven_Projectile@@8 DD 00H				; Raven_Projectile::`RTTI Class Hierarchy Descriptor'
	DD	00H
	DD	03H
	DD	FLAT:??_R2Raven_Projectile@@8
rdata$r	ENDS
;	COMDAT ??_R0?AVRaven_Projectile@@@8
data$rs	SEGMENT
??_R0?AVRaven_Projectile@@@8 DD FLAT:??_7type_info@@6B@	; Raven_Projectile `RTTI Type Descriptor'
	DD	00H
	DB	'.?AVRaven_Projectile@@', 00H
data$rs	ENDS
;	COMDAT ??_R4Raven_Projectile@@6B@
rdata$r	SEGMENT
??_R4Raven_Projectile@@6B@ DD 00H			; Raven_Projectile::`RTTI Complete Object Locator'
	DD	00H
	DD	00H
	DD	FLAT:??_R0?AVRaven_Projectile@@@8
	DD	FLAT:??_R3Raven_Projectile@@8
rdata$r	ENDS
;	COMDAT ??_R1A@?0A@EA@MovingEntity@@8
rdata$r	SEGMENT
??_R1A@?0A@EA@MovingEntity@@8 DD FLAT:??_R0?AVMovingEntity@@@8 ; MovingEntity::`RTTI Base Class Descriptor at (0,-1,0,64)'
	DD	01H
	DD	00H
	DD	0ffffffffH
	DD	00H
	DD	040H
	DD	FLAT:??_R3MovingEntity@@8
rdata$r	ENDS
;	COMDAT ??_R2MovingEntity@@8
rdata$r	SEGMENT
??_R2MovingEntity@@8 DD FLAT:??_R1A@?0A@EA@MovingEntity@@8 ; MovingEntity::`RTTI Base Class Array'
	DD	FLAT:??_R1A@?0A@EA@BaseGameEntity@@8
rdata$r	ENDS
;	COMDAT ??_R3MovingEntity@@8
rdata$r	SEGMENT
??_R3MovingEntity@@8 DD 00H				; MovingEntity::`RTTI Class Hierarchy Descriptor'
	DD	00H
	DD	02H
	DD	FLAT:??_R2MovingEntity@@8
rdata$r	ENDS
;	COMDAT ??_R0?AVMovingEntity@@@8
data$rs	SEGMENT
??_R0?AVMovingEntity@@@8 DD FLAT:??_7type_info@@6B@	; MovingEntity `RTTI Type Descriptor'
	DD	00H
	DB	'.?AVMovingEntity@@', 00H
data$rs	ENDS
;	COMDAT ??_R4MovingEntity@@6B@
rdata$r	SEGMENT
??_R4MovingEntity@@6B@ DD 00H				; MovingEntity::`RTTI Complete Object Locator'
	DD	00H
	DD	00H
	DD	FLAT:??_R0?AVMovingEntity@@@8
	DD	FLAT:??_R3MovingEntity@@8
rdata$r	ENDS
;	COMDAT ??_R1A@?0A@EA@BaseGameEntity@@8
rdata$r	SEGMENT
??_R1A@?0A@EA@BaseGameEntity@@8 DD FLAT:??_R0?AVBaseGameEntity@@@8 ; BaseGameEntity::`RTTI Base Class Descriptor at (0,-1,0,64)'
	DD	00H
	DD	00H
	DD	0ffffffffH
	DD	00H
	DD	040H
	DD	FLAT:??_R3BaseGameEntity@@8
rdata$r	ENDS
;	COMDAT ??_R2BaseGameEntity@@8
rdata$r	SEGMENT
??_R2BaseGameEntity@@8 DD FLAT:??_R1A@?0A@EA@BaseGameEntity@@8 ; BaseGameEntity::`RTTI Base Class Array'
rdata$r	ENDS
;	COMDAT ??_R3BaseGameEntity@@8
rdata$r	SEGMENT
??_R3BaseGameEntity@@8 DD 00H				; BaseGameEntity::`RTTI Class Hierarchy Descriptor'
	DD	00H
	DD	01H
	DD	FLAT:??_R2BaseGameEntity@@8
rdata$r	ENDS
;	COMDAT ??_R0?AVBaseGameEntity@@@8
data$rs	SEGMENT
??_R0?AVBaseGameEntity@@@8 DD FLAT:??_7type_info@@6B@	; BaseGameEntity `RTTI Type Descriptor'
	DD	00H
	DB	'.?AVBaseGameEntity@@', 00H
data$rs	ENDS
;	COMDAT ??_R4BaseGameEntity@@6B@
rdata$r	SEGMENT
??_R4BaseGameEntity@@6B@ DD 00H				; BaseGameEntity::`RTTI Complete Object Locator'
	DD	00H
	DD	00H
	DD	FLAT:??_R0?AVBaseGameEntity@@@8
	DD	FLAT:??_R3BaseGameEntity@@8
rdata$r	ENDS
;	COMDAT ??_R1A@?0A@EA@runtime_error@std@@8
rdata$r	SEGMENT
??_R1A@?0A@EA@runtime_error@std@@8 DD FLAT:??_R0?AVruntime_error@std@@@8 ; std::runtime_error::`RTTI Base Class Descriptor at (0,-1,0,64)'
	DD	01H
	DD	00H
	DD	0ffffffffH
	DD	00H
	DD	040H
	DD	FLAT:??_R3runtime_error@std@@8
rdata$r	ENDS
;	COMDAT ??_R2runtime_error@std@@8
rdata$r	SEGMENT
??_R2runtime_error@std@@8 DD FLAT:??_R1A@?0A@EA@runtime_error@std@@8 ; std::runtime_error::`RTTI Base Class Array'
	DD	FLAT:??_R1A@?0A@EA@exception@std@@8
rdata$r	ENDS
;	COMDAT ??_R3runtime_error@std@@8
rdata$r	SEGMENT
??_R3runtime_error@std@@8 DD 00H			; std::runtime_error::`RTTI Class Hierarchy Descriptor'
	DD	00H
	DD	02H
	DD	FLAT:??_R2runtime_error@std@@8
rdata$r	ENDS
;	COMDAT ??_R4runtime_error@std@@6B@
rdata$r	SEGMENT
??_R4runtime_error@std@@6B@ DD 00H			; std::runtime_error::`RTTI Complete Object Locator'
	DD	00H
	DD	00H
	DD	FLAT:??_R0?AVruntime_error@std@@@8
	DD	FLAT:??_R3runtime_error@std@@8
rdata$r	ENDS
;	COMDAT ??_R1A@?0A@EA@bad_array_new_length@std@@8
rdata$r	SEGMENT
??_R1A@?0A@EA@bad_array_new_length@std@@8 DD FLAT:??_R0?AVbad_array_new_length@std@@@8 ; std::bad_array_new_length::`RTTI Base Class Descriptor at (0,-1,0,64)'
	DD	02H
	DD	00H
	DD	0ffffffffH
	DD	00H
	DD	040H
	DD	FLAT:??_R3bad_array_new_length@std@@8
rdata$r	ENDS
;	COMDAT ??_R2bad_array_new_length@std@@8
rdata$r	SEGMENT
??_R2bad_array_new_length@std@@8 DD FLAT:??_R1A@?0A@EA@bad_array_new_length@std@@8 ; std::bad_array_new_length::`RTTI Base Class Array'
	DD	FLAT:??_R1A@?0A@EA@bad_alloc@std@@8
	DD	FLAT:??_R1A@?0A@EA@exception@std@@8
rdata$r	ENDS
;	COMDAT ??_R3bad_array_new_length@std@@8
rdata$r	SEGMENT
??_R3bad_array_new_length@std@@8 DD 00H			; std::bad_array_new_length::`RTTI Class Hierarchy Descriptor'
	DD	00H
	DD	03H
	DD	FLAT:??_R2bad_array_new_length@std@@8
rdata$r	ENDS
;	COMDAT ??_R4bad_array_new_length@std@@6B@
rdata$r	SEGMENT
??_R4bad_array_new_length@std@@6B@ DD 00H		; std::bad_array_new_length::`RTTI Complete Object Locator'
	DD	00H
	DD	00H
	DD	FLAT:??_R0?AVbad_array_new_length@std@@@8
	DD	FLAT:??_R3bad_array_new_length@std@@8
rdata$r	ENDS
;	COMDAT ??_R1A@?0A@EA@bad_alloc@std@@8
rdata$r	SEGMENT
??_R1A@?0A@EA@bad_alloc@std@@8 DD FLAT:??_R0?AVbad_alloc@std@@@8 ; std::bad_alloc::`RTTI Base Class Descriptor at (0,-1,0,64)'
	DD	01H
	DD	00H
	DD	0ffffffffH
	DD	00H
	DD	040H
	DD	FLAT:??_R3bad_alloc@std@@8
rdata$r	ENDS
;	COMDAT ??_R2bad_alloc@std@@8
rdata$r	SEGMENT
??_R2bad_alloc@std@@8 DD FLAT:??_R1A@?0A@EA@bad_alloc@std@@8 ; std::bad_alloc::`RTTI Base Class Array'
	DD	FLAT:??_R1A@?0A@EA@exception@std@@8
rdata$r	ENDS
;	COMDAT ??_R3bad_alloc@std@@8
rdata$r	SEGMENT
??_R3bad_alloc@std@@8 DD 00H				; std::bad_alloc::`RTTI Class Hierarchy Descriptor'
	DD	00H
	DD	02H
	DD	FLAT:??_R2bad_alloc@std@@8
rdata$r	ENDS
;	COMDAT ??_R4bad_alloc@std@@6B@
rdata$r	SEGMENT
??_R4bad_alloc@std@@6B@ DD 00H				; std::bad_alloc::`RTTI Complete Object Locator'
	DD	00H
	DD	00H
	DD	FLAT:??_R0?AVbad_alloc@std@@@8
	DD	FLAT:??_R3bad_alloc@std@@8
rdata$r	ENDS
;	COMDAT ??_R1A@?0A@EA@exception@std@@8
rdata$r	SEGMENT
??_R1A@?0A@EA@exception@std@@8 DD FLAT:??_R0?AVexception@std@@@8 ; std::exception::`RTTI Base Class Descriptor at (0,-1,0,64)'
	DD	00H
	DD	00H
	DD	0ffffffffH
	DD	00H
	DD	040H
	DD	FLAT:??_R3exception@std@@8
rdata$r	ENDS
;	COMDAT ??_R2exception@std@@8
rdata$r	SEGMENT
??_R2exception@std@@8 DD FLAT:??_R1A@?0A@EA@exception@std@@8 ; std::exception::`RTTI Base Class Array'
rdata$r	ENDS
;	COMDAT ??_R3exception@std@@8
rdata$r	SEGMENT
??_R3exception@std@@8 DD 00H				; std::exception::`RTTI Class Hierarchy Descriptor'
	DD	00H
	DD	01H
	DD	FLAT:??_R2exception@std@@8
rdata$r	ENDS
;	COMDAT ??_R4exception@std@@6B@
rdata$r	SEGMENT
??_R4exception@std@@6B@ DD 00H				; std::exception::`RTTI Complete Object Locator'
	DD	00H
	DD	00H
	DD	FLAT:??_R0?AVexception@std@@@8
	DD	FLAT:??_R3exception@std@@8
rdata$r	ENDS
;	COMDAT ??_C@_1EA@DJDGNIII@?$AA?$CC?$AAv?$AAe?$AAc?$AAt?$AAo?$AAr?$AA?5?$AAi?$AAt?$AAe?$AAr?$AAa?$AAt?$AAo@
CONST	SEGMENT
??_C@_1EA@DJDGNIII@?$AA?$CC?$AAv?$AAe?$AAc?$AAt?$AAo?$AAr?$AA?5?$AAi?$AAt?$AAe?$AAr?$AAa?$AAt?$AAo@ DB '"'
	DB	00H, 'v', 00H, 'e', 00H, 'c', 00H, 't', 00H, 'o', 00H, 'r', 00H
	DB	' ', 00H, 'i', 00H, 't', 00H, 'e', 00H, 'r', 00H, 'a', 00H, 't'
	DB	00H, 'o', 00H, 'r', 00H, 's', 00H, ' ', 00H, 'i', 00H, 'n', 00H
	DB	'c', 00H, 'o', 00H, 'm', 00H, 'p', 00H, 'a', 00H, 't', 00H, 'i'
	DB	00H, 'b', 00H, 'l', 00H, 'e', 00H, '"', 00H, 00H, 00H ; `string'
CONST	ENDS
;	COMDAT ??_C@_0BO@CAOBBIOC@vector?5iterators?5incompatible@
CONST	SEGMENT
??_C@_0BO@CAOBBIOC@vector?5iterators?5incompatible@ DB 'vector iterators '
	DB	'incompatible', 00H				; `string'
CONST	ENDS
;	COMDAT ??_C@_1GC@JDCKOLAC@?$AA?$CC?$AAc?$AAa?$AAn?$AA?8?$AAt?$AA?5?$AAd?$AAe?$AAr?$AAe?$AAf?$AAe?$AAr?$AAe@
CONST	SEGMENT
??_C@_1GC@JDCKOLAC@?$AA?$CC?$AAc?$AAa?$AAn?$AA?8?$AAt?$AA?5?$AAd?$AAe?$AAr?$AAe?$AAf?$AAe?$AAr?$AAe@ DB '"'
	DB	00H, 'c', 00H, 'a', 00H, 'n', 00H, '''', 00H, 't', 00H, ' ', 00H
	DB	'd', 00H, 'e', 00H, 'r', 00H, 'e', 00H, 'f', 00H, 'e', 00H, 'r'
	DB	00H, 'e', 00H, 'n', 00H, 'c', 00H, 'e', 00H, ' ', 00H, 'o', 00H
	DB	'u', 00H, 't', 00H, ' ', 00H, 'o', 00H, 'f', 00H, ' ', 00H, 'r'
	DB	00H, 'a', 00H, 'n', 00H, 'g', 00H, 'e', 00H, ' ', 00H, 'v', 00H
	DB	'e', 00H, 'c', 00H, 't', 00H, 'o', 00H, 'r', 00H, ' ', 00H, 'i'
	DB	00H, 't', 00H, 'e', 00H, 'r', 00H, 'a', 00H, 't', 00H, 'o', 00H
	DB	'r', 00H, '"', 00H, 00H, 00H			; `string'
CONST	ENDS
;	COMDAT ??_C@_0CP@MDHADBHN@can?8t?5dereference?5out?5of?5range?5@
CONST	SEGMENT
??_C@_0CP@MDHADBHN@can?8t?5dereference?5out?5of?5range?5@ DB 'can''t dere'
	DB	'ference out of range vector iterator', 00H	; `string'
CONST	ENDS
;	COMDAT ??_C@_1GM@FNBFNBEL@?$AA?$CC?$AAc?$AAa?$AAn?$AA?8?$AAt?$AA?5?$AAd?$AAe?$AAr?$AAe?$AAf?$AAe?$AAr?$AAe@
CONST	SEGMENT
??_C@_1GM@FNBFNBEL@?$AA?$CC?$AAc?$AAa?$AAn?$AA?8?$AAt?$AA?5?$AAd?$AAe?$AAr?$AAe?$AAf?$AAe?$AAr?$AAe@ DB '"'
	DB	00H, 'c', 00H, 'a', 00H, 'n', 00H, '''', 00H, 't', 00H, ' ', 00H
	DB	'd', 00H, 'e', 00H, 'r', 00H, 'e', 00H, 'f', 00H, 'e', 00H, 'r'
	DB	00H, 'e', 00H, 'n', 00H, 'c', 00H, 'e', 00H, ' ', 00H, 'v', 00H
	DB	'a', 00H, 'l', 00H, 'u', 00H, 'e', 00H, '-', 00H, 'i', 00H, 'n'
	DB	00H, 'i', 00H, 't', 00H, 'i', 00H, 'a', 00H, 'l', 00H, 'i', 00H
	DB	'z', 00H, 'e', 00H, 'd', 00H, ' ', 00H, 'v', 00H, 'e', 00H, 'c'
	DB	00H, 't', 00H, 'o', 00H, 'r', 00H, ' ', 00H, 'i', 00H, 't', 00H
	DB	'e', 00H, 'r', 00H, 'a', 00H, 't', 00H, 'o', 00H, 'r', 00H, '"'
	DB	00H, 00H, 00H				; `string'
CONST	ENDS
;	COMDAT ??_C@_0DE@CHADHGFF@can?8t?5dereference?5value?9initial@
CONST	SEGMENT
??_C@_0DE@CHADHGFF@can?8t?5dereference?5value?9initial@ DB 'can''t derefe'
	DB	'rence value-initialized vector iterator', 00H ; `string'
CONST	ENDS
;	COMDAT ??_C@_1FG@LDPPKMGP@?$AA?$CC?$AAc?$AAa?$AAn?$AA?8?$AAt?$AA?5?$AAi?$AAn?$AAc?$AAr?$AAe?$AAm?$AAe?$AAn@
CONST	SEGMENT
??_C@_1FG@LDPPKMGP@?$AA?$CC?$AAc?$AAa?$AAn?$AA?8?$AAt?$AA?5?$AAi?$AAn?$AAc?$AAr?$AAe?$AAm?$AAe?$AAn@ DB '"'
	DB	00H, 'c', 00H, 'a', 00H, 'n', 00H, '''', 00H, 't', 00H, ' ', 00H
	DB	'i', 00H, 'n', 00H, 'c', 00H, 'r', 00H, 'e', 00H, 'm', 00H, 'e'
	DB	00H, 'n', 00H, 't', 00H, ' ', 00H, 'v', 00H, 'e', 00H, 'c', 00H
	DB	't', 00H, 'o', 00H, 'r', 00H, ' ', 00H, 'i', 00H, 't', 00H, 'e'
	DB	00H, 'r', 00H, 'a', 00H, 't', 00H, 'o', 00H, 'r', 00H, ' ', 00H
	DB	'p', 00H, 'a', 00H, 's', 00H, 't', 00H, ' ', 00H, 'e', 00H, 'n'
	DB	00H, 'd', 00H, '"', 00H, 00H, 00H		; `string'
CONST	ENDS
;	COMDAT ??_C@_0CJ@OAAAAGPM@can?8t?5increment?5vector?5iterator@
CONST	SEGMENT
??_C@_0CJ@OAAAAGPM@can?8t?5increment?5vector?5iterator@ DB 'can''t increm'
	DB	'ent vector iterator past end', 00H		; `string'
CONST	ENDS
;	COMDAT ??_C@_1GI@EDCILPL@?$AA?$CC?$AAc?$AAa?$AAn?$AA?8?$AAt?$AA?5?$AAi?$AAn?$AAc?$AAr?$AAe?$AAm?$AAe?$AAn@
CONST	SEGMENT
??_C@_1GI@EDCILPL@?$AA?$CC?$AAc?$AAa?$AAn?$AA?8?$AAt?$AA?5?$AAi?$AAn?$AAc?$AAr?$AAe?$AAm?$AAe?$AAn@ DB '"'
	DB	00H, 'c', 00H, 'a', 00H, 'n', 00H, '''', 00H, 't', 00H, ' ', 00H
	DB	'i', 00H, 'n', 00H, 'c', 00H, 'r', 00H, 'e', 00H, 'm', 00H, 'e'
	DB	00H, 'n', 00H, 't', 00H, ' ', 00H, 'v', 00H, 'a', 00H, 'l', 00H
	DB	'u', 00H, 'e', 00H, '-', 00H, 'i', 00H, 'n', 00H, 'i', 00H, 't'
	DB	00H, 'i', 00H, 'a', 00H, 'l', 00H, 'i', 00H, 'z', 00H, 'e', 00H
	DB	'd', 00H, ' ', 00H, 'v', 00H, 'e', 00H, 'c', 00H, 't', 00H, 'o'
	DB	00H, 'r', 00H, ' ', 00H, 'i', 00H, 't', 00H, 'e', 00H, 'r', 00H
	DB	'a', 00H, 't', 00H, 'o', 00H, 'r', 00H, '"', 00H, 00H, 00H ; `string'
CONST	ENDS
;	COMDAT ??_C@_0DC@KEKNBAEB@can?8t?5increment?5value?9initializ@
CONST	SEGMENT
??_C@_0DC@KEKNBAEB@can?8t?5increment?5value?9initializ@ DB 'can''t increm'
	DB	'ent value-initialized vector iterator', 00H	; `string'
CONST	ENDS
;	COMDAT ??_C@_0CB@NOKEJIID@?$DMPopLuaNumber?$DO?5Cannot?5retrieve?3@
CONST	SEGMENT
??_C@_0CB@NOKEJIID@?$DMPopLuaNumber?$DO?5Cannot?5retrieve?3@ DB '<PopLuaN'
	DB	'umber> Cannot retrieve: ', 00H		; `string'
CONST	ENDS
;	COMDAT ??_C@_1HA@FACCKGGH@?$AA?$CC?$AAn?$AAu?$AAl?$AAl?$AA?5?$AAp?$AAo?$AAi?$AAn?$AAt?$AAe?$AAr?$AA?5?$AAc@
CONST	SEGMENT
??_C@_1HA@FACCKGGH@?$AA?$CC?$AAn?$AAu?$AAl?$AAl?$AA?5?$AAp?$AAo?$AAi?$AAn?$AAt?$AAe?$AAr?$AA?5?$AAc@ DB '"'
	DB	00H, 'n', 00H, 'u', 00H, 'l', 00H, 'l', 00H, ' ', 00H, 'p', 00H
	DB	'o', 00H, 'i', 00H, 'n', 00H, 't', 00H, 'e', 00H, 'r', 00H, ' '
	DB	00H, 'c', 00H, 'a', 00H, 'n', 00H, 'n', 00H, 'o', 00H, 't', 00H
	DB	' ', 00H, 'p', 00H, 'o', 00H, 'i', 00H, 'n', 00H, 't', 00H, ' '
	DB	00H, 't', 00H, 'o', 00H, ' ', 00H, 'a', 00H, ' ', 00H, 'b', 00H
	DB	'l', 00H, 'o', 00H, 'c', 00H, 'k', 00H, ' ', 00H, 'o', 00H, 'f'
	DB	00H, ' ', 00H, 'n', 00H, 'o', 00H, 'n', 00H, '-', 00H, 'z', 00H
	DB	'e', 00H, 'r', 00H, 'o', 00H, ' ', 00H, 's', 00H, 'i', 00H, 'z'
	DB	00H, 'e', 00H, '"', 00H, 00H, 00H		; `string'
CONST	ENDS
;	COMDAT ??_C@_0DG@KGHKKGBC@null?5pointer?5cannot?5point?5to?5a?5@
CONST	SEGMENT
??_C@_0DG@KGHKKGBC@null?5pointer?5cannot?5point?5to?5a?5@ DB 'null pointe'
	DB	'r cannot point to a block of non-zero size', 00H ; `string'
CONST	ENDS
;	COMDAT ??_C@_1MC@BJDJHFOD@?$AAC?$AA?3?$AA?2?$AAP?$AAr?$AAo?$AAg?$AAr?$AAa?$AAm?$AA?5?$AAF?$AAi?$AAl?$AAe@
CONST	SEGMENT
??_C@_1MC@BJDJHFOD@?$AAC?$AA?3?$AA?2?$AAP?$AAr?$AAo?$AAg?$AAr?$AAa?$AAm?$AA?5?$AAF?$AAi?$AAl?$AAe@ DB 'C'
	DB	00H, ':', 00H, '\', 00H, 'P', 00H, 'r', 00H, 'o', 00H, 'g', 00H
	DB	'r', 00H, 'a', 00H, 'm', 00H, ' ', 00H, 'F', 00H, 'i', 00H, 'l'
	DB	00H, 'e', 00H, 's', 00H, '\', 00H, 'M', 00H, 'i', 00H, 'c', 00H
	DB	'r', 00H, 'o', 00H, 's', 00H, 'o', 00H, 'f', 00H, 't', 00H, ' '
	DB	00H, 'V', 00H, 'i', 00H, 's', 00H, 'u', 00H, 'a', 00H, 'l', 00H
	DB	' ', 00H, 'S', 00H, 't', 00H, 'u', 00H, 'd', 00H, 'i', 00H, 'o'
	DB	00H, '\', 00H, '2', 00H, '0', 00H, '2', 00H, '2', 00H, '\', 00H
	DB	'C', 00H, 'o', 00H, 'm', 00H, 'm', 00H, 'u', 00H, 'n', 00H, 'i'
	DB	00H, 't', 00H, 'y', 00H, '\', 00H, 'V', 00H, 'C', 00H, '\', 00H
	DB	'T', 00H, 'o', 00H, 'o', 00H, 'l', 00H, 's', 00H, '\', 00H, 'M'
	DB	00H, 'S', 00H, 'V', 00H, 'C', 00H, '\', 00H, '1', 00H, '4', 00H
	DB	'.', 00H, '3', 00H, '2', 00H, '.', 00H, '3', 00H, '1', 00H, '3'
	DB	00H, '2', 00H, '6', 00H, '\', 00H, 'i', 00H, 'n', 00H, 'c', 00H
	DB	'l', 00H, 'u', 00H, 'd', 00H, 'e', 00H, '\', 00H, 'v', 00H, 'e'
	DB	00H, 'c', 00H, 't', 00H, 'o', 00H, 'r', 00H, 00H, 00H ; `string'
CONST	ENDS
;	COMDAT ??_C@_0GB@GDCALCPO@C?3?2Program?5Files?2Microsoft?5Visu@
CONST	SEGMENT
??_C@_0GB@GDCALCPO@C?3?2Program?5Files?2Microsoft?5Visu@ DB 'C:\Program F'
	DB	'iles\Microsoft Visual Studio\2022\Community\VC\Tools\MSVC\14.'
	DB	'32.31326\include\vector', 00H		; `string'
CONST	ENDS
;	COMDAT __CTA2?AVruntime_error@std@@
xdata$x	SEGMENT
__CTA2?AVruntime_error@std@@ DD 02H
	DD	FLAT:__CT??_R0?AVruntime_error@std@@@8??0runtime_error@std@@QAE@ABV01@@Z12
	DD	FLAT:__CT??_R0?AVexception@std@@@8??0exception@std@@QAE@ABV01@@Z12
xdata$x	ENDS
;	COMDAT __TI2?AVruntime_error@std@@
xdata$x	SEGMENT
__TI2?AVruntime_error@std@@ DD 00H
	DD	FLAT:??1runtime_error@std@@UAE@XZ
	DD	00H
	DD	FLAT:__CTA2?AVruntime_error@std@@
xdata$x	ENDS
;	COMDAT ??_7Pellet@@6B@
CONST	SEGMENT
??_7Pellet@@6B@ DD FLAT:??_R4Pellet@@6B@		; Pellet::`vftable'
	DD	FLAT:??_EPellet@@UAEPAXI@Z
	DD	FLAT:?Update@Pellet@@UAEXXZ
	DD	FLAT:?Render@Pellet@@UAEXXZ
	DD	FLAT:?HandleMessage@BaseGameEntity@@UAE_NABUTelegram@@@Z
	DD	FLAT:?Write@Raven_Projectile@@UBEXAAV?$basic_ostream@DU?$char_traits@D@std@@@std@@@Z
	DD	FLAT:?Read@Raven_Projectile@@UAEXAAV?$basic_ifstream@DU?$char_traits@D@std@@@std@@@Z
CONST	ENDS
;	COMDAT ??_7Raven_Projectile@@6B@
CONST	SEGMENT
??_7Raven_Projectile@@6B@ DD FLAT:??_R4Raven_Projectile@@6B@ ; Raven_Projectile::`vftable'
	DD	FLAT:??_ERaven_Projectile@@UAEPAXI@Z
	DD	FLAT:__purecall
	DD	FLAT:__purecall
	DD	FLAT:?HandleMessage@BaseGameEntity@@UAE_NABUTelegram@@@Z
	DD	FLAT:?Write@Raven_Projectile@@UBEXAAV?$basic_ostream@DU?$char_traits@D@std@@@std@@@Z
	DD	FLAT:?Read@Raven_Projectile@@UAEXAAV?$basic_ifstream@DU?$char_traits@D@std@@@std@@@Z
CONST	ENDS
;	COMDAT ??_7MovingEntity@@6B@
CONST	SEGMENT
??_7MovingEntity@@6B@ DD FLAT:??_R4MovingEntity@@6B@	; MovingEntity::`vftable'
	DD	FLAT:??_EMovingEntity@@UAEPAXI@Z
	DD	FLAT:?Update@BaseGameEntity@@UAEXXZ
	DD	FLAT:__purecall
	DD	FLAT:?HandleMessage@BaseGameEntity@@UAE_NABUTelegram@@@Z
	DD	FLAT:?Write@BaseGameEntity@@UBEXAAV?$basic_ostream@DU?$char_traits@D@std@@@std@@@Z
	DD	FLAT:?Read@BaseGameEntity@@UAEXAAV?$basic_ifstream@DU?$char_traits@D@std@@@std@@@Z
CONST	ENDS
;	COMDAT ??_7BaseGameEntity@@6B@
CONST	SEGMENT
??_7BaseGameEntity@@6B@ DD FLAT:??_R4BaseGameEntity@@6B@ ; BaseGameEntity::`vftable'
	DD	FLAT:??_EBaseGameEntity@@UAEPAXI@Z
	DD	FLAT:?Update@BaseGameEntity@@UAEXXZ
	DD	FLAT:__purecall
	DD	FLAT:?HandleMessage@BaseGameEntity@@UAE_NABUTelegram@@@Z
	DD	FLAT:?Write@BaseGameEntity@@UBEXAAV?$basic_ostream@DU?$char_traits@D@std@@@std@@@Z
	DD	FLAT:?Read@BaseGameEntity@@UAEXAAV?$basic_ifstream@DU?$char_traits@D@std@@@std@@@Z
CONST	ENDS
;	COMDAT __CT??_R0?AVruntime_error@std@@@8??0runtime_error@std@@QAE@ABV01@@Z12
xdata$x	SEGMENT
__CT??_R0?AVruntime_error@std@@@8??0runtime_error@std@@QAE@ABV01@@Z12 DD 00H
	DD	FLAT:??_R0?AVruntime_error@std@@@8
	DD	00H
	DD	0ffffffffH
	ORG $+4
	DD	0cH
	DD	FLAT:??0runtime_error@std@@QAE@ABV01@@Z
xdata$x	ENDS
;	COMDAT ??_R0?AVruntime_error@std@@@8
data$r	SEGMENT
??_R0?AVruntime_error@std@@@8 DD FLAT:??_7type_info@@6B@ ; std::runtime_error `RTTI Type Descriptor'
	DD	00H
	DB	'.?AVruntime_error@std@@', 00H
data$r	ENDS
;	COMDAT ??_7runtime_error@std@@6B@
CONST	SEGMENT
??_7runtime_error@std@@6B@ DD FLAT:??_R4runtime_error@std@@6B@ ; std::runtime_error::`vftable'
	DD	FLAT:??_Eruntime_error@std@@UAEPAXI@Z
	DD	FLAT:?what@exception@std@@UBEPBDXZ
CONST	ENDS
;	COMDAT ?_BUF_SIZE@?$basic_string@DU?$char_traits@D@std@@V?$allocator@D@2@@std@@0IB
CONST	SEGMENT
?_BUF_SIZE@?$basic_string@DU?$char_traits@D@std@@V?$allocator@D@2@@std@@0IB DD 010H ; std::basic_string<char,std::char_traits<char>,std::allocator<char> >::_BUF_SIZE
CONST	ENDS
;	COMDAT ??_C@_0BA@JFNIOLAK@string?5too?5long@
CONST	SEGMENT
??_C@_0BA@JFNIOLAK@string?5too?5long@ DB 'string too long', 00H ; `string'
CONST	ENDS
;	COMDAT ??_C@_1DG@PLBPCAEM@?$AA?$CC?$AAI?$AAT?$AAE?$AAR?$AAA?$AAT?$AAO?$AAR?$AA?5?$AAL?$AAI?$AAS?$AAT?$AA?5@
CONST	SEGMENT
??_C@_1DG@PLBPCAEM@?$AA?$CC?$AAI?$AAT?$AAE?$AAR?$AAA?$AAT?$AAO?$AAR?$AA?5?$AAL?$AAI?$AAS?$AAT?$AA?5@ DB '"'
	DB	00H, 'I', 00H, 'T', 00H, 'E', 00H, 'R', 00H, 'A', 00H, 'T', 00H
	DB	'O', 00H, 'R', 00H, ' ', 00H, 'L', 00H, 'I', 00H, 'S', 00H, 'T'
	DB	00H, ' ', 00H, 'C', 00H, 'O', 00H, 'R', 00H, 'R', 00H, 'U', 00H
	DB	'P', 00H, 'T', 00H, 'E', 00H, 'D', 00H, '!', 00H, '"', 00H, 00H
	DB	00H						; `string'
CONST	ENDS
;	COMDAT ??_C@_0BJ@LFDBABJJ@ITERATOR?5LIST?5CORRUPTED?$CB@
CONST	SEGMENT
??_C@_0BJ@LFDBABJJ@ITERATOR?5LIST?5CORRUPTED?$CB@ DB 'ITERATOR LIST CORRU'
	DB	'PTED!', 00H					; `string'
CONST	ENDS
;	COMDAT ??_C@_1CG@JNLFBNGN@?$AA?$CC?$AAi?$AAn?$AAv?$AAa?$AAl?$AAi?$AAd?$AA?5?$AAa?$AAr?$AAg?$AAu?$AAm?$AAe@
CONST	SEGMENT
??_C@_1CG@JNLFBNGN@?$AA?$CC?$AAi?$AAn?$AAv?$AAa?$AAl?$AAi?$AAd?$AA?5?$AAa?$AAr?$AAg?$AAu?$AAm?$AAe@ DB '"'
	DB	00H, 'i', 00H, 'n', 00H, 'v', 00H, 'a', 00H, 'l', 00H, 'i', 00H
	DB	'd', 00H, ' ', 00H, 'a', 00H, 'r', 00H, 'g', 00H, 'u', 00H, 'm'
	DB	00H, 'e', 00H, 'n', 00H, 't', 00H, '"', 00H, 00H, 00H ; `string'
CONST	ENDS
;	COMDAT ??_C@_11LOCGONAA@@
CONST	SEGMENT
??_C@_11LOCGONAA@@ DB 00H, 00H				; `string'
CONST	ENDS
;	COMDAT ??_C@_1ME@GEFGDEOM@?$AAC?$AA?3?$AA?2?$AAP?$AAr?$AAo?$AAg?$AAr?$AAa?$AAm?$AA?5?$AAF?$AAi?$AAl?$AAe@
CONST	SEGMENT
??_C@_1ME@GEFGDEOM@?$AAC?$AA?3?$AA?2?$AAP?$AAr?$AAo?$AAg?$AAr?$AAa?$AAm?$AA?5?$AAF?$AAi?$AAl?$AAe@ DB 'C'
	DB	00H, ':', 00H, '\', 00H, 'P', 00H, 'r', 00H, 'o', 00H, 'g', 00H
	DB	'r', 00H, 'a', 00H, 'm', 00H, ' ', 00H, 'F', 00H, 'i', 00H, 'l'
	DB	00H, 'e', 00H, 's', 00H, '\', 00H, 'M', 00H, 'i', 00H, 'c', 00H
	DB	'r', 00H, 'o', 00H, 's', 00H, 'o', 00H, 'f', 00H, 't', 00H, ' '
	DB	00H, 'V', 00H, 'i', 00H, 's', 00H, 'u', 00H, 'a', 00H, 'l', 00H
	DB	' ', 00H, 'S', 00H, 't', 00H, 'u', 00H, 'd', 00H, 'i', 00H, 'o'
	DB	00H, '\', 00H, '2', 00H, '0', 00H, '2', 00H, '2', 00H, '\', 00H
	DB	'C', 00H, 'o', 00H, 'm', 00H, 'm', 00H, 'u', 00H, 'n', 00H, 'i'
	DB	00H, 't', 00H, 'y', 00H, '\', 00H, 'V', 00H, 'C', 00H, '\', 00H
	DB	'T', 00H, 'o', 00H, 'o', 00H, 'l', 00H, 's', 00H, '\', 00H, 'M'
	DB	00H, 'S', 00H, 'V', 00H, 'C', 00H, '\', 00H, '1', 00H, '4', 00H
	DB	'.', 00H, '3', 00H, '2', 00H, '.', 00H, '3', 00H, '1', 00H, '3'
	DB	00H, '2', 00H, '6', 00H, '\', 00H, 'i', 00H, 'n', 00H, 'c', 00H
	DB	'l', 00H, 'u', 00H, 'd', 00H, 'e', 00H, '\', 00H, 'x', 00H, 'm'
	DB	00H, 'e', 00H, 'm', 00H, 'o', 00H, 'r', 00H, 'y', 00H, 00H, 00H ; `string'
CONST	ENDS
;	COMDAT ??_C@_0GC@DJFHHHKN@C?3?2Program?5Files?2Microsoft?5Visu@
CONST	SEGMENT
??_C@_0GC@DJFHHHKN@C?3?2Program?5Files?2Microsoft?5Visu@ DB 'C:\Program F'
	DB	'iles\Microsoft Visual Studio\2022\Community\VC\Tools\MSVC\14.'
	DB	'32.31326\include\xmemory', 00H		; `string'
CONST	ENDS
;	COMDAT ??_C@_02DKCKIIND@?$CFs@
CONST	SEGMENT
??_C@_02DKCKIIND@?$CFs@ DB '%s', 00H			; `string'
CONST	ENDS
;	COMDAT ??_C@_0BB@FCMFBGOM@invalid?5argument@
CONST	SEGMENT
??_C@_0BB@FCMFBGOM@invalid?5argument@ DB 'invalid argument', 00H ; `string'
CONST	ENDS
;	COMDAT __CT??_R0?AVexception@std@@@8??0exception@std@@QAE@ABV01@@Z12
xdata$x	SEGMENT
__CT??_R0?AVexception@std@@@8??0exception@std@@QAE@ABV01@@Z12 DD 00H
	DD	FLAT:??_R0?AVexception@std@@@8
	DD	00H
	DD	0ffffffffH
	ORG $+4
	DD	0cH
	DD	FLAT:??0exception@std@@QAE@ABV01@@Z
xdata$x	ENDS
;	COMDAT ??_R0?AVexception@std@@@8
data$r	SEGMENT
??_R0?AVexception@std@@@8 DD FLAT:??_7type_info@@6B@	; std::exception `RTTI Type Descriptor'
	DD	00H
	DB	'.?AVexception@std@@', 00H
data$r	ENDS
;	COMDAT __CT??_R0?AVbad_alloc@std@@@8??0bad_alloc@std@@QAE@ABV01@@Z12
xdata$x	SEGMENT
__CT??_R0?AVbad_alloc@std@@@8??0bad_alloc@std@@QAE@ABV01@@Z12 DD 010H
	DD	FLAT:??_R0?AVbad_alloc@std@@@8
	DD	00H
	DD	0ffffffffH
	ORG $+4
	DD	0cH
	DD	FLAT:??0bad_alloc@std@@QAE@ABV01@@Z
xdata$x	ENDS
;	COMDAT ??_R0?AVbad_alloc@std@@@8
data$r	SEGMENT
??_R0?AVbad_alloc@std@@@8 DD FLAT:??_7type_info@@6B@	; std::bad_alloc `RTTI Type Descriptor'
	DD	00H
	DB	'.?AVbad_alloc@std@@', 00H
data$r	ENDS
;	COMDAT __CT??_R0?AVbad_array_new_length@std@@@8??0bad_array_new_length@std@@QAE@ABV01@@Z12
xdata$x	SEGMENT
__CT??_R0?AVbad_array_new_length@std@@@8??0bad_array_new_length@std@@QAE@ABV01@@Z12 DD 00H
	DD	FLAT:??_R0?AVbad_array_new_length@std@@@8
	DD	00H
	DD	0ffffffffH
	ORG $+4
	DD	0cH
	DD	FLAT:??0bad_array_new_length@std@@QAE@ABV01@@Z
xdata$x	ENDS
;	COMDAT ??_R0?AVbad_array_new_length@std@@@8
data$r	SEGMENT
??_R0?AVbad_array_new_length@std@@@8 DD FLAT:??_7type_info@@6B@ ; std::bad_array_new_length `RTTI Type Descriptor'
	DD	00H
	DB	'.?AVbad_array_new_length@std@@', 00H
data$r	ENDS
;	COMDAT __CTA3?AVbad_array_new_length@std@@
xdata$x	SEGMENT
__CTA3?AVbad_array_new_length@std@@ DD 03H
	DD	FLAT:__CT??_R0?AVbad_array_new_length@std@@@8??0bad_array_new_length@std@@QAE@ABV01@@Z12
	DD	FLAT:__CT??_R0?AVbad_alloc@std@@@8??0bad_alloc@std@@QAE@ABV01@@Z12
	DD	FLAT:__CT??_R0?AVexception@std@@@8??0exception@std@@QAE@ABV01@@Z12
xdata$x	ENDS
;	COMDAT __TI3?AVbad_array_new_length@std@@
xdata$x	SEGMENT
__TI3?AVbad_array_new_length@std@@ DD 00H
	DD	FLAT:??1bad_array_new_length@std@@UAE@XZ
	DD	00H
	DD	FLAT:__CTA3?AVbad_array_new_length@std@@
xdata$x	ENDS
;	COMDAT ??_C@_0BF@KINCDENJ@bad?5array?5new?5length@
CONST	SEGMENT
??_C@_0BF@KINCDENJ@bad?5array?5new?5length@ DB 'bad array new length', 00H ; `string'
CONST	ENDS
;	COMDAT ??_7bad_array_new_length@std@@6B@
CONST	SEGMENT
??_7bad_array_new_length@std@@6B@ DD FLAT:??_R4bad_array_new_length@std@@6B@ ; std::bad_array_new_length::`vftable'
	DD	FLAT:??_Ebad_array_new_length@std@@UAEPAXI@Z
	DD	FLAT:?what@exception@std@@UBEPBDXZ
CONST	ENDS
;	COMDAT ??_7bad_alloc@std@@6B@
CONST	SEGMENT
??_7bad_alloc@std@@6B@ DD FLAT:??_R4bad_alloc@std@@6B@	; std::bad_alloc::`vftable'
	DD	FLAT:??_Ebad_alloc@std@@UAEPAXI@Z
	DD	FLAT:?what@exception@std@@UBEPBDXZ
CONST	ENDS
;	COMDAT ??_C@_0BC@EOODALEL@Unknown?5exception@
CONST	SEGMENT
??_C@_0BC@EOODALEL@Unknown?5exception@ DB 'Unknown exception', 00H ; `string'
CONST	ENDS
;	COMDAT ??_7exception@std@@6B@
CONST	SEGMENT
??_7exception@std@@6B@ DD FLAT:??_R4exception@std@@6B@	; std::exception::`vftable'
	DD	FLAT:??_Eexception@std@@UAEPAXI@Z
	DD	FLAT:?what@exception@std@@UBEPBDXZ
CONST	ENDS
;	COMDAT voltbl
voltbl	SEGMENT
_volmd	DB	09H
voltbl	ENDS
;	COMDAT xdata$x
xdata$x	SEGMENT
__ehfuncinfo$??$_Deallocate_plain@V?$allocator@U_Container_proxy@std@@@std@@@std@@YAXAAV?$allocator@U_Container_proxy@std@@@0@QAU_Container_proxy@0@@Z DD 019930522H
	DD	00H
	DD	00H
	DD	2 DUP(00H)
	DD	2 DUP(00H)
	DD	00H
	DD	05H
xdata$x	ENDS
;	COMDAT voltbl
voltbl	SEGMENT
_volmd	DB	09H
voltbl	ENDS
;	COMDAT xdata$x
xdata$x	SEGMENT
__ehfuncinfo$??$_Deallocate@$07$0A@@std@@YAXPAXI@Z DD 019930522H
	DD	00H
	DD	00H
	DD	2 DUP(00H)
	DD	2 DUP(00H)
	DD	00H
	DD	05H
xdata$x	ENDS
;	COMDAT voltbl
voltbl	SEGMENT
_volmd	DB	016H
voltbl	ENDS
;	COMDAT xdata$x
xdata$x	SEGMENT
__unwindtable$??$FindClosestPointOfIntersectionWithWalls@V?$vector@PAVWall2D@@V?$allocator@PAVWall2D@@@std@@@std@@@@YA_NUVector2D@@0AANAAU0@ABV?$vector@PAVWall2D@@V?$allocator@PAVWall2D@@@std@@@std@@@Z DD 0ffffffffH
	DD	FLAT:__unwindfunclet$??$FindClosestPointOfIntersectionWithWalls@V?$vector@PAVWall2D@@V?$allocator@PAVWall2D@@@std@@@std@@@@YA_NUVector2D@@0AANAAU0@ABV?$vector@PAVWall2D@@V?$allocator@PAVWall2D@@@std@@@std@@@Z$0
__ehfuncinfo$??$FindClosestPointOfIntersectionWithWalls@V?$vector@PAVWall2D@@V?$allocator@PAVWall2D@@@std@@@std@@@@YA_NUVector2D@@0AANAAU0@ABV?$vector@PAVWall2D@@V?$allocator@PAVWall2D@@@std@@@std@@@Z DD 019930522H
	DD	01H
	DD	FLAT:__unwindtable$??$FindClosestPointOfIntersectionWithWalls@V?$vector@PAVWall2D@@V?$allocator@PAVWall2D@@@std@@@std@@@@YA_NUVector2D@@0AANAAU0@ABV?$vector@PAVWall2D@@V?$allocator@PAVWall2D@@@std@@@std@@@Z
	DD	2 DUP(00H)
	DD	2 DUP(00H)
	DD	00H
	DD	01H
xdata$x	ENDS
;	COMDAT voltbl
voltbl	SEGMENT
_volmd	DB	01eH
	DB	028H
voltbl	ENDS
;	COMDAT voltbl
voltbl	SEGMENT
_volmd	DW	02bH
	DW	0113H
voltbl	ENDS
;	COMDAT xdata$x
xdata$x	SEGMENT
__unwindtable$??$PopLuaNumber@N@@YANPAUlua_State@@PBD@Z DD 0ffffffffH
	DD	FLAT:__unwindfunclet$??$PopLuaNumber@N@@YANPAUlua_State@@PBD@Z$0
	DD	00H
	DD	FLAT:__unwindfunclet$??$PopLuaNumber@N@@YANPAUlua_State@@PBD@Z$1
__ehfuncinfo$??$PopLuaNumber@N@@YANPAUlua_State@@PBD@Z DD 019930522H
	DD	02H
	DD	FLAT:__unwindtable$??$PopLuaNumber@N@@YANPAUlua_State@@PBD@Z
	DD	2 DUP(00H)
	DD	2 DUP(00H)
	DD	00H
	DD	01H
xdata$x	ENDS
;	COMDAT voltbl
voltbl	SEGMENT
_volmd	DB	01eH
	DB	028H
voltbl	ENDS
;	COMDAT voltbl
voltbl	SEGMENT
_volmd	DW	02bH
	DW	0118H
voltbl	ENDS
;	COMDAT xdata$x
xdata$x	SEGMENT
__unwindtable$??$PopLuaNumber@H@@YAHPAUlua_State@@PBD@Z DD 0ffffffffH
	DD	FLAT:__unwindfunclet$??$PopLuaNumber@H@@YAHPAUlua_State@@PBD@Z$0
	DD	00H
	DD	FLAT:__unwindfunclet$??$PopLuaNumber@H@@YAHPAUlua_State@@PBD@Z$1
__ehfuncinfo$??$PopLuaNumber@H@@YAHPAUlua_State@@PBD@Z DD 019930522H
	DD	02H
	DD	FLAT:__unwindtable$??$PopLuaNumber@H@@YAHPAUlua_State@@PBD@Z
	DD	2 DUP(00H)
	DD	2 DUP(00H)
	DD	00H
	DD	01H
xdata$x	ENDS
voltbl	SEGMENT
_volmd	DD	0ffffffffH
	DDSymXIndex: 	FLAT:__unwindfunclet$??0Pellet@@QAE@PAVRaven_Bot@@UVector2D@@@Z$0
	DD	016H
voltbl	ENDS
xdata$x	SEGMENT
__unwindtable$??0Pellet@@QAE@PAVRaven_Bot@@UVector2D@@@Z DD 0ffffffffH
	DD	FLAT:__unwindfunclet$??0Pellet@@QAE@PAVRaven_Bot@@UVector2D@@@Z$0
__ehfuncinfo$??0Pellet@@QAE@PAVRaven_Bot@@UVector2D@@@Z DD 019930522H
	DD	01H
	DD	FLAT:__unwindtable$??0Pellet@@QAE@PAVRaven_Bot@@UVector2D@@@Z
	DD	2 DUP(00H)
	DD	2 DUP(00H)
	DD	00H
	DD	01H
xdata$x	ENDS
;	COMDAT voltbl
voltbl	SEGMENT
_volmd	DB	016H
voltbl	ENDS
;	COMDAT xdata$x
xdata$x	SEGMENT
__unwindtable$??0Raven_Projectile@@QAE@UVector2D@@PAVRaven_Game@@H00HNNNN@Z DD 0ffffffffH
	DD	FLAT:__unwindfunclet$??0Raven_Projectile@@QAE@UVector2D@@PAVRaven_Game@@H00HNNNN@Z$0
__ehfuncinfo$??0Raven_Projectile@@QAE@UVector2D@@PAVRaven_Game@@H00HNNNN@Z DD 019930522H
	DD	01H
	DD	FLAT:__unwindtable$??0Raven_Projectile@@QAE@UVector2D@@PAVRaven_Game@@H00HNNNN@Z
	DD	2 DUP(00H)
	DD	2 DUP(00H)
	DD	00H
	DD	01H
xdata$x	ENDS
;	COMDAT voltbl
voltbl	SEGMENT
_volmd	DB	016H
voltbl	ENDS
;	COMDAT xdata$x
xdata$x	SEGMENT
__unwindtable$??0MovingEntity@@QAE@UVector2D@@N0N0N0NN@Z DD 0ffffffffH
	DD	FLAT:__unwindfunclet$??0MovingEntity@@QAE@UVector2D@@N0N0N0NN@Z$0
__ehfuncinfo$??0MovingEntity@@QAE@UVector2D@@N0N0N0NN@Z DD 019930522H
	DD	01H
	DD	FLAT:__unwindtable$??0MovingEntity@@QAE@UVector2D@@N0N0N0NN@Z
	DD	2 DUP(00H)
	DD	2 DUP(00H)
	DD	00H
	DD	01H
xdata$x	ENDS
;	COMDAT voltbl
voltbl	SEGMENT
_volmd	DB	09H
voltbl	ENDS
;	COMDAT xdata$x
xdata$x	SEGMENT
__ehfuncinfo$?_Tidy_deallocate@?$basic_string@DU?$char_traits@D@std@@V?$allocator@D@2@@std@@AAEXXZ DD 019930522H
	DD	00H
	DD	00H
	DD	2 DUP(00H)
	DD	2 DUP(00H)
	DD	00H
	DD	05H
xdata$x	ENDS
;	COMDAT voltbl
voltbl	SEGMENT
_volmd	DB	01eH
voltbl	ENDS
;	COMDAT xdata$x
xdata$x	SEGMENT
__unwindtable$??0?$basic_string@DU?$char_traits@D@std@@V?$allocator@D@2@@std@@QAE@U_String_constructor_concat_tag@1@ABV01@QBDI2I@Z DD 0ffffffffH
	DD	FLAT:__unwindfunclet$??0?$basic_string@DU?$char_traits@D@std@@V?$allocator@D@2@@std@@QAE@U_String_constructor_concat_tag@1@ABV01@QBDI2I@Z$0
	DD	00H
	DD	FLAT:__unwindfunclet$??0?$basic_string@DU?$char_traits@D@std@@V?$allocator@D@2@@std@@QAE@U_String_constructor_concat_tag@1@ABV01@QBDI2I@Z$1
__ehfuncinfo$??0?$basic_string@DU?$char_traits@D@std@@V?$allocator@D@2@@std@@QAE@U_String_constructor_concat_tag@1@ABV01@QBDI2I@Z DD 019930522H
	DD	02H
	DD	FLAT:__unwindtable$??0?$basic_string@DU?$char_traits@D@std@@V?$allocator@D@2@@std@@QAE@U_String_constructor_concat_tag@1@ABV01@QBDI2I@Z
	DD	2 DUP(00H)
	DD	2 DUP(00H)
	DD	00H
	DD	01H
xdata$x	ENDS
;	COMDAT voltbl
voltbl	SEGMENT
_volmd	DB	01eH
voltbl	ENDS
;	COMDAT xdata$x
xdata$x	SEGMENT
__unwindtable$??0?$basic_string@DU?$char_traits@D@std@@V?$allocator@D@2@@std@@QAE@QBD@Z DD 0ffffffffH
	DD	FLAT:__unwindfunclet$??0?$basic_string@DU?$char_traits@D@std@@V?$allocator@D@2@@std@@QAE@QBD@Z$0
	DD	00H
	DD	FLAT:__unwindfunclet$??0?$basic_string@DU?$char_traits@D@std@@V?$allocator@D@2@@std@@QAE@QBD@Z$1
__ehfuncinfo$??0?$basic_string@DU?$char_traits@D@std@@V?$allocator@D@2@@std@@QAE@QBD@Z DD 019930522H
	DD	02H
	DD	FLAT:__unwindtable$??0?$basic_string@DU?$char_traits@D@std@@V?$allocator@D@2@@std@@QAE@QBD@Z
	DD	2 DUP(00H)
	DD	2 DUP(00H)
	DD	00H
	DD	01H
xdata$x	ENDS
;	COMDAT CRT$XCU
CRT$XCU	SEGMENT
??id$initializer$@?$codecvt@DDU_Mbstatet@@@std@@2P6AXXZA@@3P6AXXZA DD FLAT:??__E?id@?$codecvt@DDU_Mbstatet@@@std@@2V0locale@2@A@@YAXXZ ; ??id$initializer$@?$codecvt@DDU_Mbstatet@@@std@@2P6AXXZA@@3P6AXXZA
CRT$XCU	ENDS
;	COMDAT CRT$XCU
CRT$XCU	SEGMENT
??id$initializer$@?$numpunct@D@std@@2P6AXXZA@@3P6AXXZA DD FLAT:??__E?id@?$numpunct@D@std@@2V0locale@2@A@@YAXXZ ; ??id$initializer$@?$numpunct@D@std@@2P6AXXZA@@3P6AXXZA
CRT$XCU	ENDS
;	COMDAT CRT$XCU
CRT$XCU	SEGMENT
??id$initializer$@?$num_get@DV?$istreambuf_iterator@DU?$char_traits@D@std@@@std@@@std@@2P6AXXZA@@3P6AXXZA DD FLAT:??__E?id@?$num_get@DV?$istreambuf_iterator@DU?$char_traits@D@std@@@std@@@std@@2V0locale@2@A@@YAXXZ ; ??id$initializer$@?$num_get@DV?$istreambuf_iterator@DU?$char_traits@D@std@@@std@@@std@@2P6AXXZA@@3P6AXXZA
CRT$XCU	ENDS
; Function compile flags: /Odtp /RTCsu
; File C:\Program Files\Microsoft Visual Studio\2022\Community\VC\Tools\MSVC\14.32.31326\include\xlocnum
;	COMDAT ??__E?id@?$num_get@DV?$istreambuf_iterator@DU?$char_traits@D@std@@@std@@@std@@2V0locale@2@A@@YAXXZ
text$di	SEGMENT
??__E?id@?$num_get@DV?$istreambuf_iterator@DU?$char_traits@D@std@@@std@@@std@@2V0locale@2@A@@YAXXZ PROC ; `dynamic initializer for 'std::num_get<char,std::istreambuf_iterator<char,std::char_traits<char> > >::id'', COMDAT

; 1133 : __PURE_APPDOMAIN_GLOBAL locale::id num_get<_Elem, _InIt>::id;

	push	ebp
	mov	ebp, esp
	push	0
	mov	ecx, OFFSET ?id@?$num_get@DV?$istreambuf_iterator@DU?$char_traits@D@std@@@std@@@std@@2V0locale@2@A ; std::num_get<char,std::istreambuf_iterator<char,std::char_traits<char> > >::id
	call	??0id@locale@std@@QAE@I@Z		; std::locale::id::id
	cmp	ebp, esp
	call	__RTC_CheckEsp
	pop	ebp
	ret	0
??__E?id@?$num_get@DV?$istreambuf_iterator@DU?$char_traits@D@std@@@std@@@std@@2V0locale@2@A@@YAXXZ ENDP ; `dynamic initializer for 'std::num_get<char,std::istreambuf_iterator<char,std::char_traits<char> > >::id''
text$di	ENDS
; Function compile flags: /Odtp /RTCsu
; File C:\Program Files\Microsoft Visual Studio\2022\Community\VC\Tools\MSVC\14.32.31326\include\xmemory
;	COMDAT ?deallocate@?$_Default_allocator_traits@V?$allocator@U_Container_proxy@std@@@std@@@std@@SAXAAV?$allocator@U_Container_proxy@std@@@2@QAU_Container_proxy@2@I@Z
_TEXT	SEGMENT
__Al$ = 8						; size = 4
__Ptr$ = 12						; size = 4
__Count$ = 16						; size = 4
?deallocate@?$_Default_allocator_traits@V?$allocator@U_Container_proxy@std@@@std@@@std@@SAXAAV?$allocator@U_Container_proxy@std@@@2@QAU_Container_proxy@2@I@Z PROC ; std::_Default_allocator_traits<std::allocator<std::_Container_proxy> >::deallocate, COMDAT

; 659  :     static _CONSTEXPR20 void deallocate(_Alloc& _Al, const pointer _Ptr, const size_type _Count) {

	push	ebp
	mov	ebp, esp

; 660  :         // no overflow check on the following multiply; we assume _Allocate did that check
; 661  : #if _HAS_CXX20 // TRANSITION, GH-1532
; 662  :         if (_STD is_constant_evaluated()) {
; 663  :             _Al.deallocate(_Ptr, _Count);
; 664  :         } else
; 665  : #endif // _HAS_CXX20
; 666  :         {
; 667  :             (void) _Al;
; 668  :             _Deallocate<_New_alignof<value_type>>(_Ptr, sizeof(value_type) * _Count);

	mov	eax, DWORD PTR __Count$[ebp]
	shl	eax, 3
	push	eax
	mov	ecx, DWORD PTR __Ptr$[ebp]
	push	ecx
	call	??$_Deallocate@$07$0A@@std@@YAXPAXI@Z	; std::_Deallocate<8,0>
	add	esp, 8

; 669  :         }
; 670  :     }

	cmp	ebp, esp
	call	__RTC_CheckEsp
	pop	ebp
	ret	0
?deallocate@?$_Default_allocator_traits@V?$allocator@U_Container_proxy@std@@@std@@@std@@SAXAAV?$allocator@U_Container_proxy@std@@@2@QAU_Container_proxy@2@I@Z ENDP ; std::_Default_allocator_traits<std::allocator<std::_Container_proxy> >::deallocate
_TEXT	ENDS
; Function compile flags: /Odtp /RTCsu
; File C:\Program Files\Microsoft Visual Studio\2022\Community\VC\Tools\MSVC\14.32.31326\include\xlocnum
;	COMDAT ??__E?id@?$numpunct@D@std@@2V0locale@2@A@@YAXXZ
text$di	SEGMENT
??__E?id@?$numpunct@D@std@@2V0locale@2@A@@YAXXZ PROC	; `dynamic initializer for 'std::numpunct<char>::id'', COMDAT

; 255  : __PURE_APPDOMAIN_GLOBAL locale::id numpunct<_Elem>::id;

	push	ebp
	mov	ebp, esp
	push	0
	mov	ecx, OFFSET ?id@?$numpunct@D@std@@2V0locale@2@A ; std::numpunct<char>::id
	call	??0id@locale@std@@QAE@I@Z		; std::locale::id::id
	cmp	ebp, esp
	call	__RTC_CheckEsp
	pop	ebp
	ret	0
??__E?id@?$numpunct@D@std@@2V0locale@2@A@@YAXXZ ENDP	; `dynamic initializer for 'std::numpunct<char>::id''
text$di	ENDS
; Function compile flags: /Odtp /RTCsu
; File C:\Program Files\Microsoft Visual Studio\2022\Community\VC\Tools\MSVC\14.32.31326\include\xlocale
;	COMDAT ??__E?id@?$codecvt@DDU_Mbstatet@@@std@@2V0locale@2@A@@YAXXZ
text$di	SEGMENT
??__E?id@?$codecvt@DDU_Mbstatet@@@std@@2V0locale@2@A@@YAXXZ PROC ; `dynamic initializer for 'std::codecvt<char,char,_Mbstatet>::id'', COMDAT

; 782  : __PURE_APPDOMAIN_GLOBAL locale::id codecvt<_Elem, _Byte, _Statype>::id;

	push	ebp
	mov	ebp, esp
	push	0
	mov	ecx, OFFSET ?id@?$codecvt@DDU_Mbstatet@@@std@@2V0locale@2@A ; std::codecvt<char,char,_Mbstatet>::id
	call	??0id@locale@std@@QAE@I@Z		; std::locale::id::id
	cmp	ebp, esp
	call	__RTC_CheckEsp
	pop	ebp
	ret	0
??__E?id@?$codecvt@DDU_Mbstatet@@@std@@2V0locale@2@A@@YAXXZ ENDP ; `dynamic initializer for 'std::codecvt<char,char,_Mbstatet>::id''
text$di	ENDS
; Function compile flags: /Odtp /RTCsu
; File C:\Program Files\Microsoft Visual Studio\2022\Community\VC\Tools\MSVC\14.32.31326\include\xlocnum
;	COMDAT ??__E?id@?$num_put@DV?$ostreambuf_iterator@DU?$char_traits@D@std@@@std@@@std@@2V0locale@2@A@@YAXXZ
text$di	SEGMENT
??__E?id@?$num_put@DV?$ostreambuf_iterator@DU?$char_traits@D@std@@@std@@@std@@2V0locale@2@A@@YAXXZ PROC ; `dynamic initializer for 'std::num_put<char,std::ostreambuf_iterator<char,std::char_traits<char> > >::id'', COMDAT

; 1602 : __PURE_APPDOMAIN_GLOBAL locale::id num_put<_Elem, _OutIt>::id;

	push	ebp
	mov	ebp, esp
	push	0
	mov	ecx, OFFSET ?id@?$num_put@DV?$ostreambuf_iterator@DU?$char_traits@D@std@@@std@@@std@@2V0locale@2@A ; std::num_put<char,std::ostreambuf_iterator<char,std::char_traits<char> > >::id
	call	??0id@locale@std@@QAE@I@Z		; std::locale::id::id
	cmp	ebp, esp
	call	__RTC_CheckEsp
	pop	ebp
	ret	0
??__E?id@?$num_put@DV?$ostreambuf_iterator@DU?$char_traits@D@std@@@std@@@std@@2V0locale@2@A@@YAXXZ ENDP ; `dynamic initializer for 'std::num_put<char,std::ostreambuf_iterator<char,std::char_traits<char> > >::id''
text$di	ENDS
; Function compile flags: /Odtp /RTCsu
; File C:\Program Files\Microsoft Visual Studio\2022\Community\VC\Tools\MSVC\14.32.31326\include\xstddef
;	COMDAT ??$addressof@$$CBV?$_Vector_val@U?$_Simple_types@PAVWall2D@@@std@@@std@@@std@@YAPBV?$_Vector_val@U?$_Simple_types@PAVWall2D@@@std@@@0@ABV10@@Z
_TEXT	SEGMENT
__Val$ = 8						; size = 4
??$addressof@$$CBV?$_Vector_val@U?$_Simple_types@PAVWall2D@@@std@@@std@@@std@@YAPBV?$_Vector_val@U?$_Simple_types@PAVWall2D@@@std@@@0@ABV10@@Z PROC ; std::addressof<std::_Vector_val<std::_Simple_types<Wall2D *> > const >, COMDAT

; 252  : _NODISCARD constexpr _Ty* addressof(_Ty& _Val) noexcept {

	push	ebp
	mov	ebp, esp

; 253  :     return __builtin_addressof(_Val);

	mov	eax, DWORD PTR __Val$[ebp]

; 254  : }

	pop	ebp
	ret	0
??$addressof@$$CBV?$_Vector_val@U?$_Simple_types@PAVWall2D@@@std@@@std@@@std@@YAPBV?$_Vector_val@U?$_Simple_types@PAVWall2D@@@std@@@0@ABV10@@Z ENDP ; std::addressof<std::_Vector_val<std::_Simple_types<Wall2D *> > const >
_TEXT	ENDS
; Function compile flags: /Odtp /RTCsu
; File C:\Program Files\Microsoft Visual Studio\2022\Community\VC\Tools\MSVC\14.32.31326\include\xmemory
;	COMDAT ??$_Allocate_manually_vector_aligned@U_Default_allocate_traits@std@@@std@@YAPAXI@Z
_TEXT	SEGMENT
__Ptr$ = -12						; size = 4
__Ptr_container$ = -8					; size = 4
__Block_size$ = -4					; size = 4
__Bytes$ = 8						; size = 4
??$_Allocate_manually_vector_aligned@U_Default_allocate_traits@std@@@std@@YAPAXI@Z PROC ; std::_Allocate_manually_vector_aligned<std::_Default_allocate_traits>, COMDAT

; 127  : __declspec(allocator) void* _Allocate_manually_vector_aligned(const size_t _Bytes) {

	push	ebp
	mov	ebp, esp
	sub	esp, 12					; 0000000cH
	mov	DWORD PTR [ebp-12], -858993460		; ccccccccH
	mov	DWORD PTR [ebp-8], -858993460		; ccccccccH
	mov	DWORD PTR [ebp-4], -858993460		; ccccccccH

; 128  :     // allocate _Bytes manually aligned to at least _Big_allocation_alignment
; 129  :     const size_t _Block_size = _Non_user_size + _Bytes;

	mov	eax, DWORD PTR __Bytes$[ebp]
	add	eax, 39					; 00000027H
	mov	DWORD PTR __Block_size$[ebp], eax

; 130  :     if (_Block_size <= _Bytes) {

	mov	ecx, DWORD PTR __Block_size$[ebp]
	cmp	ecx, DWORD PTR __Bytes$[ebp]
	ja	SHORT $LN8@Allocate_m

; 131  :         _Throw_bad_array_new_length(); // add overflow

	call	?_Throw_bad_array_new_length@std@@YAXXZ	; std::_Throw_bad_array_new_length
$LN8@Allocate_m:

; 132  :     }
; 133  : 
; 134  :     const uintptr_t _Ptr_container = reinterpret_cast<uintptr_t>(_Traits::_Allocate(_Block_size));

	mov	edx, DWORD PTR __Block_size$[ebp]
	push	edx
	call	?_Allocate@_Default_allocate_traits@std@@SAPAXI@Z ; std::_Default_allocate_traits::_Allocate
	add	esp, 4
	mov	DWORD PTR __Ptr_container$[ebp], eax
$LN4@Allocate_m:

; 135  :     _STL_VERIFY(_Ptr_container != 0, "invalid argument"); // validate even in release since we're doing p[-1]

	cmp	DWORD PTR __Ptr_container$[ebp], 0
	je	SHORT $LN7@Allocate_m
	jmp	SHORT $LN2@Allocate_m
$LN7@Allocate_m:
	push	OFFSET $SG181566
	push	OFFSET $SG181567
	push	0
	push	135					; 00000087H
	push	OFFSET $SG181568
	push	2
	call	__CrtDbgReport
	add	esp, 24					; 00000018H
	cmp	eax, 1
	jne	SHORT $LN12@Allocate_m
	int	3
$LN12@Allocate_m:
	push	0
	push	135					; 00000087H
	push	OFFSET $SG181569
	push	OFFSET $SG181570
	push	OFFSET $SG181571
	call	__invalid_parameter
	add	esp, 20					; 00000014H
	xor	ecx, ecx
	jne	SHORT $LN7@Allocate_m
$LN2@Allocate_m:
	xor	edx, edx
	jne	SHORT $LN4@Allocate_m

; 136  :     void* const _Ptr = reinterpret_cast<void*>((_Ptr_container + _Non_user_size) & ~(_Big_allocation_alignment - 1));

	mov	eax, DWORD PTR __Ptr_container$[ebp]
	add	eax, 39					; 00000027H
	and	eax, -32				; ffffffe0H
	mov	DWORD PTR __Ptr$[ebp], eax

; 137  :     static_cast<uintptr_t*>(_Ptr)[-1] = _Ptr_container;

	mov	ecx, 4
	imul	edx, ecx, -1
	mov	eax, DWORD PTR __Ptr$[ebp]
	mov	ecx, DWORD PTR __Ptr_container$[ebp]
	mov	DWORD PTR [eax+edx], ecx

; 138  : 
; 139  : #ifdef _DEBUG
; 140  :     static_cast<uintptr_t*>(_Ptr)[-2] = _Big_allocation_sentinel;

	mov	edx, 4
	imul	eax, edx, -2
	mov	ecx, DWORD PTR __Ptr$[ebp]
	mov	DWORD PTR [ecx+eax], -84215046		; fafafafaH

; 141  : #endif // _DEBUG
; 142  :     return _Ptr;

	mov	eax, DWORD PTR __Ptr$[ebp]
$LN11@Allocate_m:

; 143  : }

	add	esp, 12					; 0000000cH
	cmp	ebp, esp
	call	__RTC_CheckEsp
	mov	esp, ebp
	pop	ebp
	ret	0
??$_Allocate_manually_vector_aligned@U_Default_allocate_traits@std@@@std@@YAPAXI@Z ENDP ; std::_Allocate_manually_vector_aligned<std::_Default_allocate_traits>
_TEXT	ENDS
; Function compile flags: /Odtp /RTCsu
; File C:\Program Files\Microsoft Visual Studio\2022\Community\VC\Tools\MSVC\14.32.31326\include\type_traits
;	COMDAT ??$forward@ABQAD@std@@YAABQADABQAD@Z
_TEXT	SEGMENT
__Arg$ = 8						; size = 4
??$forward@ABQAD@std@@YAABQADABQAD@Z PROC		; std::forward<char * const &>, COMDAT

; 1341 :     remove_reference_t<_Ty>& _Arg) noexcept { // forward an lvalue as either an lvalue or an rvalue

	push	ebp
	mov	ebp, esp

; 1342 :     return static_cast<_Ty&&>(_Arg);

	mov	eax, DWORD PTR __Arg$[ebp]

; 1343 : }

	pop	ebp
	ret	0
??$forward@ABQAD@std@@YAABQADABQAD@Z ENDP		; std::forward<char * const &>
_TEXT	ENDS
; Function compile flags: /Odtp /RTCsu
; File C:\Program Files\Microsoft Visual Studio\2022\Community\VC\Tools\MSVC\14.32.31326\include\xutility
;	COMDAT ??$_Voidify_iter@PAPAD@std@@YAPAXPAPAD@Z
_TEXT	SEGMENT
__It$ = 8						; size = 4
??$_Voidify_iter@PAPAD@std@@YAPAXPAPAD@Z PROC		; std::_Voidify_iter<char * *>, COMDAT

; 123  : _NODISCARD constexpr void* _Voidify_iter(_Iter _It) noexcept {

	push	ebp
	mov	ebp, esp

; 124  :     if constexpr (is_pointer_v<_Iter>) {
; 125  :         return const_cast<void*>(static_cast<const volatile void*>(_It));

	mov	eax, DWORD PTR __It$[ebp]

; 126  :     } else {
; 127  :         return const_cast<void*>(static_cast<const volatile void*>(_STD addressof(*_It)));
; 128  :     }
; 129  : }

	pop	ebp
	ret	0
??$_Voidify_iter@PAPAD@std@@YAPAXPAPAD@Z ENDP		; std::_Voidify_iter<char * *>
_TEXT	ENDS
; Function compile flags: /Odtp /RTCsu
; File C:\Program Files\Microsoft Visual Studio\2022\Community\VC\Tools\MSVC\14.32.31326\include\xstddef
;	COMDAT ??$addressof@PAD@std@@YAPAPADAAPAD@Z
_TEXT	SEGMENT
__Val$ = 8						; size = 4
??$addressof@PAD@std@@YAPAPADAAPAD@Z PROC		; std::addressof<char *>, COMDAT

; 252  : _NODISCARD constexpr _Ty* addressof(_Ty& _Val) noexcept {

	push	ebp
	mov	ebp, esp

; 253  :     return __builtin_addressof(_Val);

	mov	eax, DWORD PTR __Val$[ebp]

; 254  : }

	pop	ebp
	ret	0
??$addressof@PAD@std@@YAPAPADAAPAD@Z ENDP		; std::addressof<char *>
_TEXT	ENDS
; Function compile flags: /Odtp /RTCsu
; File C:\Program Files\Microsoft Visual Studio\2022\Community\VC\Tools\MSVC\14.32.31326\include\type_traits
;	COMDAT ??$forward@PAU_Container_base12@std@@@std@@YA$$QAPAU_Container_base12@0@AAPAU10@@Z
_TEXT	SEGMENT
__Arg$ = 8						; size = 4
??$forward@PAU_Container_base12@std@@@std@@YA$$QAPAU_Container_base12@0@AAPAU10@@Z PROC ; std::forward<std::_Container_base12 *>, COMDAT

; 1341 :     remove_reference_t<_Ty>& _Arg) noexcept { // forward an lvalue as either an lvalue or an rvalue

	push	ebp
	mov	ebp, esp

; 1342 :     return static_cast<_Ty&&>(_Arg);

	mov	eax, DWORD PTR __Arg$[ebp]

; 1343 : }

	pop	ebp
	ret	0
??$forward@PAU_Container_base12@std@@@std@@YA$$QAPAU_Container_base12@0@AAPAU10@@Z ENDP ; std::forward<std::_Container_base12 *>
_TEXT	ENDS
; Function compile flags: /Odtp /RTCsu
; File C:\Program Files\Microsoft Visual Studio\2022\Community\VC\Tools\MSVC\14.32.31326\include\xutility
;	COMDAT ??$_Voidify_iter@PAU_Container_proxy@std@@@std@@YAPAXPAU_Container_proxy@0@@Z
_TEXT	SEGMENT
__It$ = 8						; size = 4
??$_Voidify_iter@PAU_Container_proxy@std@@@std@@YAPAXPAU_Container_proxy@0@@Z PROC ; std::_Voidify_iter<std::_Container_proxy *>, COMDAT

; 123  : _NODISCARD constexpr void* _Voidify_iter(_Iter _It) noexcept {

	push	ebp
	mov	ebp, esp

; 124  :     if constexpr (is_pointer_v<_Iter>) {
; 125  :         return const_cast<void*>(static_cast<const volatile void*>(_It));

	mov	eax, DWORD PTR __It$[ebp]

; 126  :     } else {
; 127  :         return const_cast<void*>(static_cast<const volatile void*>(_STD addressof(*_It)));
; 128  :     }
; 129  : }

	pop	ebp
	ret	0
??$_Voidify_iter@PAU_Container_proxy@std@@@std@@YAPAXPAU_Container_proxy@0@@Z ENDP ; std::_Voidify_iter<std::_Container_proxy *>
_TEXT	ENDS
; Function compile flags: /Odtp /RTCsu
; File C:\Program Files\Microsoft Visual Studio\2022\Community\VC\Tools\MSVC\14.32.31326\include\xstddef
;	COMDAT ??$addressof@U_Container_proxy@std@@@std@@YAPAU_Container_proxy@0@AAU10@@Z
_TEXT	SEGMENT
__Val$ = 8						; size = 4
??$addressof@U_Container_proxy@std@@@std@@YAPAU_Container_proxy@0@AAU10@@Z PROC ; std::addressof<std::_Container_proxy>, COMDAT

; 252  : _NODISCARD constexpr _Ty* addressof(_Ty& _Val) noexcept {

	push	ebp
	mov	ebp, esp

; 253  :     return __builtin_addressof(_Val);

	mov	eax, DWORD PTR __Val$[ebp]

; 254  : }

	pop	ebp
	ret	0
??$addressof@U_Container_proxy@std@@@std@@YAPAU_Container_proxy@0@AAU10@@Z ENDP ; std::addressof<std::_Container_proxy>
_TEXT	ENDS
; Function compile flags: /Odtp /RTCsu
; File C:\Program Files\Microsoft Visual Studio\2022\Community\VC\Tools\MSVC\14.32.31326\include\type_traits
;	COMDAT ??$forward@V?$allocator@D@std@@@std@@YA$$QAV?$allocator@D@0@AAV10@@Z
_TEXT	SEGMENT
__Arg$ = 8						; size = 4
??$forward@V?$allocator@D@std@@@std@@YA$$QAV?$allocator@D@0@AAV10@@Z PROC ; std::forward<std::allocator<char> >, COMDAT

; 1341 :     remove_reference_t<_Ty>& _Arg) noexcept { // forward an lvalue as either an lvalue or an rvalue

	push	ebp
	mov	ebp, esp

; 1342 :     return static_cast<_Ty&&>(_Arg);

	mov	eax, DWORD PTR __Arg$[ebp]

; 1343 : }

	pop	ebp
	ret	0
??$forward@V?$allocator@D@std@@@std@@YA$$QAV?$allocator@D@0@AAV10@@Z ENDP ; std::forward<std::allocator<char> >
_TEXT	ENDS
; Function compile flags: /Odtp /RTCsu
; File C:\Program Files\Microsoft Visual Studio\2022\Community\VC\Tools\MSVC\14.32.31326\include\xmemory
;	COMDAT ??$_Deallocate_plain@V?$allocator@U_Container_proxy@std@@@std@@@std@@YAXAAV?$allocator@U_Container_proxy@std@@@0@QAU_Container_proxy@0@@Z
_TEXT	SEGMENT
__$EHRec$ = -12						; size = 12
__Al$ = 8						; size = 4
__Ptr$ = 12						; size = 4
??$_Deallocate_plain@V?$allocator@U_Container_proxy@std@@@std@@@std@@YAXAAV?$allocator@U_Container_proxy@std@@@0@QAU_Container_proxy@0@@Z PROC ; std::_Deallocate_plain<std::allocator<std::_Container_proxy> >, COMDAT

; 972  : _CONSTEXPR20 void _Deallocate_plain(_Alloc& _Al, typename _Alloc::value_type* const _Ptr) noexcept {

	push	ebp
	mov	ebp, esp
	push	-1
	push	__ehhandler$??$_Deallocate_plain@V?$allocator@U_Container_proxy@std@@@std@@@std@@YAXAAV?$allocator@U_Container_proxy@std@@@0@QAU_Container_proxy@0@@Z
	mov	eax, DWORD PTR fs:0
	push	eax
	mov	eax, DWORD PTR ___security_cookie
	xor	eax, ebp
	push	eax
	lea	eax, DWORD PTR __$EHRec$[ebp]
	mov	DWORD PTR fs:0, eax

; 973  :     // deallocate a plain pointer using an allocator
; 974  :     using _Alloc_traits = allocator_traits<_Alloc>;
; 975  :     if constexpr (is_same_v<_Alloc_ptr_t<_Alloc>, typename _Alloc::value_type*>) {
; 976  :         _Alloc_traits::deallocate(_Al, _Ptr, 1);

	push	1
	mov	eax, DWORD PTR __Ptr$[ebp]
	push	eax
	mov	ecx, DWORD PTR __Al$[ebp]
	push	ecx
	call	?deallocate@?$_Default_allocator_traits@V?$allocator@U_Container_proxy@std@@@std@@@std@@SAXAAV?$allocator@U_Container_proxy@std@@@2@QAU_Container_proxy@2@I@Z ; std::_Default_allocator_traits<std::allocator<std::_Container_proxy> >::deallocate
	add	esp, 12					; 0000000cH

; 977  :     } else {
; 978  :         using _Ptr_traits = pointer_traits<_Alloc_ptr_t<_Alloc>>;
; 979  :         _Alloc_traits::deallocate(_Al, _Ptr_traits::pointer_to(*_Ptr), 1);
; 980  :     }
; 981  : }

	mov	ecx, DWORD PTR __$EHRec$[ebp]
	mov	DWORD PTR fs:0, ecx
	pop	ecx
	add	esp, 12					; 0000000cH
	cmp	ebp, esp
	call	__RTC_CheckEsp
	mov	esp, ebp
	pop	ebp
	ret	0
	int	3
	int	3
	int	3
	int	3
	int	3
_TEXT	ENDS
;	COMDAT text$x
text$x	SEGMENT
__ehhandler$??$_Deallocate_plain@V?$allocator@U_Container_proxy@std@@@std@@@std@@YAXAAV?$allocator@U_Container_proxy@std@@@0@QAU_Container_proxy@0@@Z:
	npad	1
	npad	1
	mov	edx, DWORD PTR [esp+8]
	lea	eax, DWORD PTR [edx+12]
	mov	ecx, DWORD PTR [edx-4]
	xor	ecx, eax
	call	@__security_check_cookie@4
	mov	eax, OFFSET __ehfuncinfo$??$_Deallocate_plain@V?$allocator@U_Container_proxy@std@@@std@@@std@@YAXAAV?$allocator@U_Container_proxy@std@@@0@QAU_Container_proxy@0@@Z
	jmp	___CxxFrameHandler3
text$x	ENDS
??$_Deallocate_plain@V?$allocator@U_Container_proxy@std@@@std@@@std@@YAXAAV?$allocator@U_Container_proxy@std@@@0@QAU_Container_proxy@0@@Z ENDP ; std::_Deallocate_plain<std::allocator<std::_Container_proxy> >
; Function compile flags: /Odtp /RTCsu
;	COMDAT ??1?$_Vector_const_iterator@V?$_Vector_val@U?$_Simple_types@PAVWall2D@@@std@@@std@@@std@@QAE@XZ
_TEXT	SEGMENT
_this$ = -4						; size = 4
??1?$_Vector_const_iterator@V?$_Vector_val@U?$_Simple_types@PAVWall2D@@@std@@@std@@@std@@QAE@XZ PROC ; std::_Vector_const_iterator<std::_Vector_val<std::_Simple_types<Wall2D *> > >::~_Vector_const_iterator<std::_Vector_val<std::_Simple_types<Wall2D *> > >, COMDAT
; _this$ = ecx
	push	ebp
	mov	ebp, esp
	push	ecx
	mov	DWORD PTR [ebp-4], -858993460		; ccccccccH
	mov	DWORD PTR _this$[ebp], ecx
	mov	ecx, DWORD PTR _this$[ebp]
	call	??1_Iterator_base12@std@@QAE@XZ		; std::_Iterator_base12::~_Iterator_base12
	add	esp, 4
	cmp	ebp, esp
	call	__RTC_CheckEsp
	mov	esp, ebp
	pop	ebp
	ret	0
??1?$_Vector_const_iterator@V?$_Vector_val@U?$_Simple_types@PAVWall2D@@@std@@@std@@@std@@QAE@XZ ENDP ; std::_Vector_const_iterator<std::_Vector_val<std::_Simple_types<Wall2D *> > >::~_Vector_const_iterator<std::_Vector_val<std::_Simple_types<Wall2D *> > >
_TEXT	ENDS
; Function compile flags: /Odtp /RTCsu
; File C:\Program Files\Microsoft Visual Studio\2022\Community\VC\Tools\MSVC\14.32.31326\include\vector
;	COMDAT ?_Compat@?$_Vector_const_iterator@V?$_Vector_val@U?$_Simple_types@PAVWall2D@@@std@@@std@@@std@@QBEXABV12@@Z
_TEXT	SEGMENT
_this$ = -4						; size = 4
__Right$ = 8						; size = 4
?_Compat@?$_Vector_const_iterator@V?$_Vector_val@U?$_Simple_types@PAVWall2D@@@std@@@std@@@std@@QBEXABV12@@Z PROC ; std::_Vector_const_iterator<std::_Vector_val<std::_Simple_types<Wall2D *> > >::_Compat, COMDAT
; _this$ = ecx

; 181  :     _CONSTEXPR20 void _Compat(const _Vector_const_iterator& _Right) const noexcept {

	push	ebp
	mov	ebp, esp
	push	ecx
	push	esi
	mov	DWORD PTR [ebp-4], -858993460		; ccccccccH
	mov	DWORD PTR _this$[ebp], ecx
$LN4@Compat:

; 182  :         // test for compatible iterator pair
; 183  : #if _ITERATOR_DEBUG_LEVEL == 0
; 184  :         (void) _Right;
; 185  : #else // ^^^ _ITERATOR_DEBUG_LEVEL == 0 ^^^ // vvv _ITERATOR_DEBUG_LEVEL != 0 vvv
; 186  :         _STL_VERIFY(this->_Getcont() == _Right._Getcont(), "vector iterators incompatible");

	mov	ecx, DWORD PTR _this$[ebp]
	call	?_Getcont@_Iterator_base12@std@@QBEPBU_Container_base12@2@XZ ; std::_Iterator_base12::_Getcont
	mov	esi, eax
	mov	ecx, DWORD PTR __Right$[ebp]
	call	?_Getcont@_Iterator_base12@std@@QBEPBU_Container_base12@2@XZ ; std::_Iterator_base12::_Getcont
	cmp	esi, eax
	jne	SHORT $LN7@Compat
	jmp	SHORT $LN2@Compat
$LN7@Compat:
	push	OFFSET ??_C@_0BO@CAOBBIOC@vector?5iterators?5incompatible@
	push	OFFSET ??_C@_02DKCKIIND@?$CFs@
	push	0
	push	186					; 000000baH
	push	OFFSET ??_C@_0GB@GDCALCPO@C?3?2Program?5Files?2Microsoft?5Visu@
	push	2
	call	__CrtDbgReport
	add	esp, 24					; 00000018H
	cmp	eax, 1
	jne	SHORT $LN11@Compat
	int	3
$LN11@Compat:
	push	0
	push	186					; 000000baH
	push	OFFSET ??_C@_1MC@BJDJHFOD@?$AAC?$AA?3?$AA?2?$AAP?$AAr?$AAo?$AAg?$AAr?$AAa?$AAm?$AA?5?$AAF?$AAi?$AAl?$AAe@
	push	OFFSET ??_C@_11LOCGONAA@@
	push	OFFSET ??_C@_1EA@DJDGNIII@?$AA?$CC?$AAv?$AAe?$AAc?$AAt?$AAo?$AAr?$AA?5?$AAi?$AAt?$AAe?$AAr?$AAa?$AAt?$AAo@
	call	__invalid_parameter
	add	esp, 20					; 00000014H
	xor	ecx, ecx
	jne	SHORT $LN7@Compat
$LN2@Compat:
	xor	edx, edx
	jne	SHORT $LN4@Compat

; 187  : #endif // _ITERATOR_DEBUG_LEVEL == 0
; 188  :     }

	pop	esi
	add	esp, 4
	cmp	ebp, esp
	call	__RTC_CheckEsp
	mov	esp, ebp
	pop	ebp
	ret	4
?_Compat@?$_Vector_const_iterator@V?$_Vector_val@U?$_Simple_types@PAVWall2D@@@std@@@std@@@std@@QBEXABV12@@Z ENDP ; std::_Vector_const_iterator<std::_Vector_val<std::_Simple_types<Wall2D *> > >::_Compat
_TEXT	ENDS
; Function compile flags: /Odtp /RTCsu
; File C:\Program Files\Microsoft Visual Studio\2022\Community\VC\Tools\MSVC\14.32.31326\include\vector
;	COMDAT ??9?$_Vector_const_iterator@V?$_Vector_val@U?$_Simple_types@PAVWall2D@@@std@@@std@@@std@@QBE_NABV01@@Z
_TEXT	SEGMENT
tv69 = -8						; size = 4
_this$ = -4						; size = 4
__Right$ = 8						; size = 4
??9?$_Vector_const_iterator@V?$_Vector_val@U?$_Simple_types@PAVWall2D@@@std@@@std@@@std@@QBE_NABV01@@Z PROC ; std::_Vector_const_iterator<std::_Vector_val<std::_Simple_types<Wall2D *> > >::operator!=, COMDAT
; _this$ = ecx

; 159  :     _NODISCARD bool operator!=(const _Vector_const_iterator& _Right) const noexcept {

	push	ebp
	mov	ebp, esp
	sub	esp, 8
	mov	DWORD PTR [ebp-8], -858993460		; ccccccccH
	mov	DWORD PTR [ebp-4], -858993460		; ccccccccH
	mov	DWORD PTR _this$[ebp], ecx

; 160  :         return !(*this == _Right);

	mov	eax, DWORD PTR __Right$[ebp]
	push	eax
	mov	ecx, DWORD PTR _this$[ebp]
	call	??8?$_Vector_const_iterator@V?$_Vector_val@U?$_Simple_types@PAVWall2D@@@std@@@std@@@std@@QBE_NABV01@@Z ; std::_Vector_const_iterator<std::_Vector_val<std::_Simple_types<Wall2D *> > >::operator==
	movzx	ecx, al
	test	ecx, ecx
	jne	SHORT $LN3@operator
	mov	DWORD PTR tv69[ebp], 1
	jmp	SHORT $LN4@operator
$LN3@operator:
	mov	DWORD PTR tv69[ebp], 0
$LN4@operator:
	mov	al, BYTE PTR tv69[ebp]

; 161  :     }

	add	esp, 8
	cmp	ebp, esp
	call	__RTC_CheckEsp
	mov	esp, ebp
	pop	ebp
	ret	4
??9?$_Vector_const_iterator@V?$_Vector_val@U?$_Simple_types@PAVWall2D@@@std@@@std@@@std@@QBE_NABV01@@Z ENDP ; std::_Vector_const_iterator<std::_Vector_val<std::_Simple_types<Wall2D *> > >::operator!=
_TEXT	ENDS
; Function compile flags: /Odtp /RTCsu
; File C:\Program Files\Microsoft Visual Studio\2022\Community\VC\Tools\MSVC\14.32.31326\include\vector
;	COMDAT ??8?$_Vector_const_iterator@V?$_Vector_val@U?$_Simple_types@PAVWall2D@@@std@@@std@@@std@@QBE_NABV01@@Z
_TEXT	SEGMENT
tv69 = -8						; size = 4
_this$ = -4						; size = 4
__Right$ = 8						; size = 4
??8?$_Vector_const_iterator@V?$_Vector_val@U?$_Simple_types@PAVWall2D@@@std@@@std@@@std@@QBE_NABV01@@Z PROC ; std::_Vector_const_iterator<std::_Vector_val<std::_Simple_types<Wall2D *> > >::operator==, COMDAT
; _this$ = ecx

; 148  :     _NODISCARD _CONSTEXPR20 bool operator==(const _Vector_const_iterator& _Right) const noexcept {

	push	ebp
	mov	ebp, esp
	sub	esp, 8
	mov	DWORD PTR [ebp-8], -858993460		; ccccccccH
	mov	DWORD PTR [ebp-4], -858993460		; ccccccccH
	mov	DWORD PTR _this$[ebp], ecx

; 149  :         _Compat(_Right);

	mov	eax, DWORD PTR __Right$[ebp]
	push	eax
	mov	ecx, DWORD PTR _this$[ebp]
	call	?_Compat@?$_Vector_const_iterator@V?$_Vector_val@U?$_Simple_types@PAVWall2D@@@std@@@std@@@std@@QBEXABV12@@Z ; std::_Vector_const_iterator<std::_Vector_val<std::_Simple_types<Wall2D *> > >::_Compat

; 150  :         return _Ptr == _Right._Ptr;

	mov	ecx, DWORD PTR _this$[ebp]
	mov	edx, DWORD PTR __Right$[ebp]
	mov	eax, DWORD PTR [ecx+8]
	cmp	eax, DWORD PTR [edx+8]
	jne	SHORT $LN3@operator
	mov	DWORD PTR tv69[ebp], 1
	jmp	SHORT $LN4@operator
$LN3@operator:
	mov	DWORD PTR tv69[ebp], 0
$LN4@operator:
	mov	al, BYTE PTR tv69[ebp]

; 151  :     }

	add	esp, 8
	cmp	ebp, esp
	call	__RTC_CheckEsp
	mov	esp, ebp
	pop	ebp
	ret	4
??8?$_Vector_const_iterator@V?$_Vector_val@U?$_Simple_types@PAVWall2D@@@std@@@std@@@std@@QBE_NABV01@@Z ENDP ; std::_Vector_const_iterator<std::_Vector_val<std::_Simple_types<Wall2D *> > >::operator==
_TEXT	ENDS
; Function compile flags: /Odtp /RTCsu
; File C:\Program Files\Microsoft Visual Studio\2022\Community\VC\Tools\MSVC\14.32.31326\include\vector
;	COMDAT ??E?$_Vector_const_iterator@V?$_Vector_val@U?$_Simple_types@PAVWall2D@@@std@@@std@@@std@@QAEAAV01@XZ
_TEXT	SEGMENT
__Mycont$ = -8						; size = 4
_this$ = -4						; size = 4
??E?$_Vector_const_iterator@V?$_Vector_val@U?$_Simple_types@PAVWall2D@@@std@@@std@@@std@@QAEAAV01@XZ PROC ; std::_Vector_const_iterator<std::_Vector_val<std::_Simple_types<Wall2D *> > >::operator++, COMDAT
; _this$ = ecx

; 67   :     _CONSTEXPR20 _Vector_const_iterator& operator++() noexcept {

	push	ebp
	mov	ebp, esp
	sub	esp, 8
	mov	DWORD PTR [ebp-8], -858993460		; ccccccccH
	mov	DWORD PTR [ebp-4], -858993460		; ccccccccH
	mov	DWORD PTR _this$[ebp], ecx

; 68   : #if _ITERATOR_DEBUG_LEVEL != 0
; 69   :         const auto _Mycont = static_cast<const _Myvec*>(this->_Getcont());

	mov	ecx, DWORD PTR _this$[ebp]
	call	?_Getcont@_Iterator_base12@std@@QBEPBU_Container_base12@2@XZ ; std::_Iterator_base12::_Getcont
	mov	DWORD PTR __Mycont$[ebp], eax
$LN4@operator:

; 70   :         _STL_VERIFY(_Ptr, "can't increment value-initialized vector iterator");

	mov	eax, DWORD PTR _this$[ebp]
	cmp	DWORD PTR [eax+8], 0
	je	SHORT $LN7@operator
	jmp	SHORT $LN2@operator
$LN7@operator:
	push	OFFSET ??_C@_0DC@KEKNBAEB@can?8t?5increment?5value?9initializ@
	push	OFFSET ??_C@_02DKCKIIND@?$CFs@
	push	0
	push	70					; 00000046H
	push	OFFSET ??_C@_0GB@GDCALCPO@C?3?2Program?5Files?2Microsoft?5Visu@
	push	2
	call	__CrtDbgReport
	add	esp, 24					; 00000018H
	cmp	eax, 1
	jne	SHORT $LN19@operator
	int	3
$LN19@operator:
	push	0
	push	70					; 00000046H
	push	OFFSET ??_C@_1MC@BJDJHFOD@?$AAC?$AA?3?$AA?2?$AAP?$AAr?$AAo?$AAg?$AAr?$AAa?$AAm?$AA?5?$AAF?$AAi?$AAl?$AAe@
	push	OFFSET ??_C@_11LOCGONAA@@
	push	OFFSET ??_C@_1GI@EDCILPL@?$AA?$CC?$AAc?$AAa?$AAn?$AA?8?$AAt?$AA?5?$AAi?$AAn?$AAc?$AAr?$AAe?$AAm?$AAe?$AAn@
	call	__invalid_parameter
	add	esp, 20					; 00000014H
	xor	edx, edx
	jne	SHORT $LN7@operator
$LN2@operator:
	xor	eax, eax
	jne	SHORT $LN4@operator
$LN10@operator:

; 71   :         _STL_VERIFY(_Ptr < _Mycont->_Mylast, "can't increment vector iterator past end");

	mov	ecx, DWORD PTR _this$[ebp]
	mov	edx, DWORD PTR __Mycont$[ebp]
	mov	eax, DWORD PTR [ecx+8]
	cmp	eax, DWORD PTR [edx+8]
	jae	SHORT $LN13@operator
	jmp	SHORT $LN8@operator
$LN13@operator:
	push	OFFSET ??_C@_0CJ@OAAAAGPM@can?8t?5increment?5vector?5iterator@
	push	OFFSET ??_C@_02DKCKIIND@?$CFs@
	push	0
	push	71					; 00000047H
	push	OFFSET ??_C@_0GB@GDCALCPO@C?3?2Program?5Files?2Microsoft?5Visu@
	push	2
	call	__CrtDbgReport
	add	esp, 24					; 00000018H
	cmp	eax, 1
	jne	SHORT $LN20@operator
	int	3
$LN20@operator:
	push	0
	push	71					; 00000047H
	push	OFFSET ??_C@_1MC@BJDJHFOD@?$AAC?$AA?3?$AA?2?$AAP?$AAr?$AAo?$AAg?$AAr?$AAa?$AAm?$AA?5?$AAF?$AAi?$AAl?$AAe@
	push	OFFSET ??_C@_11LOCGONAA@@
	push	OFFSET ??_C@_1FG@LDPPKMGP@?$AA?$CC?$AAc?$AAa?$AAn?$AA?8?$AAt?$AA?5?$AAi?$AAn?$AAc?$AAr?$AAe?$AAm?$AAe?$AAn@
	call	__invalid_parameter
	add	esp, 20					; 00000014H
	xor	edx, edx
	jne	SHORT $LN13@operator
$LN8@operator:
	xor	eax, eax
	jne	SHORT $LN10@operator

; 72   : #endif // _ITERATOR_DEBUG_LEVEL != 0
; 73   : 
; 74   :         ++_Ptr;

	mov	ecx, DWORD PTR _this$[ebp]
	mov	edx, DWORD PTR [ecx+8]
	add	edx, 4
	mov	eax, DWORD PTR _this$[ebp]
	mov	DWORD PTR [eax+8], edx

; 75   :         return *this;

	mov	eax, DWORD PTR _this$[ebp]

; 76   :     }

	add	esp, 8
	cmp	ebp, esp
	call	__RTC_CheckEsp
	mov	esp, ebp
	pop	ebp
	ret	0
??E?$_Vector_const_iterator@V?$_Vector_val@U?$_Simple_types@PAVWall2D@@@std@@@std@@@std@@QAEAAV01@XZ ENDP ; std::_Vector_const_iterator<std::_Vector_val<std::_Simple_types<Wall2D *> > >::operator++
_TEXT	ENDS
; Function compile flags: /Odtp /RTCsu
; File C:\Program Files\Microsoft Visual Studio\2022\Community\VC\Tools\MSVC\14.32.31326\include\vector
;	COMDAT ??D?$_Vector_const_iterator@V?$_Vector_val@U?$_Simple_types@PAVWall2D@@@std@@@std@@@std@@QBEABQAVWall2D@@XZ
_TEXT	SEGMENT
__Mycont$ = -8						; size = 4
_this$ = -4						; size = 4
??D?$_Vector_const_iterator@V?$_Vector_val@U?$_Simple_types@PAVWall2D@@@std@@@std@@@std@@QBEABQAVWall2D@@XZ PROC ; std::_Vector_const_iterator<std::_Vector_val<std::_Simple_types<Wall2D *> > >::operator*, COMDAT
; _this$ = ecx

; 45   :     _NODISCARD _CONSTEXPR20 reference operator*() const noexcept {

	push	ebp
	mov	ebp, esp
	sub	esp, 8
	mov	DWORD PTR [ebp-8], -858993460		; ccccccccH
	mov	DWORD PTR [ebp-4], -858993460		; ccccccccH
	mov	DWORD PTR _this$[ebp], ecx

; 46   : #if _ITERATOR_DEBUG_LEVEL != 0
; 47   :         const auto _Mycont = static_cast<const _Myvec*>(this->_Getcont());

	mov	ecx, DWORD PTR _this$[ebp]
	call	?_Getcont@_Iterator_base12@std@@QBEPBU_Container_base12@2@XZ ; std::_Iterator_base12::_Getcont
	mov	DWORD PTR __Mycont$[ebp], eax
$LN4@operator:

; 48   :         _STL_VERIFY(_Ptr, "can't dereference value-initialized vector iterator");

	mov	eax, DWORD PTR _this$[ebp]
	cmp	DWORD PTR [eax+8], 0
	je	SHORT $LN7@operator
	jmp	SHORT $LN2@operator
$LN7@operator:
	push	OFFSET ??_C@_0DE@CHADHGFF@can?8t?5dereference?5value?9initial@
	push	OFFSET ??_C@_02DKCKIIND@?$CFs@
	push	0
	push	48					; 00000030H
	push	OFFSET ??_C@_0GB@GDCALCPO@C?3?2Program?5Files?2Microsoft?5Visu@
	push	2
	call	__CrtDbgReport
	add	esp, 24					; 00000018H
	cmp	eax, 1
	jne	SHORT $LN19@operator
	int	3
$LN19@operator:
	push	0
	push	48					; 00000030H
	push	OFFSET ??_C@_1MC@BJDJHFOD@?$AAC?$AA?3?$AA?2?$AAP?$AAr?$AAo?$AAg?$AAr?$AAa?$AAm?$AA?5?$AAF?$AAi?$AAl?$AAe@
	push	OFFSET ??_C@_11LOCGONAA@@
	push	OFFSET ??_C@_1GM@FNBFNBEL@?$AA?$CC?$AAc?$AAa?$AAn?$AA?8?$AAt?$AA?5?$AAd?$AAe?$AAr?$AAe?$AAf?$AAe?$AAr?$AAe@
	call	__invalid_parameter
	add	esp, 20					; 00000014H
	xor	edx, edx
	jne	SHORT $LN7@operator
$LN2@operator:
	xor	eax, eax
	jne	SHORT $LN4@operator
$LN10@operator:

; 49   :         _STL_VERIFY(

	mov	ecx, DWORD PTR __Mycont$[ebp]
	mov	edx, DWORD PTR _this$[ebp]
	mov	eax, DWORD PTR [ecx+4]
	cmp	eax, DWORD PTR [edx+8]
	ja	SHORT $LN13@operator
	mov	ecx, DWORD PTR _this$[ebp]
	mov	edx, DWORD PTR __Mycont$[ebp]
	mov	eax, DWORD PTR [ecx+8]
	cmp	eax, DWORD PTR [edx+8]
	jae	SHORT $LN13@operator
	jmp	SHORT $LN8@operator
$LN13@operator:
	push	OFFSET ??_C@_0CP@MDHADBHN@can?8t?5dereference?5out?5of?5range?5@
	push	OFFSET ??_C@_02DKCKIIND@?$CFs@
	push	0
	push	50					; 00000032H
	push	OFFSET ??_C@_0GB@GDCALCPO@C?3?2Program?5Files?2Microsoft?5Visu@
	push	2
	call	__CrtDbgReport
	add	esp, 24					; 00000018H
	cmp	eax, 1
	jne	SHORT $LN20@operator
	int	3
$LN20@operator:
	push	0
	push	50					; 00000032H
	push	OFFSET ??_C@_1MC@BJDJHFOD@?$AAC?$AA?3?$AA?2?$AAP?$AAr?$AAo?$AAg?$AAr?$AAa?$AAm?$AA?5?$AAF?$AAi?$AAl?$AAe@
	push	OFFSET ??_C@_11LOCGONAA@@
	push	OFFSET ??_C@_1GC@JDCKOLAC@?$AA?$CC?$AAc?$AAa?$AAn?$AA?8?$AAt?$AA?5?$AAd?$AAe?$AAr?$AAe?$AAf?$AAe?$AAr?$AAe@
	call	__invalid_parameter
	add	esp, 20					; 00000014H
	xor	edx, edx
	jne	SHORT $LN13@operator
$LN8@operator:
	xor	eax, eax
	jne	SHORT $LN10@operator

; 50   :             _Mycont->_Myfirst <= _Ptr && _Ptr < _Mycont->_Mylast, "can't dereference out of range vector iterator");
; 51   : #endif // _ITERATOR_DEBUG_LEVEL != 0
; 52   : 
; 53   :         return *_Ptr;

	mov	ecx, DWORD PTR _this$[ebp]
	mov	eax, DWORD PTR [ecx+8]

; 54   :     }

	add	esp, 8
	cmp	ebp, esp
	call	__RTC_CheckEsp
	mov	esp, ebp
	pop	ebp
	ret	0
??D?$_Vector_const_iterator@V?$_Vector_val@U?$_Simple_types@PAVWall2D@@@std@@@std@@@std@@QBEABQAVWall2D@@XZ ENDP ; std::_Vector_const_iterator<std::_Vector_val<std::_Simple_types<Wall2D *> > >::operator*
_TEXT	ENDS
; Function compile flags: /Odtp /RTCsu
; File C:\Program Files\Microsoft Visual Studio\2022\Community\VC\Tools\MSVC\14.32.31326\include\vector
;	COMDAT ??0?$_Vector_const_iterator@V?$_Vector_val@U?$_Simple_types@PAVWall2D@@@std@@@std@@@std@@QAE@PAPAVWall2D@@PBU_Container_base12@1@@Z
_TEXT	SEGMENT
_this$ = -4						; size = 4
__Parg$ = 8						; size = 4
__Pvector$ = 12						; size = 4
??0?$_Vector_const_iterator@V?$_Vector_val@U?$_Simple_types@PAVWall2D@@@std@@@std@@@std@@QAE@PAPAVWall2D@@PBU_Container_base12@1@@Z PROC ; std::_Vector_const_iterator<std::_Vector_val<std::_Simple_types<Wall2D *> > >::_Vector_const_iterator<std::_Vector_val<std::_Simple_types<Wall2D *> > >, COMDAT
; _this$ = ecx

; 41   :     _CONSTEXPR20 _Vector_const_iterator(_Tptr _Parg, const _Container_base* _Pvector) noexcept : _Ptr(_Parg) {

	push	ebp
	mov	ebp, esp
	push	ecx
	mov	DWORD PTR [ebp-4], -858993460		; ccccccccH
	mov	DWORD PTR _this$[ebp], ecx
	mov	ecx, DWORD PTR _this$[ebp]
	call	??0_Iterator_base12@std@@QAE@XZ		; std::_Iterator_base12::_Iterator_base12
	mov	eax, DWORD PTR _this$[ebp]
	mov	ecx, DWORD PTR __Parg$[ebp]
	mov	DWORD PTR [eax+8], ecx

; 42   :         this->_Adopt(_Pvector);

	mov	edx, DWORD PTR __Pvector$[ebp]
	push	edx
	mov	ecx, DWORD PTR _this$[ebp]
	call	?_Adopt@_Iterator_base12@std@@QAEXPBU_Container_base12@2@@Z ; std::_Iterator_base12::_Adopt

; 43   :     }

	mov	eax, DWORD PTR _this$[ebp]
	add	esp, 4
	cmp	ebp, esp
	call	__RTC_CheckEsp
	mov	esp, ebp
	pop	ebp
	ret	8
??0?$_Vector_const_iterator@V?$_Vector_val@U?$_Simple_types@PAVWall2D@@@std@@@std@@@std@@QAE@PAPAVWall2D@@PBU_Container_base12@1@@Z ENDP ; std::_Vector_const_iterator<std::_Vector_val<std::_Simple_types<Wall2D *> > >::_Vector_const_iterator<std::_Vector_val<std::_Simple_types<Wall2D *> > >
_TEXT	ENDS
; Function compile flags: /Odtp /RTCsu
; File C:\Program Files\Microsoft Visual Studio\2022\Community\VC\Tools\MSVC\14.32.31326\include\xmemory
;	COMDAT ??$_Get_size_of_n@$00@std@@YAII@Z
_TEXT	SEGMENT
__Overflow_is_possible$ = -1				; size = 1
__Count$ = 8						; size = 4
??$_Get_size_of_n@$00@std@@YAII@Z PROC			; std::_Get_size_of_n<1>, COMDAT

; 55   : _NODISCARD constexpr size_t _Get_size_of_n(const size_t _Count) {

	push	ebp
	mov	ebp, esp
	push	ecx

; 56   :     constexpr bool _Overflow_is_possible = _Ty_size > 1;

	mov	BYTE PTR __Overflow_is_possible$[ebp], 0

; 57   : 
; 58   :     if constexpr (_Overflow_is_possible) {
; 59   :         constexpr size_t _Max_possible = static_cast<size_t>(-1) / _Ty_size;
; 60   :         if (_Count > _Max_possible) {
; 61   :             _Throw_bad_array_new_length(); // multiply overflow
; 62   :         }
; 63   :     }
; 64   : 
; 65   :     return _Count * _Ty_size;

	mov	eax, DWORD PTR __Count$[ebp]

; 66   : }

	mov	esp, ebp
	pop	ebp
	ret	0
??$_Get_size_of_n@$00@std@@YAII@Z ENDP			; std::_Get_size_of_n<1>
_TEXT	ENDS
; Function compile flags: /Odtp /RTCsu
; File C:\Program Files\Microsoft Visual Studio\2022\Community\VC\Tools\MSVC\14.32.31326\include\xmemory
;	COMDAT ??$_Deallocate@$07$0A@@std@@YAXPAXI@Z
_TEXT	SEGMENT
__$EHRec$ = -12						; size = 12
__Ptr$ = 8						; size = 4
__Bytes$ = 12						; size = 4
??$_Deallocate@$07$0A@@std@@YAXPAXI@Z PROC		; std::_Deallocate<8,0>, COMDAT

; 242  : _CONSTEXPR20 void _Deallocate(void* _Ptr, size_t _Bytes) noexcept {

	push	ebp
	mov	ebp, esp
	push	-1
	push	__ehhandler$??$_Deallocate@$07$0A@@std@@YAXPAXI@Z
	mov	eax, DWORD PTR fs:0
	push	eax
	mov	eax, DWORD PTR ___security_cookie
	xor	eax, ebp
	push	eax
	lea	eax, DWORD PTR __$EHRec$[ebp]
	mov	DWORD PTR fs:0, eax

; 243  :     // deallocate storage allocated by _Allocate when !_HAS_ALIGNED_NEW || _Align <= __STDCPP_DEFAULT_NEW_ALIGNMENT__
; 244  : #if _HAS_CXX20 // TRANSITION, GH-1532
; 245  :     if (_STD is_constant_evaluated()) {
; 246  :         ::operator delete(_Ptr);
; 247  :     } else
; 248  : #endif // _HAS_CXX20
; 249  :     {
; 250  : #if defined(_M_IX86) || defined(_M_X64)
; 251  :         if (_Bytes >= _Big_allocation_threshold) { // boost the alignment of big allocations to help autovectorization

	cmp	DWORD PTR __Bytes$[ebp], 4096		; 00001000H
	jb	SHORT $LN2@Deallocate

; 252  :             _Adjust_manually_vector_aligned(_Ptr, _Bytes);

	lea	eax, DWORD PTR __Bytes$[ebp]
	push	eax
	lea	ecx, DWORD PTR __Ptr$[ebp]
	push	ecx
	call	?_Adjust_manually_vector_aligned@std@@YAXAAPAXAAI@Z ; std::_Adjust_manually_vector_aligned
	add	esp, 8
$LN2@Deallocate:

; 253  :         }
; 254  : #endif // defined(_M_IX86) || defined(_M_X64)
; 255  :         ::operator delete(_Ptr, _Bytes);

	mov	edx, DWORD PTR __Bytes$[ebp]
	push	edx
	mov	eax, DWORD PTR __Ptr$[ebp]
	push	eax
	call	??3@YAXPAXI@Z				; operator delete
	add	esp, 8

; 256  :     }
; 257  : }

	mov	ecx, DWORD PTR __$EHRec$[ebp]
	mov	DWORD PTR fs:0, ecx
	pop	ecx
	add	esp, 12					; 0000000cH
	cmp	ebp, esp
	call	__RTC_CheckEsp
	mov	esp, ebp
	pop	ebp
	ret	0
	int	3
	int	3
	int	3
	int	3
	int	3
_TEXT	ENDS
;	COMDAT text$x
text$x	SEGMENT
__ehhandler$??$_Deallocate@$07$0A@@std@@YAXPAXI@Z:
	npad	1
	npad	1
	mov	edx, DWORD PTR [esp+8]
	lea	eax, DWORD PTR [edx+12]
	mov	ecx, DWORD PTR [edx-4]
	xor	ecx, eax
	call	@__security_check_cookie@4
	mov	eax, OFFSET __ehfuncinfo$??$_Deallocate@$07$0A@@std@@YAXPAXI@Z
	jmp	___CxxFrameHandler3
text$x	ENDS
??$_Deallocate@$07$0A@@std@@YAXPAXI@Z ENDP		; std::_Deallocate<8,0>
; Function compile flags: /Odtp /RTCsu
; File C:\Program Files\Microsoft Visual Studio\2022\Community\VC\Tools\MSVC\14.32.31326\include\xmemory
;	COMDAT ??$_Allocate@$07U_Default_allocate_traits@std@@$0A@@std@@YAPAXI@Z
_TEXT	SEGMENT
__Bytes$ = 8						; size = 4
??$_Allocate@$07U_Default_allocate_traits@std@@$0A@@std@@YAPAXI@Z PROC ; std::_Allocate<8,std::_Default_allocate_traits,0>, COMDAT

; 221  : __declspec(allocator) _CONSTEXPR20 void* _Allocate(const size_t _Bytes) {

	push	ebp
	mov	ebp, esp

; 222  :     // allocate _Bytes when !_HAS_ALIGNED_NEW || _Align <= __STDCPP_DEFAULT_NEW_ALIGNMENT__
; 223  : #if defined(_M_IX86) || defined(_M_X64)
; 224  : #if _HAS_CXX20 // TRANSITION, GH-1532
; 225  :     if (!_STD is_constant_evaluated())
; 226  : #endif // _HAS_CXX20
; 227  :     {
; 228  :         if (_Bytes >= _Big_allocation_threshold) { // boost the alignment of big allocations to help autovectorization

	cmp	DWORD PTR __Bytes$[ebp], 4096		; 00001000H
	jb	SHORT $LN2@Allocate

; 229  :             return _Allocate_manually_vector_aligned<_Traits>(_Bytes);

	mov	eax, DWORD PTR __Bytes$[ebp]
	push	eax
	call	??$_Allocate_manually_vector_aligned@U_Default_allocate_traits@std@@@std@@YAPAXI@Z ; std::_Allocate_manually_vector_aligned<std::_Default_allocate_traits>
	add	esp, 4
	jmp	SHORT $LN1@Allocate
$LN2@Allocate:

; 230  :         }
; 231  :     }
; 232  : #endif // defined(_M_IX86) || defined(_M_X64)
; 233  : 
; 234  :     if (_Bytes != 0) {

	cmp	DWORD PTR __Bytes$[ebp], 0
	je	SHORT $LN3@Allocate

; 235  :         return _Traits::_Allocate(_Bytes);

	mov	ecx, DWORD PTR __Bytes$[ebp]
	push	ecx
	call	?_Allocate@_Default_allocate_traits@std@@SAPAXI@Z ; std::_Default_allocate_traits::_Allocate
	add	esp, 4
	jmp	SHORT $LN1@Allocate
$LN3@Allocate:

; 236  :     }
; 237  : 
; 238  :     return nullptr;

	xor	eax, eax
$LN1@Allocate:

; 239  : }

	cmp	ebp, esp
	call	__RTC_CheckEsp
	pop	ebp
	ret	0
??$_Allocate@$07U_Default_allocate_traits@std@@$0A@@std@@YAPAXI@Z ENDP ; std::_Allocate<8,std::_Default_allocate_traits,0>
_TEXT	ENDS
; Function compile flags: /Odtp /RTCsu
; File C:\Program Files\Microsoft Visual Studio\2022\Community\VC\Tools\MSVC\14.32.31326\include\xmemory
;	COMDAT ??$_Get_size_of_n@$07@std@@YAII@Z
_TEXT	SEGMENT
__Max_possible$1 = -8					; size = 4
__Overflow_is_possible$ = -1				; size = 1
__Count$ = 8						; size = 4
??$_Get_size_of_n@$07@std@@YAII@Z PROC			; std::_Get_size_of_n<8>, COMDAT

; 55   : _NODISCARD constexpr size_t _Get_size_of_n(const size_t _Count) {

	push	ebp
	mov	ebp, esp
	sub	esp, 8
	mov	DWORD PTR [ebp-8], -858993460		; ccccccccH
	mov	DWORD PTR [ebp-4], -858993460		; ccccccccH

; 56   :     constexpr bool _Overflow_is_possible = _Ty_size > 1;

	mov	BYTE PTR __Overflow_is_possible$[ebp], 1

; 57   : 
; 58   :     if constexpr (_Overflow_is_possible) {
; 59   :         constexpr size_t _Max_possible = static_cast<size_t>(-1) / _Ty_size;

	mov	DWORD PTR __Max_possible$1[ebp], 536870911 ; 1fffffffH

; 60   :         if (_Count > _Max_possible) {

	cmp	DWORD PTR __Count$[ebp], 536870911	; 1fffffffH
	jbe	SHORT $LN2@Get_size_o

; 61   :             _Throw_bad_array_new_length(); // multiply overflow

	call	?_Throw_bad_array_new_length@std@@YAXXZ	; std::_Throw_bad_array_new_length
$LN2@Get_size_o:

; 62   :         }
; 63   :     }
; 64   : 
; 65   :     return _Count * _Ty_size;

	mov	eax, DWORD PTR __Count$[ebp]
	shl	eax, 3
$LN3@Get_size_o:

; 66   : }

	add	esp, 8
	cmp	ebp, esp
	call	__RTC_CheckEsp
	mov	esp, ebp
	pop	ebp
	ret	0
??$_Get_size_of_n@$07@std@@YAII@Z ENDP			; std::_Get_size_of_n<8>
_TEXT	ENDS
; Function compile flags: /Odtp /RTCsu
; File C:\Program Files\Microsoft Visual Studio\2022\Community\VC\Tools\MSVC\14.32.31326\include\utility
;	COMDAT ??$max@I@std@@YAABIABI0@Z
_TEXT	SEGMENT
tv65 = -8						; size = 4
$T1 = -4						; size = 4
__Left$ = 8						; size = 4
__Right$ = 12						; size = 4
??$max@I@std@@YAABIABI0@Z PROC				; std::max<unsigned int>, COMDAT

; 41   :     (max) (const _Ty& _Left, const _Ty& _Right) noexcept(noexcept(_Left < _Right)) /* strengthened */ {

	push	ebp
	mov	ebp, esp
	sub	esp, 8

; 42   :     // return larger of _Left and _Right
; 43   :     return _Left < _Right ? _Right : _Left;

	mov	eax, DWORD PTR __Left$[ebp]
	mov	ecx, DWORD PTR __Right$[ebp]
	mov	edx, DWORD PTR [eax]
	cmp	edx, DWORD PTR [ecx]
	jae	SHORT $LN3@max
	mov	eax, DWORD PTR __Right$[ebp]
	mov	DWORD PTR tv65[ebp], eax
	jmp	SHORT $LN4@max
$LN3@max:
	mov	ecx, DWORD PTR __Left$[ebp]
	mov	DWORD PTR tv65[ebp], ecx
$LN4@max:
	mov	edx, DWORD PTR tv65[ebp]
	mov	DWORD PTR $T1[ebp], edx
	mov	eax, DWORD PTR $T1[ebp]

; 44   : }

	mov	esp, ebp
	pop	ebp
	ret	0
??$max@I@std@@YAABIABI0@Z ENDP				; std::max<unsigned int>
_TEXT	ENDS
; Function compile flags: /Odtp /RTCsu
; File C:\Program Files\Microsoft Visual Studio\2022\Community\VC\Tools\MSVC\14.32.31326\include\xstddef
;	COMDAT ??$_Unfancy@D@std@@YAPADPAD@Z
_TEXT	SEGMENT
__Ptr$ = 8						; size = 4
??$_Unfancy@D@std@@YAPADPAD@Z PROC			; std::_Unfancy<char>, COMDAT

; 265  : _NODISCARD constexpr _Ty* _Unfancy(_Ty* _Ptr) noexcept { // do nothing for plain pointers

	push	ebp
	mov	ebp, esp

; 266  :     return _Ptr;

	mov	eax, DWORD PTR __Ptr$[ebp]

; 267  : }

	pop	ebp
	ret	0
??$_Unfancy@D@std@@YAPADPAD@Z ENDP			; std::_Unfancy<char>
_TEXT	ENDS
; Function compile flags: /Odtp /RTCsu
; File C:\Program Files\Microsoft Visual Studio\2022\Community\VC\Tools\MSVC\14.32.31326\include\xutility
;	COMDAT ??$_Construct_in_place@PADABQAD@std@@YAXAAPADABQAD@Z
_TEXT	SEGMENT
$T1 = -4						; size = 4
__Obj$ = 8						; size = 4
_<_Args_0>$ = 12					; size = 4
??$_Construct_in_place@PADABQAD@std@@YAXAAPADABQAD@Z PROC ; std::_Construct_in_place<char *,char * const &>, COMDAT

; 142  :     is_nothrow_constructible_v<_Ty, _Types...>) {

	push	ebp
	mov	ebp, esp
	push	ecx
	mov	DWORD PTR [ebp-4], -858993460		; ccccccccH

; 143  : #if _HAS_CXX20
; 144  :     if (_STD is_constant_evaluated()) {
; 145  :         _STD construct_at(_STD addressof(_Obj), _STD forward<_Types>(_Args)...);
; 146  :     } else
; 147  : #endif // _HAS_CXX20
; 148  :     {
; 149  :         ::new (_Voidify_iter(_STD addressof(_Obj))) _Ty(_STD forward<_Types>(_Args)...);

	mov	eax, DWORD PTR __Obj$[ebp]
	push	eax
	call	??$addressof@PAD@std@@YAPAPADAAPAD@Z	; std::addressof<char *>
	add	esp, 4
	push	eax
	call	??$_Voidify_iter@PAPAD@std@@YAPAXPAPAD@Z ; std::_Voidify_iter<char * *>
	add	esp, 4
	push	eax
	push	4
	call	??2@YAPAXIPAX@Z				; operator new
	add	esp, 8
	mov	DWORD PTR $T1[ebp], eax
	mov	ecx, DWORD PTR _<_Args_0>$[ebp]
	push	ecx
	call	??$forward@ABQAD@std@@YAABQADABQAD@Z	; std::forward<char * const &>
	add	esp, 4
	mov	edx, DWORD PTR $T1[ebp]
	mov	eax, DWORD PTR [eax]
	mov	DWORD PTR [edx], eax

; 150  :     }
; 151  : }

	add	esp, 4
	cmp	ebp, esp
	call	__RTC_CheckEsp
	mov	esp, ebp
	pop	ebp
	ret	0
??$_Construct_in_place@PADABQAD@std@@YAXAAPADABQAD@Z ENDP ; std::_Construct_in_place<char *,char * const &>
_TEXT	ENDS
; Function compile flags: /Odtp /RTCsu
; File C:\Program Files\Microsoft Visual Studio\2022\Community\VC\Tools\MSVC\14.32.31326\include\xstring
;	COMDAT ??$_Reallocate_for@V<lambda_9366063389c5f42a00a5088cf24e69de>@@PBD@?$basic_string@DU?$char_traits@D@std@@V?$allocator@D@2@@std@@AAEAAV01@IV<lambda_9366063389c5f42a00a5088cf24e69de>@@PBD@Z
_TEXT	SEGMENT
__New_ptr$ = -24					; size = 4
__Al$ = -16						; size = 4
__New_capacity$ = -12					; size = 4
__Old_capacity$ = -8					; size = 4
_this$ = -4						; size = 4
__New_size$ = 8						; size = 4
__Fn$ = 12						; size = 1
_<_Args_0>$ = 16					; size = 4
??$_Reallocate_for@V<lambda_9366063389c5f42a00a5088cf24e69de>@@PBD@?$basic_string@DU?$char_traits@D@std@@V?$allocator@D@2@@std@@AAEAAV01@IV<lambda_9366063389c5f42a00a5088cf24e69de>@@PBD@Z PROC ; std::basic_string<char,std::char_traits<char>,std::allocator<char> >::_Reallocate_for<<lambda_9366063389c5f42a00a5088cf24e69de>,char const *>, COMDAT
; _this$ = ecx

; 4520 :     _CONSTEXPR20 basic_string& _Reallocate_for(const size_type _New_size, _Fty _Fn, _ArgTys... _Args) {

	push	ebp
	mov	ebp, esp
	sub	esp, 28					; 0000001cH
	mov	eax, -858993460				; ccccccccH
	mov	DWORD PTR [ebp-28], eax
	mov	DWORD PTR [ebp-24], eax
	mov	DWORD PTR [ebp-20], eax
	mov	DWORD PTR [ebp-16], eax
	mov	DWORD PTR [ebp-12], eax
	mov	DWORD PTR [ebp-8], eax
	mov	DWORD PTR [ebp-4], eax
	mov	DWORD PTR _this$[ebp], ecx

; 4521 :         // reallocate to store exactly _New_size elements, new buffer prepared by
; 4522 :         // _Fn(_New_ptr, _New_size, _Args...)
; 4523 :         if (_New_size > max_size()) {

	mov	ecx, DWORD PTR _this$[ebp]
	call	?max_size@?$basic_string@DU?$char_traits@D@std@@V?$allocator@D@2@@std@@QBEIXZ ; std::basic_string<char,std::char_traits<char>,std::allocator<char> >::max_size
	cmp	DWORD PTR __New_size$[ebp], eax
	jbe	SHORT $LN2@Reallocate

; 4524 :             _Xlen_string(); // result too long

	call	?_Xlen_string@std@@YAXXZ		; std::_Xlen_string
$LN2@Reallocate:

; 4525 :         }
; 4526 : 
; 4527 :         const size_type _Old_capacity = _Mypair._Myval2._Myres;

	mov	eax, DWORD PTR _this$[ebp]
	mov	ecx, DWORD PTR [eax+24]
	mov	DWORD PTR __Old_capacity$[ebp], ecx

; 4528 :         const size_type _New_capacity = _Calculate_growth(_New_size);

	mov	edx, DWORD PTR __New_size$[ebp]
	push	edx
	mov	ecx, DWORD PTR _this$[ebp]
	call	?_Calculate_growth@?$basic_string@DU?$char_traits@D@std@@V?$allocator@D@2@@std@@ABEII@Z ; std::basic_string<char,std::char_traits<char>,std::allocator<char> >::_Calculate_growth
	mov	DWORD PTR __New_capacity$[ebp], eax

; 4529 :         auto& _Al                     = _Getal();

	mov	ecx, DWORD PTR _this$[ebp]
	call	?_Getal@?$basic_string@DU?$char_traits@D@std@@V?$allocator@D@2@@std@@AAEAAV?$allocator@D@2@XZ ; std::basic_string<char,std::char_traits<char>,std::allocator<char> >::_Getal
	mov	DWORD PTR __Al$[ebp], eax

; 4530 :         const pointer _New_ptr        = _Al.allocate(_New_capacity + 1); // throws

	mov	eax, DWORD PTR __New_capacity$[ebp]
	add	eax, 1
	push	eax
	mov	ecx, DWORD PTR __Al$[ebp]
	call	?allocate@?$allocator@D@std@@QAEPADI@Z	; std::allocator<char>::allocate
	mov	DWORD PTR __New_ptr$[ebp], eax

; 4531 : 
; 4532 : #if _HAS_CXX20
; 4533 :         if (_STD is_constant_evaluated()) { // Begin the lifetimes of the objects before copying to avoid UB
; 4534 :             _Traits::assign(_Unfancy(_New_ptr), _New_capacity + 1, _Elem());
; 4535 :         }
; 4536 : #endif // _HAS_CXX20
; 4537 :         _Mypair._Myval2._Orphan_all();

	mov	ecx, DWORD PTR _this$[ebp]
	call	?_Orphan_all@_Container_base12@std@@QAEXXZ ; std::_Container_base12::_Orphan_all

; 4538 :         _Mypair._Myval2._Mysize = _New_size;

	mov	ecx, DWORD PTR _this$[ebp]
	mov	edx, DWORD PTR __New_size$[ebp]
	mov	DWORD PTR [ecx+20], edx

; 4539 :         _Mypair._Myval2._Myres  = _New_capacity;

	mov	eax, DWORD PTR _this$[ebp]
	mov	ecx, DWORD PTR __New_capacity$[ebp]
	mov	DWORD PTR [eax+24], ecx

; 4540 :         _Fn(_Unfancy(_New_ptr), _New_size, _Args...);

	mov	edx, DWORD PTR _<_Args_0>$[ebp]
	push	edx
	mov	eax, DWORD PTR __New_size$[ebp]
	push	eax
	mov	ecx, DWORD PTR __New_ptr$[ebp]
	push	ecx
	call	??$_Unfancy@D@std@@YAPADPAD@Z		; std::_Unfancy<char>
	add	esp, 4
	push	eax
	lea	ecx, DWORD PTR __Fn$[ebp]
	call	??R<lambda_9366063389c5f42a00a5088cf24e69de>@@QBE@QADIQBD@Z ; <lambda_9366063389c5f42a00a5088cf24e69de>::operator()

; 4541 :         if (_BUF_SIZE <= _Old_capacity) {

	cmp	DWORD PTR __Old_capacity$[ebp], 16	; 00000010H
	jb	SHORT $LN3@Reallocate

; 4542 :             _Al.deallocate(_Mypair._Myval2._Bx._Ptr, _Old_capacity + 1);

	mov	edx, DWORD PTR __Old_capacity$[ebp]
	add	edx, 1
	push	edx
	mov	eax, DWORD PTR _this$[ebp]
	mov	ecx, DWORD PTR [eax+4]
	push	ecx
	mov	ecx, DWORD PTR __Al$[ebp]
	call	?deallocate@?$allocator@D@std@@QAEXQADI@Z ; std::allocator<char>::deallocate

; 4543 :             _Mypair._Myval2._Bx._Ptr = _New_ptr;

	mov	edx, DWORD PTR _this$[ebp]
	mov	eax, DWORD PTR __New_ptr$[ebp]
	mov	DWORD PTR [edx+4], eax

; 4544 :         } else {

	jmp	SHORT $LN4@Reallocate
$LN3@Reallocate:

; 4545 :             _Construct_in_place(_Mypair._Myval2._Bx._Ptr, _New_ptr);

	lea	ecx, DWORD PTR __New_ptr$[ebp]
	push	ecx
	mov	edx, DWORD PTR _this$[ebp]
	add	edx, 4
	push	edx
	call	??$_Construct_in_place@PADABQAD@std@@YAXAAPADABQAD@Z ; std::_Construct_in_place<char *,char * const &>
	add	esp, 8
$LN4@Reallocate:

; 4546 :         }
; 4547 : 
; 4548 :         return *this;

	mov	eax, DWORD PTR _this$[ebp]
$LN5@Reallocate:

; 4549 :     }

	push	edx
	mov	ecx, ebp
	push	eax
	lea	edx, DWORD PTR $LN8@Reallocate
	call	@_RTC_CheckStackVars@8
	pop	eax
	pop	edx
	add	esp, 28					; 0000001cH
	cmp	ebp, esp
	call	__RTC_CheckEsp
	mov	esp, ebp
	pop	ebp
	ret	12					; 0000000cH
	npad	1
$LN8@Reallocate:
	DD	1
	DD	$LN7@Reallocate
$LN7@Reallocate:
	DD	-24					; ffffffe8H
	DD	4
	DD	$LN6@Reallocate
$LN6@Reallocate:
	DB	95					; 0000005fH
	DB	78					; 0000004eH
	DB	101					; 00000065H
	DB	119					; 00000077H
	DB	95					; 0000005fH
	DB	112					; 00000070H
	DB	116					; 00000074H
	DB	114					; 00000072H
	DB	0
??$_Reallocate_for@V<lambda_9366063389c5f42a00a5088cf24e69de>@@PBD@?$basic_string@DU?$char_traits@D@std@@V?$allocator@D@2@@std@@AAEAAV01@IV<lambda_9366063389c5f42a00a5088cf24e69de>@@PBD@Z ENDP ; std::basic_string<char,std::char_traits<char>,std::allocator<char> >::_Reallocate_for<<lambda_9366063389c5f42a00a5088cf24e69de>,char const *>
_TEXT	ENDS
; Function compile flags: /Odtp /RTCsu
; File C:\Program Files\Microsoft Visual Studio\2022\Community\VC\Tools\MSVC\14.32.31326\include\xstring
;	COMDAT ??R<lambda_9366063389c5f42a00a5088cf24e69de>@@QBE@QADIQBD@Z
_TEXT	SEGMENT
$T1 = -5						; size = 1
_this$ = -4						; size = 4
__New_ptr$ = 8						; size = 4
__Count$ = 12						; size = 4
__Ptr$ = 16						; size = 4
??R<lambda_9366063389c5f42a00a5088cf24e69de>@@QBE@QADIQBD@Z PROC ; <lambda_9366063389c5f42a00a5088cf24e69de>::operator(), COMDAT
; _this$ = ecx

; 3253 :             },

	push	ebp
	mov	ebp, esp
	sub	esp, 8
	mov	DWORD PTR [ebp-8], -858993460		; ccccccccH
	mov	DWORD PTR [ebp-4], -858993460		; ccccccccH
	mov	DWORD PTR _this$[ebp], ecx

; 3251 :                 _Traits::copy(_New_ptr, _Ptr, _Count);

	mov	eax, DWORD PTR __Count$[ebp]
	push	eax
	mov	ecx, DWORD PTR __Ptr$[ebp]
	push	ecx
	mov	edx, DWORD PTR __New_ptr$[ebp]
	push	edx
	call	?copy@?$_Char_traits@DH@std@@SAPADQADQBDI@Z ; std::_Char_traits<char,int>::copy
	add	esp, 12					; 0000000cH

; 3252 :                 _Traits::assign(_New_ptr[_Count], _Elem());

	mov	BYTE PTR $T1[ebp], 0
	lea	eax, DWORD PTR $T1[ebp]
	push	eax
	mov	ecx, DWORD PTR __New_ptr$[ebp]
	add	ecx, DWORD PTR __Count$[ebp]
	push	ecx
	call	?assign@?$_Narrow_char_traits@DH@std@@SAXAADABD@Z ; std::_Narrow_char_traits<char,int>::assign
	add	esp, 8

; 3253 :             },

	add	esp, 8
	cmp	ebp, esp
	call	__RTC_CheckEsp
	mov	esp, ebp
	pop	ebp
	ret	12					; 0000000cH
??R<lambda_9366063389c5f42a00a5088cf24e69de>@@QBE@QADIQBD@Z ENDP ; <lambda_9366063389c5f42a00a5088cf24e69de>::operator()
_TEXT	ENDS
; Function compile flags: /Odtp /RTCsu
; File C:\Program Files\Microsoft Visual Studio\2022\Community\VC\Tools\MSVC\14.32.31326\include\xmemory
;	COMDAT ??$_Destroy_in_place@PAD@std@@YAXAAPAD@Z
_TEXT	SEGMENT
__Obj$ = 8						; size = 4
??$_Destroy_in_place@PAD@std@@YAXAAPAD@Z PROC		; std::_Destroy_in_place<char *>, COMDAT

; 294  : _CONSTEXPR20 void _Destroy_in_place(_Ty& _Obj) noexcept {

	push	ebp
	mov	ebp, esp

; 295  :     if constexpr (is_array_v<_Ty>) {
; 296  :         _Destroy_range(_Obj, _Obj + extent_v<_Ty>);
; 297  :     } else {
; 298  :         _Obj.~_Ty();
; 299  :     }
; 300  : }

	pop	ebp
	ret	0
??$_Destroy_in_place@PAD@std@@YAXAAPAD@Z ENDP		; std::_Destroy_in_place<char *>
_TEXT	ENDS
; Function compile flags: /Odtp /RTCsu
; File C:\Program Files\Microsoft Visual Studio\2022\Community\VC\Tools\MSVC\14.32.31326\include\xutility
;	COMDAT ??$_Construct_in_place@U_Container_proxy@std@@PAU_Container_base12@2@@std@@YAXAAU_Container_proxy@0@$$QAPAU_Container_base12@0@@Z
_TEXT	SEGMENT
$T1 = -4						; size = 4
__Obj$ = 8						; size = 4
_<_Args_0>$ = 12					; size = 4
??$_Construct_in_place@U_Container_proxy@std@@PAU_Container_base12@2@@std@@YAXAAU_Container_proxy@0@$$QAPAU_Container_base12@0@@Z PROC ; std::_Construct_in_place<std::_Container_proxy,std::_Container_base12 *>, COMDAT

; 142  :     is_nothrow_constructible_v<_Ty, _Types...>) {

	push	ebp
	mov	ebp, esp
	push	ecx
	mov	DWORD PTR [ebp-4], -858993460		; ccccccccH

; 143  : #if _HAS_CXX20
; 144  :     if (_STD is_constant_evaluated()) {
; 145  :         _STD construct_at(_STD addressof(_Obj), _STD forward<_Types>(_Args)...);
; 146  :     } else
; 147  : #endif // _HAS_CXX20
; 148  :     {
; 149  :         ::new (_Voidify_iter(_STD addressof(_Obj))) _Ty(_STD forward<_Types>(_Args)...);

	mov	eax, DWORD PTR __Obj$[ebp]
	push	eax
	call	??$addressof@U_Container_proxy@std@@@std@@YAPAU_Container_proxy@0@AAU10@@Z ; std::addressof<std::_Container_proxy>
	add	esp, 4
	push	eax
	call	??$_Voidify_iter@PAU_Container_proxy@std@@@std@@YAPAXPAU_Container_proxy@0@@Z ; std::_Voidify_iter<std::_Container_proxy *>
	add	esp, 4
	push	eax
	push	8
	call	??2@YAPAXIPAX@Z				; operator new
	add	esp, 8
	mov	DWORD PTR $T1[ebp], eax
	mov	ecx, DWORD PTR _<_Args_0>$[ebp]
	push	ecx
	call	??$forward@PAU_Container_base12@std@@@std@@YA$$QAPAU_Container_base12@0@AAPAU10@@Z ; std::forward<std::_Container_base12 *>
	add	esp, 4
	mov	edx, DWORD PTR [eax]
	push	edx
	mov	ecx, DWORD PTR $T1[ebp]
	call	??0_Container_proxy@std@@QAE@PAU_Container_base12@1@@Z ; std::_Container_proxy::_Container_proxy

; 150  :     }
; 151  : }

	add	esp, 4
	cmp	ebp, esp
	call	__RTC_CheckEsp
	mov	esp, ebp
	pop	ebp
	ret	0
??$_Construct_in_place@U_Container_proxy@std@@PAU_Container_base12@2@@std@@YAXAAU_Container_proxy@0@$$QAPAU_Container_base12@0@@Z ENDP ; std::_Construct_in_place<std::_Container_proxy,std::_Container_base12 *>
_TEXT	ENDS
; Function compile flags: /Odtp /RTCsu
; File C:\Program Files\Microsoft Visual Studio\2022\Community\VC\Tools\MSVC\14.32.31326\include\xstddef
;	COMDAT ??$addressof@U_Container_base12@std@@@std@@YAPAU_Container_base12@0@AAU10@@Z
_TEXT	SEGMENT
__Val$ = 8						; size = 4
??$addressof@U_Container_base12@std@@@std@@YAPAU_Container_base12@0@AAU10@@Z PROC ; std::addressof<std::_Container_base12>, COMDAT

; 252  : _NODISCARD constexpr _Ty* addressof(_Ty& _Val) noexcept {

	push	ebp
	mov	ebp, esp

; 253  :     return __builtin_addressof(_Val);

	mov	eax, DWORD PTR __Val$[ebp]

; 254  : }

	pop	ebp
	ret	0
??$addressof@U_Container_base12@std@@@std@@YAPAU_Container_base12@0@AAU10@@Z ENDP ; std::addressof<std::_Container_base12>
_TEXT	ENDS
; Function compile flags: /Odtp /RTCsu
; File C:\Program Files\Microsoft Visual Studio\2022\Community\VC\Tools\MSVC\14.32.31326\include\xstddef
;	COMDAT ??$_Unfancy@U_Container_proxy@std@@@std@@YAPAU_Container_proxy@0@PAU10@@Z
_TEXT	SEGMENT
__Ptr$ = 8						; size = 4
??$_Unfancy@U_Container_proxy@std@@@std@@YAPAU_Container_proxy@0@PAU10@@Z PROC ; std::_Unfancy<std::_Container_proxy>, COMDAT

; 265  : _NODISCARD constexpr _Ty* _Unfancy(_Ty* _Ptr) noexcept { // do nothing for plain pointers

	push	ebp
	mov	ebp, esp

; 266  :     return _Ptr;

	mov	eax, DWORD PTR __Ptr$[ebp]

; 267  : }

	pop	ebp
	ret	0
??$_Unfancy@U_Container_proxy@std@@@std@@YAPAU_Container_proxy@0@PAU10@@Z ENDP ; std::_Unfancy<std::_Container_proxy>
_TEXT	ENDS
; Function compile flags: /Odtp /RTCsu
; File C:\Program Files\Microsoft Visual Studio\2022\Community\VC\Tools\MSVC\14.32.31326\include\xmemory
;	COMDAT ??$?0$$V@?$_Compressed_pair@V?$allocator@D@std@@V?$_String_val@U?$_Simple_types@D@std@@@2@$00@std@@QAE@U_Zero_then_variadic_args_t@1@@Z
_TEXT	SEGMENT
_this$ = -4						; size = 4
___formal$ = 8						; size = 1
??$?0$$V@?$_Compressed_pair@V?$allocator@D@std@@V?$_String_val@U?$_Simple_types@D@std@@@2@$00@std@@QAE@U_Zero_then_variadic_args_t@1@@Z PROC ; std::_Compressed_pair<std::allocator<char>,std::_String_val<std::_Simple_types<char> >,1>::_Compressed_pair<std::allocator<char>,std::_String_val<std::_Simple_types<char> >,1><>, COMDAT
; _this$ = ecx

; 1370 :         : _Ty1(), _Myval2(_STD forward<_Other2>(_Val2)...) {}

	push	ebp
	mov	ebp, esp
	push	ecx
	mov	DWORD PTR [ebp-4], -858993460		; ccccccccH
	mov	DWORD PTR _this$[ebp], ecx
	mov	ecx, DWORD PTR _this$[ebp]
	call	??0?$allocator@D@std@@QAE@XZ		; std::allocator<char>::allocator<char>
	mov	ecx, DWORD PTR _this$[ebp]
	call	??0?$_String_val@U?$_Simple_types@D@std@@@std@@QAE@XZ ; std::_String_val<std::_Simple_types<char> >::_String_val<std::_Simple_types<char> >
	mov	eax, DWORD PTR _this$[ebp]
	add	esp, 4
	cmp	ebp, esp
	call	__RTC_CheckEsp
	mov	esp, ebp
	pop	ebp
	ret	4
??$?0$$V@?$_Compressed_pair@V?$allocator@D@std@@V?$_String_val@U?$_Simple_types@D@std@@@2@$00@std@@QAE@U_Zero_then_variadic_args_t@1@@Z ENDP ; std::_Compressed_pair<std::allocator<char>,std::_String_val<std::_Simple_types<char> >,1>::_Compressed_pair<std::allocator<char>,std::_String_val<std::_Simple_types<char> >,1><>
_TEXT	ENDS
; Function compile flags: /Odtp /RTCsu
; File C:\Program Files\Microsoft Visual Studio\2022\Community\VC\Tools\MSVC\14.32.31326\include\xmemory
;	COMDAT ??$?0V?$allocator@D@std@@$$V@?$_Compressed_pair@V?$allocator@D@std@@V?$_String_val@U?$_Simple_types@D@std@@@2@$00@std@@QAE@U_One_then_variadic_args_t@1@$$QAV?$allocator@D@1@@Z
_TEXT	SEGMENT
_this$ = -4						; size = 4
___formal$ = 8						; size = 1
__Val1$ = 12						; size = 4
??$?0V?$allocator@D@std@@$$V@?$_Compressed_pair@V?$allocator@D@std@@V?$_String_val@U?$_Simple_types@D@std@@@2@$00@std@@QAE@U_One_then_variadic_args_t@1@$$QAV?$allocator@D@1@@Z PROC ; std::_Compressed_pair<std::allocator<char>,std::_String_val<std::_Simple_types<char> >,1>::_Compressed_pair<std::allocator<char>,std::_String_val<std::_Simple_types<char> >,1><std::allocator<char> >, COMDAT
; _this$ = ecx

; 1375 :         : _Ty1(_STD forward<_Other1>(_Val1)), _Myval2(_STD forward<_Other2>(_Val2)...) {}

	push	ebp
	mov	ebp, esp
	push	ecx
	mov	DWORD PTR [ebp-4], -858993460		; ccccccccH
	mov	DWORD PTR _this$[ebp], ecx
	mov	eax, DWORD PTR __Val1$[ebp]
	push	eax
	call	??$forward@V?$allocator@D@std@@@std@@YA$$QAV?$allocator@D@0@AAV10@@Z ; std::forward<std::allocator<char> >
	add	esp, 4
	mov	ecx, DWORD PTR _this$[ebp]
	call	??0?$_String_val@U?$_Simple_types@D@std@@@std@@QAE@XZ ; std::_String_val<std::_Simple_types<char> >::_String_val<std::_Simple_types<char> >
	mov	eax, DWORD PTR _this$[ebp]
	add	esp, 4
	cmp	ebp, esp
	call	__RTC_CheckEsp
	mov	esp, ebp
	pop	ebp
	ret	8
??$?0V?$allocator@D@std@@$$V@?$_Compressed_pair@V?$allocator@D@std@@V?$_String_val@U?$_Simple_types@D@std@@@2@$00@std@@QAE@U_One_then_variadic_args_t@1@$$QAV?$allocator@D@1@@Z ENDP ; std::_Compressed_pair<std::allocator<char>,std::_String_val<std::_Simple_types<char> >,1>::_Compressed_pair<std::allocator<char>,std::_String_val<std::_Simple_types<char> >,1><std::allocator<char> >
_TEXT	ENDS
; Function compile flags: /Odtp /RTCsu
; File C:\Program Files\Microsoft Visual Studio\2022\Community\VC\Tools\MSVC\14.32.31326\include\xmemory
;	COMDAT ??$?0D@?$allocator@U_Container_proxy@std@@@std@@QAE@ABV?$allocator@D@1@@Z
_TEXT	SEGMENT
_this$ = -4						; size = 4
___formal$ = 8						; size = 4
??$?0D@?$allocator@U_Container_proxy@std@@@std@@QAE@ABV?$allocator@D@1@@Z PROC ; std::allocator<std::_Container_proxy>::allocator<std::_Container_proxy><char>, COMDAT
; _this$ = ecx

; 823  :     constexpr allocator(const allocator<_Other>&) noexcept {}

	push	ebp
	mov	ebp, esp
	push	ecx
	mov	DWORD PTR _this$[ebp], ecx
	mov	eax, DWORD PTR _this$[ebp]
	mov	esp, ebp
	pop	ebp
	ret	4
??$?0D@?$allocator@U_Container_proxy@std@@@std@@QAE@ABV?$allocator@D@1@@Z ENDP ; std::allocator<std::_Container_proxy>::allocator<std::_Container_proxy><char>
_TEXT	ENDS
; Function compile flags: /Odtp /RTCsu
; File C:\Program Files\Microsoft Visual Studio\2022\Community\VC\Tools\MSVC\14.32.31326\include\xmemory
;	COMDAT ??$_Convert_size@I@std@@YAII@Z
_TEXT	SEGMENT
__Len$ = 8						; size = 4
??$_Convert_size@I@std@@YAII@Z PROC			; std::_Convert_size<unsigned int>, COMDAT

; 960  : _NODISCARD constexpr _Size_type _Convert_size(const size_t _Len) noexcept(is_same_v<_Size_type, size_t>) {

	push	ebp
	mov	ebp, esp

; 961  :     // convert size_t to _Size_type, avoiding truncation
; 962  :     if constexpr (!is_same_v<_Size_type, size_t>) {
; 963  :         if (_Len > (numeric_limits<_Size_type>::max)()) {
; 964  :             _Xlength_error("size_t too long for _Size_type");
; 965  :         }
; 966  :     }
; 967  : 
; 968  :     return static_cast<_Size_type>(_Len);

	mov	eax, DWORD PTR __Len$[ebp]

; 969  : }

	pop	ebp
	ret	0
??$_Convert_size@I@std@@YAII@Z ENDP			; std::_Convert_size<unsigned int>
_TEXT	ENDS
; Function compile flags: /Odtp /RTCsu
; File C:\Program Files\Microsoft Visual Studio\2022\Community\VC\Tools\MSVC\14.32.31326\include\xmemory
;	COMDAT ??1?$_Container_proxy_ptr12@V?$allocator@U_Container_proxy@std@@@std@@@std@@QAE@XZ
_TEXT	SEGMENT
_this$ = -4						; size = 4
??1?$_Container_proxy_ptr12@V?$allocator@U_Container_proxy@std@@@std@@@std@@QAE@XZ PROC ; std::_Container_proxy_ptr12<std::allocator<std::_Container_proxy> >::~_Container_proxy_ptr12<std::allocator<std::_Container_proxy> >, COMDAT
; _this$ = ecx

; 1334 :     _CONSTEXPR20 ~_Container_proxy_ptr12() {

	push	ebp
	mov	ebp, esp
	push	ecx
	mov	DWORD PTR [ebp-4], -858993460		; ccccccccH
	mov	DWORD PTR _this$[ebp], ecx

; 1335 :         if (_Ptr) {

	mov	eax, DWORD PTR _this$[ebp]
	cmp	DWORD PTR [eax], 0
	je	SHORT $LN3@Container_

; 1336 :             _Delete_plain_internal(_Al, _Ptr);

	mov	ecx, DWORD PTR _this$[ebp]
	mov	edx, DWORD PTR [ecx]
	push	edx
	mov	eax, DWORD PTR _this$[ebp]
	mov	ecx, DWORD PTR [eax+4]
	push	ecx
	call	??$_Delete_plain_internal@V?$allocator@U_Container_proxy@std@@@std@@@std@@YAXAAV?$allocator@U_Container_proxy@std@@@0@QAU_Container_proxy@0@@Z ; std::_Delete_plain_internal<std::allocator<std::_Container_proxy> >
	add	esp, 8
$LN3@Container_:

; 1337 :         }
; 1338 :     }

	add	esp, 4
	cmp	ebp, esp
	call	__RTC_CheckEsp
	mov	esp, ebp
	pop	ebp
	ret	0
??1?$_Container_proxy_ptr12@V?$allocator@U_Container_proxy@std@@@std@@@std@@QAE@XZ ENDP ; std::_Container_proxy_ptr12<std::allocator<std::_Container_proxy> >::~_Container_proxy_ptr12<std::allocator<std::_Container_proxy> >
_TEXT	ENDS
; Function compile flags: /Odtp /RTCsu
; File C:\Program Files\Microsoft Visual Studio\2022\Community\VC\Tools\MSVC\14.32.31326\include\xmemory
;	COMDAT ??0?$_Container_proxy_ptr12@V?$allocator@U_Container_proxy@std@@@std@@@std@@QAE@AAV?$allocator@U_Container_proxy@std@@@1@AAU_Container_base12@1@@Z
_TEXT	SEGMENT
$T1 = -8						; size = 4
_this$ = -4						; size = 4
__Al_$ = 8						; size = 4
__Mycont$ = 12						; size = 4
??0?$_Container_proxy_ptr12@V?$allocator@U_Container_proxy@std@@@std@@@std@@QAE@AAV?$allocator@U_Container_proxy@std@@@1@AAU_Container_base12@1@@Z PROC ; std::_Container_proxy_ptr12<std::allocator<std::_Container_proxy> >::_Container_proxy_ptr12<std::allocator<std::_Container_proxy> >, COMDAT
; _this$ = ecx

; 1320 :     _CONSTEXPR20 _Container_proxy_ptr12(_Alloc& _Al_, _Container_base12& _Mycont) : _Al(_Al_) {

	push	ebp
	mov	ebp, esp
	sub	esp, 8
	mov	DWORD PTR [ebp-8], -858993460		; ccccccccH
	mov	DWORD PTR [ebp-4], -858993460		; ccccccccH
	mov	DWORD PTR _this$[ebp], ecx
	mov	ecx, DWORD PTR _this$[ebp]
	call	??0_Basic_container_proxy_ptr12@std@@IAE@XZ ; std::_Basic_container_proxy_ptr12::_Basic_container_proxy_ptr12
	mov	eax, DWORD PTR _this$[ebp]
	mov	ecx, DWORD PTR __Al_$[ebp]
	mov	DWORD PTR [eax+4], ecx

; 1321 :         // create a new _Container_proxy pointing at _Mycont
; 1322 :         _Ptr = _Unfancy(_Al_.allocate(1));

	push	1
	mov	ecx, DWORD PTR __Al_$[ebp]
	call	?allocate@?$allocator@U_Container_proxy@std@@@std@@QAEPAU_Container_proxy@2@I@Z ; std::allocator<std::_Container_proxy>::allocate
	push	eax
	call	??$_Unfancy@U_Container_proxy@std@@@std@@YAPAU_Container_proxy@0@PAU10@@Z ; std::_Unfancy<std::_Container_proxy>
	add	esp, 4
	mov	edx, DWORD PTR _this$[ebp]
	mov	DWORD PTR [edx], eax

; 1323 :         _Construct_in_place(*_Ptr, _STD addressof(_Mycont));

	mov	eax, DWORD PTR __Mycont$[ebp]
	push	eax
	call	??$addressof@U_Container_base12@std@@@std@@YAPAU_Container_base12@0@AAU10@@Z ; std::addressof<std::_Container_base12>
	add	esp, 4
	mov	DWORD PTR $T1[ebp], eax
	lea	ecx, DWORD PTR $T1[ebp]
	push	ecx
	mov	edx, DWORD PTR _this$[ebp]
	mov	eax, DWORD PTR [edx]
	push	eax
	call	??$_Construct_in_place@U_Container_proxy@std@@PAU_Container_base12@2@@std@@YAXAAU_Container_proxy@0@$$QAPAU_Container_base12@0@@Z ; std::_Construct_in_place<std::_Container_proxy,std::_Container_base12 *>
	add	esp, 8

; 1324 :         _Mycont._Myproxy = _Ptr;

	mov	ecx, DWORD PTR __Mycont$[ebp]
	mov	edx, DWORD PTR _this$[ebp]
	mov	eax, DWORD PTR [edx]
	mov	DWORD PTR [ecx], eax

; 1325 :     }

	mov	eax, DWORD PTR _this$[ebp]
	add	esp, 8
	cmp	ebp, esp
	call	__RTC_CheckEsp
	mov	esp, ebp
	pop	ebp
	ret	8
??0?$_Container_proxy_ptr12@V?$allocator@U_Container_proxy@std@@@std@@@std@@QAE@AAV?$allocator@U_Container_proxy@std@@@1@AAU_Container_base12@1@@Z ENDP ; std::_Container_proxy_ptr12<std::allocator<std::_Container_proxy> >::_Container_proxy_ptr12<std::allocator<std::_Container_proxy> >
_TEXT	ENDS
; Function compile flags: /Odtp /RTCsu
; File C:\Program Files\Microsoft Visual Studio\2022\Community\VC\Tools\MSVC\14.32.31326\include\utility
;	COMDAT ??$min@I@std@@YAABIABI0@Z
_TEXT	SEGMENT
tv65 = -8						; size = 4
$T1 = -4						; size = 4
__Left$ = 8						; size = 4
__Right$ = 12						; size = 4
??$min@I@std@@YAABIABI0@Z PROC				; std::min<unsigned int>, COMDAT

; 64   :     (min) (const _Ty& _Left, const _Ty& _Right) noexcept(noexcept(_Right < _Left)) /* strengthened */ {

	push	ebp
	mov	ebp, esp
	sub	esp, 8

; 65   :     // return smaller of _Left and _Right
; 66   :     return _Right < _Left ? _Right : _Left;

	mov	eax, DWORD PTR __Right$[ebp]
	mov	ecx, DWORD PTR __Left$[ebp]
	mov	edx, DWORD PTR [eax]
	cmp	edx, DWORD PTR [ecx]
	jae	SHORT $LN3@min
	mov	eax, DWORD PTR __Right$[ebp]
	mov	DWORD PTR tv65[ebp], eax
	jmp	SHORT $LN4@min
$LN3@min:
	mov	ecx, DWORD PTR __Left$[ebp]
	mov	DWORD PTR tv65[ebp], ecx
$LN4@min:
	mov	edx, DWORD PTR tv65[ebp]
	mov	DWORD PTR $T1[ebp], edx
	mov	eax, DWORD PTR $T1[ebp]

; 67   : }

	mov	esp, ebp
	pop	ebp
	ret	0
??$min@I@std@@YAABIABI0@Z ENDP				; std::min<unsigned int>
_TEXT	ENDS
; Function compile flags: /Odtp /RTCsu
; File C:\Program Files\Microsoft Visual Studio\2022\Community\VC\Tools\MSVC\14.32.31326\include\xmemory
;	COMDAT ??$_Delete_plain_internal@V?$allocator@U_Container_proxy@std@@@std@@@std@@YAXAAV?$allocator@U_Container_proxy@std@@@0@QAU_Container_proxy@0@@Z
_TEXT	SEGMENT
__Al$ = 8						; size = 4
__Ptr$ = 12						; size = 4
??$_Delete_plain_internal@V?$allocator@U_Container_proxy@std@@@std@@@std@@YAXAAV?$allocator@U_Container_proxy@std@@@0@QAU_Container_proxy@0@@Z PROC ; std::_Delete_plain_internal<std::allocator<std::_Container_proxy> >, COMDAT

; 984  : _CONSTEXPR20 void _Delete_plain_internal(_Alloc& _Al, typename _Alloc::value_type* const _Ptr) noexcept {

	push	ebp
	mov	ebp, esp

; 985  :     // destroy *_Ptr in place, then deallocate _Ptr using _Al; used for internal container types the user didn't name
; 986  :     using _Ty = typename _Alloc::value_type;
; 987  :     _Ptr->~_Ty();
; 988  :     _Deallocate_plain(_Al, _Ptr);

	mov	eax, DWORD PTR __Ptr$[ebp]
	push	eax
	mov	ecx, DWORD PTR __Al$[ebp]
	push	ecx
	call	??$_Deallocate_plain@V?$allocator@U_Container_proxy@std@@@std@@@std@@YAXAAV?$allocator@U_Container_proxy@std@@@0@QAU_Container_proxy@0@@Z ; std::_Deallocate_plain<std::allocator<std::_Container_proxy> >
	add	esp, 8

; 989  : }

	cmp	ebp, esp
	call	__RTC_CheckEsp
	pop	ebp
	ret	0
??$_Delete_plain_internal@V?$allocator@U_Container_proxy@std@@@std@@@std@@YAXAAV?$allocator@U_Container_proxy@std@@@0@QAU_Container_proxy@0@@Z ENDP ; std::_Delete_plain_internal<std::allocator<std::_Container_proxy> >
_TEXT	ENDS
; Function compile flags: /Odtp /RTCsu
; File C:\Program Files\Microsoft Visual Studio\2022\Community\VC\Tools\MSVC\14.32.31326\include\xmemory
;	COMDAT ?allocate@?$allocator@U_Container_proxy@std@@@std@@QAEPAU_Container_proxy@2@I@Z
_TEXT	SEGMENT
_this$ = -4						; size = 4
__Count$ = 8						; size = 4
?allocate@?$allocator@U_Container_proxy@std@@@std@@QAEPAU_Container_proxy@2@I@Z PROC ; std::allocator<std::_Container_proxy>::allocate, COMDAT
; _this$ = ecx

; 833  :     _NODISCARD _CONSTEXPR20 __declspec(allocator) _Ty* allocate(_CRT_GUARDOVERFLOW const size_t _Count) {

	push	ebp
	mov	ebp, esp
	push	ecx
	mov	DWORD PTR [ebp-4], -858993460		; ccccccccH
	mov	DWORD PTR _this$[ebp], ecx

; 834  :         return static_cast<_Ty*>(_Allocate<_New_alignof<_Ty>>(_Get_size_of_n<sizeof(_Ty)>(_Count)));

	mov	eax, DWORD PTR __Count$[ebp]
	push	eax
	call	??$_Get_size_of_n@$07@std@@YAII@Z	; std::_Get_size_of_n<8>
	add	esp, 4
	push	eax
	call	??$_Allocate@$07U_Default_allocate_traits@std@@$0A@@std@@YAPAXI@Z ; std::_Allocate<8,std::_Default_allocate_traits,0>
	add	esp, 4

; 835  :     }

	add	esp, 4
	cmp	ebp, esp
	call	__RTC_CheckEsp
	mov	esp, ebp
	pop	ebp
	ret	4
?allocate@?$allocator@U_Container_proxy@std@@@std@@QAEPAU_Container_proxy@2@I@Z ENDP ; std::allocator<std::_Container_proxy>::allocate
_TEXT	ENDS
; Function compile flags: /Odtp /RTCsu
; File C:\Users\lsy01\OneDrive\바탕 화면\3-2_Study\인공지능\Source\VS2010\Common\2d\WallIntersectionTests.h
;	COMDAT ??$FindClosestPointOfIntersectionWithWalls@V?$vector@PAVWall2D@@V?$allocator@PAVWall2D@@@std@@@std@@@@YA_NUVector2D@@0AANAAU0@ABV?$vector@PAVWall2D@@V?$allocator@PAVWall2D@@@std@@@std@@@Z
_TEXT	SEGMENT
tv135 = -128						; size = 4
$T2 = -122						; size = 1
$T3 = -121						; size = 1
$T4 = -120						; size = 16
$T5 = -104						; size = 16
$T6 = -88						; size = 12
$T7 = -73						; size = 1
_point$8 = -68						; size = 16
_dist$9 = -44						; size = 8
_curWall$ = -28						; size = 12
__$EHRec$ = -12						; size = 12
_A$ = 8							; size = 16
_B$ = 24						; size = 16
_distance$ = 40						; size = 4
_ip$ = 44						; size = 4
_walls$ = 48						; size = 4
??$FindClosestPointOfIntersectionWithWalls@V?$vector@PAVWall2D@@V?$allocator@PAVWall2D@@@std@@@std@@@@YA_NUVector2D@@0AANAAU0@ABV?$vector@PAVWall2D@@V?$allocator@PAVWall2D@@@std@@@std@@@Z PROC ; FindClosestPointOfIntersectionWithWalls<std::vector<Wall2D *,std::allocator<Wall2D *> > >, COMDAT

; 94   : {

	push	ebp
	mov	ebp, esp
	push	-1
	push	__ehhandler$??$FindClosestPointOfIntersectionWithWalls@V?$vector@PAVWall2D@@V?$allocator@PAVWall2D@@@std@@@std@@@@YA_NUVector2D@@0AANAAU0@ABV?$vector@PAVWall2D@@V?$allocator@PAVWall2D@@@std@@@std@@@Z
	mov	eax, DWORD PTR fs:0
	push	eax
	sub	esp, 116				; 00000074H
	push	edi
	lea	edi, DWORD PTR [ebp-128]
	mov	ecx, 29					; 0000001dH
	mov	eax, -858993460				; ccccccccH
	rep stosd
	mov	eax, DWORD PTR ___security_cookie
	xor	eax, ebp
	push	eax
	lea	eax, DWORD PTR __$EHRec$[ebp]
	mov	DWORD PTR fs:0, eax

; 95   :   distance = MaxDouble;

	mov	eax, DWORD PTR _distance$[ebp]
	movsd	xmm0, QWORD PTR __real@7fefffffffffffff
	movsd	QWORD PTR [eax], xmm0

; 96   : 
; 97   :   ContWall::const_iterator curWall = walls.begin();

	lea	ecx, DWORD PTR _curWall$[ebp]
	push	ecx
	mov	ecx, DWORD PTR _walls$[ebp]
	call	?begin@?$vector@PAVWall2D@@V?$allocator@PAVWall2D@@@std@@@std@@QBE?AV?$_Vector_const_iterator@V?$_Vector_val@U?$_Simple_types@PAVWall2D@@@std@@@std@@@2@XZ ; std::vector<Wall2D *,std::allocator<Wall2D *> >::begin
	mov	DWORD PTR __$EHRec$[ebp+8], 0
	jmp	SHORT $LN4@FindCloses
$LN2@FindCloses:

; 98   :   for (curWall; curWall != walls.end(); ++curWall)

	lea	ecx, DWORD PTR _curWall$[ebp]
	call	??E?$_Vector_const_iterator@V?$_Vector_val@U?$_Simple_types@PAVWall2D@@@std@@@std@@@std@@QAEAAV01@XZ ; std::_Vector_const_iterator<std::_Vector_val<std::_Simple_types<Wall2D *> > >::operator++
$LN4@FindCloses:
	lea	edx, DWORD PTR $T6[ebp]
	push	edx
	mov	ecx, DWORD PTR _walls$[ebp]
	call	?end@?$vector@PAVWall2D@@V?$allocator@PAVWall2D@@@std@@@std@@QBE?AV?$_Vector_const_iterator@V?$_Vector_val@U?$_Simple_types@PAVWall2D@@@std@@@std@@@2@XZ ; std::vector<Wall2D *,std::allocator<Wall2D *> >::end
	mov	DWORD PTR tv135[ebp], eax
	mov	eax, DWORD PTR tv135[ebp]
	push	eax
	lea	ecx, DWORD PTR _curWall$[ebp]
	call	??9?$_Vector_const_iterator@V?$_Vector_val@U?$_Simple_types@PAVWall2D@@@std@@@std@@@std@@QBE_NABV01@@Z ; std::_Vector_const_iterator<std::_Vector_val<std::_Simple_types<Wall2D *> > >::operator!=
	mov	BYTE PTR $T7[ebp], al
	lea	ecx, DWORD PTR $T6[ebp]
	call	??1?$_Vector_const_iterator@V?$_Vector_val@U?$_Simple_types@PAVWall2D@@@std@@@std@@@std@@QAE@XZ
	movzx	ecx, BYTE PTR $T7[ebp]
	test	ecx, ecx
	je	$LN3@FindCloses

; 99   :   {
; 100  :     double dist = 0.0;

	xorps	xmm0, xmm0
	movsd	QWORD PTR _dist$9[ebp], xmm0

; 101  :     Vector2D point;

	lea	ecx, DWORD PTR _point$8[ebp]
	call	??0Vector2D@@QAE@XZ			; Vector2D::Vector2D

; 102  : 
; 103  :     if (LineIntersection2D(A, B, (*curWall)->From(), (*curWall)->To(), dist, point))

	lea	edx, DWORD PTR _point$8[ebp]
	push	edx
	lea	eax, DWORD PTR _dist$9[ebp]
	push	eax
	lea	ecx, DWORD PTR $T5[ebp]
	push	ecx
	lea	ecx, DWORD PTR _curWall$[ebp]
	call	??D?$_Vector_const_iterator@V?$_Vector_val@U?$_Simple_types@PAVWall2D@@@std@@@std@@@std@@QBEABQAVWall2D@@XZ ; std::_Vector_const_iterator<std::_Vector_val<std::_Simple_types<Wall2D *> > >::operator*
	mov	ecx, DWORD PTR [eax]
	call	?To@Wall2D@@QBE?AUVector2D@@XZ		; Wall2D::To
	sub	esp, 16					; 00000010H
	mov	edx, esp
	mov	ecx, DWORD PTR [eax]
	mov	DWORD PTR [edx], ecx
	mov	ecx, DWORD PTR [eax+4]
	mov	DWORD PTR [edx+4], ecx
	mov	ecx, DWORD PTR [eax+8]
	mov	DWORD PTR [edx+8], ecx
	mov	eax, DWORD PTR [eax+12]
	mov	DWORD PTR [edx+12], eax
	lea	ecx, DWORD PTR $T4[ebp]
	push	ecx
	lea	ecx, DWORD PTR _curWall$[ebp]
	call	??D?$_Vector_const_iterator@V?$_Vector_val@U?$_Simple_types@PAVWall2D@@@std@@@std@@@std@@QBEABQAVWall2D@@XZ ; std::_Vector_const_iterator<std::_Vector_val<std::_Simple_types<Wall2D *> > >::operator*
	mov	ecx, DWORD PTR [eax]
	call	?From@Wall2D@@QBE?AUVector2D@@XZ	; Wall2D::From
	sub	esp, 16					; 00000010H
	mov	edx, esp
	mov	ecx, DWORD PTR [eax]
	mov	DWORD PTR [edx], ecx
	mov	ecx, DWORD PTR [eax+4]
	mov	DWORD PTR [edx+4], ecx
	mov	ecx, DWORD PTR [eax+8]
	mov	DWORD PTR [edx+8], ecx
	mov	eax, DWORD PTR [eax+12]
	mov	DWORD PTR [edx+12], eax
	sub	esp, 16					; 00000010H
	mov	ecx, esp
	mov	edx, DWORD PTR _B$[ebp]
	mov	DWORD PTR [ecx], edx
	mov	eax, DWORD PTR _B$[ebp+4]
	mov	DWORD PTR [ecx+4], eax
	mov	edx, DWORD PTR _B$[ebp+8]
	mov	DWORD PTR [ecx+8], edx
	mov	eax, DWORD PTR _B$[ebp+12]
	mov	DWORD PTR [ecx+12], eax
	sub	esp, 16					; 00000010H
	mov	ecx, esp
	mov	edx, DWORD PTR _A$[ebp]
	mov	DWORD PTR [ecx], edx
	mov	eax, DWORD PTR _A$[ebp+4]
	mov	DWORD PTR [ecx+4], eax
	mov	edx, DWORD PTR _A$[ebp+8]
	mov	DWORD PTR [ecx+8], edx
	mov	eax, DWORD PTR _A$[ebp+12]
	mov	DWORD PTR [ecx+12], eax
	call	?LineIntersection2D@@YA_NUVector2D@@000AANAAU1@@Z ; LineIntersection2D
	add	esp, 72					; 00000048H
	movzx	ecx, al
	test	ecx, ecx
	je	SHORT $LN6@FindCloses

; 104  :     {
; 105  :       if (dist < distance)

	mov	edx, DWORD PTR _distance$[ebp]
	movsd	xmm0, QWORD PTR [edx]
	comisd	xmm0, QWORD PTR _dist$9[ebp]
	jbe	SHORT $LN6@FindCloses

; 106  :       {
; 107  :         distance = dist;

	mov	eax, DWORD PTR _distance$[ebp]
	movsd	xmm0, QWORD PTR _dist$9[ebp]
	movsd	QWORD PTR [eax], xmm0

; 108  :         ip = point;

	mov	ecx, DWORD PTR _ip$[ebp]
	mov	edx, DWORD PTR _point$8[ebp]
	mov	DWORD PTR [ecx], edx
	mov	eax, DWORD PTR _point$8[ebp+4]
	mov	DWORD PTR [ecx+4], eax
	mov	edx, DWORD PTR _point$8[ebp+8]
	mov	DWORD PTR [ecx+8], edx
	mov	eax, DWORD PTR _point$8[ebp+12]
	mov	DWORD PTR [ecx+12], eax
$LN6@FindCloses:

; 109  :       }
; 110  :     }
; 111  :   }

	jmp	$LN2@FindCloses
$LN3@FindCloses:

; 112  : 
; 113  :   if (distance < MaxDouble) return true;

	mov	ecx, DWORD PTR _distance$[ebp]
	movsd	xmm0, QWORD PTR __real@7fefffffffffffff
	comisd	xmm0, QWORD PTR [ecx]
	jbe	SHORT $LN7@FindCloses
	mov	BYTE PTR $T3[ebp], 1
	mov	DWORD PTR __$EHRec$[ebp+8], -1
	lea	ecx, DWORD PTR _curWall$[ebp]
	call	??1?$_Vector_const_iterator@V?$_Vector_val@U?$_Simple_types@PAVWall2D@@@std@@@std@@@std@@QAE@XZ
	mov	al, BYTE PTR $T3[ebp]
	jmp	SHORT $LN1@FindCloses
$LN7@FindCloses:

; 114  : 
; 115  :   return false;

	mov	BYTE PTR $T2[ebp], 0
	mov	DWORD PTR __$EHRec$[ebp+8], -1
	lea	ecx, DWORD PTR _curWall$[ebp]
	call	??1?$_Vector_const_iterator@V?$_Vector_val@U?$_Simple_types@PAVWall2D@@@std@@@std@@@std@@QAE@XZ
	mov	al, BYTE PTR $T2[ebp]
$LN1@FindCloses:

; 116  : }

	push	edx
	mov	ecx, ebp
	push	eax
	lea	edx, DWORD PTR $LN16@FindCloses
	call	@_RTC_CheckStackVars@8
	pop	eax
	pop	edx
	mov	ecx, DWORD PTR __$EHRec$[ebp]
	mov	DWORD PTR fs:0, ecx
	pop	ecx
	pop	edi
	add	esp, 128				; 00000080H
	cmp	ebp, esp
	call	__RTC_CheckEsp
	mov	esp, ebp
	pop	ebp
	ret	0
$LN16@FindCloses:
	DD	3
	DD	$LN15@FindCloses
$LN15@FindCloses:
	DD	-28					; ffffffe4H
	DD	12					; 0000000cH
	DD	$LN11@FindCloses
	DD	-44					; ffffffd4H
	DD	8
	DD	$LN12@FindCloses
	DD	-68					; ffffffbcH
	DD	16					; 00000010H
	DD	$LN13@FindCloses
$LN13@FindCloses:
	DB	112					; 00000070H
	DB	111					; 0000006fH
	DB	105					; 00000069H
	DB	110					; 0000006eH
	DB	116					; 00000074H
	DB	0
$LN12@FindCloses:
	DB	100					; 00000064H
	DB	105					; 00000069H
	DB	115					; 00000073H
	DB	116					; 00000074H
	DB	0
$LN11@FindCloses:
	DB	99					; 00000063H
	DB	117					; 00000075H
	DB	114					; 00000072H
	DB	87					; 00000057H
	DB	97					; 00000061H
	DB	108					; 0000006cH
	DB	108					; 0000006cH
	DB	0
_TEXT	ENDS
;	COMDAT text$x
text$x	SEGMENT
__unwindfunclet$??$FindClosestPointOfIntersectionWithWalls@V?$vector@PAVWall2D@@V?$allocator@PAVWall2D@@@std@@@std@@@@YA_NUVector2D@@0AANAAU0@ABV?$vector@PAVWall2D@@V?$allocator@PAVWall2D@@@std@@@std@@@Z$0:
	lea	ecx, DWORD PTR _curWall$[ebp]
	jmp	??1?$_Vector_const_iterator@V?$_Vector_val@U?$_Simple_types@PAVWall2D@@@std@@@std@@@std@@QAE@XZ
	int	3
	int	3
	int	3
	int	3
	int	3
__ehhandler$??$FindClosestPointOfIntersectionWithWalls@V?$vector@PAVWall2D@@V?$allocator@PAVWall2D@@@std@@@std@@@@YA_NUVector2D@@0AANAAU0@ABV?$vector@PAVWall2D@@V?$allocator@PAVWall2D@@@std@@@std@@@Z:
	npad	1
	npad	1
	mov	edx, DWORD PTR [esp+8]
	lea	eax, DWORD PTR [edx+12]
	mov	ecx, DWORD PTR [edx-124]
	xor	ecx, eax
	call	@__security_check_cookie@4
	mov	eax, OFFSET __ehfuncinfo$??$FindClosestPointOfIntersectionWithWalls@V?$vector@PAVWall2D@@V?$allocator@PAVWall2D@@@std@@@std@@@@YA_NUVector2D@@0AANAAU0@ABV?$vector@PAVWall2D@@V?$allocator@PAVWall2D@@@std@@@std@@@Z
	jmp	___CxxFrameHandler3
text$x	ENDS
??$FindClosestPointOfIntersectionWithWalls@V?$vector@PAVWall2D@@V?$allocator@PAVWall2D@@@std@@@std@@@@YA_NUVector2D@@0AANAAU0@ABV?$vector@PAVWall2D@@V?$allocator@PAVWall2D@@@std@@@std@@@Z ENDP ; FindClosestPointOfIntersectionWithWalls<std::vector<Wall2D *,std::allocator<Wall2D *> > >
; Function compile flags: /Odtp /RTCsu
; File C:\Users\lsy01\OneDrive\바탕 화면\3-2_Study\인공지능\Source\VS2010\Buckland_Chapter7 to 10_Raven\Raven_Map.h
;	COMDAT ?GetWalls@Raven_Map@@QBEABV?$vector@PAVWall2D@@V?$allocator@PAVWall2D@@@std@@@std@@XZ
_TEXT	SEGMENT
_this$ = -4						; size = 4
?GetWalls@Raven_Map@@QBEABV?$vector@PAVWall2D@@V?$allocator@PAVWall2D@@@std@@@std@@XZ PROC ; Raven_Map::GetWalls, COMDAT
; _this$ = ecx

; 115  :   const std::vector<Wall2D*>&        GetWalls()const{return m_Walls;}

	push	ebp
	mov	ebp, esp
	push	ecx
	mov	DWORD PTR _this$[ebp], ecx
	mov	eax, DWORD PTR _this$[ebp]
	mov	esp, ebp
	pop	ebp
	ret	0
?GetWalls@Raven_Map@@QBEABV?$vector@PAVWall2D@@V?$allocator@PAVWall2D@@@std@@@std@@XZ ENDP ; Raven_Map::GetWalls
_TEXT	ENDS
; Function compile flags: /Odtp /RTCsu
; File C:\Program Files\Microsoft Visual Studio\2022\Community\VC\Tools\MSVC\14.32.31326\include\vector
;	COMDAT ?end@?$vector@PAVWall2D@@V?$allocator@PAVWall2D@@@std@@@std@@QBE?AV?$_Vector_const_iterator@V?$_Vector_val@U?$_Simple_types@PAVWall2D@@@std@@@std@@@2@XZ
_TEXT	SEGMENT
__My_data$ = -8						; size = 4
_this$ = -4						; size = 4
___$ReturnUdt$ = 8					; size = 4
?end@?$vector@PAVWall2D@@V?$allocator@PAVWall2D@@@std@@@std@@QBE?AV?$_Vector_const_iterator@V?$_Vector_val@U?$_Simple_types@PAVWall2D@@@std@@@std@@@2@XZ PROC ; std::vector<Wall2D *,std::allocator<Wall2D *> >::end, COMDAT
; _this$ = ecx

; 1655 :     _NODISCARD _CONSTEXPR20 const_iterator end() const noexcept {

	push	ebp
	mov	ebp, esp
	sub	esp, 8
	mov	DWORD PTR [ebp-8], -858993460		; ccccccccH
	mov	DWORD PTR [ebp-4], -858993460		; ccccccccH
	mov	DWORD PTR _this$[ebp], ecx

; 1656 :         auto& _My_data = _Mypair._Myval2;

	mov	eax, DWORD PTR _this$[ebp]
	mov	DWORD PTR __My_data$[ebp], eax

; 1657 :         return const_iterator(_My_data._Mylast, _STD addressof(_My_data));

	mov	ecx, DWORD PTR __My_data$[ebp]
	push	ecx
	call	??$addressof@$$CBV?$_Vector_val@U?$_Simple_types@PAVWall2D@@@std@@@std@@@std@@YAPBV?$_Vector_val@U?$_Simple_types@PAVWall2D@@@std@@@0@ABV10@@Z ; std::addressof<std::_Vector_val<std::_Simple_types<Wall2D *> > const >
	add	esp, 4
	push	eax
	mov	edx, DWORD PTR __My_data$[ebp]
	mov	eax, DWORD PTR [edx+8]
	push	eax
	mov	ecx, DWORD PTR ___$ReturnUdt$[ebp]
	call	??0?$_Vector_const_iterator@V?$_Vector_val@U?$_Simple_types@PAVWall2D@@@std@@@std@@@std@@QAE@PAPAVWall2D@@PBU_Container_base12@1@@Z ; std::_Vector_const_iterator<std::_Vector_val<std::_Simple_types<Wall2D *> > >::_Vector_const_iterator<std::_Vector_val<std::_Simple_types<Wall2D *> > >
	mov	eax, DWORD PTR ___$ReturnUdt$[ebp]

; 1658 :     }

	add	esp, 8
	cmp	ebp, esp
	call	__RTC_CheckEsp
	mov	esp, ebp
	pop	ebp
	ret	4
?end@?$vector@PAVWall2D@@V?$allocator@PAVWall2D@@@std@@@std@@QBE?AV?$_Vector_const_iterator@V?$_Vector_val@U?$_Simple_types@PAVWall2D@@@std@@@std@@@2@XZ ENDP ; std::vector<Wall2D *,std::allocator<Wall2D *> >::end
_TEXT	ENDS
; Function compile flags: /Odtp /RTCsu
; File C:\Program Files\Microsoft Visual Studio\2022\Community\VC\Tools\MSVC\14.32.31326\include\vector
;	COMDAT ?begin@?$vector@PAVWall2D@@V?$allocator@PAVWall2D@@@std@@@std@@QBE?AV?$_Vector_const_iterator@V?$_Vector_val@U?$_Simple_types@PAVWall2D@@@std@@@std@@@2@XZ
_TEXT	SEGMENT
__My_data$ = -8						; size = 4
_this$ = -4						; size = 4
___$ReturnUdt$ = 8					; size = 4
?begin@?$vector@PAVWall2D@@V?$allocator@PAVWall2D@@@std@@@std@@QBE?AV?$_Vector_const_iterator@V?$_Vector_val@U?$_Simple_types@PAVWall2D@@@std@@@std@@@2@XZ PROC ; std::vector<Wall2D *,std::allocator<Wall2D *> >::begin, COMDAT
; _this$ = ecx

; 1645 :     _NODISCARD _CONSTEXPR20 const_iterator begin() const noexcept {

	push	ebp
	mov	ebp, esp
	sub	esp, 8
	mov	DWORD PTR [ebp-8], -858993460		; ccccccccH
	mov	DWORD PTR [ebp-4], -858993460		; ccccccccH
	mov	DWORD PTR _this$[ebp], ecx

; 1646 :         auto& _My_data = _Mypair._Myval2;

	mov	eax, DWORD PTR _this$[ebp]
	mov	DWORD PTR __My_data$[ebp], eax

; 1647 :         return const_iterator(_My_data._Myfirst, _STD addressof(_My_data));

	mov	ecx, DWORD PTR __My_data$[ebp]
	push	ecx
	call	??$addressof@$$CBV?$_Vector_val@U?$_Simple_types@PAVWall2D@@@std@@@std@@@std@@YAPBV?$_Vector_val@U?$_Simple_types@PAVWall2D@@@std@@@0@ABV10@@Z ; std::addressof<std::_Vector_val<std::_Simple_types<Wall2D *> > const >
	add	esp, 4
	push	eax
	mov	edx, DWORD PTR __My_data$[ebp]
	mov	eax, DWORD PTR [edx+4]
	push	eax
	mov	ecx, DWORD PTR ___$ReturnUdt$[ebp]
	call	??0?$_Vector_const_iterator@V?$_Vector_val@U?$_Simple_types@PAVWall2D@@@std@@@std@@@std@@QAE@PAPAVWall2D@@PBU_Container_base12@1@@Z ; std::_Vector_const_iterator<std::_Vector_val<std::_Simple_types<Wall2D *> > >::_Vector_const_iterator<std::_Vector_val<std::_Simple_types<Wall2D *> > >
	mov	eax, DWORD PTR ___$ReturnUdt$[ebp]

; 1648 :     }

	add	esp, 8
	cmp	ebp, esp
	call	__RTC_CheckEsp
	mov	esp, ebp
	pop	ebp
	ret	4
?begin@?$vector@PAVWall2D@@V?$allocator@PAVWall2D@@@std@@@std@@QBE?AV?$_Vector_const_iterator@V?$_Vector_val@U?$_Simple_types@PAVWall2D@@@std@@@std@@@2@XZ ENDP ; std::vector<Wall2D *,std::allocator<Wall2D *> >::begin
_TEXT	ENDS
; Function compile flags: /Odtp /RTCsu
; File C:\Users\lsy01\OneDrive\바탕 화면\3-2_Study\인공지능\Source\VS2010\Buckland_Chapter7 to 10_Raven\Raven_Game.h
;	COMDAT ?GetMap@Raven_Game@@QAEQAVRaven_Map@@XZ
_TEXT	SEGMENT
_this$ = -4						; size = 4
?GetMap@Raven_Game@@QAEQAVRaven_Map@@XZ PROC		; Raven_Game::GetMap, COMDAT
; _this$ = ecx

; 158  :   Raven_Map* const                         GetMap(){return m_pMap;}

	push	ebp
	mov	ebp, esp
	push	ecx
	mov	DWORD PTR _this$[ebp], ecx
	mov	eax, DWORD PTR _this$[ebp]
	mov	eax, DWORD PTR [eax]
	mov	esp, ebp
	pop	ebp
	ret	0
?GetMap@Raven_Game@@QAEQAVRaven_Map@@XZ ENDP		; Raven_Game::GetMap
_TEXT	ENDS
; Function compile flags: /Odtp /RTCsu
; File C:\Users\lsy01\OneDrive\바탕 화면\3-2_Study\인공지능\Source\VS2010\Common\2d\Wall2D.h
;	COMDAT ?To@Wall2D@@QBE?AUVector2D@@XZ
_TEXT	SEGMENT
_this$ = -4						; size = 4
___$ReturnUdt$ = 8					; size = 4
?To@Wall2D@@QBE?AUVector2D@@XZ PROC			; Wall2D::To, COMDAT
; _this$ = ecx

; 66   :   Vector2D To()const    {return m_vB;}

	push	ebp
	mov	ebp, esp
	push	ecx
	mov	DWORD PTR _this$[ebp], ecx
	mov	eax, DWORD PTR _this$[ebp]
	add	eax, 24					; 00000018H
	mov	ecx, DWORD PTR ___$ReturnUdt$[ebp]
	mov	edx, DWORD PTR [eax]
	mov	DWORD PTR [ecx], edx
	mov	edx, DWORD PTR [eax+4]
	mov	DWORD PTR [ecx+4], edx
	mov	edx, DWORD PTR [eax+8]
	mov	DWORD PTR [ecx+8], edx
	mov	eax, DWORD PTR [eax+12]
	mov	DWORD PTR [ecx+12], eax
	mov	eax, DWORD PTR ___$ReturnUdt$[ebp]
	mov	esp, ebp
	pop	ebp
	ret	4
?To@Wall2D@@QBE?AUVector2D@@XZ ENDP			; Wall2D::To
_TEXT	ENDS
; Function compile flags: /Odtp /RTCsu
; File C:\Users\lsy01\OneDrive\바탕 화면\3-2_Study\인공지능\Source\VS2010\Common\2d\Wall2D.h
;	COMDAT ?From@Wall2D@@QBE?AUVector2D@@XZ
_TEXT	SEGMENT
_this$ = -4						; size = 4
___$ReturnUdt$ = 8					; size = 4
?From@Wall2D@@QBE?AUVector2D@@XZ PROC			; Wall2D::From, COMDAT
; _this$ = ecx

; 63   :   Vector2D From()const  {return m_vA;}

	push	ebp
	mov	ebp, esp
	push	ecx
	mov	DWORD PTR _this$[ebp], ecx
	mov	eax, DWORD PTR _this$[ebp]
	add	eax, 8
	mov	ecx, DWORD PTR ___$ReturnUdt$[ebp]
	mov	edx, DWORD PTR [eax]
	mov	DWORD PTR [ecx], edx
	mov	edx, DWORD PTR [eax+4]
	mov	DWORD PTR [ecx+4], edx
	mov	edx, DWORD PTR [eax+8]
	mov	DWORD PTR [ecx+8], edx
	mov	eax, DWORD PTR [eax+12]
	mov	DWORD PTR [ecx+12], eax
	mov	eax, DWORD PTR ___$ReturnUdt$[ebp]
	mov	esp, ebp
	pop	ebp
	ret	4
?From@Wall2D@@QBE?AUVector2D@@XZ ENDP			; Wall2D::From
_TEXT	ENDS
; Function compile flags: /Odtp /RTCsu
; File C:\Users\lsy01\OneDrive\바탕 화면\3-2_Study\인공지능\Source\VS2010\Buckland_Chapter7 to 10_Raven\Raven_Bot.h
;	COMDAT ?GetWorld@Raven_Bot@@QAEQAVRaven_Game@@XZ
_TEXT	SEGMENT
_this$ = -4						; size = 4
?GetWorld@Raven_Bot@@QAEQAVRaven_Game@@XZ PROC		; Raven_Bot::GetWorld, COMDAT
; _this$ = ecx

; 203  :   Raven_Game* const                  GetWorld(){return m_pWorld;} 

	push	ebp
	mov	ebp, esp
	push	ecx
	mov	DWORD PTR _this$[ebp], ecx
	mov	eax, DWORD PTR _this$[ebp]
	mov	eax, DWORD PTR [eax+148]
	mov	esp, ebp
	pop	ebp
	ret	0
?GetWorld@Raven_Bot@@QAEQAVRaven_Game@@XZ ENDP		; Raven_Bot::GetWorld
_TEXT	ENDS
; Function compile flags: /Odtp /RTCsu
; File C:\Users\lsy01\OneDrive\바탕 화면\3-2_Study\인공지능\Source\VS2010\Buckland_Chapter7 to 10_Raven\Raven_Bot.h
;	COMDAT ?Facing@Raven_Bot@@QBE?AUVector2D@@XZ
_TEXT	SEGMENT
_this$ = -4						; size = 4
___$ReturnUdt$ = 8					; size = 4
?Facing@Raven_Bot@@QBE?AUVector2D@@XZ PROC		; Raven_Bot::Facing, COMDAT
; _this$ = ecx

; 152  :   Vector2D      Facing()const{return m_vFacing;}

	push	ebp
	mov	ebp, esp
	push	ecx
	mov	DWORD PTR _this$[ebp], ecx
	mov	eax, DWORD PTR _this$[ebp]
	add	eax, 208				; 000000d0H
	mov	ecx, DWORD PTR ___$ReturnUdt$[ebp]
	mov	edx, DWORD PTR [eax]
	mov	DWORD PTR [ecx], edx
	mov	edx, DWORD PTR [eax+4]
	mov	DWORD PTR [ecx+4], edx
	mov	edx, DWORD PTR [eax+8]
	mov	DWORD PTR [ecx+8], edx
	mov	eax, DWORD PTR [eax+12]
	mov	DWORD PTR [ecx+12], eax
	mov	eax, DWORD PTR ___$ReturnUdt$[ebp]
	mov	esp, ebp
	pop	ebp
	ret	4
?Facing@Raven_Bot@@QBE?AUVector2D@@XZ ENDP		; Raven_Bot::Facing
_TEXT	ENDS
; Function compile flags: /Odtp /RTCsu
; File C:\Users\lsy01\OneDrive\바탕 화면\3-2_Study\인공지능\Source\VS2010\Common\misc\cgdi.h
;	COMDAT ?Circle@Cgdi@@QAEXUVector2D@@N@Z
_TEXT	SEGMENT
_this$ = -4						; size = 4
_pos$ = 8						; size = 16
_radius$ = 24						; size = 8
?Circle@Cgdi@@QAEXUVector2D@@N@Z PROC			; Cgdi::Circle, COMDAT
; _this$ = ecx

; 338  :   {

	push	ebp
	mov	ebp, esp
	push	ecx
	push	esi
	mov	DWORD PTR [ebp-4], -858993460		; ccccccccH
	mov	DWORD PTR _this$[ebp], ecx

; 339  :     Ellipse(m_hdc,

	movsd	xmm0, QWORD PTR _pos$[ebp+8]
	addsd	xmm0, QWORD PTR _radius$[ebp]
	addsd	xmm0, QWORD PTR __real@3ff0000000000000
	cvttsd2si eax, xmm0
	mov	esi, esp
	push	eax
	movsd	xmm0, QWORD PTR _pos$[ebp]
	addsd	xmm0, QWORD PTR _radius$[ebp]
	addsd	xmm0, QWORD PTR __real@3ff0000000000000
	cvttsd2si ecx, xmm0
	push	ecx
	movsd	xmm0, QWORD PTR _pos$[ebp+8]
	subsd	xmm0, QWORD PTR _radius$[ebp]
	cvttsd2si edx, xmm0
	push	edx
	movsd	xmm0, QWORD PTR _pos$[ebp]
	subsd	xmm0, QWORD PTR _radius$[ebp]
	cvttsd2si eax, xmm0
	push	eax
	mov	ecx, DWORD PTR _this$[ebp]
	mov	edx, DWORD PTR [ecx+124]
	push	edx
	call	DWORD PTR __imp__Ellipse@20
	cmp	esi, esp
	call	__RTC_CheckEsp

; 340  :            (int)(pos.x-radius),
; 341  :            (int)(pos.y-radius),
; 342  :            (int)(pos.x+radius+1),
; 343  :            (int)(pos.y+radius+1));
; 344  :   }

	pop	esi
	add	esp, 4
	cmp	ebp, esp
	call	__RTC_CheckEsp
	mov	esp, ebp
	pop	ebp
	ret	24					; 00000018H
?Circle@Cgdi@@QAEXUVector2D@@N@Z ENDP			; Cgdi::Circle
_TEXT	ENDS
; Function compile flags: /Odtp /RTCsu
; File C:\Users\lsy01\OneDrive\바탕 화면\3-2_Study\인공지능\Source\VS2010\Common\misc\cgdi.h
;	COMDAT ?Line@Cgdi@@QAEXUVector2D@@0@Z
_TEXT	SEGMENT
_this$ = -4						; size = 4
_from$ = 8						; size = 16
_to$ = 24						; size = 16
?Line@Cgdi@@QAEXUVector2D@@0@Z PROC			; Cgdi::Line, COMDAT
; _this$ = ecx

; 244  :   {

	push	ebp
	mov	ebp, esp
	push	ecx
	push	esi
	mov	DWORD PTR [ebp-4], -858993460		; ccccccccH
	mov	DWORD PTR _this$[ebp], ecx

; 245  :     MoveToEx(m_hdc, (int)from.x, (int)from.y, NULL);

	mov	esi, esp
	push	0
	cvttsd2si eax, QWORD PTR _from$[ebp+8]
	push	eax
	cvttsd2si ecx, QWORD PTR _from$[ebp]
	push	ecx
	mov	edx, DWORD PTR _this$[ebp]
	mov	eax, DWORD PTR [edx+124]
	push	eax
	call	DWORD PTR __imp__MoveToEx@16
	cmp	esi, esp
	call	__RTC_CheckEsp

; 246  :     LineTo(m_hdc, (int)to.x, (int)to.y);

	cvttsd2si ecx, QWORD PTR _to$[ebp+8]
	mov	esi, esp
	push	ecx
	cvttsd2si edx, QWORD PTR _to$[ebp]
	push	edx
	mov	eax, DWORD PTR _this$[ebp]
	mov	ecx, DWORD PTR [eax+124]
	push	ecx
	call	DWORD PTR __imp__LineTo@12
	cmp	esi, esp
	call	__RTC_CheckEsp

; 247  :   }

	pop	esi
	add	esp, 4
	cmp	ebp, esp
	call	__RTC_CheckEsp
	mov	esp, ebp
	pop	ebp
	ret	32					; 00000020H
?Line@Cgdi@@QAEXUVector2D@@0@Z ENDP			; Cgdi::Line
_TEXT	ENDS
; Function compile flags: /Odtp /RTCsu
; File C:\Users\lsy01\OneDrive\바탕 화면\3-2_Study\인공지능\Source\VS2010\Common\misc\cgdi.h
;	COMDAT ?BrownBrush@Cgdi@@QAEXXZ
_TEXT	SEGMENT
_this$ = -4						; size = 4
?BrownBrush@Cgdi@@QAEXXZ PROC				; Cgdi::BrownBrush, COMDAT
; _this$ = ecx

; 166  :   void BrownBrush() {if(m_hdc)SelectObject(m_hdc, m_BrownBrush);}

	push	ebp
	mov	ebp, esp
	push	ecx
	push	esi
	mov	DWORD PTR [ebp-4], -858993460		; ccccccccH
	mov	DWORD PTR _this$[ebp], ecx
	mov	eax, DWORD PTR _this$[ebp]
	cmp	DWORD PTR [eax+124], 0
	je	SHORT $LN1@BrownBrush
	mov	esi, esp
	mov	ecx, DWORD PTR _this$[ebp]
	mov	edx, DWORD PTR [ecx+104]
	push	edx
	mov	eax, DWORD PTR _this$[ebp]
	mov	ecx, DWORD PTR [eax+124]
	push	ecx
	call	DWORD PTR __imp__SelectObject@8
	cmp	esi, esp
	call	__RTC_CheckEsp
$LN1@BrownBrush:
	pop	esi
	add	esp, 4
	cmp	ebp, esp
	call	__RTC_CheckEsp
	mov	esp, ebp
	pop	ebp
	ret	0
?BrownBrush@Cgdi@@QAEXXZ ENDP				; Cgdi::BrownBrush
_TEXT	ENDS
; Function compile flags: /Odtp /RTCsu
; File C:\Users\lsy01\OneDrive\바탕 화면\3-2_Study\인공지능\Source\VS2010\Common\misc\cgdi.h
;	COMDAT ?YellowPen@Cgdi@@QAEXXZ
_TEXT	SEGMENT
_this$ = -4						; size = 4
?YellowPen@Cgdi@@QAEXXZ PROC				; Cgdi::YellowPen, COMDAT
; _this$ = ecx

; 143  :   void YellowPen() {if(m_hdc){SelectObject(m_hdc, m_YellowPen);}}

	push	ebp
	mov	ebp, esp
	push	ecx
	push	esi
	mov	DWORD PTR [ebp-4], -858993460		; ccccccccH
	mov	DWORD PTR _this$[ebp], ecx
	mov	eax, DWORD PTR _this$[ebp]
	cmp	DWORD PTR [eax+124], 0
	je	SHORT $LN1@YellowPen
	mov	esi, esp
	mov	ecx, DWORD PTR _this$[ebp]
	mov	edx, DWORD PTR [ecx+36]
	push	edx
	mov	eax, DWORD PTR _this$[ebp]
	mov	ecx, DWORD PTR [eax+124]
	push	ecx
	call	DWORD PTR __imp__SelectObject@8
	cmp	esi, esp
	call	__RTC_CheckEsp
$LN1@YellowPen:
	pop	esi
	add	esp, 4
	cmp	ebp, esp
	call	__RTC_CheckEsp
	mov	esp, ebp
	pop	ebp
	ret	0
?YellowPen@Cgdi@@QAEXXZ ENDP				; Cgdi::YellowPen
_TEXT	ENDS
; Function compile flags: /Odtp /RTCsu
; File C:\Users\lsy01\OneDrive\바탕 화면\3-2_Study\인공지능\Source\VS2010\Common\lua-5.1.3\include\LuaHelperFunctions.h
;	COMDAT ??$PopLuaNumber@N@@YANPAUlua_State@@PBD@Z
_TEXT	SEGMENT
tv94 = -108						; size = 4
tv73 = -104						; size = 4
$T2 = -100						; size = 12
_val$ = -88						; size = 8
$T3 = -80						; size = 28
_err$4 = -48						; size = 28
__$ArrayPad$ = -16					; size = 4
__$EHRec$ = -12						; size = 12
_pL$ = 8						; size = 4
_name$ = 12						; size = 4
??$PopLuaNumber@N@@YANPAUlua_State@@PBD@Z PROC		; PopLuaNumber<double>, COMDAT

; 55   : {

	push	ebp
	mov	ebp, esp
	push	-1
	push	__ehhandler$??$PopLuaNumber@N@@YANPAUlua_State@@PBD@Z
	mov	eax, DWORD PTR fs:0
	push	eax
	sub	esp, 96					; 00000060H
	push	edi
	lea	edi, DWORD PTR [ebp-108]
	mov	ecx, 24					; 00000018H
	mov	eax, -858993460				; ccccccccH
	rep stosd
	mov	eax, DWORD PTR ___security_cookie
	xor	eax, ebp
	mov	DWORD PTR __$ArrayPad$[ebp], eax
	push	eax
	lea	eax, DWORD PTR __$EHRec$[ebp]
	mov	DWORD PTR fs:0, eax

; 56   :   lua_settop(pL, 0);

	push	0
	mov	eax, DWORD PTR _pL$[ebp]
	push	eax
	call	_lua_settop
	add	esp, 8

; 57   : 
; 58   :   lua_getglobal(pL, name);

	mov	ecx, DWORD PTR _name$[ebp]
	push	ecx
	mov	edx, DWORD PTR _pL$[ebp]
	push	edx
	call	_lua_getglobal
	add	esp, 8

; 59   : 
; 60   :   //check that the variable is the correct type. If it is not throw an
; 61   :   //exception
; 62   :   if (!lua_isnumber(pL, 1))

	push	1
	mov	eax, DWORD PTR _pL$[ebp]
	push	eax
	call	_lua_isnumber
	add	esp, 8
	test	eax, eax
	jne	SHORT $LN2@PopLuaNumb

; 63   :   {
; 64   :     std::string err("<PopLuaNumber> Cannot retrieve: ");

	push	OFFSET ??_C@_0CB@NOKEJIID@?$DMPopLuaNumber?$DO?5Cannot?5retrieve?3@
	lea	ecx, DWORD PTR _err$4[ebp]
	call	??0?$basic_string@DU?$char_traits@D@std@@V?$allocator@D@2@@std@@QAE@QBD@Z ; std::basic_string<char,std::char_traits<char>,std::allocator<char> >::basic_string<char,std::char_traits<char>,std::allocator<char> >
	mov	DWORD PTR __$EHRec$[ebp+8], 0

; 65   : 
; 66   :     throw std::runtime_error(err + name);

	mov	ecx, DWORD PTR _name$[ebp]
	push	ecx
	lea	edx, DWORD PTR _err$4[ebp]
	push	edx
	lea	eax, DWORD PTR $T3[ebp]
	push	eax
	call	??$?HDU?$char_traits@D@std@@V?$allocator@D@1@@std@@YA?AV?$basic_string@DU?$char_traits@D@std@@V?$allocator@D@2@@0@ABV10@QBD@Z ; std::operator+<char,std::char_traits<char>,std::allocator<char> >
	add	esp, 12					; 0000000cH
	mov	DWORD PTR tv73[ebp], eax
	mov	ecx, DWORD PTR tv73[ebp]
	mov	DWORD PTR tv94[ebp], ecx
	mov	BYTE PTR __$EHRec$[ebp+8], 1
	mov	edx, DWORD PTR tv94[ebp]
	push	edx
	lea	ecx, DWORD PTR $T2[ebp]
	call	??0runtime_error@std@@QAE@ABV?$basic_string@DU?$char_traits@D@std@@V?$allocator@D@2@@1@@Z ; std::runtime_error::runtime_error
	push	OFFSET __TI2?AVruntime_error@std@@
	lea	eax, DWORD PTR $T2[ebp]
	push	eax
	call	__CxxThrowException@8
	mov	BYTE PTR __$EHRec$[ebp+8], 0
	lea	ecx, DWORD PTR $T3[ebp]
	call	??1?$basic_string@DU?$char_traits@D@std@@V?$allocator@D@2@@std@@QAE@XZ ; std::basic_string<char,std::char_traits<char>,std::allocator<char> >::~basic_string<char,std::char_traits<char>,std::allocator<char> >

; 67   :   }

	mov	DWORD PTR __$EHRec$[ebp+8], -1
	lea	ecx, DWORD PTR _err$4[ebp]
	call	??1?$basic_string@DU?$char_traits@D@std@@V?$allocator@D@2@@std@@QAE@XZ ; std::basic_string<char,std::char_traits<char>,std::allocator<char> >::~basic_string<char,std::char_traits<char>,std::allocator<char> >
$LN2@PopLuaNumb:

; 68   : 
; 69   :   //grab the value, cast to the correct type and return
; 70   :   T val = (T)lua_tonumber(pL, 1);

	push	0
	push	1
	mov	ecx, DWORD PTR _pL$[ebp]
	push	ecx
	call	_lua_tonumberx
	add	esp, 12					; 0000000cH
	fstp	QWORD PTR _val$[ebp]

; 71   : 
; 72   :   //remove the value from the stack
; 73   :   lua_pop(pL, 1);

	push	-2					; fffffffeH
	mov	edx, DWORD PTR _pL$[ebp]
	push	edx
	call	_lua_settop
	add	esp, 8

; 74   : 
; 75   :   return val;

	fld	QWORD PTR _val$[ebp]
$LN1@PopLuaNumb:

; 76   : }

	push	edx
	mov	ecx, ebp
	push	eax
	lea	edx, DWORD PTR $LN9@PopLuaNumb
	call	@_RTC_CheckStackVars@8
	pop	eax
	pop	edx
	mov	ecx, DWORD PTR __$EHRec$[ebp]
	mov	DWORD PTR fs:0, ecx
	pop	ecx
	pop	edi
	mov	ecx, DWORD PTR __$ArrayPad$[ebp]
	xor	ecx, ebp
	call	@__security_check_cookie@4
	add	esp, 108				; 0000006cH
	cmp	ebp, esp
	call	__RTC_CheckEsp
	mov	esp, ebp
	pop	ebp
	ret	0
	npad	1
$LN9@PopLuaNumb:
	DD	1
	DD	$LN8@PopLuaNumb
$LN8@PopLuaNumb:
	DD	-48					; ffffffd0H
	DD	28					; 0000001cH
	DD	$LN6@PopLuaNumb
$LN6@PopLuaNumb:
	DB	101					; 00000065H
	DB	114					; 00000072H
	DB	114					; 00000072H
	DB	0
_TEXT	ENDS
;	COMDAT text$x
text$x	SEGMENT
__unwindfunclet$??$PopLuaNumber@N@@YANPAUlua_State@@PBD@Z$0:
	lea	ecx, DWORD PTR _err$4[ebp]
	jmp	??1?$basic_string@DU?$char_traits@D@std@@V?$allocator@D@2@@std@@QAE@XZ ; std::basic_string<char,std::char_traits<char>,std::allocator<char> >::~basic_string<char,std::char_traits<char>,std::allocator<char> >
__unwindfunclet$??$PopLuaNumber@N@@YANPAUlua_State@@PBD@Z$1:
	lea	ecx, DWORD PTR $T3[ebp]
	jmp	??1?$basic_string@DU?$char_traits@D@std@@V?$allocator@D@2@@std@@QAE@XZ ; std::basic_string<char,std::char_traits<char>,std::allocator<char> >::~basic_string<char,std::char_traits<char>,std::allocator<char> >
	int	3
	int	3
	int	3
	int	3
	int	3
__ehhandler$??$PopLuaNumber@N@@YANPAUlua_State@@PBD@Z:
	npad	1
	npad	1
	mov	edx, DWORD PTR [esp+8]
	lea	eax, DWORD PTR [edx+12]
	mov	ecx, DWORD PTR [edx-104]
	xor	ecx, eax
	call	@__security_check_cookie@4
	mov	ecx, DWORD PTR [edx-4]
	xor	ecx, eax
	call	@__security_check_cookie@4
	mov	eax, OFFSET __ehfuncinfo$??$PopLuaNumber@N@@YANPAUlua_State@@PBD@Z
	jmp	___CxxFrameHandler3
text$x	ENDS
??$PopLuaNumber@N@@YANPAUlua_State@@PBD@Z ENDP		; PopLuaNumber<double>
; Function compile flags: /Odtp /RTCsu
; File C:\Users\lsy01\OneDrive\바탕 화면\3-2_Study\인공지능\Source\VS2010\Common\lua-5.1.3\include\LuaHelperFunctions.h
;	COMDAT ??$PopLuaNumber@H@@YAHPAUlua_State@@PBD@Z
_TEXT	SEGMENT
tv95 = -104						; size = 4
tv73 = -100						; size = 4
$T2 = -96						; size = 12
_val$ = -84						; size = 4
$T3 = -80						; size = 28
_err$4 = -48						; size = 28
__$ArrayPad$ = -16					; size = 4
__$EHRec$ = -12						; size = 12
_pL$ = 8						; size = 4
_name$ = 12						; size = 4
??$PopLuaNumber@H@@YAHPAUlua_State@@PBD@Z PROC		; PopLuaNumber<int>, COMDAT

; 55   : {

	push	ebp
	mov	ebp, esp
	push	-1
	push	__ehhandler$??$PopLuaNumber@H@@YAHPAUlua_State@@PBD@Z
	mov	eax, DWORD PTR fs:0
	push	eax
	sub	esp, 92					; 0000005cH
	push	edi
	lea	edi, DWORD PTR [ebp-104]
	mov	ecx, 23					; 00000017H
	mov	eax, -858993460				; ccccccccH
	rep stosd
	mov	eax, DWORD PTR ___security_cookie
	xor	eax, ebp
	mov	DWORD PTR __$ArrayPad$[ebp], eax
	push	eax
	lea	eax, DWORD PTR __$EHRec$[ebp]
	mov	DWORD PTR fs:0, eax

; 56   :   lua_settop(pL, 0);

	push	0
	mov	eax, DWORD PTR _pL$[ebp]
	push	eax
	call	_lua_settop
	add	esp, 8

; 57   : 
; 58   :   lua_getglobal(pL, name);

	mov	ecx, DWORD PTR _name$[ebp]
	push	ecx
	mov	edx, DWORD PTR _pL$[ebp]
	push	edx
	call	_lua_getglobal
	add	esp, 8

; 59   : 
; 60   :   //check that the variable is the correct type. If it is not throw an
; 61   :   //exception
; 62   :   if (!lua_isnumber(pL, 1))

	push	1
	mov	eax, DWORD PTR _pL$[ebp]
	push	eax
	call	_lua_isnumber
	add	esp, 8
	test	eax, eax
	jne	SHORT $LN2@PopLuaNumb

; 63   :   {
; 64   :     std::string err("<PopLuaNumber> Cannot retrieve: ");

	push	OFFSET ??_C@_0CB@NOKEJIID@?$DMPopLuaNumber?$DO?5Cannot?5retrieve?3@
	lea	ecx, DWORD PTR _err$4[ebp]
	call	??0?$basic_string@DU?$char_traits@D@std@@V?$allocator@D@2@@std@@QAE@QBD@Z ; std::basic_string<char,std::char_traits<char>,std::allocator<char> >::basic_string<char,std::char_traits<char>,std::allocator<char> >
	mov	DWORD PTR __$EHRec$[ebp+8], 0

; 65   : 
; 66   :     throw std::runtime_error(err + name);

	mov	ecx, DWORD PTR _name$[ebp]
	push	ecx
	lea	edx, DWORD PTR _err$4[ebp]
	push	edx
	lea	eax, DWORD PTR $T3[ebp]
	push	eax
	call	??$?HDU?$char_traits@D@std@@V?$allocator@D@1@@std@@YA?AV?$basic_string@DU?$char_traits@D@std@@V?$allocator@D@2@@0@ABV10@QBD@Z ; std::operator+<char,std::char_traits<char>,std::allocator<char> >
	add	esp, 12					; 0000000cH
	mov	DWORD PTR tv73[ebp], eax
	mov	ecx, DWORD PTR tv73[ebp]
	mov	DWORD PTR tv95[ebp], ecx
	mov	BYTE PTR __$EHRec$[ebp+8], 1
	mov	edx, DWORD PTR tv95[ebp]
	push	edx
	lea	ecx, DWORD PTR $T2[ebp]
	call	??0runtime_error@std@@QAE@ABV?$basic_string@DU?$char_traits@D@std@@V?$allocator@D@2@@1@@Z ; std::runtime_error::runtime_error
	push	OFFSET __TI2?AVruntime_error@std@@
	lea	eax, DWORD PTR $T2[ebp]
	push	eax
	call	__CxxThrowException@8
	mov	BYTE PTR __$EHRec$[ebp+8], 0
	lea	ecx, DWORD PTR $T3[ebp]
	call	??1?$basic_string@DU?$char_traits@D@std@@V?$allocator@D@2@@std@@QAE@XZ ; std::basic_string<char,std::char_traits<char>,std::allocator<char> >::~basic_string<char,std::char_traits<char>,std::allocator<char> >

; 67   :   }

	mov	DWORD PTR __$EHRec$[ebp+8], -1
	lea	ecx, DWORD PTR _err$4[ebp]
	call	??1?$basic_string@DU?$char_traits@D@std@@V?$allocator@D@2@@std@@QAE@XZ ; std::basic_string<char,std::char_traits<char>,std::allocator<char> >::~basic_string<char,std::char_traits<char>,std::allocator<char> >
$LN2@PopLuaNumb:

; 68   : 
; 69   :   //grab the value, cast to the correct type and return
; 70   :   T val = (T)lua_tonumber(pL, 1);

	push	0
	push	1
	mov	ecx, DWORD PTR _pL$[ebp]
	push	ecx
	call	_lua_tonumberx
	add	esp, 12					; 0000000cH
	call	__ftol2_sse
	mov	DWORD PTR _val$[ebp], eax

; 71   : 
; 72   :   //remove the value from the stack
; 73   :   lua_pop(pL, 1);

	push	-2					; fffffffeH
	mov	edx, DWORD PTR _pL$[ebp]
	push	edx
	call	_lua_settop
	add	esp, 8

; 74   : 
; 75   :   return val;

	mov	eax, DWORD PTR _val$[ebp]
$LN1@PopLuaNumb:

; 76   : }

	push	edx
	mov	ecx, ebp
	push	eax
	lea	edx, DWORD PTR $LN9@PopLuaNumb
	call	@_RTC_CheckStackVars@8
	pop	eax
	pop	edx
	mov	ecx, DWORD PTR __$EHRec$[ebp]
	mov	DWORD PTR fs:0, ecx
	pop	ecx
	pop	edi
	mov	ecx, DWORD PTR __$ArrayPad$[ebp]
	xor	ecx, ebp
	call	@__security_check_cookie@4
	add	esp, 104				; 00000068H
	cmp	ebp, esp
	call	__RTC_CheckEsp
	mov	esp, ebp
	pop	ebp
	ret	0
$LN9@PopLuaNumb:
	DD	1
	DD	$LN8@PopLuaNumb
$LN8@PopLuaNumb:
	DD	-48					; ffffffd0H
	DD	28					; 0000001cH
	DD	$LN6@PopLuaNumb
$LN6@PopLuaNumb:
	DB	101					; 00000065H
	DB	114					; 00000072H
	DB	114					; 00000072H
	DB	0
_TEXT	ENDS
;	COMDAT text$x
text$x	SEGMENT
__unwindfunclet$??$PopLuaNumber@H@@YAHPAUlua_State@@PBD@Z$0:
	lea	ecx, DWORD PTR _err$4[ebp]
	jmp	??1?$basic_string@DU?$char_traits@D@std@@V?$allocator@D@2@@std@@QAE@XZ ; std::basic_string<char,std::char_traits<char>,std::allocator<char> >::~basic_string<char,std::char_traits<char>,std::allocator<char> >
__unwindfunclet$??$PopLuaNumber@H@@YAHPAUlua_State@@PBD@Z$1:
	lea	ecx, DWORD PTR $T3[ebp]
	jmp	??1?$basic_string@DU?$char_traits@D@std@@V?$allocator@D@2@@std@@QAE@XZ ; std::basic_string<char,std::char_traits<char>,std::allocator<char> >::~basic_string<char,std::char_traits<char>,std::allocator<char> >
	int	3
	int	3
	int	3
	int	3
	int	3
__ehhandler$??$PopLuaNumber@H@@YAHPAUlua_State@@PBD@Z:
	npad	1
	npad	1
	mov	edx, DWORD PTR [esp+8]
	lea	eax, DWORD PTR [edx+12]
	mov	ecx, DWORD PTR [edx-100]
	xor	ecx, eax
	call	@__security_check_cookie@4
	mov	ecx, DWORD PTR [edx-4]
	xor	ecx, eax
	call	@__security_check_cookie@4
	mov	eax, OFFSET __ehfuncinfo$??$PopLuaNumber@H@@YAHPAUlua_State@@PBD@Z
	jmp	___CxxFrameHandler3
text$x	ENDS
??$PopLuaNumber@H@@YAHPAUlua_State@@PBD@Z ENDP		; PopLuaNumber<int>
; Function compile flags: /Odtp /RTCsu
; File C:\Users\lsy01\OneDrive\바탕 화면\3-2_Study\인공지능\Source\VS2010\Common\Script\scriptor.h
;	COMDAT ?GetDouble@Scriptor@@QAENPAD@Z
_TEXT	SEGMENT
_this$ = -4						; size = 4
_VariableName$ = 8					; size = 4
?GetDouble@Scriptor@@QAENPAD@Z PROC			; Scriptor::GetDouble, COMDAT
; _this$ = ecx

; 62   :   {

	push	ebp
	mov	ebp, esp
	push	ecx
	mov	DWORD PTR [ebp-4], -858993460		; ccccccccH
	mov	DWORD PTR _this$[ebp], ecx

; 63   :     return PopLuaNumber<double>(m_pLuaState, VariableName);

	mov	eax, DWORD PTR _VariableName$[ebp]
	push	eax
	mov	ecx, DWORD PTR _this$[ebp]
	mov	edx, DWORD PTR [ecx]
	push	edx
	call	??$PopLuaNumber@N@@YANPAUlua_State@@PBD@Z ; PopLuaNumber<double>
	add	esp, 8

; 64   :   }

	add	esp, 4
	cmp	ebp, esp
	call	__RTC_CheckEsp
	mov	esp, ebp
	pop	ebp
	ret	4
?GetDouble@Scriptor@@QAENPAD@Z ENDP			; Scriptor::GetDouble
_TEXT	ENDS
; Function compile flags: /Odtp /RTCsu
; File C:\Users\lsy01\OneDrive\바탕 화면\3-2_Study\인공지능\Source\VS2010\Common\Script\scriptor.h
;	COMDAT ?GetInt@Scriptor@@QAEHPAD@Z
_TEXT	SEGMENT
_this$ = -4						; size = 4
_VariableName$ = 8					; size = 4
?GetInt@Scriptor@@QAEHPAD@Z PROC			; Scriptor::GetInt, COMDAT
; _this$ = ecx

; 52   :   {

	push	ebp
	mov	ebp, esp
	push	ecx
	mov	DWORD PTR [ebp-4], -858993460		; ccccccccH
	mov	DWORD PTR _this$[ebp], ecx

; 53   :     return PopLuaNumber<int>(m_pLuaState, VariableName);

	mov	eax, DWORD PTR _VariableName$[ebp]
	push	eax
	mov	ecx, DWORD PTR _this$[ebp]
	mov	edx, DWORD PTR [ecx]
	push	edx
	call	??$PopLuaNumber@H@@YAHPAUlua_State@@PBD@Z ; PopLuaNumber<int>
	add	esp, 8

; 54   :   }

	add	esp, 4
	cmp	ebp, esp
	call	__RTC_CheckEsp
	mov	esp, ebp
	pop	ebp
	ret	4
?GetInt@Scriptor@@QAEHPAD@Z ENDP			; Scriptor::GetInt
_TEXT	ENDS
; Function compile flags: /Odtp /RTCsu
; File C:\Program Files\Microsoft Visual Studio\2022\Community\VC\Tools\MSVC\14.32.31326\include\xstring
;	COMDAT ??$?HDU?$char_traits@D@std@@V?$allocator@D@1@@std@@YA?AV?$basic_string@DU?$char_traits@D@std@@V?$allocator@D@2@@0@ABV10@QBD@Z
_TEXT	SEGMENT
tv86 = -20						; size = 4
$T1 = -16						; size = 4
$T2 = -10						; size = 1
$T3 = -9						; size = 1
__Right_size$ = -8					; size = 4
__Left_size$ = -4					; size = 4
___$ReturnUdt$ = 8					; size = 4
__Left$ = 12						; size = 4
__Right$ = 16						; size = 4
??$?HDU?$char_traits@D@std@@V?$allocator@D@1@@std@@YA?AV?$basic_string@DU?$char_traits@D@std@@V?$allocator@D@2@@0@ABV10@QBD@Z PROC ; std::operator+<char,std::char_traits<char>,std::allocator<char> >, COMDAT

; 4736 :     const basic_string<_Elem, _Traits, _Alloc>& _Left, _In_z_ const _Elem* const _Right) {

	push	ebp
	mov	ebp, esp
	sub	esp, 20					; 00000014H
	mov	eax, -858993460				; ccccccccH
	mov	DWORD PTR [ebp-20], eax
	mov	DWORD PTR [ebp-16], eax
	mov	DWORD PTR [ebp-12], eax
	mov	DWORD PTR [ebp-8], eax
	mov	DWORD PTR [ebp-4], eax
	mov	DWORD PTR $T1[ebp], 0

; 4737 :     using _Size_type       = typename basic_string<_Elem, _Traits, _Alloc>::size_type;
; 4738 :     const auto _Left_size  = _Left.size();

	mov	ecx, DWORD PTR __Left$[ebp]
	call	?size@?$basic_string@DU?$char_traits@D@std@@V?$allocator@D@2@@std@@QBEIXZ ; std::basic_string<char,std::char_traits<char>,std::allocator<char> >::size
	mov	DWORD PTR __Left_size$[ebp], eax

; 4739 :     const auto _Right_size = _Convert_size<_Size_type>(_Traits::length(_Right));

	mov	eax, DWORD PTR __Right$[ebp]
	push	eax
	call	?length@?$_Narrow_char_traits@DH@std@@SAIQBD@Z ; std::_Narrow_char_traits<char,int>::length
	add	esp, 4
	push	eax
	call	??$_Convert_size@I@std@@YAII@Z		; std::_Convert_size<unsigned int>
	add	esp, 4
	mov	DWORD PTR __Right_size$[ebp], eax

; 4740 :     if (_Left.max_size() - _Left_size < _Right_size) {

	mov	ecx, DWORD PTR __Left$[ebp]
	call	?max_size@?$basic_string@DU?$char_traits@D@std@@V?$allocator@D@2@@std@@QBEIXZ ; std::basic_string<char,std::char_traits<char>,std::allocator<char> >::max_size
	sub	eax, DWORD PTR __Left_size$[ebp]
	cmp	eax, DWORD PTR __Right_size$[ebp]
	jae	SHORT $LN2@operator

; 4741 :         _Xlen_string();

	call	?_Xlen_string@std@@YAXXZ		; std::_Xlen_string
$LN2@operator:

; 4742 :     }
; 4743 : 
; 4744 :     return {_String_constructor_concat_tag{}, _Left, _Left.c_str(), _Left_size, _Right, _Right_size};

	mov	cl, BYTE PTR $T3[ebp]
	mov	BYTE PTR $T2[ebp], cl
	mov	ecx, DWORD PTR __Left$[ebp]
	call	?c_str@?$basic_string@DU?$char_traits@D@std@@V?$allocator@D@2@@std@@QBEPBDXZ ; std::basic_string<char,std::char_traits<char>,std::allocator<char> >::c_str
	mov	DWORD PTR tv86[ebp], eax
	mov	edx, DWORD PTR __Right_size$[ebp]
	push	edx
	mov	eax, DWORD PTR __Right$[ebp]
	push	eax
	mov	ecx, DWORD PTR __Left_size$[ebp]
	push	ecx
	mov	edx, DWORD PTR tv86[ebp]
	push	edx
	mov	eax, DWORD PTR __Left$[ebp]
	push	eax
	movzx	ecx, BYTE PTR $T2[ebp]
	push	ecx
	mov	ecx, DWORD PTR ___$ReturnUdt$[ebp]
	call	??0?$basic_string@DU?$char_traits@D@std@@V?$allocator@D@2@@std@@QAE@U_String_constructor_concat_tag@1@ABV01@QBDI2I@Z ; std::basic_string<char,std::char_traits<char>,std::allocator<char> >::basic_string<char,std::char_traits<char>,std::allocator<char> >
	mov	edx, DWORD PTR $T1[ebp]
	or	edx, 1
	mov	DWORD PTR $T1[ebp], edx
	mov	eax, DWORD PTR ___$ReturnUdt$[ebp]
$LN3@operator:

; 4745 : }

	add	esp, 20					; 00000014H
	cmp	ebp, esp
	call	__RTC_CheckEsp
	mov	esp, ebp
	pop	ebp
	ret	0
??$?HDU?$char_traits@D@std@@V?$allocator@D@1@@std@@YA?AV?$basic_string@DU?$char_traits@D@std@@V?$allocator@D@2@@0@ABV10@QBD@Z ENDP ; std::operator+<char,std::char_traits<char>,std::allocator<char> >
_TEXT	ENDS
; Function compile flags: /Odtp /RTCsu
;	COMDAT ??_GPellet@@UAEPAXI@Z
_TEXT	SEGMENT
_this$ = -4						; size = 4
___flags$ = 8						; size = 4
??_GPellet@@UAEPAXI@Z PROC				; Pellet::`scalar deleting destructor', COMDAT
; _this$ = ecx
	push	ebp
	mov	ebp, esp
	push	ecx
	mov	DWORD PTR [ebp-4], -858993460		; ccccccccH
	mov	DWORD PTR _this$[ebp], ecx
	mov	ecx, DWORD PTR _this$[ebp]
	call	??1Pellet@@UAE@XZ
	mov	eax, DWORD PTR ___flags$[ebp]
	and	eax, 1
	je	SHORT $LN2@scalar
	push	232					; 000000e8H
	mov	ecx, DWORD PTR _this$[ebp]
	push	ecx
	call	??3@YAXPAXI@Z				; operator delete
	add	esp, 8
$LN2@scalar:
	mov	eax, DWORD PTR _this$[ebp]
	add	esp, 4
	cmp	ebp, esp
	call	__RTC_CheckEsp
	mov	esp, ebp
	pop	ebp
	ret	4
??_GPellet@@UAEPAXI@Z ENDP				; Pellet::`scalar deleting destructor'
_TEXT	ENDS
; Function compile flags: /Odtp /RTCsu
;	COMDAT ??1Pellet@@UAE@XZ
_TEXT	SEGMENT
_this$ = -4						; size = 4
??1Pellet@@UAE@XZ PROC					; Pellet::~Pellet, COMDAT
; _this$ = ecx
	push	ebp
	mov	ebp, esp
	push	ecx
	mov	DWORD PTR [ebp-4], -858993460		; ccccccccH
	mov	DWORD PTR _this$[ebp], ecx
	mov	ecx, DWORD PTR _this$[ebp]
	call	??1Raven_Projectile@@UAE@XZ
	add	esp, 4
	cmp	ebp, esp
	call	__RTC_CheckEsp
	mov	esp, ebp
	pop	ebp
	ret	0
??1Pellet@@UAE@XZ ENDP					; Pellet::~Pellet
_TEXT	ENDS
; Function compile flags: /Odtp /RTCsu
; File C:\Users\lsy01\OneDrive\바탕 화면\3-2_Study\인공지능\Source\VS2010\Buckland_Chapter7 to 10_Raven\armory\Projectile_Pellet.cpp
_TEXT	SEGMENT
$T1 = -140						; size = 16
$T2 = -124						; size = 16
$T3 = -108						; size = 16
$T4 = -92						; size = 16
_accel$5 = -72						; size = 16
_sf$6 = -48						; size = 16
_DesiredVelocity$7 = -24				; size = 16
_this$ = -4						; size = 4
?Update@Pellet@@UAEXXZ PROC				; Pellet::Update
; _this$ = ecx

; 41   : {

	push	ebp
	mov	ebp, esp
	sub	esp, 140				; 0000008cH
	push	edi
	push	ecx
	lea	edi, DWORD PTR [ebp-140]
	mov	ecx, 35					; 00000023H
	mov	eax, -858993460				; ccccccccH
	rep stosd
	pop	ecx
	mov	DWORD PTR _this$[ebp], ecx

; 42   :   if (!HasImpacted())

	mov	ecx, DWORD PTR _this$[ebp]
	call	?HasImpacted@Raven_Projectile@@QBE_NXZ	; Raven_Projectile::HasImpacted
	movzx	eax, al
	test	eax, eax
	jne	$LN2@Update

; 43   :   {
; 44   :      //calculate the steering force
; 45   :     Vector2D DesiredVelocity = Vec2DNormalize(m_vTarget - Pos()) * MaxSpeed();

	mov	ecx, DWORD PTR _this$[ebp]
	call	?MaxSpeed@MovingEntity@@QBENXZ		; MovingEntity::MaxSpeed
	sub	esp, 8
	fstp	QWORD PTR [esp]
	lea	ecx, DWORD PTR $T4[ebp]
	push	ecx
	mov	ecx, DWORD PTR _this$[ebp]
	call	?Pos@BaseGameEntity@@QBE?AUVector2D@@XZ	; BaseGameEntity::Pos
	push	eax
	mov	edx, DWORD PTR _this$[ebp]
	add	edx, 152				; 00000098H
	push	edx
	lea	eax, DWORD PTR $T3[ebp]
	push	eax
	call	??G@YA?AUVector2D@@ABU0@0@Z		; operator-
	add	esp, 12					; 0000000cH
	push	eax
	lea	ecx, DWORD PTR $T2[ebp]
	push	ecx
	call	?Vec2DNormalize@@YA?AUVector2D@@ABU1@@Z	; Vec2DNormalize
	add	esp, 8
	push	eax
	lea	edx, DWORD PTR _DesiredVelocity$7[ebp]
	push	edx
	call	??D@YA?AUVector2D@@ABU0@N@Z		; operator*
	add	esp, 16					; 00000010H

; 46   : 
; 47   :     Vector2D sf = DesiredVelocity - Velocity();

	lea	eax, DWORD PTR $T1[ebp]
	push	eax
	mov	ecx, DWORD PTR _this$[ebp]
	call	?Velocity@MovingEntity@@QBE?AUVector2D@@XZ ; MovingEntity::Velocity
	push	eax
	lea	ecx, DWORD PTR _DesiredVelocity$7[ebp]
	push	ecx
	lea	edx, DWORD PTR _sf$6[ebp]
	push	edx
	call	??G@YA?AUVector2D@@ABU0@0@Z		; operator-
	add	esp, 12					; 0000000cH

; 48   : 
; 49   :     //update the position
; 50   :     Vector2D accel = sf / m_dMass;

	mov	eax, DWORD PTR _this$[ebp]
	sub	esp, 8
	movsd	xmm0, QWORD PTR [eax+112]
	movsd	QWORD PTR [esp], xmm0
	lea	ecx, DWORD PTR _sf$6[ebp]
	push	ecx
	lea	edx, DWORD PTR _accel$5[ebp]
	push	edx
	call	??K@YA?AUVector2D@@ABU0@N@Z		; operator/
	add	esp, 16					; 00000010H

; 51   : 
; 52   :     m_vVelocity += accel;

	lea	eax, DWORD PTR _accel$5[ebp]
	push	eax
	mov	ecx, DWORD PTR _this$[ebp]
	add	ecx, 64					; 00000040H
	call	??YVector2D@@QAEABU0@ABU0@@Z		; Vector2D::operator+=

; 53   : 
; 54   :     //make sure vehicle does not exceed maximum velocity
; 55   :     m_vVelocity.Truncate(m_dMaxSpeed);

	mov	ecx, DWORD PTR _this$[ebp]
	sub	esp, 8
	movsd	xmm0, QWORD PTR [ecx+120]
	movsd	QWORD PTR [esp], xmm0
	mov	ecx, DWORD PTR _this$[ebp]
	add	ecx, 64					; 00000040H
	call	?Truncate@Vector2D@@QAEXN@Z		; Vector2D::Truncate

; 56   : 
; 57   :     //update the position
; 58   :     m_vPosition += m_vVelocity; 

	mov	edx, DWORD PTR _this$[ebp]
	add	edx, 64					; 00000040H
	push	edx
	mov	ecx, DWORD PTR _this$[ebp]
	add	ecx, 24					; 00000018H
	call	??YVector2D@@QAEABU0@ABU0@@Z		; Vector2D::operator+=

; 59   : 
; 60   :     TestForImpact();

	mov	ecx, DWORD PTR _this$[ebp]
	call	?TestForImpact@Pellet@@AAEXXZ		; Pellet::TestForImpact

; 61   :   }

	jmp	SHORT $LN4@Update
$LN2@Update:

; 62   :   else if (!isVisibleToPlayer())

	mov	ecx, DWORD PTR _this$[ebp]
	call	?isVisibleToPlayer@Pellet@@ABE_NXZ	; Pellet::isVisibleToPlayer
	movzx	eax, al
	test	eax, eax
	jne	SHORT $LN4@Update

; 63   :   {
; 64   :     m_bDead = true;

	mov	ecx, DWORD PTR _this$[ebp]
	mov	BYTE PTR [ecx+196], 1
$LN4@Update:

; 65   :   }
; 66   : }

	push	edx
	mov	ecx, ebp
	push	eax
	lea	edx, DWORD PTR $LN10@Update
	call	@_RTC_CheckStackVars@8
	pop	eax
	pop	edx
	pop	edi
	add	esp, 140				; 0000008cH
	cmp	ebp, esp
	call	__RTC_CheckEsp
	mov	esp, ebp
	pop	ebp
	ret	0
	npad	3
$LN10@Update:
	DD	3
	DD	$LN9@Update
$LN9@Update:
	DD	-24					; ffffffe8H
	DD	16					; 00000010H
	DD	$LN6@Update
	DD	-48					; ffffffd0H
	DD	16					; 00000010H
	DD	$LN7@Update
	DD	-72					; ffffffb8H
	DD	16					; 00000010H
	DD	$LN8@Update
$LN8@Update:
	DB	97					; 00000061H
	DB	99					; 00000063H
	DB	99					; 00000063H
	DB	101					; 00000065H
	DB	108					; 0000006cH
	DB	0
$LN7@Update:
	DB	115					; 00000073H
	DB	102					; 00000066H
	DB	0
$LN6@Update:
	DB	68					; 00000044H
	DB	101					; 00000065H
	DB	115					; 00000073H
	DB	105					; 00000069H
	DB	114					; 00000072H
	DB	101					; 00000065H
	DB	100					; 00000064H
	DB	86					; 00000056H
	DB	101					; 00000065H
	DB	108					; 0000006cH
	DB	111					; 0000006fH
	DB	99					; 00000063H
	DB	105					; 00000069H
	DB	116					; 00000074H
	DB	121					; 00000079H
	DB	0
?Update@Pellet@@UAEXXZ ENDP				; Pellet::Update
_TEXT	ENDS
; Function compile flags: /Odtp /RTCsu
; File C:\Users\lsy01\OneDrive\바탕 화면\3-2_Study\인공지능\Source\VS2010\Buckland_Chapter7 to 10_Raven\armory\Projectile_Pellet.cpp
_TEXT	SEGMENT
_this$ = -4						; size = 4
?Render@Pellet@@UAEXXZ PROC				; Pellet::Render
; _this$ = ecx

; 111  : {

	push	ebp
	mov	ebp, esp
	push	ecx
	mov	DWORD PTR [ebp-4], -858993460		; ccccccccH
	mov	DWORD PTR _this$[ebp], ecx

; 112  :   if ( isVisibleToPlayer() && m_bImpacted)

	mov	ecx, DWORD PTR _this$[ebp]
	call	?isVisibleToPlayer@Pellet@@ABE_NXZ	; Pellet::isVisibleToPlayer
	movzx	eax, al
	test	eax, eax
	je	$LN2@Render
	mov	ecx, DWORD PTR _this$[ebp]
	movzx	edx, BYTE PTR [ecx+197]
	test	edx, edx
	je	$LN2@Render

; 113  :   {
; 114  :     gdi->YellowPen();

	call	?Instance@Cgdi@@SAPAV1@XZ		; Cgdi::Instance
	mov	ecx, eax
	call	?YellowPen@Cgdi@@QAEXXZ			; Cgdi::YellowPen

; 115  :     gdi->Line(m_vOrigin, m_vImpactPoint);

	mov	eax, DWORD PTR _this$[ebp]
	add	eax, 200				; 000000c8H
	sub	esp, 16					; 00000010H
	mov	ecx, esp
	mov	edx, DWORD PTR [eax]
	mov	DWORD PTR [ecx], edx
	mov	edx, DWORD PTR [eax+4]
	mov	DWORD PTR [ecx+4], edx
	mov	edx, DWORD PTR [eax+8]
	mov	DWORD PTR [ecx+8], edx
	mov	eax, DWORD PTR [eax+12]
	mov	DWORD PTR [ecx+12], eax
	mov	ecx, DWORD PTR _this$[ebp]
	add	ecx, 176				; 000000b0H
	sub	esp, 16					; 00000010H
	mov	edx, esp
	mov	eax, DWORD PTR [ecx]
	mov	DWORD PTR [edx], eax
	mov	eax, DWORD PTR [ecx+4]
	mov	DWORD PTR [edx+4], eax
	mov	eax, DWORD PTR [ecx+8]
	mov	DWORD PTR [edx+8], eax
	mov	ecx, DWORD PTR [ecx+12]
	mov	DWORD PTR [edx+12], ecx
	call	?Instance@Cgdi@@SAPAV1@XZ		; Cgdi::Instance
	mov	ecx, eax
	call	?Line@Cgdi@@QAEXUVector2D@@0@Z		; Cgdi::Line

; 116  : 
; 117  :     gdi->BrownBrush();

	call	?Instance@Cgdi@@SAPAV1@XZ		; Cgdi::Instance
	mov	ecx, eax
	call	?BrownBrush@Cgdi@@QAEXXZ		; Cgdi::BrownBrush

; 118  :     gdi->Circle(m_vImpactPoint, 3);

	sub	esp, 8
	movsd	xmm0, QWORD PTR __real@4008000000000000
	movsd	QWORD PTR [esp], xmm0
	mov	edx, DWORD PTR _this$[ebp]
	add	edx, 200				; 000000c8H
	sub	esp, 16					; 00000010H
	mov	eax, esp
	mov	ecx, DWORD PTR [edx]
	mov	DWORD PTR [eax], ecx
	mov	ecx, DWORD PTR [edx+4]
	mov	DWORD PTR [eax+4], ecx
	mov	ecx, DWORD PTR [edx+8]
	mov	DWORD PTR [eax+8], ecx
	mov	edx, DWORD PTR [edx+12]
	mov	DWORD PTR [eax+12], edx
	call	?Instance@Cgdi@@SAPAV1@XZ		; Cgdi::Instance
	mov	ecx, eax
	call	?Circle@Cgdi@@QAEXUVector2D@@N@Z	; Cgdi::Circle
$LN2@Render:

; 119  :   }
; 120  : }

	add	esp, 4
	cmp	ebp, esp
	call	__RTC_CheckEsp
	mov	esp, ebp
	pop	ebp
	ret	0
?Render@Pellet@@UAEXXZ ENDP				; Pellet::Render
_TEXT	ENDS
; Function compile flags: /Odtp /RTCsu
; File C:\Users\lsy01\OneDrive\바탕 화면\3-2_Study\인공지능\Source\VS2010\Buckland_Chapter7 to 10_Raven\armory\Projectile_Pellet.cpp
_TEXT	SEGMENT
$T2 = -48						; size = 16
$T3 = -32						; size = 16
_this$ = -16						; size = 4
__$EHRec$ = -12						; size = 12
_shooter$ = 8						; size = 4
_target$ = 12						; size = 16
??0Pellet@@QAE@PAVRaven_Bot@@UVector2D@@@Z PROC		; Pellet::Pellet
; _this$ = ecx

; 33   : {

	push	ebp
	mov	ebp, esp
	push	-1
	push	__ehhandler$??0Pellet@@QAE@PAVRaven_Bot@@UVector2D@@@Z
	mov	eax, DWORD PTR fs:0
	push	eax
	sub	esp, 36					; 00000024H
	mov	eax, -858993460				; ccccccccH
	mov	DWORD PTR [ebp-48], eax
	mov	DWORD PTR [ebp-44], eax
	mov	DWORD PTR [ebp-40], eax
	mov	DWORD PTR [ebp-36], eax
	mov	DWORD PTR [ebp-32], eax
	mov	DWORD PTR [ebp-28], eax
	mov	DWORD PTR [ebp-24], eax
	mov	DWORD PTR [ebp-20], eax
	mov	DWORD PTR [ebp-16], eax
	mov	eax, DWORD PTR ___security_cookie
	xor	eax, ebp
	push	eax
	lea	eax, DWORD PTR __$EHRec$[ebp]
	mov	DWORD PTR fs:0, eax
	mov	DWORD PTR _this$[ebp], ecx

; 21   :         Raven_Projectile(target,

	push	OFFSET $SG172120
	call	?Instance@Raven_Scriptor@@SAPAV1@XZ	; Raven_Scriptor::Instance
	mov	ecx, eax
	call	?GetDouble@Scriptor@@QAENPAD@Z		; Scriptor::GetDouble
	sub	esp, 8
	fstp	QWORD PTR [esp]
	push	OFFSET $SG172121
	call	?Instance@Raven_Scriptor@@SAPAV1@XZ	; Raven_Scriptor::Instance
	mov	ecx, eax
	call	?GetDouble@Scriptor@@QAENPAD@Z		; Scriptor::GetDouble
	sub	esp, 8
	fstp	QWORD PTR [esp]
	push	OFFSET $SG172122
	call	?Instance@Raven_Scriptor@@SAPAV1@XZ	; Raven_Scriptor::Instance
	mov	ecx, eax
	call	?GetDouble@Scriptor@@QAENPAD@Z		; Scriptor::GetDouble
	sub	esp, 8
	fstp	QWORD PTR [esp]
	push	OFFSET $SG172123
	call	?Instance@Raven_Scriptor@@SAPAV1@XZ	; Raven_Scriptor::Instance
	mov	ecx, eax
	call	?GetDouble@Scriptor@@QAENPAD@Z		; Scriptor::GetDouble
	sub	esp, 8
	fstp	QWORD PTR [esp]
	push	OFFSET $SG172124
	call	?Instance@Raven_Scriptor@@SAPAV1@XZ	; Raven_Scriptor::Instance
	mov	ecx, eax
	call	?GetInt@Scriptor@@QAEHPAD@Z		; Scriptor::GetInt
	push	eax
	lea	eax, DWORD PTR $T3[ebp]
	push	eax
	mov	ecx, DWORD PTR _shooter$[ebp]
	call	?Facing@Raven_Bot@@QBE?AUVector2D@@XZ	; Raven_Bot::Facing
	sub	esp, 16					; 00000010H
	mov	ecx, esp
	mov	edx, DWORD PTR [eax]
	mov	DWORD PTR [ecx], edx
	mov	edx, DWORD PTR [eax+4]
	mov	DWORD PTR [ecx+4], edx
	mov	edx, DWORD PTR [eax+8]
	mov	DWORD PTR [ecx+8], edx
	mov	eax, DWORD PTR [eax+12]
	mov	DWORD PTR [ecx+12], eax
	lea	ecx, DWORD PTR $T2[ebp]
	push	ecx
	mov	ecx, DWORD PTR _shooter$[ebp]
	call	?Pos@BaseGameEntity@@QBE?AUVector2D@@XZ	; BaseGameEntity::Pos
	sub	esp, 16					; 00000010H
	mov	edx, esp
	mov	ecx, DWORD PTR [eax]
	mov	DWORD PTR [edx], ecx
	mov	ecx, DWORD PTR [eax+4]
	mov	DWORD PTR [edx+4], ecx
	mov	ecx, DWORD PTR [eax+8]
	mov	DWORD PTR [edx+8], ecx
	mov	eax, DWORD PTR [eax+12]
	mov	DWORD PTR [edx+12], eax
	mov	ecx, DWORD PTR _shooter$[ebp]
	call	?ID@BaseGameEntity@@QBEHXZ		; BaseGameEntity::ID
	push	eax
	mov	ecx, DWORD PTR _shooter$[ebp]
	call	?GetWorld@Raven_Bot@@QAEQAVRaven_Game@@XZ ; Raven_Bot::GetWorld
	push	eax
	sub	esp, 16					; 00000010H
	mov	ecx, esp
	mov	edx, DWORD PTR _target$[ebp]
	mov	DWORD PTR [ecx], edx
	mov	eax, DWORD PTR _target$[ebp+4]
	mov	DWORD PTR [ecx+4], eax
	mov	edx, DWORD PTR _target$[ebp+8]
	mov	DWORD PTR [ecx+8], edx
	mov	eax, DWORD PTR _target$[ebp+12]
	mov	DWORD PTR [ecx+12], eax
	mov	ecx, DWORD PTR _this$[ebp]
	call	??0Raven_Projectile@@QAE@UVector2D@@PAVRaven_Game@@H00HNNNN@Z ; Raven_Projectile::Raven_Projectile
	mov	DWORD PTR __$EHRec$[ebp+8], 0

; 33   : {

	mov	ecx, DWORD PTR _this$[ebp]
	mov	DWORD PTR [ecx], OFFSET ??_7Pellet@@6B@

; 22   :                          shooter->GetWorld(),
; 23   :                          shooter->ID(),
; 24   :                          shooter->Pos(),
; 25   :                          shooter->Facing(),
; 26   :                          script->GetInt("Pellet_Damage"),
; 27   :                          script->GetDouble("Pellet_Scale"),
; 28   :                          script->GetDouble("Pellet_MaxSpeed"),
; 29   :                          script->GetDouble("Pellet_Mass"),
; 30   :                          script->GetDouble("Pellet_MaxForce")),
; 31   : 
; 32   :         m_dTimeShotIsVisible(script->GetDouble("Pellet_Persistance"))

	push	OFFSET $SG172125
	call	?Instance@Raven_Scriptor@@SAPAV1@XZ	; Raven_Scriptor::Instance
	mov	ecx, eax
	call	?GetDouble@Scriptor@@QAENPAD@Z		; Scriptor::GetDouble
	mov	edx, DWORD PTR _this$[ebp]
	fstp	QWORD PTR [edx+224]

; 34   :   
; 35   : }

	mov	DWORD PTR __$EHRec$[ebp+8], -1
	mov	eax, DWORD PTR _this$[ebp]
	mov	ecx, DWORD PTR __$EHRec$[ebp]
	mov	DWORD PTR fs:0, ecx
	pop	ecx
	add	esp, 48					; 00000030H
	cmp	ebp, esp
	call	__RTC_CheckEsp
	mov	esp, ebp
	pop	ebp
	ret	20					; 00000014H
_TEXT	ENDS
text$x	SEGMENT
__unwindfunclet$??0Pellet@@QAE@PAVRaven_Bot@@UVector2D@@@Z$0:
	mov	ecx, DWORD PTR _this$[ebp]
	jmp	??1Raven_Projectile@@UAE@XZ
	int	3
	int	3
	int	3
	int	3
	int	3
__ehhandler$??0Pellet@@QAE@PAVRaven_Bot@@UVector2D@@@Z:
	npad	1
	npad	1
	mov	edx, DWORD PTR [esp+8]
	lea	eax, DWORD PTR [edx+12]
	mov	ecx, DWORD PTR [edx-40]
	xor	ecx, eax
	call	@__security_check_cookie@4
	mov	eax, OFFSET __ehfuncinfo$??0Pellet@@QAE@PAVRaven_Bot@@UVector2D@@@Z
	jmp	___CxxFrameHandler3
text$x	ENDS
??0Pellet@@QAE@PAVRaven_Bot@@UVector2D@@@Z ENDP		; Pellet::Pellet
; Function compile flags: /Odtp /RTCsu
; File C:\Users\lsy01\OneDrive\바탕 화면\3-2_Study\인공지능\Source\VS2010\Buckland_Chapter7 to 10_Raven\armory\Projectile_Pellet.h
;	COMDAT ?isVisibleToPlayer@Pellet@@ABE_NXZ
_TEXT	SEGMENT
tv75 = -16						; size = 4
tv81 = -12						; size = 8
_this$ = -4						; size = 4
?isVisibleToPlayer@Pellet@@ABE_NXZ PROC			; Pellet::isVisibleToPlayer, COMDAT
; _this$ = ecx

; 31   :   bool  isVisibleToPlayer()const{return Clock->GetCurrentTime() < m_dTimeOfCreation + m_dTimeShotIsVisible;}

	push	ebp
	mov	ebp, esp
	sub	esp, 16					; 00000010H
	mov	eax, -858993460				; ccccccccH
	mov	DWORD PTR [ebp-16], eax
	mov	DWORD PTR [ebp-12], eax
	mov	DWORD PTR [ebp-8], eax
	mov	DWORD PTR [ebp-4], eax
	mov	DWORD PTR _this$[ebp], ecx
	call	?Instance@CrudeTimer@@SAPAV1@XZ		; CrudeTimer::Instance
	mov	ecx, eax
	call	?GetTickCount@CrudeTimer@@QAENXZ	; CrudeTimer::GetTickCount
	fstp	QWORD PTR tv81[ebp]
	mov	eax, DWORD PTR _this$[ebp]
	mov	ecx, DWORD PTR _this$[ebp]
	movsd	xmm0, QWORD PTR [eax+216]
	addsd	xmm0, QWORD PTR [ecx+224]
	comisd	xmm0, QWORD PTR tv81[ebp]
	jbe	SHORT $LN3@isVisibleT
	mov	DWORD PTR tv75[ebp], 1
	jmp	SHORT $LN4@isVisibleT
$LN3@isVisibleT:
	mov	DWORD PTR tv75[ebp], 0
$LN4@isVisibleT:
	mov	al, BYTE PTR tv75[ebp]
	add	esp, 16					; 00000010H
	cmp	ebp, esp
	call	__RTC_CheckEsp
	mov	esp, ebp
	pop	ebp
	ret	0
?isVisibleToPlayer@Pellet@@ABE_NXZ ENDP			; Pellet::isVisibleToPlayer
_TEXT	ENDS
; Function compile flags: /Odtp /RTCsu
; File C:\Users\lsy01\OneDrive\바탕 화면\3-2_Study\인공지능\Source\VS2010\Buckland_Chapter7 to 10_Raven\armory\Projectile_Pellet.cpp
_TEXT	SEGMENT
$T1 = -40						; size = 16
_hit$ = -24						; size = 4
_DistToClosestImpact$ = -16				; size = 8
_this$ = -4						; size = 4
?TestForImpact@Pellet@@AAEXXZ PROC			; Pellet::TestForImpact
; _this$ = ecx

; 70   : {

	push	ebp
	mov	ebp, esp
	sub	esp, 40					; 00000028H
	push	edi
	push	ecx
	lea	edi, DWORD PTR [ebp-40]
	mov	ecx, 10					; 0000000aH
	mov	eax, -858993460				; ccccccccH
	rep stosd
	pop	ecx
	mov	DWORD PTR _this$[ebp], ecx

; 71   :   //a shot gun shell is an instantaneous projectile so it only gets the chance
; 72   :   //to update once 
; 73   :   m_bImpacted = true;

	mov	eax, DWORD PTR _this$[ebp]
	mov	BYTE PTR [eax+197], 1

; 74   : 
; 75   :   //first find the closest wall that this ray intersects with. Then we
; 76   :   //can test against all entities within this range.
; 77   :   double DistToClosestImpact;
; 78   :   FindClosestPointOfIntersectionWithWalls(m_vOrigin,

	mov	ecx, DWORD PTR _this$[ebp]
	mov	ecx, DWORD PTR [ecx+168]
	call	?GetMap@Raven_Game@@QAEQAVRaven_Map@@XZ	; Raven_Game::GetMap
	mov	ecx, eax
	call	?GetWalls@Raven_Map@@QBEABV?$vector@PAVWall2D@@V?$allocator@PAVWall2D@@@std@@@std@@XZ ; Raven_Map::GetWalls
	push	eax
	mov	edx, DWORD PTR _this$[ebp]
	add	edx, 200				; 000000c8H
	push	edx
	lea	eax, DWORD PTR _DistToClosestImpact$[ebp]
	push	eax
	mov	ecx, DWORD PTR _this$[ebp]
	add	ecx, 24					; 00000018H
	sub	esp, 16					; 00000010H
	mov	edx, esp
	mov	eax, DWORD PTR [ecx]
	mov	DWORD PTR [edx], eax
	mov	eax, DWORD PTR [ecx+4]
	mov	DWORD PTR [edx+4], eax
	mov	eax, DWORD PTR [ecx+8]
	mov	DWORD PTR [edx+8], eax
	mov	ecx, DWORD PTR [ecx+12]
	mov	DWORD PTR [edx+12], ecx
	mov	edx, DWORD PTR _this$[ebp]
	add	edx, 176				; 000000b0H
	sub	esp, 16					; 00000010H
	mov	eax, esp
	mov	ecx, DWORD PTR [edx]
	mov	DWORD PTR [eax], ecx
	mov	ecx, DWORD PTR [edx+4]
	mov	DWORD PTR [eax+4], ecx
	mov	ecx, DWORD PTR [edx+8]
	mov	DWORD PTR [eax+8], ecx
	mov	edx, DWORD PTR [edx+12]
	mov	DWORD PTR [eax+12], edx
	call	??$FindClosestPointOfIntersectionWithWalls@V?$vector@PAVWall2D@@V?$allocator@PAVWall2D@@@std@@@std@@@@YA_NUVector2D@@0AANAAU0@ABV?$vector@PAVWall2D@@V?$allocator@PAVWall2D@@@std@@@std@@@Z ; FindClosestPointOfIntersectionWithWalls<std::vector<Wall2D *,std::allocator<Wall2D *> > >
	add	esp, 44					; 0000002cH

; 79   :                                           m_vPosition,
; 80   :                                           DistToClosestImpact,
; 81   :                                           m_vImpactPoint,
; 82   :                                           m_pWorld->GetMap()->GetWalls());
; 83   : 
; 84   :   //test to see if the ray between the current position of the shell and 
; 85   :   //the start position intersects with any bots.
; 86   :   Raven_Bot* hit = GetClosestIntersectingBot(m_vOrigin, m_vImpactPoint);

	mov	eax, DWORD PTR _this$[ebp]
	add	eax, 200				; 000000c8H
	sub	esp, 16					; 00000010H
	mov	ecx, esp
	mov	edx, DWORD PTR [eax]
	mov	DWORD PTR [ecx], edx
	mov	edx, DWORD PTR [eax+4]
	mov	DWORD PTR [ecx+4], edx
	mov	edx, DWORD PTR [eax+8]
	mov	DWORD PTR [ecx+8], edx
	mov	eax, DWORD PTR [eax+12]
	mov	DWORD PTR [ecx+12], eax
	mov	ecx, DWORD PTR _this$[ebp]
	add	ecx, 176				; 000000b0H
	sub	esp, 16					; 00000010H
	mov	edx, esp
	mov	eax, DWORD PTR [ecx]
	mov	DWORD PTR [edx], eax
	mov	eax, DWORD PTR [ecx+4]
	mov	DWORD PTR [edx+4], eax
	mov	eax, DWORD PTR [ecx+8]
	mov	DWORD PTR [edx+8], eax
	mov	ecx, DWORD PTR [ecx+12]
	mov	DWORD PTR [edx+12], ecx
	mov	ecx, DWORD PTR _this$[ebp]
	call	?GetClosestIntersectingBot@Raven_Projectile@@IBEPAVRaven_Bot@@UVector2D@@0@Z ; Raven_Projectile::GetClosestIntersectingBot
	mov	DWORD PTR _hit$[ebp], eax

; 87   :   
; 88   :   //if no bots hit just return;
; 89   :   if (!hit) return;

	cmp	DWORD PTR _hit$[ebp], 0
	jne	SHORT $LN2@TestForImp
	jmp	$LN1@TestForImp
$LN2@TestForImp:

; 90   : 
; 91   :   //determine the impact point with the bot's bounding circle so that the
; 92   :   //shell can be rendered properly
; 93   :   GetLineSegmentCircleClosestIntersectionPoint(m_vOrigin,

	mov	edx, DWORD PTR _this$[ebp]
	add	edx, 200				; 000000c8H
	push	edx
	mov	ecx, DWORD PTR _hit$[ebp]
	call	?BRadius@BaseGameEntity@@QBENXZ		; BaseGameEntity::BRadius
	sub	esp, 8
	fstp	QWORD PTR [esp]
	lea	eax, DWORD PTR $T1[ebp]
	push	eax
	mov	ecx, DWORD PTR _hit$[ebp]
	call	?Pos@BaseGameEntity@@QBE?AUVector2D@@XZ	; BaseGameEntity::Pos
	sub	esp, 16					; 00000010H
	mov	ecx, esp
	mov	edx, DWORD PTR [eax]
	mov	DWORD PTR [ecx], edx
	mov	edx, DWORD PTR [eax+4]
	mov	DWORD PTR [ecx+4], edx
	mov	edx, DWORD PTR [eax+8]
	mov	DWORD PTR [ecx+8], edx
	mov	eax, DWORD PTR [eax+12]
	mov	DWORD PTR [ecx+12], eax
	mov	ecx, DWORD PTR _this$[ebp]
	add	ecx, 200				; 000000c8H
	sub	esp, 16					; 00000010H
	mov	edx, esp
	mov	eax, DWORD PTR [ecx]
	mov	DWORD PTR [edx], eax
	mov	eax, DWORD PTR [ecx+4]
	mov	DWORD PTR [edx+4], eax
	mov	eax, DWORD PTR [ecx+8]
	mov	DWORD PTR [edx+8], eax
	mov	ecx, DWORD PTR [ecx+12]
	mov	DWORD PTR [edx+12], ecx
	mov	edx, DWORD PTR _this$[ebp]
	add	edx, 176				; 000000b0H
	sub	esp, 16					; 00000010H
	mov	eax, esp
	mov	ecx, DWORD PTR [edx]
	mov	DWORD PTR [eax], ecx
	mov	ecx, DWORD PTR [edx+4]
	mov	DWORD PTR [eax+4], ecx
	mov	ecx, DWORD PTR [edx+8]
	mov	DWORD PTR [eax+8], ecx
	mov	edx, DWORD PTR [edx+12]
	mov	DWORD PTR [eax+12], edx
	call	?GetLineSegmentCircleClosestIntersectionPoint@@YA_NUVector2D@@00NAAU1@@Z ; GetLineSegmentCircleClosestIntersectionPoint
	add	esp, 60					; 0000003cH

; 94   :                                                m_vImpactPoint,
; 95   :                                                hit->Pos(),
; 96   :                                                hit->BRadius(),
; 97   :                                                m_vImpactPoint);
; 98   : 
; 99   :   //send a message to the bot to let it know it's been hit, and who the
; 100  :   //shot came from
; 101  :   Dispatcher->DispatchMsg(SEND_MSG_IMMEDIATELY,

	mov	eax, DWORD PTR _this$[ebp]
	add	eax, 192				; 000000c0H
	push	eax
	push	3
	mov	ecx, DWORD PTR _hit$[ebp]
	call	?ID@BaseGameEntity@@QBEHXZ		; BaseGameEntity::ID
	push	eax
	mov	ecx, DWORD PTR _this$[ebp]
	mov	edx, DWORD PTR [ecx+144]
	push	edx
	sub	esp, 8
	xorps	xmm0, xmm0
	movsd	QWORD PTR [esp], xmm0
	call	?Instance@MessageDispatcher@@SAPAV1@XZ	; MessageDispatcher::Instance
	mov	ecx, eax
	call	?DispatchMsg@MessageDispatcher@@QAEXNHHHPAX@Z ; MessageDispatcher::DispatchMsg
$LN1@TestForImp:

; 102  :                               m_iShooterID,
; 103  :                               hit->ID(),
; 104  :                               Msg_TakeThatMF,
; 105  :                               (void*)&m_iDamageInflicted);
; 106  : }

	push	edx
	mov	ecx, ebp
	push	eax
	lea	edx, DWORD PTR $LN6@TestForImp
	call	@_RTC_CheckStackVars@8
	pop	eax
	pop	edx
	pop	edi
	add	esp, 40					; 00000028H
	cmp	ebp, esp
	call	__RTC_CheckEsp
	mov	esp, ebp
	pop	ebp
	ret	0
	npad	1
$LN6@TestForImp:
	DD	1
	DD	$LN5@TestForImp
$LN5@TestForImp:
	DD	-16					; fffffff0H
	DD	8
	DD	$LN4@TestForImp
$LN4@TestForImp:
	DB	68					; 00000044H
	DB	105					; 00000069H
	DB	115					; 00000073H
	DB	116					; 00000074H
	DB	84					; 00000054H
	DB	111					; 0000006fH
	DB	67					; 00000043H
	DB	108					; 0000006cH
	DB	111					; 0000006fH
	DB	115					; 00000073H
	DB	101					; 00000065H
	DB	115					; 00000073H
	DB	116					; 00000074H
	DB	73					; 00000049H
	DB	109					; 0000006dH
	DB	112					; 00000070H
	DB	97					; 00000061H
	DB	99					; 00000063H
	DB	116					; 00000074H
	DB	0
?TestForImpact@Pellet@@AAEXXZ ENDP			; Pellet::TestForImpact
_TEXT	ENDS
; Function compile flags: /Odtp /RTCsu
;	COMDAT ??_GRaven_Projectile@@UAEPAXI@Z
_TEXT	SEGMENT
_this$ = -4						; size = 4
___flags$ = 8						; size = 4
??_GRaven_Projectile@@UAEPAXI@Z PROC			; Raven_Projectile::`scalar deleting destructor', COMDAT
; _this$ = ecx
	push	ebp
	mov	ebp, esp
	push	ecx
	mov	DWORD PTR [ebp-4], -858993460		; ccccccccH
	mov	DWORD PTR _this$[ebp], ecx
	mov	ecx, DWORD PTR _this$[ebp]
	call	??1Raven_Projectile@@UAE@XZ
	mov	eax, DWORD PTR ___flags$[ebp]
	and	eax, 1
	je	SHORT $LN2@scalar
	push	224					; 000000e0H
	mov	ecx, DWORD PTR _this$[ebp]
	push	ecx
	call	??3@YAXPAXI@Z				; operator delete
	add	esp, 8
$LN2@scalar:
	mov	eax, DWORD PTR _this$[ebp]
	add	esp, 4
	cmp	ebp, esp
	call	__RTC_CheckEsp
	mov	esp, ebp
	pop	ebp
	ret	4
??_GRaven_Projectile@@UAEPAXI@Z ENDP			; Raven_Projectile::`scalar deleting destructor'
_TEXT	ENDS
; Function compile flags: /Odtp /RTCsu
;	COMDAT ??1Raven_Projectile@@UAE@XZ
_TEXT	SEGMENT
_this$ = -4						; size = 4
??1Raven_Projectile@@UAE@XZ PROC			; Raven_Projectile::~Raven_Projectile, COMDAT
; _this$ = ecx
	push	ebp
	mov	ebp, esp
	push	ecx
	mov	DWORD PTR [ebp-4], -858993460		; ccccccccH
	mov	DWORD PTR _this$[ebp], ecx
	mov	ecx, DWORD PTR _this$[ebp]
	call	??1MovingEntity@@UAE@XZ			; MovingEntity::~MovingEntity
	add	esp, 4
	cmp	ebp, esp
	call	__RTC_CheckEsp
	mov	esp, ebp
	pop	ebp
	ret	0
??1Raven_Projectile@@UAE@XZ ENDP			; Raven_Projectile::~Raven_Projectile
_TEXT	ENDS
; Function compile flags: /Odtp /RTCsu
; File C:\Users\lsy01\OneDrive\바탕 화면\3-2_Study\인공지능\Source\VS2010\Buckland_Chapter7 to 10_Raven\armory\Raven_Projectile.h
;	COMDAT ?HasImpacted@Raven_Projectile@@QBE_NXZ
_TEXT	SEGMENT
_this$ = -4						; size = 4
?HasImpacted@Raven_Projectile@@QBE_NXZ PROC		; Raven_Projectile::HasImpacted, COMDAT
; _this$ = ecx

; 112  :   bool HasImpacted()const{return m_bImpacted;}

	push	ebp
	mov	ebp, esp
	push	ecx
	mov	DWORD PTR _this$[ebp], ecx
	mov	eax, DWORD PTR _this$[ebp]
	mov	al, BYTE PTR [eax+197]
	mov	esp, ebp
	pop	ebp
	ret	0
?HasImpacted@Raven_Projectile@@QBE_NXZ ENDP		; Raven_Projectile::HasImpacted
_TEXT	ENDS
; Function compile flags: /Odtp /RTCsu
; File C:\Users\lsy01\OneDrive\바탕 화면\3-2_Study\인공지능\Source\VS2010\Buckland_Chapter7 to 10_Raven\armory\Raven_Projectile.h
;	COMDAT ?Read@Raven_Projectile@@UAEXAAV?$basic_ifstream@DU?$char_traits@D@std@@@std@@@Z
_TEXT	SEGMENT
_this$ = -4						; size = 4
_is$ = 8						; size = 4
?Read@Raven_Projectile@@UAEXAAV?$basic_ifstream@DU?$char_traits@D@std@@@std@@@Z PROC ; Raven_Projectile::Read, COMDAT
; _this$ = ecx

; 100  :   void Read (std::ifstream& is){}

	push	ebp
	mov	ebp, esp
	push	ecx
	mov	DWORD PTR _this$[ebp], ecx
	mov	esp, ebp
	pop	ebp
	ret	4
?Read@Raven_Projectile@@UAEXAAV?$basic_ifstream@DU?$char_traits@D@std@@@std@@@Z ENDP ; Raven_Projectile::Read
_TEXT	ENDS
; Function compile flags: /Odtp /RTCsu
; File C:\Users\lsy01\OneDrive\바탕 화면\3-2_Study\인공지능\Source\VS2010\Buckland_Chapter7 to 10_Raven\armory\Raven_Projectile.h
;	COMDAT ?Write@Raven_Projectile@@UBEXAAV?$basic_ostream@DU?$char_traits@D@std@@@std@@@Z
_TEXT	SEGMENT
_this$ = -4						; size = 4
_os$ = 8						; size = 4
?Write@Raven_Projectile@@UBEXAAV?$basic_ostream@DU?$char_traits@D@std@@@std@@@Z PROC ; Raven_Projectile::Write, COMDAT
; _this$ = ecx

; 99   :   void Write(std::ostream&  os)const{}

	push	ebp
	mov	ebp, esp
	push	ecx
	mov	DWORD PTR _this$[ebp], ecx
	mov	esp, ebp
	pop	ebp
	ret	4
?Write@Raven_Projectile@@UBEXAAV?$basic_ostream@DU?$char_traits@D@std@@@std@@@Z ENDP ; Raven_Projectile::Write
_TEXT	ENDS
; Function compile flags: /Odtp /RTCsu
; File C:\Users\lsy01\OneDrive\바탕 화면\3-2_Study\인공지능\Source\VS2010\Buckland_Chapter7 to 10_Raven\armory\Raven_Projectile.h
;	COMDAT ??0Raven_Projectile@@QAE@UVector2D@@PAVRaven_Game@@H00HNNNN@Z
_TEXT	SEGMENT
$T2 = -48						; size = 16
$T3 = -32						; size = 16
_this$ = -16						; size = 4
__$EHRec$ = -12						; size = 12
_target$ = 8						; size = 16
_world$ = 24						; size = 4
_ShooterID$ = 28					; size = 4
_origin$ = 32						; size = 16
_heading$ = 48						; size = 16
_damage$ = 64						; size = 4
_scale$ = 68						; size = 8
_MaxSpeed$ = 76						; size = 8
_mass$ = 84						; size = 8
_MaxForce$ = 92						; size = 8
??0Raven_Projectile@@QAE@UVector2D@@PAVRaven_Game@@H00HNNNN@Z PROC ; Raven_Projectile::Raven_Projectile, COMDAT
; _this$ = ecx

; 95   :   {m_dTimeOfCreation = Clock->GetCurrentTime();}

	push	ebp
	mov	ebp, esp
	push	-1
	push	__ehhandler$??0Raven_Projectile@@QAE@UVector2D@@PAVRaven_Game@@H00HNNNN@Z
	mov	eax, DWORD PTR fs:0
	push	eax
	sub	esp, 36					; 00000024H
	mov	eax, -858993460				; ccccccccH
	mov	DWORD PTR [ebp-48], eax
	mov	DWORD PTR [ebp-44], eax
	mov	DWORD PTR [ebp-40], eax
	mov	DWORD PTR [ebp-36], eax
	mov	DWORD PTR [ebp-32], eax
	mov	DWORD PTR [ebp-28], eax
	mov	DWORD PTR [ebp-24], eax
	mov	DWORD PTR [ebp-20], eax
	mov	DWORD PTR [ebp-16], eax
	mov	eax, DWORD PTR ___security_cookie
	xor	eax, ebp
	push	eax
	lea	eax, DWORD PTR __$EHRec$[ebp]
	mov	DWORD PTR fs:0, eax
	mov	DWORD PTR _this$[ebp], ecx

; 76   :                    double    MaxForce):  MovingEntity(origin,

	sub	esp, 8
	movsd	xmm0, QWORD PTR _MaxForce$[ebp]
	movsd	QWORD PTR [esp], xmm0
	sub	esp, 8
	xorps	xmm0, xmm0
	movsd	QWORD PTR [esp], xmm0
	sub	esp, 8
	movsd	xmm0, QWORD PTR _scale$[ebp]
	movsd	QWORD PTR [esp], xmm0
	sub	esp, 8
	movsd	xmm0, QWORD PTR _scale$[ebp]
	movsd	QWORD PTR [esp], xmm0
	lea	ecx, DWORD PTR $T3[ebp]
	call	??0Vector2D@@QAE@NN@Z			; Vector2D::Vector2D
	sub	esp, 16					; 00000010H
	mov	ecx, esp
	mov	edx, DWORD PTR [eax]
	mov	DWORD PTR [ecx], edx
	mov	edx, DWORD PTR [eax+4]
	mov	DWORD PTR [ecx+4], edx
	mov	edx, DWORD PTR [eax+8]
	mov	DWORD PTR [ecx+8], edx
	mov	eax, DWORD PTR [eax+12]
	mov	DWORD PTR [ecx+12], eax
	sub	esp, 8
	movsd	xmm0, QWORD PTR _mass$[ebp]
	movsd	QWORD PTR [esp], xmm0
	sub	esp, 16					; 00000010H
	mov	ecx, esp
	mov	edx, DWORD PTR _heading$[ebp]
	mov	DWORD PTR [ecx], edx
	mov	eax, DWORD PTR _heading$[ebp+4]
	mov	DWORD PTR [ecx+4], eax
	mov	edx, DWORD PTR _heading$[ebp+8]
	mov	DWORD PTR [ecx+8], edx
	mov	eax, DWORD PTR _heading$[ebp+12]
	mov	DWORD PTR [ecx+12], eax
	sub	esp, 8
	movsd	xmm0, QWORD PTR _MaxSpeed$[ebp]
	movsd	QWORD PTR [esp], xmm0
	sub	esp, 8
	xorps	xmm0, xmm0
	movsd	QWORD PTR [esp], xmm0
	sub	esp, 8
	xorps	xmm0, xmm0
	movsd	QWORD PTR [esp], xmm0
	lea	ecx, DWORD PTR $T2[ebp]
	call	??0Vector2D@@QAE@NN@Z			; Vector2D::Vector2D
	sub	esp, 16					; 00000010H
	mov	ecx, esp
	mov	edx, DWORD PTR [eax]
	mov	DWORD PTR [ecx], edx
	mov	edx, DWORD PTR [eax+4]
	mov	DWORD PTR [ecx+4], edx
	mov	edx, DWORD PTR [eax+8]
	mov	DWORD PTR [ecx+8], edx
	mov	eax, DWORD PTR [eax+12]
	mov	DWORD PTR [ecx+12], eax
	sub	esp, 8
	movsd	xmm0, QWORD PTR _scale$[ebp]
	movsd	QWORD PTR [esp], xmm0
	sub	esp, 16					; 00000010H
	mov	ecx, esp
	mov	edx, DWORD PTR _origin$[ebp]
	mov	DWORD PTR [ecx], edx
	mov	eax, DWORD PTR _origin$[ebp+4]
	mov	DWORD PTR [ecx+4], eax
	mov	edx, DWORD PTR _origin$[ebp+8]
	mov	DWORD PTR [ecx+8], edx
	mov	eax, DWORD PTR _origin$[ebp+12]
	mov	DWORD PTR [ecx+12], eax
	mov	ecx, DWORD PTR _this$[ebp]
	call	??0MovingEntity@@QAE@UVector2D@@N0N0N0NN@Z ; MovingEntity::MovingEntity
	mov	DWORD PTR __$EHRec$[ebp+8], 0

; 95   :   {m_dTimeOfCreation = Clock->GetCurrentTime();}

	mov	ecx, DWORD PTR _this$[ebp]
	mov	DWORD PTR [ecx], OFFSET ??_7Raven_Projectile@@6B@

; 92   :                                         m_iShooterID(ShooterID)

	mov	edx, DWORD PTR _this$[ebp]
	mov	eax, DWORD PTR _ShooterID$[ebp]
	mov	DWORD PTR [edx+144], eax

; 77   :                                                      scale,
; 78   :                                                      Vector2D(0,0),
; 79   :                                                      MaxSpeed,
; 80   :                                                      heading,
; 81   :                                                      mass,
; 82   :                                                      Vector2D(scale, scale),
; 83   :                                                      0, //max turn rate irrelevant here, all shots go straight
; 84   :                                                      MaxForce),
; 85   : 
; 86   :                                         m_vTarget(target),

	mov	ecx, DWORD PTR _this$[ebp]
	add	ecx, 152				; 00000098H
	mov	edx, DWORD PTR _target$[ebp]
	mov	DWORD PTR [ecx], edx
	mov	eax, DWORD PTR _target$[ebp+4]
	mov	DWORD PTR [ecx+4], eax
	mov	edx, DWORD PTR _target$[ebp+8]
	mov	DWORD PTR [ecx+8], edx
	mov	eax, DWORD PTR _target$[ebp+12]
	mov	DWORD PTR [ecx+12], eax

; 89   :                                         m_pWorld(world),

	mov	ecx, DWORD PTR _this$[ebp]
	mov	edx, DWORD PTR _world$[ebp]
	mov	DWORD PTR [ecx+168], edx

; 91   :                                         m_vOrigin(origin),

	mov	eax, DWORD PTR _this$[ebp]
	add	eax, 176				; 000000b0H
	mov	ecx, DWORD PTR _origin$[ebp]
	mov	DWORD PTR [eax], ecx
	mov	edx, DWORD PTR _origin$[ebp+4]
	mov	DWORD PTR [eax+4], edx
	mov	ecx, DWORD PTR _origin$[ebp+8]
	mov	DWORD PTR [eax+8], ecx
	mov	edx, DWORD PTR _origin$[ebp+12]
	mov	DWORD PTR [eax+12], edx

; 90   :                                         m_iDamageInflicted(damage),

	mov	eax, DWORD PTR _this$[ebp]
	mov	ecx, DWORD PTR _damage$[ebp]
	mov	DWORD PTR [eax+192], ecx

; 87   :                                         m_bDead(false),

	mov	edx, DWORD PTR _this$[ebp]
	mov	BYTE PTR [edx+196], 0

; 88   :                                         m_bImpacted(false),

	mov	eax, DWORD PTR _this$[ebp]
	mov	BYTE PTR [eax+197], 0

; 95   :   {m_dTimeOfCreation = Clock->GetCurrentTime();}

	mov	ecx, DWORD PTR _this$[ebp]
	add	ecx, 200				; 000000c8H
	call	??0Vector2D@@QAE@XZ			; Vector2D::Vector2D
	call	?Instance@CrudeTimer@@SAPAV1@XZ		; CrudeTimer::Instance
	mov	ecx, eax
	call	?GetTickCount@CrudeTimer@@QAENXZ	; CrudeTimer::GetTickCount
	mov	ecx, DWORD PTR _this$[ebp]
	fstp	QWORD PTR [ecx+216]
	mov	DWORD PTR __$EHRec$[ebp+8], -1
	mov	eax, DWORD PTR _this$[ebp]
	mov	ecx, DWORD PTR __$EHRec$[ebp]
	mov	DWORD PTR fs:0, ecx
	pop	ecx
	add	esp, 48					; 00000030H
	cmp	ebp, esp
	call	__RTC_CheckEsp
	mov	esp, ebp
	pop	ebp
	ret	92					; 0000005cH
_TEXT	ENDS
;	COMDAT text$x
text$x	SEGMENT
__unwindfunclet$??0Raven_Projectile@@QAE@UVector2D@@PAVRaven_Game@@H00HNNNN@Z$0:
	mov	ecx, DWORD PTR _this$[ebp]
	jmp	??1MovingEntity@@UAE@XZ			; MovingEntity::~MovingEntity
	int	3
	int	3
	int	3
	int	3
	int	3
__ehhandler$??0Raven_Projectile@@QAE@UVector2D@@PAVRaven_Game@@H00HNNNN@Z:
	npad	1
	npad	1
	mov	edx, DWORD PTR [esp+8]
	lea	eax, DWORD PTR [edx+12]
	mov	ecx, DWORD PTR [edx-40]
	xor	ecx, eax
	call	@__security_check_cookie@4
	mov	eax, OFFSET __ehfuncinfo$??0Raven_Projectile@@QAE@UVector2D@@PAVRaven_Game@@H00HNNNN@Z
	jmp	___CxxFrameHandler3
text$x	ENDS
??0Raven_Projectile@@QAE@UVector2D@@PAVRaven_Game@@H00HNNNN@Z ENDP ; Raven_Projectile::Raven_Projectile
; Function compile flags: /Odtp /RTCsu
; File C:\Users\lsy01\OneDrive\바탕 화면\3-2_Study\인공지능\Source\VS2010\Common\time\CrudeTimer.h
;	COMDAT ?GetTickCount@CrudeTimer@@QAENXZ
_TEXT	SEGMENT
tv78 = -16						; size = 8
tv73 = -8						; size = 4
_this$ = -4						; size = 4
?GetTickCount@CrudeTimer@@QAENXZ PROC			; CrudeTimer::GetTickCount, COMDAT
; _this$ = ecx

; 42   :   double GetCurrentTime(){return timeGetTime() * 0.001 - m_dStartTime;}

	push	ebp
	mov	ebp, esp
	sub	esp, 16					; 00000010H
	push	esi
	mov	eax, -858993460				; ccccccccH
	mov	DWORD PTR [ebp-16], eax
	mov	DWORD PTR [ebp-12], eax
	mov	DWORD PTR [ebp-8], eax
	mov	DWORD PTR [ebp-4], eax
	mov	DWORD PTR _this$[ebp], ecx
	mov	esi, esp
	call	DWORD PTR __imp__timeGetTime@0
	cmp	esi, esp
	call	__RTC_CheckEsp
	mov	DWORD PTR tv73[ebp], eax
	cvtsi2sd xmm0, DWORD PTR tv73[ebp]
	mov	eax, DWORD PTR tv73[ebp]
	shr	eax, 31					; 0000001fH
	addsd	xmm0, QWORD PTR __xmm@41f00000000000000000000000000000[eax*8]
	mulsd	xmm0, QWORD PTR __real@3f50624dd2f1a9fc
	mov	ecx, DWORD PTR _this$[ebp]
	subsd	xmm0, QWORD PTR [ecx]
	movsd	QWORD PTR tv78[ebp], xmm0
	fld	QWORD PTR tv78[ebp]
	pop	esi
	add	esp, 16					; 00000010H
	cmp	ebp, esp
	call	__RTC_CheckEsp
	mov	esp, ebp
	pop	ebp
	ret	0
?GetTickCount@CrudeTimer@@QAENXZ ENDP			; CrudeTimer::GetTickCount
_TEXT	ENDS
; Function compile flags: /Odtp /RTCsu
;	COMDAT ??_GMovingEntity@@UAEPAXI@Z
_TEXT	SEGMENT
_this$ = -4						; size = 4
___flags$ = 8						; size = 4
??_GMovingEntity@@UAEPAXI@Z PROC			; MovingEntity::`scalar deleting destructor', COMDAT
; _this$ = ecx
	push	ebp
	mov	ebp, esp
	push	ecx
	mov	DWORD PTR [ebp-4], -858993460		; ccccccccH
	mov	DWORD PTR _this$[ebp], ecx
	mov	ecx, DWORD PTR _this$[ebp]
	call	??1MovingEntity@@UAE@XZ			; MovingEntity::~MovingEntity
	mov	eax, DWORD PTR ___flags$[ebp]
	and	eax, 1
	je	SHORT $LN2@scalar
	push	144					; 00000090H
	mov	ecx, DWORD PTR _this$[ebp]
	push	ecx
	call	??3@YAXPAXI@Z				; operator delete
	add	esp, 8
$LN2@scalar:
	mov	eax, DWORD PTR _this$[ebp]
	add	esp, 4
	cmp	ebp, esp
	call	__RTC_CheckEsp
	mov	esp, ebp
	pop	ebp
	ret	4
??_GMovingEntity@@UAEPAXI@Z ENDP			; MovingEntity::`scalar deleting destructor'
_TEXT	ENDS
; Function compile flags: /Odtp /RTCsu
; File C:\Users\lsy01\OneDrive\바탕 화면\3-2_Study\인공지능\Source\VS2010\Common\game\MovingEntity.h
;	COMDAT ?MaxSpeed@MovingEntity@@QBENXZ
_TEXT	SEGMENT
_this$ = -4						; size = 4
?MaxSpeed@MovingEntity@@QBENXZ PROC			; MovingEntity::MaxSpeed, COMDAT
; _this$ = ecx

; 82   :   double    MaxSpeed()const{return m_dMaxSpeed;}                       

	push	ebp
	mov	ebp, esp
	push	ecx
	mov	DWORD PTR _this$[ebp], ecx
	mov	eax, DWORD PTR _this$[ebp]
	fld	QWORD PTR [eax+120]
	mov	esp, ebp
	pop	ebp
	ret	0
?MaxSpeed@MovingEntity@@QBENXZ ENDP			; MovingEntity::MaxSpeed
_TEXT	ENDS
; Function compile flags: /Odtp /RTCsu
; File C:\Users\lsy01\OneDrive\바탕 화면\3-2_Study\인공지능\Source\VS2010\Common\game\MovingEntity.h
;	COMDAT ?Velocity@MovingEntity@@QBE?AUVector2D@@XZ
_TEXT	SEGMENT
_this$ = -4						; size = 4
___$ReturnUdt$ = 8					; size = 4
?Velocity@MovingEntity@@QBE?AUVector2D@@XZ PROC		; MovingEntity::Velocity, COMDAT
; _this$ = ecx

; 75   :   Vector2D  Velocity()const{return m_vVelocity;}

	push	ebp
	mov	ebp, esp
	push	ecx
	mov	DWORD PTR _this$[ebp], ecx
	mov	eax, DWORD PTR _this$[ebp]
	add	eax, 64					; 00000040H
	mov	ecx, DWORD PTR ___$ReturnUdt$[ebp]
	mov	edx, DWORD PTR [eax]
	mov	DWORD PTR [ecx], edx
	mov	edx, DWORD PTR [eax+4]
	mov	DWORD PTR [ecx+4], edx
	mov	edx, DWORD PTR [eax+8]
	mov	DWORD PTR [ecx+8], edx
	mov	eax, DWORD PTR [eax+12]
	mov	DWORD PTR [ecx+12], eax
	mov	eax, DWORD PTR ___$ReturnUdt$[ebp]
	mov	esp, ebp
	pop	ebp
	ret	4
?Velocity@MovingEntity@@QBE?AUVector2D@@XZ ENDP		; MovingEntity::Velocity
_TEXT	ENDS
; Function compile flags: /Odtp /RTCsu
; File C:\Users\lsy01\OneDrive\바탕 화면\3-2_Study\인공지능\Source\VS2010\Common\game\MovingEntity.h
;	COMDAT ??1MovingEntity@@UAE@XZ
_TEXT	SEGMENT
_this$ = -4						; size = 4
??1MovingEntity@@UAE@XZ PROC				; MovingEntity::~MovingEntity, COMDAT
; _this$ = ecx

; 72   :   virtual ~MovingEntity(){}

	push	ebp
	mov	ebp, esp
	push	ecx
	mov	DWORD PTR [ebp-4], -858993460		; ccccccccH
	mov	DWORD PTR _this$[ebp], ecx
	mov	eax, DWORD PTR _this$[ebp]
	mov	DWORD PTR [eax], OFFSET ??_7MovingEntity@@6B@
	mov	ecx, DWORD PTR _this$[ebp]
	call	??1BaseGameEntity@@UAE@XZ		; BaseGameEntity::~BaseGameEntity
	add	esp, 4
	cmp	ebp, esp
	call	__RTC_CheckEsp
	mov	esp, ebp
	pop	ebp
	ret	0
??1MovingEntity@@UAE@XZ ENDP				; MovingEntity::~MovingEntity
_TEXT	ENDS
; Function compile flags: /Odtp /RTCsu
; File C:\Users\lsy01\OneDrive\바탕 화면\3-2_Study\인공지능\Source\VS2010\Common\game\MovingEntity.h
;	COMDAT ??0MovingEntity@@QAE@UVector2D@@N0N0N0NN@Z
_TEXT	SEGMENT
_this$ = -16						; size = 4
__$EHRec$ = -12						; size = 12
_position$ = 8						; size = 16
_radius$ = 24						; size = 8
_velocity$ = 32						; size = 16
_max_speed$ = 48					; size = 8
_heading$ = 56						; size = 16
_mass$ = 72						; size = 8
_scale$ = 80						; size = 16
_turn_rate$ = 96					; size = 8
_max_force$ = 104					; size = 8
??0MovingEntity@@QAE@UVector2D@@N0N0N0NN@Z PROC		; MovingEntity::MovingEntity, COMDAT
; _this$ = ecx

; 65   :   {

	push	ebp
	mov	ebp, esp
	push	-1
	push	__ehhandler$??0MovingEntity@@QAE@UVector2D@@N0N0N0NN@Z
	mov	eax, DWORD PTR fs:0
	push	eax
	push	ecx
	mov	DWORD PTR [ebp-16], -858993460		; ccccccccH
	mov	eax, DWORD PTR ___security_cookie
	xor	eax, ebp
	push	eax
	lea	eax, DWORD PTR __$EHRec$[ebp]
	mov	DWORD PTR fs:0, eax
	mov	DWORD PTR _this$[ebp], ecx

; 57   :                double   max_force):BaseGameEntity(BaseGameEntity::GetNextValidID()),

	call	?GetNextValidID@BaseGameEntity@@SAHXZ	; BaseGameEntity::GetNextValidID
	push	eax
	mov	ecx, DWORD PTR _this$[ebp]
	call	??0BaseGameEntity@@IAE@H@Z		; BaseGameEntity::BaseGameEntity
	mov	DWORD PTR __$EHRec$[ebp+8], 0

; 65   :   {

	mov	eax, DWORD PTR _this$[ebp]
	mov	DWORD PTR [eax], OFFSET ??_7MovingEntity@@6B@

; 59   :                                   m_vVelocity(velocity),

	mov	ecx, DWORD PTR _this$[ebp]
	add	ecx, 64					; 00000040H
	mov	edx, DWORD PTR _velocity$[ebp]
	mov	DWORD PTR [ecx], edx
	mov	eax, DWORD PTR _velocity$[ebp+4]
	mov	DWORD PTR [ecx+4], eax
	mov	edx, DWORD PTR _velocity$[ebp+8]
	mov	DWORD PTR [ecx+8], edx
	mov	eax, DWORD PTR _velocity$[ebp+12]
	mov	DWORD PTR [ecx+12], eax

; 58   :                                   m_vHeading(heading),

	mov	ecx, DWORD PTR _this$[ebp]
	add	ecx, 80					; 00000050H
	mov	edx, DWORD PTR _heading$[ebp]
	mov	DWORD PTR [ecx], edx
	mov	eax, DWORD PTR _heading$[ebp+4]
	mov	DWORD PTR [ecx+4], eax
	mov	edx, DWORD PTR _heading$[ebp+8]
	mov	DWORD PTR [ecx+8], edx
	mov	eax, DWORD PTR _heading$[ebp+12]
	mov	DWORD PTR [ecx+12], eax

; 61   :                                   m_vSide(m_vHeading.Perp()),

	mov	ecx, DWORD PTR _this$[ebp]
	add	ecx, 96					; 00000060H
	push	ecx
	mov	ecx, DWORD PTR _this$[ebp]
	add	ecx, 80					; 00000050H
	call	?Perp@Vector2D@@QBE?AU1@XZ		; Vector2D::Perp

; 60   :                                   m_dMass(mass),

	mov	edx, DWORD PTR _this$[ebp]
	movsd	xmm0, QWORD PTR _mass$[ebp]
	movsd	QWORD PTR [edx+112], xmm0

; 62   :                                   m_dMaxSpeed(max_speed),

	mov	eax, DWORD PTR _this$[ebp]
	movsd	xmm0, QWORD PTR _max_speed$[ebp]
	movsd	QWORD PTR [eax+120], xmm0

; 64   :                                   m_dMaxForce(max_force)

	mov	ecx, DWORD PTR _this$[ebp]
	movsd	xmm0, QWORD PTR _max_force$[ebp]
	movsd	QWORD PTR [ecx+128], xmm0

; 63   :                                   m_dMaxTurnRate(turn_rate),

	mov	edx, DWORD PTR _this$[ebp]
	movsd	xmm0, QWORD PTR _turn_rate$[ebp]
	movsd	QWORD PTR [edx+136], xmm0

; 66   :     m_vPosition = position;

	mov	eax, DWORD PTR _this$[ebp]
	add	eax, 24					; 00000018H
	mov	ecx, DWORD PTR _position$[ebp]
	mov	DWORD PTR [eax], ecx
	mov	edx, DWORD PTR _position$[ebp+4]
	mov	DWORD PTR [eax+4], edx
	mov	ecx, DWORD PTR _position$[ebp+8]
	mov	DWORD PTR [eax+8], ecx
	mov	edx, DWORD PTR _position$[ebp+12]
	mov	DWORD PTR [eax+12], edx

; 67   :     m_dBoundingRadius = radius; 

	mov	eax, DWORD PTR _this$[ebp]
	movsd	xmm0, QWORD PTR _radius$[ebp]
	movsd	QWORD PTR [eax+56], xmm0

; 68   :     m_vScale = scale;

	mov	ecx, DWORD PTR _this$[ebp]
	add	ecx, 40					; 00000028H
	mov	edx, DWORD PTR _scale$[ebp]
	mov	DWORD PTR [ecx], edx
	mov	eax, DWORD PTR _scale$[ebp+4]
	mov	DWORD PTR [ecx+4], eax
	mov	edx, DWORD PTR _scale$[ebp+8]
	mov	DWORD PTR [ecx+8], edx
	mov	eax, DWORD PTR _scale$[ebp+12]
	mov	DWORD PTR [ecx+12], eax

; 69   :   }

	mov	DWORD PTR __$EHRec$[ebp+8], -1
	mov	eax, DWORD PTR _this$[ebp]
	mov	ecx, DWORD PTR __$EHRec$[ebp]
	mov	DWORD PTR fs:0, ecx
	pop	ecx
	add	esp, 16					; 00000010H
	cmp	ebp, esp
	call	__RTC_CheckEsp
	mov	esp, ebp
	pop	ebp
	ret	104					; 00000068H
_TEXT	ENDS
;	COMDAT text$x
text$x	SEGMENT
__unwindfunclet$??0MovingEntity@@QAE@UVector2D@@N0N0N0NN@Z$0:
	mov	ecx, DWORD PTR _this$[ebp]
	jmp	??1BaseGameEntity@@UAE@XZ		; BaseGameEntity::~BaseGameEntity
	int	3
	int	3
	int	3
	int	3
	int	3
__ehhandler$??0MovingEntity@@QAE@UVector2D@@N0N0N0NN@Z:
	npad	1
	npad	1
	mov	edx, DWORD PTR [esp+8]
	lea	eax, DWORD PTR [edx+12]
	mov	ecx, DWORD PTR [edx-8]
	xor	ecx, eax
	call	@__security_check_cookie@4
	mov	eax, OFFSET __ehfuncinfo$??0MovingEntity@@QAE@UVector2D@@N0N0N0NN@Z
	jmp	___CxxFrameHandler3
text$x	ENDS
??0MovingEntity@@QAE@UVector2D@@N0N0N0NN@Z ENDP		; MovingEntity::MovingEntity
; Function compile flags: /Odtp /RTCsu
;	COMDAT ??_GBaseGameEntity@@UAEPAXI@Z
_TEXT	SEGMENT
_this$ = -4						; size = 4
___flags$ = 8						; size = 4
??_GBaseGameEntity@@UAEPAXI@Z PROC			; BaseGameEntity::`scalar deleting destructor', COMDAT
; _this$ = ecx
	push	ebp
	mov	ebp, esp
	push	ecx
	mov	DWORD PTR [ebp-4], -858993460		; ccccccccH
	mov	DWORD PTR _this$[ebp], ecx
	mov	ecx, DWORD PTR _this$[ebp]
	call	??1BaseGameEntity@@UAE@XZ		; BaseGameEntity::~BaseGameEntity
	mov	eax, DWORD PTR ___flags$[ebp]
	and	eax, 1
	je	SHORT $LN2@scalar
	push	64					; 00000040H
	mov	ecx, DWORD PTR _this$[ebp]
	push	ecx
	call	??3@YAXPAXI@Z				; operator delete
	add	esp, 8
$LN2@scalar:
	mov	eax, DWORD PTR _this$[ebp]
	add	esp, 4
	cmp	ebp, esp
	call	__RTC_CheckEsp
	mov	esp, ebp
	pop	ebp
	ret	4
??_GBaseGameEntity@@UAEPAXI@Z ENDP			; BaseGameEntity::`scalar deleting destructor'
_TEXT	ENDS
; Function compile flags: /Odtp /RTCsu
; File C:\Users\lsy01\OneDrive\바탕 화면\3-2_Study\인공지능\Source\VS2010\Common\Game\BaseGameEntity.h
;	COMDAT ?ID@BaseGameEntity@@QBEHXZ
_TEXT	SEGMENT
_this$ = -4						; size = 4
?ID@BaseGameEntity@@QBEHXZ PROC				; BaseGameEntity::ID, COMDAT
; _this$ = ecx

; 94   :   int          ID()const{return m_ID;}

	push	ebp
	mov	ebp, esp
	push	ecx
	mov	DWORD PTR _this$[ebp], ecx
	mov	eax, DWORD PTR _this$[ebp]
	mov	eax, DWORD PTR [eax+8]
	mov	esp, ebp
	pop	ebp
	ret	0
?ID@BaseGameEntity@@QBEHXZ ENDP				; BaseGameEntity::ID
_TEXT	ENDS
; Function compile flags: /Odtp /RTCsu
; File C:\Users\lsy01\OneDrive\바탕 화면\3-2_Study\인공지능\Source\VS2010\Common\Game\BaseGameEntity.h
;	COMDAT ?BRadius@BaseGameEntity@@QBENXZ
_TEXT	SEGMENT
_this$ = -4						; size = 4
?BRadius@BaseGameEntity@@QBENXZ PROC			; BaseGameEntity::BRadius, COMDAT
; _this$ = ecx

; 92   :   double       BRadius()const{return m_dBoundingRadius;}

	push	ebp
	mov	ebp, esp
	push	ecx
	mov	DWORD PTR _this$[ebp], ecx
	mov	eax, DWORD PTR _this$[ebp]
	fld	QWORD PTR [eax+56]
	mov	esp, ebp
	pop	ebp
	ret	0
?BRadius@BaseGameEntity@@QBENXZ ENDP			; BaseGameEntity::BRadius
_TEXT	ENDS
; Function compile flags: /Odtp /RTCsu
; File C:\Users\lsy01\OneDrive\바탕 화면\3-2_Study\인공지능\Source\VS2010\Common\Game\BaseGameEntity.h
;	COMDAT ?Pos@BaseGameEntity@@QBE?AUVector2D@@XZ
_TEXT	SEGMENT
_this$ = -4						; size = 4
___$ReturnUdt$ = 8					; size = 4
?Pos@BaseGameEntity@@QBE?AUVector2D@@XZ PROC		; BaseGameEntity::Pos, COMDAT
; _this$ = ecx

; 89   :   Vector2D     Pos()const{return m_vPosition;}

	push	ebp
	mov	ebp, esp
	push	ecx
	mov	DWORD PTR _this$[ebp], ecx
	mov	eax, DWORD PTR _this$[ebp]
	add	eax, 24					; 00000018H
	mov	ecx, DWORD PTR ___$ReturnUdt$[ebp]
	mov	edx, DWORD PTR [eax]
	mov	DWORD PTR [ecx], edx
	mov	edx, DWORD PTR [eax+4]
	mov	DWORD PTR [ecx+4], edx
	mov	edx, DWORD PTR [eax+8]
	mov	DWORD PTR [ecx+8], edx
	mov	eax, DWORD PTR [eax+12]
	mov	DWORD PTR [ecx+12], eax
	mov	eax, DWORD PTR ___$ReturnUdt$[ebp]
	mov	esp, ebp
	pop	ebp
	ret	4
?Pos@BaseGameEntity@@QBE?AUVector2D@@XZ ENDP		; BaseGameEntity::Pos
_TEXT	ENDS
; Function compile flags: /Odtp /RTCsu
; File C:\Users\lsy01\OneDrive\바탕 화면\3-2_Study\인공지능\Source\VS2010\Common\Game\BaseGameEntity.h
;	COMDAT ?GetNextValidID@BaseGameEntity@@SAHXZ
_TEXT	SEGMENT
?GetNextValidID@BaseGameEntity@@SAHXZ PROC		; BaseGameEntity::GetNextValidID, COMDAT

; 82   :   static int   GetNextValidID(){return m_iNextValidID;}

	push	ebp
	mov	ebp, esp
	mov	eax, DWORD PTR ?m_iNextValidID@BaseGameEntity@@0HA ; BaseGameEntity::m_iNextValidID
	pop	ebp
	ret	0
?GetNextValidID@BaseGameEntity@@SAHXZ ENDP		; BaseGameEntity::GetNextValidID
_TEXT	ENDS
; Function compile flags: /Odtp /RTCsu
; File C:\Users\lsy01\OneDrive\바탕 화면\3-2_Study\인공지능\Source\VS2010\Common\Game\BaseGameEntity.h
;	COMDAT ?Read@BaseGameEntity@@UAEXAAV?$basic_ifstream@DU?$char_traits@D@std@@@std@@@Z
_TEXT	SEGMENT
_this$ = -4						; size = 4
_is$ = 8						; size = 4
?Read@BaseGameEntity@@UAEXAAV?$basic_ifstream@DU?$char_traits@D@std@@@std@@@Z PROC ; BaseGameEntity::Read, COMDAT
; _this$ = ecx

; 79   :   virtual void Read (std::ifstream& is){}

	push	ebp
	mov	ebp, esp
	push	ecx
	mov	DWORD PTR _this$[ebp], ecx
	mov	esp, ebp
	pop	ebp
	ret	4
?Read@BaseGameEntity@@UAEXAAV?$basic_ifstream@DU?$char_traits@D@std@@@std@@@Z ENDP ; BaseGameEntity::Read
_TEXT	ENDS
; Function compile flags: /Odtp /RTCsu
; File C:\Users\lsy01\OneDrive\바탕 화면\3-2_Study\인공지능\Source\VS2010\Common\Game\BaseGameEntity.h
;	COMDAT ?Write@BaseGameEntity@@UBEXAAV?$basic_ostream@DU?$char_traits@D@std@@@std@@@Z
_TEXT	SEGMENT
_this$ = -4						; size = 4
_os$ = 8						; size = 4
?Write@BaseGameEntity@@UBEXAAV?$basic_ostream@DU?$char_traits@D@std@@@std@@@Z PROC ; BaseGameEntity::Write, COMDAT
; _this$ = ecx

; 78   :   virtual void Write(std::ostream&  os)const{}

	push	ebp
	mov	ebp, esp
	push	ecx
	mov	DWORD PTR _this$[ebp], ecx
	mov	esp, ebp
	pop	ebp
	ret	4
?Write@BaseGameEntity@@UBEXAAV?$basic_ostream@DU?$char_traits@D@std@@@std@@@Z ENDP ; BaseGameEntity::Write
_TEXT	ENDS
; Function compile flags: /Odtp /RTCsu
; File C:\Users\lsy01\OneDrive\바탕 화면\3-2_Study\인공지능\Source\VS2010\Common\Game\BaseGameEntity.h
;	COMDAT ?HandleMessage@BaseGameEntity@@UAE_NABUTelegram@@@Z
_TEXT	SEGMENT
_this$ = -4						; size = 4
_msg$ = 8						; size = 4
?HandleMessage@BaseGameEntity@@UAE_NABUTelegram@@@Z PROC ; BaseGameEntity::HandleMessage, COMDAT
; _this$ = ecx

; 75   :   virtual bool HandleMessage(const Telegram& msg){return false;}

	push	ebp
	mov	ebp, esp
	push	ecx
	mov	DWORD PTR _this$[ebp], ecx
	xor	al, al
	mov	esp, ebp
	pop	ebp
	ret	4
?HandleMessage@BaseGameEntity@@UAE_NABUTelegram@@@Z ENDP ; BaseGameEntity::HandleMessage
_TEXT	ENDS
; Function compile flags: /Odtp /RTCsu
; File C:\Users\lsy01\OneDrive\바탕 화면\3-2_Study\인공지능\Source\VS2010\Common\Game\BaseGameEntity.h
;	COMDAT ?Update@BaseGameEntity@@UAEXXZ
_TEXT	SEGMENT
_this$ = -4						; size = 4
?Update@BaseGameEntity@@UAEXXZ PROC			; BaseGameEntity::Update, COMDAT
; _this$ = ecx

; 71   :   virtual void Update(){}; 

	push	ebp
	mov	ebp, esp
	push	ecx
	mov	DWORD PTR _this$[ebp], ecx
	mov	esp, ebp
	pop	ebp
	ret	0
?Update@BaseGameEntity@@UAEXXZ ENDP			; BaseGameEntity::Update
_TEXT	ENDS
; Function compile flags: /Odtp /RTCsu
; File C:\Users\lsy01\OneDrive\바탕 화면\3-2_Study\인공지능\Source\VS2010\Common\Game\BaseGameEntity.h
;	COMDAT ??1BaseGameEntity@@UAE@XZ
_TEXT	SEGMENT
_this$ = -4						; size = 4
??1BaseGameEntity@@UAE@XZ PROC				; BaseGameEntity::~BaseGameEntity, COMDAT
; _this$ = ecx

; 69   :   virtual ~BaseGameEntity(){}

	push	ebp
	mov	ebp, esp
	push	ecx
	mov	DWORD PTR _this$[ebp], ecx
	mov	eax, DWORD PTR _this$[ebp]
	mov	DWORD PTR [eax], OFFSET ??_7BaseGameEntity@@6B@
	mov	esp, ebp
	pop	ebp
	ret	0
??1BaseGameEntity@@UAE@XZ ENDP				; BaseGameEntity::~BaseGameEntity
_TEXT	ENDS
; Function compile flags: /Odtp /RTCsu
; File C:\Users\lsy01\OneDrive\바탕 화면\3-2_Study\인공지능\Source\VS2010\Common\2D\Geometry.h
;	COMDAT ?GetLineSegmentCircleClosestIntersectionPoint@@YA_NUVector2D@@00NAAU1@@Z
_TEXT	SEGMENT
tv191 = -180						; size = 8
tv182 = -172						; size = 8
tv172 = -164						; size = 8
tv166 = -156						; size = 8
tv216 = -148						; size = 8
$T1 = -140						; size = 16
$T2 = -124						; size = 16
$T3 = -108						; size = 16
$T4 = -92						; size = 16
_ip$5 = -76						; size = 8
_b$6 = -68						; size = 8
_a$7 = -60						; size = 8
_ipFound$ = -49						; size = 1
_LocalPos$ = -44					; size = 16
_toBNorm$ = -20						; size = 16
_A$ = 8							; size = 16
_B$ = 24						; size = 16
_pos$ = 40						; size = 16
_radius$ = 56						; size = 8
_IntersectionPoint$ = 64				; size = 4
?GetLineSegmentCircleClosestIntersectionPoint@@YA_NUVector2D@@00NAAU1@@Z PROC ; GetLineSegmentCircleClosestIntersectionPoint, COMDAT

; 586  : {

	push	ebp
	mov	ebp, esp
	sub	esp, 180				; 000000b4H
	push	edi
	lea	edi, DWORD PTR [ebp-180]
	mov	ecx, 45					; 0000002dH
	mov	eax, -858993460				; ccccccccH
	rep stosd

; 587  :   Vector2D toBNorm = Vec2DNormalize(B-A);

	lea	eax, DWORD PTR _A$[ebp]
	push	eax
	lea	ecx, DWORD PTR _B$[ebp]
	push	ecx
	lea	edx, DWORD PTR $T4[ebp]
	push	edx
	call	??G@YA?AUVector2D@@ABU0@0@Z		; operator-
	add	esp, 12					; 0000000cH
	push	eax
	lea	eax, DWORD PTR _toBNorm$[ebp]
	push	eax
	call	?Vec2DNormalize@@YA?AUVector2D@@ABU1@@Z	; Vec2DNormalize
	add	esp, 8

; 588  : 
; 589  :   //move the circle into the local space defined by the vector B-A with origin
; 590  :   //at A
; 591  :   Vector2D LocalPos = PointToLocalSpace(pos, toBNorm, toBNorm.Perp(), A);

	lea	ecx, DWORD PTR _A$[ebp]
	push	ecx
	lea	edx, DWORD PTR $T3[ebp]
	push	edx
	lea	ecx, DWORD PTR _toBNorm$[ebp]
	call	?Perp@Vector2D@@QBE?AU1@XZ		; Vector2D::Perp
	push	eax
	lea	eax, DWORD PTR _toBNorm$[ebp]
	push	eax
	lea	ecx, DWORD PTR _pos$[ebp]
	push	ecx
	lea	edx, DWORD PTR _LocalPos$[ebp]
	push	edx
	call	?PointToLocalSpace@@YA?AUVector2D@@ABU1@AAU1@11@Z ; PointToLocalSpace
	add	esp, 20					; 00000014H

; 592  : 
; 593  :   bool ipFound = false;

	mov	BYTE PTR _ipFound$[ebp], 0

; 594  : 
; 595  :   //if the local position + the radius is negative then the circle lays behind
; 596  :   //point A so there is no intersection possible. If the local x pos minus the 
; 597  :   //radius is greater than length A-B then the circle cannot intersect the 
; 598  :   //line segment
; 599  :   if ( (LocalPos.x+radius >= 0) &&

	movsd	xmm0, QWORD PTR _LocalPos$[ebp]
	addsd	xmm0, QWORD PTR _radius$[ebp]
	comisd	xmm0, QWORD PTR __real@0000000000000000
	jb	$LN3@GetLineSeg
	movsd	xmm0, QWORD PTR _LocalPos$[ebp]
	subsd	xmm0, QWORD PTR _radius$[ebp]
	movsd	xmm1, QWORD PTR _LocalPos$[ebp]
	subsd	xmm1, QWORD PTR _radius$[ebp]
	mulsd	xmm0, xmm1
	lea	eax, DWORD PTR _A$[ebp]
	push	eax
	lea	ecx, DWORD PTR _B$[ebp]
	push	ecx
	movsd	QWORD PTR tv216[ebp], xmm0
	call	?Vec2DDistanceSq@@YANABUVector2D@@0@Z	; Vec2DDistanceSq
	add	esp, 8
	fstp	QWORD PTR tv166[ebp]
	movsd	xmm0, QWORD PTR tv166[ebp]
	movsd	xmm1, QWORD PTR tv216[ebp]
	comisd	xmm0, xmm1
	jb	$LN3@GetLineSeg

; 600  :      ( (LocalPos.x-radius)*(LocalPos.x-radius) <= Vec2DDistanceSq(B, A)) )
; 601  :   {
; 602  :      //if the distance from the x axis to the object's position is less
; 603  :      //than its radius then there is a potential intersection.
; 604  :      if (fabs(LocalPos.y) < radius)

	sub	esp, 8
	movsd	xmm0, QWORD PTR _LocalPos$[ebp+8]
	movsd	QWORD PTR [esp], xmm0
	call	_fabs
	add	esp, 8
	fstp	QWORD PTR tv172[ebp]
	movsd	xmm0, QWORD PTR _radius$[ebp]
	comisd	xmm0, QWORD PTR tv172[ebp]
	jbe	$LN3@GetLineSeg

; 605  :      {
; 606  :         //now to do a line/circle intersection test. The center of the 
; 607  :         //circle is represented by A, B. The intersection points are 
; 608  :         //given by the formulae x = A +/-sqrt(r^2-B^2), y=0. We only 
; 609  :         //need to look at the smallest positive value of x.
; 610  :         double a = LocalPos.x;

	movsd	xmm0, QWORD PTR _LocalPos$[ebp]
	movsd	QWORD PTR _a$7[ebp], xmm0

; 611  :         double b = LocalPos.y;       

	movsd	xmm0, QWORD PTR _LocalPos$[ebp+8]
	movsd	QWORD PTR _b$6[ebp], xmm0

; 612  : 
; 613  :         double ip = a - sqrt(radius*radius - b*b);

	movsd	xmm0, QWORD PTR _radius$[ebp]
	mulsd	xmm0, QWORD PTR _radius$[ebp]
	movsd	xmm1, QWORD PTR _b$6[ebp]
	mulsd	xmm1, QWORD PTR _b$6[ebp]
	subsd	xmm0, xmm1
	sub	esp, 8
	movsd	QWORD PTR [esp], xmm0
	call	_sqrt
	add	esp, 8
	fstp	QWORD PTR tv182[ebp]
	movsd	xmm0, QWORD PTR _a$7[ebp]
	subsd	xmm0, QWORD PTR tv182[ebp]
	movsd	QWORD PTR _ip$5[ebp], xmm0

; 614  : 
; 615  :         if (ip <= 0)

	xorps	xmm0, xmm0
	comisd	xmm0, QWORD PTR _ip$5[ebp]
	jb	SHORT $LN4@GetLineSeg

; 616  :         {
; 617  :           ip = a + sqrt(radius*radius - b*b);

	movsd	xmm0, QWORD PTR _radius$[ebp]
	mulsd	xmm0, QWORD PTR _radius$[ebp]
	movsd	xmm1, QWORD PTR _b$6[ebp]
	mulsd	xmm1, QWORD PTR _b$6[ebp]
	subsd	xmm0, xmm1
	sub	esp, 8
	movsd	QWORD PTR [esp], xmm0
	call	_sqrt
	add	esp, 8
	fstp	QWORD PTR tv191[ebp]
	movsd	xmm0, QWORD PTR tv191[ebp]
	addsd	xmm0, QWORD PTR _a$7[ebp]
	movsd	QWORD PTR _ip$5[ebp], xmm0
$LN4@GetLineSeg:

; 618  :         }
; 619  : 
; 620  :         ipFound = true;

	mov	BYTE PTR _ipFound$[ebp], 1

; 621  : 
; 622  :         IntersectionPoint = A+ toBNorm*ip;

	sub	esp, 8
	movsd	xmm0, QWORD PTR _ip$5[ebp]
	movsd	QWORD PTR [esp], xmm0
	lea	edx, DWORD PTR _toBNorm$[ebp]
	push	edx
	lea	eax, DWORD PTR $T2[ebp]
	push	eax
	call	??D@YA?AUVector2D@@ABU0@N@Z		; operator*
	add	esp, 16					; 00000010H
	push	eax
	lea	ecx, DWORD PTR _A$[ebp]
	push	ecx
	lea	edx, DWORD PTR $T1[ebp]
	push	edx
	call	??H@YA?AUVector2D@@ABU0@0@Z		; operator+
	add	esp, 12					; 0000000cH
	mov	ecx, DWORD PTR _IntersectionPoint$[ebp]
	mov	edx, DWORD PTR [eax]
	mov	DWORD PTR [ecx], edx
	mov	edx, DWORD PTR [eax+4]
	mov	DWORD PTR [ecx+4], edx
	mov	edx, DWORD PTR [eax+8]
	mov	DWORD PTR [ecx+8], edx
	mov	eax, DWORD PTR [eax+12]
	mov	DWORD PTR [ecx+12], eax
$LN3@GetLineSeg:

; 623  :      }
; 624  :    }
; 625  : 
; 626  :   return ipFound;

	mov	al, BYTE PTR _ipFound$[ebp]

; 627  : }

	push	edx
	mov	ecx, ebp
	push	eax
	lea	edx, DWORD PTR $LN9@GetLineSeg
	call	@_RTC_CheckStackVars@8
	pop	eax
	pop	edx
	pop	edi
	add	esp, 180				; 000000b4H
	cmp	ebp, esp
	call	__RTC_CheckEsp
	mov	esp, ebp
	pop	ebp
	ret	0
	npad	2
$LN9@GetLineSeg:
	DD	2
	DD	$LN8@GetLineSeg
$LN8@GetLineSeg:
	DD	-20					; ffffffecH
	DD	16					; 00000010H
	DD	$LN6@GetLineSeg
	DD	-44					; ffffffd4H
	DD	16					; 00000010H
	DD	$LN7@GetLineSeg
$LN7@GetLineSeg:
	DB	76					; 0000004cH
	DB	111					; 0000006fH
	DB	99					; 00000063H
	DB	97					; 00000061H
	DB	108					; 0000006cH
	DB	80					; 00000050H
	DB	111					; 0000006fH
	DB	115					; 00000073H
	DB	0
$LN6@GetLineSeg:
	DB	116					; 00000074H
	DB	111					; 0000006fH
	DB	66					; 00000042H
	DB	78					; 0000004eH
	DB	111					; 0000006fH
	DB	114					; 00000072H
	DB	109					; 0000006dH
	DB	0
?GetLineSegmentCircleClosestIntersectionPoint@@YA_NUVector2D@@00NAAU1@@Z ENDP ; GetLineSegmentCircleClosestIntersectionPoint
_TEXT	ENDS
; Function compile flags: /Odtp /RTCsu
; File C:\Users\lsy01\OneDrive\바탕 화면\3-2_Study\인공지능\Source\VS2010\Common\2D\Geometry.h
;	COMDAT ?LineIntersection2D@@YA_NUVector2D@@000AANAAU1@@Z
_TEXT	SEGMENT
tv215 = -104						; size = 8
$T1 = -96						; size = 16
$T2 = -80						; size = 16
$T3 = -64						; size = 16
_s$ = -48						; size = 8
_r$ = -40						; size = 8
_sBot$ = -32						; size = 8
_sTop$ = -24						; size = 8
_rBot$ = -16						; size = 8
_rTop$ = -8						; size = 8
_A$ = 8							; size = 16
_B$ = 24						; size = 16
_C$ = 40						; size = 16
_D$ = 56						; size = 16
_dist$ = 72						; size = 4
_point$ = 76						; size = 4
?LineIntersection2D@@YA_NUVector2D@@000AANAAU1@@Z PROC	; LineIntersection2D, COMDAT

; 290  : {

	push	ebp
	mov	ebp, esp
	sub	esp, 104				; 00000068H
	push	edi
	lea	edi, DWORD PTR [ebp-104]
	mov	ecx, 26					; 0000001aH
	mov	eax, -858993460				; ccccccccH
	rep stosd

; 291  : 
; 292  :   double rTop = (A.y-C.y)*(D.x-C.x)-(A.x-C.x)*(D.y-C.y);

	movsd	xmm0, QWORD PTR _A$[ebp+8]
	subsd	xmm0, QWORD PTR _C$[ebp+8]
	movsd	xmm1, QWORD PTR _D$[ebp]
	subsd	xmm1, QWORD PTR _C$[ebp]
	mulsd	xmm0, xmm1
	movsd	xmm1, QWORD PTR _A$[ebp]
	subsd	xmm1, QWORD PTR _C$[ebp]
	movsd	xmm2, QWORD PTR _D$[ebp+8]
	subsd	xmm2, QWORD PTR _C$[ebp+8]
	mulsd	xmm1, xmm2
	subsd	xmm0, xmm1
	movsd	QWORD PTR _rTop$[ebp], xmm0

; 293  : 	double rBot = (B.x-A.x)*(D.y-C.y)-(B.y-A.y)*(D.x-C.x);

	movsd	xmm0, QWORD PTR _B$[ebp]
	subsd	xmm0, QWORD PTR _A$[ebp]
	movsd	xmm1, QWORD PTR _D$[ebp+8]
	subsd	xmm1, QWORD PTR _C$[ebp+8]
	mulsd	xmm0, xmm1
	movsd	xmm1, QWORD PTR _B$[ebp+8]
	subsd	xmm1, QWORD PTR _A$[ebp+8]
	movsd	xmm2, QWORD PTR _D$[ebp]
	subsd	xmm2, QWORD PTR _C$[ebp]
	mulsd	xmm1, xmm2
	subsd	xmm0, xmm1
	movsd	QWORD PTR _rBot$[ebp], xmm0

; 294  : 
; 295  : 	double sTop = (A.y-C.y)*(B.x-A.x)-(A.x-C.x)*(B.y-A.y);

	movsd	xmm0, QWORD PTR _A$[ebp+8]
	subsd	xmm0, QWORD PTR _C$[ebp+8]
	movsd	xmm1, QWORD PTR _B$[ebp]
	subsd	xmm1, QWORD PTR _A$[ebp]
	mulsd	xmm0, xmm1
	movsd	xmm1, QWORD PTR _A$[ebp]
	subsd	xmm1, QWORD PTR _C$[ebp]
	movsd	xmm2, QWORD PTR _B$[ebp+8]
	subsd	xmm2, QWORD PTR _A$[ebp+8]
	mulsd	xmm1, xmm2
	subsd	xmm0, xmm1
	movsd	QWORD PTR _sTop$[ebp], xmm0

; 296  : 	double sBot = (B.x-A.x)*(D.y-C.y)-(B.y-A.y)*(D.x-C.x);

	movsd	xmm0, QWORD PTR _B$[ebp]
	subsd	xmm0, QWORD PTR _A$[ebp]
	movsd	xmm1, QWORD PTR _D$[ebp+8]
	subsd	xmm1, QWORD PTR _C$[ebp+8]
	mulsd	xmm0, xmm1
	movsd	xmm1, QWORD PTR _B$[ebp+8]
	subsd	xmm1, QWORD PTR _A$[ebp+8]
	movsd	xmm2, QWORD PTR _D$[ebp]
	subsd	xmm2, QWORD PTR _C$[ebp]
	mulsd	xmm1, xmm2
	subsd	xmm0, xmm1
	movsd	QWORD PTR _sBot$[ebp], xmm0

; 297  : 
; 298  : 	if ( (rBot == 0) || (sBot == 0))

	movsd	xmm0, QWORD PTR _rBot$[ebp]
	ucomisd	xmm0, QWORD PTR __real@0000000000000000
	lahf
	test	ah, 68					; 00000044H
	jnp	SHORT $LN3@LineInters
	movsd	xmm0, QWORD PTR _sBot$[ebp]
	ucomisd	xmm0, QWORD PTR __real@0000000000000000
	lahf
	test	ah, 68					; 00000044H
	jp	SHORT $LN2@LineInters
$LN3@LineInters:

; 299  : 	{
; 300  : 		//lines are parallel
; 301  : 		return false;

	xor	al, al
	jmp	$LN5@LineInters
$LN2@LineInters:

; 302  : 	}
; 303  : 
; 304  : 	double r = rTop/rBot;

	movsd	xmm0, QWORD PTR _rTop$[ebp]
	divsd	xmm0, QWORD PTR _rBot$[ebp]
	movsd	QWORD PTR _r$[ebp], xmm0

; 305  : 	double s = sTop/sBot;

	movsd	xmm0, QWORD PTR _sTop$[ebp]
	divsd	xmm0, QWORD PTR _sBot$[ebp]
	movsd	QWORD PTR _s$[ebp], xmm0

; 306  : 
; 307  : 	if( (r > 0) && (r < 1) && (s > 0) && (s < 1) )

	movsd	xmm0, QWORD PTR _r$[ebp]
	comisd	xmm0, QWORD PTR __real@0000000000000000
	jbe	$LN4@LineInters
	movsd	xmm0, QWORD PTR __real@3ff0000000000000
	comisd	xmm0, QWORD PTR _r$[ebp]
	jbe	$LN4@LineInters
	movsd	xmm0, QWORD PTR _s$[ebp]
	comisd	xmm0, QWORD PTR __real@0000000000000000
	jbe	$LN4@LineInters
	movsd	xmm0, QWORD PTR __real@3ff0000000000000
	comisd	xmm0, QWORD PTR _s$[ebp]
	jbe	$LN4@LineInters

; 308  :   {
; 309  :   	dist = Vec2DDistance(A,B) * r;

	lea	eax, DWORD PTR _B$[ebp]
	push	eax
	lea	ecx, DWORD PTR _A$[ebp]
	push	ecx
	call	?Vec2DDistance@@YANABUVector2D@@0@Z	; Vec2DDistance
	add	esp, 8
	fstp	QWORD PTR tv215[ebp]
	movsd	xmm0, QWORD PTR tv215[ebp]
	mulsd	xmm0, QWORD PTR _r$[ebp]
	mov	edx, DWORD PTR _dist$[ebp]
	movsd	QWORD PTR [edx], xmm0

; 310  : 
; 311  :     point = A + r * (B - A);

	lea	eax, DWORD PTR _A$[ebp]
	push	eax
	lea	ecx, DWORD PTR _B$[ebp]
	push	ecx
	lea	edx, DWORD PTR $T3[ebp]
	push	edx
	call	??G@YA?AUVector2D@@ABU0@0@Z		; operator-
	add	esp, 12					; 0000000cH
	push	eax
	sub	esp, 8
	movsd	xmm0, QWORD PTR _r$[ebp]
	movsd	QWORD PTR [esp], xmm0
	lea	eax, DWORD PTR $T2[ebp]
	push	eax
	call	??D@YA?AUVector2D@@NABU0@@Z		; operator*
	add	esp, 16					; 00000010H
	push	eax
	lea	ecx, DWORD PTR _A$[ebp]
	push	ecx
	lea	edx, DWORD PTR $T1[ebp]
	push	edx
	call	??H@YA?AUVector2D@@ABU0@0@Z		; operator+
	add	esp, 12					; 0000000cH
	mov	ecx, DWORD PTR _point$[ebp]
	mov	edx, DWORD PTR [eax]
	mov	DWORD PTR [ecx], edx
	mov	edx, DWORD PTR [eax+4]
	mov	DWORD PTR [ecx+4], edx
	mov	edx, DWORD PTR [eax+8]
	mov	DWORD PTR [ecx+8], edx
	mov	eax, DWORD PTR [eax+12]
	mov	DWORD PTR [ecx+12], eax

; 312  : 
; 313  :     return true;

	mov	al, 1
	jmp	SHORT $LN5@LineInters

; 314  :   }

	jmp	SHORT $LN5@LineInters
$LN4@LineInters:

; 315  : 
; 316  : 	else
; 317  :   {
; 318  : 		dist = 0;

	mov	ecx, DWORD PTR _dist$[ebp]
	xorps	xmm0, xmm0
	movsd	QWORD PTR [ecx], xmm0

; 319  : 
; 320  :     return false;

	xor	al, al
$LN5@LineInters:

; 321  :   }
; 322  : }

	pop	edi
	add	esp, 104				; 00000068H
	cmp	ebp, esp
	call	__RTC_CheckEsp
	mov	esp, ebp
	pop	ebp
	ret	0
?LineIntersection2D@@YA_NUVector2D@@000AANAAU1@@Z ENDP	; LineIntersection2D
_TEXT	ENDS
; Function compile flags: /Odtp /RTCsu
; File C:\Users\lsy01\OneDrive\바탕 화면\3-2_Study\인공지능\Source\VS2010\Common\2D\Transformations.h
;	COMDAT ?PointToLocalSpace@@YA?AUVector2D@@ABU1@AAU1@11@Z
_TEXT	SEGMENT
tv145 = -136						; size = 8
tv140 = -128						; size = 8
_Ty$ = -120						; size = 8
_Tx$ = -112						; size = 8
_matTransform$ = -100					; size = 72
_TransPoint$ = -20					; size = 16
___$ReturnUdt$ = 8					; size = 4
_point$ = 12						; size = 4
_AgentHeading$ = 16					; size = 4
_AgentSide$ = 20					; size = 4
_AgentPosition$ = 24					; size = 4
?PointToLocalSpace@@YA?AUVector2D@@ABU1@AAU1@11@Z PROC	; PointToLocalSpace, COMDAT

; 145  : {

	push	ebp
	mov	ebp, esp
	sub	esp, 136				; 00000088H
	push	edi
	lea	edi, DWORD PTR [ebp-136]
	mov	ecx, 34					; 00000022H
	mov	eax, -858993460				; ccccccccH
	rep stosd

; 146  : 
; 147  : 	//make a copy of the point
; 148  :   Vector2D TransPoint = point;

	mov	eax, DWORD PTR _point$[ebp]
	mov	ecx, DWORD PTR [eax]
	mov	DWORD PTR _TransPoint$[ebp], ecx
	mov	edx, DWORD PTR [eax+4]
	mov	DWORD PTR _TransPoint$[ebp+4], edx
	mov	ecx, DWORD PTR [eax+8]
	mov	DWORD PTR _TransPoint$[ebp+8], ecx
	mov	edx, DWORD PTR [eax+12]
	mov	DWORD PTR _TransPoint$[ebp+12], edx

; 149  :   
; 150  :   //create a transformation matrix
; 151  : 	C2DMatrix matTransform;

	lea	ecx, DWORD PTR _matTransform$[ebp]
	call	??0C2DMatrix@@QAE@XZ			; C2DMatrix::C2DMatrix

; 152  : 
; 153  :   double Tx = -AgentPosition.Dot(AgentHeading);

	mov	eax, DWORD PTR _AgentHeading$[ebp]
	push	eax
	mov	ecx, DWORD PTR _AgentPosition$[ebp]
	call	?Dot@Vector2D@@QBENABU1@@Z		; Vector2D::Dot
	fstp	QWORD PTR tv140[ebp]
	movsd	xmm0, QWORD PTR tv140[ebp]
	xorps	xmm0, QWORD PTR __xmm@80000000000000008000000000000000
	movsd	QWORD PTR _Tx$[ebp], xmm0

; 154  :   double Ty = -AgentPosition.Dot(AgentSide);

	mov	ecx, DWORD PTR _AgentSide$[ebp]
	push	ecx
	mov	ecx, DWORD PTR _AgentPosition$[ebp]
	call	?Dot@Vector2D@@QBENABU1@@Z		; Vector2D::Dot
	fstp	QWORD PTR tv145[ebp]
	movsd	xmm0, QWORD PTR tv145[ebp]
	xorps	xmm0, QWORD PTR __xmm@80000000000000008000000000000000
	movsd	QWORD PTR _Ty$[ebp], xmm0

; 155  : 
; 156  :   //create the transformation matrix
; 157  :   matTransform._11(AgentHeading.x); matTransform._12(AgentSide.x);

	mov	edx, DWORD PTR _AgentHeading$[ebp]
	sub	esp, 8
	movsd	xmm0, QWORD PTR [edx]
	movsd	QWORD PTR [esp], xmm0
	lea	ecx, DWORD PTR _matTransform$[ebp]
	call	?_11@C2DMatrix@@QAEXN@Z			; C2DMatrix::_11
	mov	eax, DWORD PTR _AgentSide$[ebp]
	sub	esp, 8
	movsd	xmm0, QWORD PTR [eax]
	movsd	QWORD PTR [esp], xmm0
	lea	ecx, DWORD PTR _matTransform$[ebp]
	call	?_12@C2DMatrix@@QAEXN@Z			; C2DMatrix::_12

; 158  :   matTransform._21(AgentHeading.y); matTransform._22(AgentSide.y);

	mov	ecx, DWORD PTR _AgentHeading$[ebp]
	sub	esp, 8
	movsd	xmm0, QWORD PTR [ecx+8]
	movsd	QWORD PTR [esp], xmm0
	lea	ecx, DWORD PTR _matTransform$[ebp]
	call	?_21@C2DMatrix@@QAEXN@Z			; C2DMatrix::_21
	mov	edx, DWORD PTR _AgentSide$[ebp]
	sub	esp, 8
	movsd	xmm0, QWORD PTR [edx+8]
	movsd	QWORD PTR [esp], xmm0
	lea	ecx, DWORD PTR _matTransform$[ebp]
	call	?_22@C2DMatrix@@QAEXN@Z			; C2DMatrix::_22

; 159  :   matTransform._31(Tx);           matTransform._32(Ty);

	sub	esp, 8
	movsd	xmm0, QWORD PTR _Tx$[ebp]
	movsd	QWORD PTR [esp], xmm0
	lea	ecx, DWORD PTR _matTransform$[ebp]
	call	?_31@C2DMatrix@@QAEXN@Z			; C2DMatrix::_31
	sub	esp, 8
	movsd	xmm0, QWORD PTR _Ty$[ebp]
	movsd	QWORD PTR [esp], xmm0
	lea	ecx, DWORD PTR _matTransform$[ebp]
	call	?_32@C2DMatrix@@QAEXN@Z			; C2DMatrix::_32

; 160  : 	
; 161  :   //now transform the vertices
; 162  :   matTransform.TransformVector2Ds(TransPoint);

	lea	eax, DWORD PTR _TransPoint$[ebp]
	push	eax
	lea	ecx, DWORD PTR _matTransform$[ebp]
	call	?TransformVector2Ds@C2DMatrix@@QAEXAAUVector2D@@@Z ; C2DMatrix::TransformVector2Ds

; 163  : 
; 164  :   return TransPoint;

	mov	ecx, DWORD PTR ___$ReturnUdt$[ebp]
	mov	edx, DWORD PTR _TransPoint$[ebp]
	mov	DWORD PTR [ecx], edx
	mov	eax, DWORD PTR _TransPoint$[ebp+4]
	mov	DWORD PTR [ecx+4], eax
	mov	edx, DWORD PTR _TransPoint$[ebp+8]
	mov	DWORD PTR [ecx+8], edx
	mov	eax, DWORD PTR _TransPoint$[ebp+12]
	mov	DWORD PTR [ecx+12], eax
	mov	eax, DWORD PTR ___$ReturnUdt$[ebp]

; 165  : }

	push	edx
	mov	ecx, ebp
	push	eax
	lea	edx, DWORD PTR $LN6@PointToLoc
	call	@_RTC_CheckStackVars@8
	pop	eax
	pop	edx
	pop	edi
	add	esp, 136				; 00000088H
	cmp	ebp, esp
	call	__RTC_CheckEsp
	mov	esp, ebp
	pop	ebp
	ret	0
$LN6@PointToLoc:
	DD	2
	DD	$LN5@PointToLoc
$LN5@PointToLoc:
	DD	-20					; ffffffecH
	DD	16					; 00000010H
	DD	$LN3@PointToLoc
	DD	-100					; ffffff9cH
	DD	72					; 00000048H
	DD	$LN4@PointToLoc
$LN4@PointToLoc:
	DB	109					; 0000006dH
	DB	97					; 00000061H
	DB	116					; 00000074H
	DB	84					; 00000054H
	DB	114					; 00000072H
	DB	97					; 00000061H
	DB	110					; 0000006eH
	DB	115					; 00000073H
	DB	102					; 00000066H
	DB	111					; 0000006fH
	DB	114					; 00000072H
	DB	109					; 0000006dH
	DB	0
$LN3@PointToLoc:
	DB	84					; 00000054H
	DB	114					; 00000072H
	DB	97					; 00000061H
	DB	110					; 0000006eH
	DB	115					; 00000073H
	DB	80					; 00000050H
	DB	111					; 0000006fH
	DB	105					; 00000069H
	DB	110					; 0000006eH
	DB	116					; 00000074H
	DB	0
?PointToLocalSpace@@YA?AUVector2D@@ABU1@AAU1@11@Z ENDP	; PointToLocalSpace
_TEXT	ENDS
; Function compile flags: /Odtp /RTCsu
; File C:\Users\lsy01\OneDrive\바탕 화면\3-2_Study\인공지능\Source\VS2010\Common\2d\C2DMatrix.h
;	COMDAT ?_32@C2DMatrix@@QAEXN@Z
_TEXT	SEGMENT
_this$ = -4						; size = 4
_val$ = 8						; size = 8
?_32@C2DMatrix@@QAEXN@Z PROC				; C2DMatrix::_32, COMDAT
; _this$ = ecx

; 86   :   void _32(double val){m_Matrix._32 = val;}

	push	ebp
	mov	ebp, esp
	push	ecx
	mov	DWORD PTR _this$[ebp], ecx
	mov	eax, DWORD PTR _this$[ebp]
	movsd	xmm0, QWORD PTR _val$[ebp]
	movsd	QWORD PTR [eax+56], xmm0
	mov	esp, ebp
	pop	ebp
	ret	8
?_32@C2DMatrix@@QAEXN@Z ENDP				; C2DMatrix::_32
_TEXT	ENDS
; Function compile flags: /Odtp /RTCsu
; File C:\Users\lsy01\OneDrive\바탕 화면\3-2_Study\인공지능\Source\VS2010\Common\2d\C2DMatrix.h
;	COMDAT ?_31@C2DMatrix@@QAEXN@Z
_TEXT	SEGMENT
_this$ = -4						; size = 4
_val$ = 8						; size = 8
?_31@C2DMatrix@@QAEXN@Z PROC				; C2DMatrix::_31, COMDAT
; _this$ = ecx

; 85   :   void _31(double val){m_Matrix._31 = val;}

	push	ebp
	mov	ebp, esp
	push	ecx
	mov	DWORD PTR _this$[ebp], ecx
	mov	eax, DWORD PTR _this$[ebp]
	movsd	xmm0, QWORD PTR _val$[ebp]
	movsd	QWORD PTR [eax+48], xmm0
	mov	esp, ebp
	pop	ebp
	ret	8
?_31@C2DMatrix@@QAEXN@Z ENDP				; C2DMatrix::_31
_TEXT	ENDS
; Function compile flags: /Odtp /RTCsu
; File C:\Users\lsy01\OneDrive\바탕 화면\3-2_Study\인공지능\Source\VS2010\Common\2d\C2DMatrix.h
;	COMDAT ?_22@C2DMatrix@@QAEXN@Z
_TEXT	SEGMENT
_this$ = -4						; size = 4
_val$ = 8						; size = 8
?_22@C2DMatrix@@QAEXN@Z PROC				; C2DMatrix::_22, COMDAT
; _this$ = ecx

; 82   :   void _22(double val){m_Matrix._22 = val;}

	push	ebp
	mov	ebp, esp
	push	ecx
	mov	DWORD PTR _this$[ebp], ecx
	mov	eax, DWORD PTR _this$[ebp]
	movsd	xmm0, QWORD PTR _val$[ebp]
	movsd	QWORD PTR [eax+32], xmm0
	mov	esp, ebp
	pop	ebp
	ret	8
?_22@C2DMatrix@@QAEXN@Z ENDP				; C2DMatrix::_22
_TEXT	ENDS
; Function compile flags: /Odtp /RTCsu
; File C:\Users\lsy01\OneDrive\바탕 화면\3-2_Study\인공지능\Source\VS2010\Common\2d\C2DMatrix.h
;	COMDAT ?_21@C2DMatrix@@QAEXN@Z
_TEXT	SEGMENT
_this$ = -4						; size = 4
_val$ = 8						; size = 8
?_21@C2DMatrix@@QAEXN@Z PROC				; C2DMatrix::_21, COMDAT
; _this$ = ecx

; 81   :   void _21(double val){m_Matrix._21 = val;}

	push	ebp
	mov	ebp, esp
	push	ecx
	mov	DWORD PTR _this$[ebp], ecx
	mov	eax, DWORD PTR _this$[ebp]
	movsd	xmm0, QWORD PTR _val$[ebp]
	movsd	QWORD PTR [eax+24], xmm0
	mov	esp, ebp
	pop	ebp
	ret	8
?_21@C2DMatrix@@QAEXN@Z ENDP				; C2DMatrix::_21
_TEXT	ENDS
; Function compile flags: /Odtp /RTCsu
; File C:\Users\lsy01\OneDrive\바탕 화면\3-2_Study\인공지능\Source\VS2010\Common\2d\C2DMatrix.h
;	COMDAT ?_12@C2DMatrix@@QAEXN@Z
_TEXT	SEGMENT
_this$ = -4						; size = 4
_val$ = 8						; size = 8
?_12@C2DMatrix@@QAEXN@Z PROC				; C2DMatrix::_12, COMDAT
; _this$ = ecx

; 78   :   void _12(double val){m_Matrix._12 = val;}

	push	ebp
	mov	ebp, esp
	push	ecx
	mov	DWORD PTR _this$[ebp], ecx
	mov	eax, DWORD PTR _this$[ebp]
	movsd	xmm0, QWORD PTR _val$[ebp]
	movsd	QWORD PTR [eax+8], xmm0
	mov	esp, ebp
	pop	ebp
	ret	8
?_12@C2DMatrix@@QAEXN@Z ENDP				; C2DMatrix::_12
_TEXT	ENDS
; Function compile flags: /Odtp /RTCsu
; File C:\Users\lsy01\OneDrive\바탕 화면\3-2_Study\인공지능\Source\VS2010\Common\2d\C2DMatrix.h
;	COMDAT ?_11@C2DMatrix@@QAEXN@Z
_TEXT	SEGMENT
_this$ = -4						; size = 4
_val$ = 8						; size = 8
?_11@C2DMatrix@@QAEXN@Z PROC				; C2DMatrix::_11, COMDAT
; _this$ = ecx

; 77   :   void _11(double val){m_Matrix._11 = val;}

	push	ebp
	mov	ebp, esp
	push	ecx
	mov	DWORD PTR _this$[ebp], ecx
	mov	eax, DWORD PTR _this$[ebp]
	movsd	xmm0, QWORD PTR _val$[ebp]
	movsd	QWORD PTR [eax], xmm0
	mov	esp, ebp
	pop	ebp
	ret	8
?_11@C2DMatrix@@QAEXN@Z ENDP				; C2DMatrix::_11
_TEXT	ENDS
; Function compile flags: /Odtp /RTCsu
; File C:\Users\lsy01\OneDrive\바탕 화면\3-2_Study\인공지능\Source\VS2010\Common\2d\C2DMatrix.h
;	COMDAT ?TransformVector2Ds@C2DMatrix@@QAEXAAUVector2D@@@Z
_TEXT	SEGMENT
_tempY$ = -20						; size = 8
_tempX$ = -12						; size = 8
_this$ = -4						; size = 4
_vPoint$ = 8						; size = 4
?TransformVector2Ds@C2DMatrix@@QAEXAAUVector2D@@@Z PROC	; C2DMatrix::TransformVector2Ds, COMDAT
; _this$ = ecx

; 134  : {

	push	ebp
	mov	ebp, esp
	sub	esp, 20					; 00000014H
	mov	DWORD PTR _this$[ebp], ecx

; 135  : 
; 136  :   double tempX =(m_Matrix._11*vPoint.x) + (m_Matrix._21*vPoint.y) + (m_Matrix._31);

	mov	eax, DWORD PTR _this$[ebp]
	mov	ecx, DWORD PTR _vPoint$[ebp]
	movsd	xmm0, QWORD PTR [eax]
	mulsd	xmm0, QWORD PTR [ecx]
	mov	edx, DWORD PTR _this$[ebp]
	mov	eax, DWORD PTR _vPoint$[ebp]
	movsd	xmm1, QWORD PTR [edx+24]
	mulsd	xmm1, QWORD PTR [eax+8]
	addsd	xmm0, xmm1
	mov	ecx, DWORD PTR _this$[ebp]
	addsd	xmm0, QWORD PTR [ecx+48]
	movsd	QWORD PTR _tempX$[ebp], xmm0

; 137  : 
; 138  :   double tempY = (m_Matrix._12*vPoint.x) + (m_Matrix._22*vPoint.y) + (m_Matrix._32);

	mov	edx, DWORD PTR _this$[ebp]
	mov	eax, DWORD PTR _vPoint$[ebp]
	movsd	xmm0, QWORD PTR [edx+8]
	mulsd	xmm0, QWORD PTR [eax]
	mov	ecx, DWORD PTR _this$[ebp]
	mov	edx, DWORD PTR _vPoint$[ebp]
	movsd	xmm1, QWORD PTR [ecx+32]
	mulsd	xmm1, QWORD PTR [edx+8]
	addsd	xmm0, xmm1
	mov	eax, DWORD PTR _this$[ebp]
	addsd	xmm0, QWORD PTR [eax+56]
	movsd	QWORD PTR _tempY$[ebp], xmm0

; 139  :   
; 140  :   vPoint.x = tempX;

	mov	ecx, DWORD PTR _vPoint$[ebp]
	movsd	xmm0, QWORD PTR _tempX$[ebp]
	movsd	QWORD PTR [ecx], xmm0

; 141  : 
; 142  :   vPoint.y = tempY;

	mov	edx, DWORD PTR _vPoint$[ebp]
	movsd	xmm0, QWORD PTR _tempY$[ebp]
	movsd	QWORD PTR [edx+8], xmm0

; 143  : }

	mov	esp, ebp
	pop	ebp
	ret	4
?TransformVector2Ds@C2DMatrix@@QAEXAAUVector2D@@@Z ENDP	; C2DMatrix::TransformVector2Ds
_TEXT	ENDS
; Function compile flags: /Odtp /RTCsu
; File C:\Users\lsy01\OneDrive\바탕 화면\3-2_Study\인공지능\Source\VS2010\Common\2d\C2DMatrix.h
;	COMDAT ?Identity@C2DMatrix@@QAEXXZ
_TEXT	SEGMENT
_this$ = -4						; size = 4
?Identity@C2DMatrix@@QAEXXZ PROC			; C2DMatrix::Identity, COMDAT
; _this$ = ecx

; 149  : {

	push	ebp
	mov	ebp, esp
	push	ecx
	mov	DWORD PTR _this$[ebp], ecx

; 150  :   m_Matrix._11 = 1; m_Matrix._12 = 0; m_Matrix._13 = 0;

	mov	eax, DWORD PTR _this$[ebp]
	movsd	xmm0, QWORD PTR __real@3ff0000000000000
	movsd	QWORD PTR [eax], xmm0
	mov	ecx, DWORD PTR _this$[ebp]
	xorps	xmm0, xmm0
	movsd	QWORD PTR [ecx+8], xmm0
	mov	edx, DWORD PTR _this$[ebp]
	xorps	xmm0, xmm0
	movsd	QWORD PTR [edx+16], xmm0

; 151  : 
; 152  :   m_Matrix._21 = 0; m_Matrix._22 = 1; m_Matrix._23 = 0;

	mov	eax, DWORD PTR _this$[ebp]
	xorps	xmm0, xmm0
	movsd	QWORD PTR [eax+24], xmm0
	mov	ecx, DWORD PTR _this$[ebp]
	movsd	xmm0, QWORD PTR __real@3ff0000000000000
	movsd	QWORD PTR [ecx+32], xmm0
	mov	edx, DWORD PTR _this$[ebp]
	xorps	xmm0, xmm0
	movsd	QWORD PTR [edx+40], xmm0

; 153  : 
; 154  :   m_Matrix._31 = 0; m_Matrix._32 = 0; m_Matrix._33 = 1;

	mov	eax, DWORD PTR _this$[ebp]
	xorps	xmm0, xmm0
	movsd	QWORD PTR [eax+48], xmm0
	mov	ecx, DWORD PTR _this$[ebp]
	xorps	xmm0, xmm0
	movsd	QWORD PTR [ecx+56], xmm0
	mov	edx, DWORD PTR _this$[ebp]
	movsd	xmm0, QWORD PTR __real@3ff0000000000000
	movsd	QWORD PTR [edx+64], xmm0

; 155  : 
; 156  :   }

	mov	esp, ebp
	pop	ebp
	ret	0
?Identity@C2DMatrix@@QAEXXZ ENDP			; C2DMatrix::Identity
_TEXT	ENDS
; Function compile flags: /Odtp /RTCsu
; File C:\Users\lsy01\OneDrive\바탕 화면\3-2_Study\인공지능\Source\VS2010\Common\2d\C2DMatrix.h
;	COMDAT ??0C2DMatrix@@QAE@XZ
_TEXT	SEGMENT
_this$ = -4						; size = 4
??0C2DMatrix@@QAE@XZ PROC				; C2DMatrix::C2DMatrix, COMDAT
; _this$ = ecx

; 49   :   C2DMatrix()

	push	ebp
	mov	ebp, esp
	push	ecx
	mov	DWORD PTR [ebp-4], -858993460		; ccccccccH
	mov	DWORD PTR _this$[ebp], ecx
	mov	ecx, DWORD PTR _this$[ebp]
	call	??0Matrix@C2DMatrix@@QAE@XZ		; C2DMatrix::Matrix::Matrix

; 50   :   {
; 51   :     //initialize the matrix to an identity matrix
; 52   :     Identity();

	mov	ecx, DWORD PTR _this$[ebp]
	call	?Identity@C2DMatrix@@QAEXXZ		; C2DMatrix::Identity

; 53   :   }

	mov	eax, DWORD PTR _this$[ebp]
	add	esp, 4
	cmp	ebp, esp
	call	__RTC_CheckEsp
	mov	esp, ebp
	pop	ebp
	ret	0
??0C2DMatrix@@QAE@XZ ENDP				; C2DMatrix::C2DMatrix
_TEXT	ENDS
; Function compile flags: /Odtp /RTCsu
; File C:\Users\lsy01\OneDrive\바탕 화면\3-2_Study\인공지능\Source\VS2010\Common\2d\C2DMatrix.h
;	COMDAT ??0Matrix@C2DMatrix@@QAE@XZ
_TEXT	SEGMENT
_this$ = -4						; size = 4
??0Matrix@C2DMatrix@@QAE@XZ PROC			; C2DMatrix::Matrix::Matrix, COMDAT
; _this$ = ecx

; 32   :     Matrix()

	push	ebp
	mov	ebp, esp
	push	ecx
	mov	DWORD PTR _this$[ebp], ecx

; 33   :     {
; 34   :       _11=0.0; _12=0.0; _13=0.0;

	mov	eax, DWORD PTR _this$[ebp]
	xorps	xmm0, xmm0
	movsd	QWORD PTR [eax], xmm0
	mov	ecx, DWORD PTR _this$[ebp]
	xorps	xmm0, xmm0
	movsd	QWORD PTR [ecx+8], xmm0
	mov	edx, DWORD PTR _this$[ebp]
	xorps	xmm0, xmm0
	movsd	QWORD PTR [edx+16], xmm0

; 35   :       _21=0.0; _22=0.0; _23=0.0;

	mov	eax, DWORD PTR _this$[ebp]
	xorps	xmm0, xmm0
	movsd	QWORD PTR [eax+24], xmm0
	mov	ecx, DWORD PTR _this$[ebp]
	xorps	xmm0, xmm0
	movsd	QWORD PTR [ecx+32], xmm0
	mov	edx, DWORD PTR _this$[ebp]
	xorps	xmm0, xmm0
	movsd	QWORD PTR [edx+40], xmm0

; 36   :       _31=0.0; _32=0.0; _33=0.0;

	mov	eax, DWORD PTR _this$[ebp]
	xorps	xmm0, xmm0
	movsd	QWORD PTR [eax+48], xmm0
	mov	ecx, DWORD PTR _this$[ebp]
	xorps	xmm0, xmm0
	movsd	QWORD PTR [ecx+56], xmm0
	mov	edx, DWORD PTR _this$[ebp]
	xorps	xmm0, xmm0
	movsd	QWORD PTR [edx+64], xmm0

; 37   :     }

	mov	eax, DWORD PTR _this$[ebp]
	mov	esp, ebp
	pop	ebp
	ret	0
??0Matrix@C2DMatrix@@QAE@XZ ENDP			; C2DMatrix::Matrix::Matrix
_TEXT	ENDS
; Function compile flags: /Odtp /RTCsu
; File C:\Users\lsy01\OneDrive\바탕 화면\3-2_Study\인공지능\Source\VS2010\Common\2D\Vector2D.h
;	COMDAT ?Vec2DDistanceSq@@YANABUVector2D@@0@Z
_TEXT	SEGMENT
tv82 = -24						; size = 8
_xSeparation$ = -16					; size = 8
_ySeparation$ = -8					; size = 8
_v1$ = 8						; size = 4
_v2$ = 12						; size = 4
?Vec2DDistanceSq@@YANABUVector2D@@0@Z PROC		; Vec2DDistanceSq, COMDAT

; 283  : {

	push	ebp
	mov	ebp, esp
	sub	esp, 24					; 00000018H

; 284  : 
; 285  :   double ySeparation = v2.y - v1.y;

	mov	eax, DWORD PTR _v2$[ebp]
	mov	ecx, DWORD PTR _v1$[ebp]
	movsd	xmm0, QWORD PTR [eax+8]
	subsd	xmm0, QWORD PTR [ecx+8]
	movsd	QWORD PTR _ySeparation$[ebp], xmm0

; 286  :   double xSeparation = v2.x - v1.x;

	mov	edx, DWORD PTR _v2$[ebp]
	mov	eax, DWORD PTR _v1$[ebp]
	movsd	xmm0, QWORD PTR [edx]
	subsd	xmm0, QWORD PTR [eax]
	movsd	QWORD PTR _xSeparation$[ebp], xmm0

; 287  : 
; 288  :   return ySeparation*ySeparation + xSeparation*xSeparation;

	movsd	xmm0, QWORD PTR _ySeparation$[ebp]
	mulsd	xmm0, QWORD PTR _ySeparation$[ebp]
	movsd	xmm1, QWORD PTR _xSeparation$[ebp]
	mulsd	xmm1, QWORD PTR _xSeparation$[ebp]
	addsd	xmm0, xmm1
	movsd	QWORD PTR tv82[ebp], xmm0
	fld	QWORD PTR tv82[ebp]

; 289  : }

	mov	esp, ebp
	pop	ebp
	ret	0
?Vec2DDistanceSq@@YANABUVector2D@@0@Z ENDP		; Vec2DDistanceSq
_TEXT	ENDS
; Function compile flags: /Odtp /RTCsu
; File C:\Users\lsy01\OneDrive\바탕 화면\3-2_Study\인공지능\Source\VS2010\Common\2D\Vector2D.h
;	COMDAT ?Vec2DDistance@@YANABUVector2D@@0@Z
_TEXT	SEGMENT
_xSeparation$ = -16					; size = 8
_ySeparation$ = -8					; size = 8
_v1$ = 8						; size = 4
_v2$ = 12						; size = 4
?Vec2DDistance@@YANABUVector2D@@0@Z PROC		; Vec2DDistance, COMDAT

; 274  : {

	push	ebp
	mov	ebp, esp
	sub	esp, 16					; 00000010H
	mov	eax, -858993460				; ccccccccH
	mov	DWORD PTR [ebp-16], eax
	mov	DWORD PTR [ebp-12], eax
	mov	DWORD PTR [ebp-8], eax
	mov	DWORD PTR [ebp-4], eax

; 275  : 
; 276  :   double ySeparation = v2.y - v1.y;

	mov	eax, DWORD PTR _v2$[ebp]
	mov	ecx, DWORD PTR _v1$[ebp]
	movsd	xmm0, QWORD PTR [eax+8]
	subsd	xmm0, QWORD PTR [ecx+8]
	movsd	QWORD PTR _ySeparation$[ebp], xmm0

; 277  :   double xSeparation = v2.x - v1.x;

	mov	edx, DWORD PTR _v2$[ebp]
	mov	eax, DWORD PTR _v1$[ebp]
	movsd	xmm0, QWORD PTR [edx]
	subsd	xmm0, QWORD PTR [eax]
	movsd	QWORD PTR _xSeparation$[ebp], xmm0

; 278  : 
; 279  :   return sqrt(ySeparation*ySeparation + xSeparation*xSeparation);

	movsd	xmm0, QWORD PTR _ySeparation$[ebp]
	mulsd	xmm0, QWORD PTR _ySeparation$[ebp]
	movsd	xmm1, QWORD PTR _xSeparation$[ebp]
	mulsd	xmm1, QWORD PTR _xSeparation$[ebp]
	addsd	xmm0, xmm1
	sub	esp, 8
	movsd	QWORD PTR [esp], xmm0
	call	_sqrt
	add	esp, 8

; 280  : }

	add	esp, 16					; 00000010H
	cmp	ebp, esp
	call	__RTC_CheckEsp
	mov	esp, ebp
	pop	ebp
	ret	0
?Vec2DDistance@@YANABUVector2D@@0@Z ENDP		; Vec2DDistance
_TEXT	ENDS
; Function compile flags: /Odtp /RTCsu
; File C:\Users\lsy01\OneDrive\바탕 화면\3-2_Study\인공지능\Source\VS2010\Common\2D\Vector2D.h
;	COMDAT ?Vec2DNormalize@@YA?AUVector2D@@ABU1@@Z
_TEXT	SEGMENT
tv87 = -40						; size = 8
_vector_length$ = -32					; size = 8
_vec$ = -20						; size = 16
___$ReturnUdt$ = 8					; size = 4
_v$ = 12						; size = 4
?Vec2DNormalize@@YA?AUVector2D@@ABU1@@Z PROC		; Vec2DNormalize, COMDAT

; 258  : {

	push	ebp
	mov	ebp, esp
	sub	esp, 40					; 00000028H
	push	edi
	lea	edi, DWORD PTR [ebp-40]
	mov	ecx, 10					; 0000000aH
	mov	eax, -858993460				; ccccccccH
	rep stosd

; 259  :   Vector2D vec = v;

	mov	eax, DWORD PTR _v$[ebp]
	mov	ecx, DWORD PTR [eax]
	mov	DWORD PTR _vec$[ebp], ecx
	mov	edx, DWORD PTR [eax+4]
	mov	DWORD PTR _vec$[ebp+4], edx
	mov	ecx, DWORD PTR [eax+8]
	mov	DWORD PTR _vec$[ebp+8], ecx
	mov	edx, DWORD PTR [eax+12]
	mov	DWORD PTR _vec$[ebp+12], edx

; 260  : 
; 261  :   double vector_length = vec.Length();

	lea	ecx, DWORD PTR _vec$[ebp]
	call	?Length@Vector2D@@QBENXZ		; Vector2D::Length
	fstp	QWORD PTR _vector_length$[ebp]

; 262  : 
; 263  :   if (vector_length > std::numeric_limits<double>::epsilon())

	call	?epsilon@?$numeric_limits@N@std@@SANXZ	; std::numeric_limits<double>::epsilon
	fstp	QWORD PTR tv87[ebp]
	movsd	xmm0, QWORD PTR _vector_length$[ebp]
	comisd	xmm0, QWORD PTR tv87[ebp]
	jbe	SHORT $LN2@Vec2DNorma

; 264  :   {
; 265  :     vec.x /= vector_length;

	movsd	xmm0, QWORD PTR _vec$[ebp]
	divsd	xmm0, QWORD PTR _vector_length$[ebp]
	movsd	QWORD PTR _vec$[ebp], xmm0

; 266  :     vec.y /= vector_length;

	movsd	xmm0, QWORD PTR _vec$[ebp+8]
	divsd	xmm0, QWORD PTR _vector_length$[ebp]
	movsd	QWORD PTR _vec$[ebp+8], xmm0
$LN2@Vec2DNorma:

; 267  :   }
; 268  : 
; 269  :   return vec;

	mov	eax, DWORD PTR ___$ReturnUdt$[ebp]
	mov	ecx, DWORD PTR _vec$[ebp]
	mov	DWORD PTR [eax], ecx
	mov	edx, DWORD PTR _vec$[ebp+4]
	mov	DWORD PTR [eax+4], edx
	mov	ecx, DWORD PTR _vec$[ebp+8]
	mov	DWORD PTR [eax+8], ecx
	mov	edx, DWORD PTR _vec$[ebp+12]
	mov	DWORD PTR [eax+12], edx
	mov	eax, DWORD PTR ___$ReturnUdt$[ebp]

; 270  : }

	push	edx
	mov	ecx, ebp
	push	eax
	lea	edx, DWORD PTR $LN6@Vec2DNorma
	call	@_RTC_CheckStackVars@8
	pop	eax
	pop	edx
	pop	edi
	add	esp, 40					; 00000028H
	cmp	ebp, esp
	call	__RTC_CheckEsp
	mov	esp, ebp
	pop	ebp
	ret	0
	npad	2
$LN6@Vec2DNorma:
	DD	1
	DD	$LN5@Vec2DNorma
$LN5@Vec2DNorma:
	DD	-20					; ffffffecH
	DD	16					; 00000010H
	DD	$LN4@Vec2DNorma
$LN4@Vec2DNorma:
	DB	118					; 00000076H
	DB	101					; 00000065H
	DB	99					; 00000063H
	DB	0
?Vec2DNormalize@@YA?AUVector2D@@ABU1@@Z ENDP		; Vec2DNormalize
_TEXT	ENDS
; Function compile flags: /Odtp /RTCsu
; File C:\Users\lsy01\OneDrive\바탕 화면\3-2_Study\인공지능\Source\VS2010\Common\2D\Vector2D.h
;	COMDAT ??K@YA?AUVector2D@@ABU0@N@Z
_TEXT	SEGMENT
_result$ = -20						; size = 16
___$ReturnUdt$ = 8					; size = 4
_lhs$ = 12						; size = 4
_val$ = 16						; size = 8
??K@YA?AUVector2D@@ABU0@N@Z PROC			; operator/, COMDAT

; 369  : {

	push	ebp
	mov	ebp, esp
	sub	esp, 24					; 00000018H
	mov	eax, -858993460				; ccccccccH
	mov	DWORD PTR [ebp-24], eax
	mov	DWORD PTR [ebp-20], eax
	mov	DWORD PTR [ebp-16], eax
	mov	DWORD PTR [ebp-12], eax
	mov	DWORD PTR [ebp-8], eax
	mov	DWORD PTR [ebp-4], eax

; 370  :   Vector2D result(lhs);

	mov	eax, DWORD PTR _lhs$[ebp]
	mov	ecx, DWORD PTR [eax]
	mov	DWORD PTR _result$[ebp], ecx
	mov	edx, DWORD PTR [eax+4]
	mov	DWORD PTR _result$[ebp+4], edx
	mov	ecx, DWORD PTR [eax+8]
	mov	DWORD PTR _result$[ebp+8], ecx
	mov	edx, DWORD PTR [eax+12]
	mov	DWORD PTR _result$[ebp+12], edx

; 371  :   result.x /= val;

	movsd	xmm0, QWORD PTR _result$[ebp]
	divsd	xmm0, QWORD PTR _val$[ebp]
	movsd	QWORD PTR _result$[ebp], xmm0

; 372  :   result.y /= val;

	movsd	xmm0, QWORD PTR _result$[ebp+8]
	divsd	xmm0, QWORD PTR _val$[ebp]
	movsd	QWORD PTR _result$[ebp+8], xmm0

; 373  : 
; 374  :   return result;

	mov	eax, DWORD PTR ___$ReturnUdt$[ebp]
	mov	ecx, DWORD PTR _result$[ebp]
	mov	DWORD PTR [eax], ecx
	mov	edx, DWORD PTR _result$[ebp+4]
	mov	DWORD PTR [eax+4], edx
	mov	ecx, DWORD PTR _result$[ebp+8]
	mov	DWORD PTR [eax+8], ecx
	mov	edx, DWORD PTR _result$[ebp+12]
	mov	DWORD PTR [eax+12], edx
	mov	eax, DWORD PTR ___$ReturnUdt$[ebp]

; 375  : }

	push	edx
	mov	ecx, ebp
	push	eax
	lea	edx, DWORD PTR $LN5@operator
	call	@_RTC_CheckStackVars@8
	pop	eax
	pop	edx
	mov	esp, ebp
	pop	ebp
	ret	0
	npad	1
$LN5@operator:
	DD	1
	DD	$LN4@operator
$LN4@operator:
	DD	-20					; ffffffecH
	DD	16					; 00000010H
	DD	$LN3@operator
$LN3@operator:
	DB	114					; 00000072H
	DB	101					; 00000065H
	DB	115					; 00000073H
	DB	117					; 00000075H
	DB	108					; 0000006cH
	DB	116					; 00000074H
	DB	0
??K@YA?AUVector2D@@ABU0@N@Z ENDP			; operator/
_TEXT	ENDS
; Function compile flags: /Odtp /RTCsu
; File C:\Users\lsy01\OneDrive\바탕 화면\3-2_Study\인공지능\Source\VS2010\Common\2D\Vector2D.h
;	COMDAT ??H@YA?AUVector2D@@ABU0@0@Z
_TEXT	SEGMENT
_result$ = -20						; size = 16
___$ReturnUdt$ = 8					; size = 4
_lhs$ = 12						; size = 4
_rhs$ = 16						; size = 4
??H@YA?AUVector2D@@ABU0@0@Z PROC			; operator+, COMDAT

; 359  : {

	push	ebp
	mov	ebp, esp
	sub	esp, 24					; 00000018H
	mov	eax, -858993460				; ccccccccH
	mov	DWORD PTR [ebp-24], eax
	mov	DWORD PTR [ebp-20], eax
	mov	DWORD PTR [ebp-16], eax
	mov	DWORD PTR [ebp-12], eax
	mov	DWORD PTR [ebp-8], eax
	mov	DWORD PTR [ebp-4], eax

; 360  :   Vector2D result(lhs);

	mov	eax, DWORD PTR _lhs$[ebp]
	mov	ecx, DWORD PTR [eax]
	mov	DWORD PTR _result$[ebp], ecx
	mov	edx, DWORD PTR [eax+4]
	mov	DWORD PTR _result$[ebp+4], edx
	mov	ecx, DWORD PTR [eax+8]
	mov	DWORD PTR _result$[ebp+8], ecx
	mov	edx, DWORD PTR [eax+12]
	mov	DWORD PTR _result$[ebp+12], edx

; 361  :   result.x += rhs.x;

	mov	eax, DWORD PTR _rhs$[ebp]
	movsd	xmm0, QWORD PTR _result$[ebp]
	addsd	xmm0, QWORD PTR [eax]
	movsd	QWORD PTR _result$[ebp], xmm0

; 362  :   result.y += rhs.y;

	mov	ecx, DWORD PTR _rhs$[ebp]
	movsd	xmm0, QWORD PTR _result$[ebp+8]
	addsd	xmm0, QWORD PTR [ecx+8]
	movsd	QWORD PTR _result$[ebp+8], xmm0

; 363  :   
; 364  :   return result;

	mov	edx, DWORD PTR ___$ReturnUdt$[ebp]
	mov	eax, DWORD PTR _result$[ebp]
	mov	DWORD PTR [edx], eax
	mov	ecx, DWORD PTR _result$[ebp+4]
	mov	DWORD PTR [edx+4], ecx
	mov	eax, DWORD PTR _result$[ebp+8]
	mov	DWORD PTR [edx+8], eax
	mov	ecx, DWORD PTR _result$[ebp+12]
	mov	DWORD PTR [edx+12], ecx
	mov	eax, DWORD PTR ___$ReturnUdt$[ebp]

; 365  : }

	push	edx
	mov	ecx, ebp
	push	eax
	lea	edx, DWORD PTR $LN5@operator
	call	@_RTC_CheckStackVars@8
	pop	eax
	pop	edx
	mov	esp, ebp
	pop	ebp
	ret	0
$LN5@operator:
	DD	1
	DD	$LN4@operator
$LN4@operator:
	DD	-20					; ffffffecH
	DD	16					; 00000010H
	DD	$LN3@operator
$LN3@operator:
	DB	114					; 00000072H
	DB	101					; 00000065H
	DB	115					; 00000073H
	DB	117					; 00000075H
	DB	108					; 0000006cH
	DB	116					; 00000074H
	DB	0
??H@YA?AUVector2D@@ABU0@0@Z ENDP			; operator+
_TEXT	ENDS
; Function compile flags: /Odtp /RTCsu
; File C:\Users\lsy01\OneDrive\바탕 화면\3-2_Study\인공지능\Source\VS2010\Common\2D\Vector2D.h
;	COMDAT ??G@YA?AUVector2D@@ABU0@0@Z
_TEXT	SEGMENT
_result$ = -20						; size = 16
___$ReturnUdt$ = 8					; size = 4
_lhs$ = 12						; size = 4
_rhs$ = 16						; size = 4
??G@YA?AUVector2D@@ABU0@0@Z PROC			; operator-, COMDAT

; 349  : {

	push	ebp
	mov	ebp, esp
	sub	esp, 24					; 00000018H
	mov	eax, -858993460				; ccccccccH
	mov	DWORD PTR [ebp-24], eax
	mov	DWORD PTR [ebp-20], eax
	mov	DWORD PTR [ebp-16], eax
	mov	DWORD PTR [ebp-12], eax
	mov	DWORD PTR [ebp-8], eax
	mov	DWORD PTR [ebp-4], eax

; 350  :   Vector2D result(lhs);

	mov	eax, DWORD PTR _lhs$[ebp]
	mov	ecx, DWORD PTR [eax]
	mov	DWORD PTR _result$[ebp], ecx
	mov	edx, DWORD PTR [eax+4]
	mov	DWORD PTR _result$[ebp+4], edx
	mov	ecx, DWORD PTR [eax+8]
	mov	DWORD PTR _result$[ebp+8], ecx
	mov	edx, DWORD PTR [eax+12]
	mov	DWORD PTR _result$[ebp+12], edx

; 351  :   result.x -= rhs.x;

	mov	eax, DWORD PTR _rhs$[ebp]
	movsd	xmm0, QWORD PTR _result$[ebp]
	subsd	xmm0, QWORD PTR [eax]
	movsd	QWORD PTR _result$[ebp], xmm0

; 352  :   result.y -= rhs.y;

	mov	ecx, DWORD PTR _rhs$[ebp]
	movsd	xmm0, QWORD PTR _result$[ebp+8]
	subsd	xmm0, QWORD PTR [ecx+8]
	movsd	QWORD PTR _result$[ebp+8], xmm0

; 353  :   
; 354  :   return result;

	mov	edx, DWORD PTR ___$ReturnUdt$[ebp]
	mov	eax, DWORD PTR _result$[ebp]
	mov	DWORD PTR [edx], eax
	mov	ecx, DWORD PTR _result$[ebp+4]
	mov	DWORD PTR [edx+4], ecx
	mov	eax, DWORD PTR _result$[ebp+8]
	mov	DWORD PTR [edx+8], eax
	mov	ecx, DWORD PTR _result$[ebp+12]
	mov	DWORD PTR [edx+12], ecx
	mov	eax, DWORD PTR ___$ReturnUdt$[ebp]

; 355  : }

	push	edx
	mov	ecx, ebp
	push	eax
	lea	edx, DWORD PTR $LN5@operator
	call	@_RTC_CheckStackVars@8
	pop	eax
	pop	edx
	mov	esp, ebp
	pop	ebp
	ret	0
$LN5@operator:
	DD	1
	DD	$LN4@operator
$LN4@operator:
	DD	-20					; ffffffecH
	DD	16					; 00000010H
	DD	$LN3@operator
$LN3@operator:
	DB	114					; 00000072H
	DB	101					; 00000065H
	DB	115					; 00000073H
	DB	117					; 00000075H
	DB	108					; 0000006cH
	DB	116					; 00000074H
	DB	0
??G@YA?AUVector2D@@ABU0@0@Z ENDP			; operator-
_TEXT	ENDS
; Function compile flags: /Odtp /RTCsu
; File C:\Users\lsy01\OneDrive\바탕 화면\3-2_Study\인공지능\Source\VS2010\Common\2D\Vector2D.h
;	COMDAT ??D@YA?AUVector2D@@NABU0@@Z
_TEXT	SEGMENT
_result$ = -20						; size = 16
___$ReturnUdt$ = 8					; size = 4
_lhs$ = 12						; size = 8
_rhs$ = 20						; size = 4
??D@YA?AUVector2D@@NABU0@@Z PROC			; operator*, COMDAT

; 341  : {

	push	ebp
	mov	ebp, esp
	sub	esp, 24					; 00000018H
	mov	eax, -858993460				; ccccccccH
	mov	DWORD PTR [ebp-24], eax
	mov	DWORD PTR [ebp-20], eax
	mov	DWORD PTR [ebp-16], eax
	mov	DWORD PTR [ebp-12], eax
	mov	DWORD PTR [ebp-8], eax
	mov	DWORD PTR [ebp-4], eax

; 342  :   Vector2D result(rhs);

	mov	eax, DWORD PTR _rhs$[ebp]
	mov	ecx, DWORD PTR [eax]
	mov	DWORD PTR _result$[ebp], ecx
	mov	edx, DWORD PTR [eax+4]
	mov	DWORD PTR _result$[ebp+4], edx
	mov	ecx, DWORD PTR [eax+8]
	mov	DWORD PTR _result$[ebp+8], ecx
	mov	edx, DWORD PTR [eax+12]
	mov	DWORD PTR _result$[ebp+12], edx

; 343  :   result *= lhs;

	lea	eax, DWORD PTR _lhs$[ebp]
	push	eax
	lea	ecx, DWORD PTR _result$[ebp]
	call	??XVector2D@@QAEABU0@ABN@Z		; Vector2D::operator*=

; 344  :   return result;

	mov	ecx, DWORD PTR ___$ReturnUdt$[ebp]
	mov	edx, DWORD PTR _result$[ebp]
	mov	DWORD PTR [ecx], edx
	mov	eax, DWORD PTR _result$[ebp+4]
	mov	DWORD PTR [ecx+4], eax
	mov	edx, DWORD PTR _result$[ebp+8]
	mov	DWORD PTR [ecx+8], edx
	mov	eax, DWORD PTR _result$[ebp+12]
	mov	DWORD PTR [ecx+12], eax
	mov	eax, DWORD PTR ___$ReturnUdt$[ebp]

; 345  : }

	push	edx
	mov	ecx, ebp
	push	eax
	lea	edx, DWORD PTR $LN5@operator
	call	@_RTC_CheckStackVars@8
	pop	eax
	pop	edx
	add	esp, 24					; 00000018H
	cmp	ebp, esp
	call	__RTC_CheckEsp
	mov	esp, ebp
	pop	ebp
	ret	0
	npad	1
$LN5@operator:
	DD	1
	DD	$LN4@operator
$LN4@operator:
	DD	-20					; ffffffecH
	DD	16					; 00000010H
	DD	$LN3@operator
$LN3@operator:
	DB	114					; 00000072H
	DB	101					; 00000065H
	DB	115					; 00000073H
	DB	117					; 00000075H
	DB	108					; 0000006cH
	DB	116					; 00000074H
	DB	0
??D@YA?AUVector2D@@NABU0@@Z ENDP			; operator*
_TEXT	ENDS
; Function compile flags: /Odtp /RTCsu
; File C:\Users\lsy01\OneDrive\바탕 화면\3-2_Study\인공지능\Source\VS2010\Common\2D\Vector2D.h
;	COMDAT ??D@YA?AUVector2D@@ABU0@N@Z
_TEXT	SEGMENT
_result$ = -20						; size = 16
___$ReturnUdt$ = 8					; size = 4
_lhs$ = 12						; size = 4
_rhs$ = 16						; size = 8
??D@YA?AUVector2D@@ABU0@N@Z PROC			; operator*, COMDAT

; 334  : {

	push	ebp
	mov	ebp, esp
	sub	esp, 24					; 00000018H
	mov	eax, -858993460				; ccccccccH
	mov	DWORD PTR [ebp-24], eax
	mov	DWORD PTR [ebp-20], eax
	mov	DWORD PTR [ebp-16], eax
	mov	DWORD PTR [ebp-12], eax
	mov	DWORD PTR [ebp-8], eax
	mov	DWORD PTR [ebp-4], eax

; 335  :   Vector2D result(lhs);

	mov	eax, DWORD PTR _lhs$[ebp]
	mov	ecx, DWORD PTR [eax]
	mov	DWORD PTR _result$[ebp], ecx
	mov	edx, DWORD PTR [eax+4]
	mov	DWORD PTR _result$[ebp+4], edx
	mov	ecx, DWORD PTR [eax+8]
	mov	DWORD PTR _result$[ebp+8], ecx
	mov	edx, DWORD PTR [eax+12]
	mov	DWORD PTR _result$[ebp+12], edx

; 336  :   result *= rhs;

	lea	eax, DWORD PTR _rhs$[ebp]
	push	eax
	lea	ecx, DWORD PTR _result$[ebp]
	call	??XVector2D@@QAEABU0@ABN@Z		; Vector2D::operator*=

; 337  :   return result;

	mov	ecx, DWORD PTR ___$ReturnUdt$[ebp]
	mov	edx, DWORD PTR _result$[ebp]
	mov	DWORD PTR [ecx], edx
	mov	eax, DWORD PTR _result$[ebp+4]
	mov	DWORD PTR [ecx+4], eax
	mov	edx, DWORD PTR _result$[ebp+8]
	mov	DWORD PTR [ecx+8], edx
	mov	eax, DWORD PTR _result$[ebp+12]
	mov	DWORD PTR [ecx+12], eax
	mov	eax, DWORD PTR ___$ReturnUdt$[ebp]

; 338  : }

	push	edx
	mov	ecx, ebp
	push	eax
	lea	edx, DWORD PTR $LN5@operator
	call	@_RTC_CheckStackVars@8
	pop	eax
	pop	edx
	add	esp, 24					; 00000018H
	cmp	ebp, esp
	call	__RTC_CheckEsp
	mov	esp, ebp
	pop	ebp
	ret	0
	npad	1
$LN5@operator:
	DD	1
	DD	$LN4@operator
$LN4@operator:
	DD	-20					; ffffffecH
	DD	16					; 00000010H
	DD	$LN3@operator
$LN3@operator:
	DB	114					; 00000072H
	DB	101					; 00000065H
	DB	115					; 00000073H
	DB	117					; 00000075H
	DB	108					; 0000006cH
	DB	116					; 00000074H
	DB	0
??D@YA?AUVector2D@@ABU0@N@Z ENDP			; operator*
_TEXT	ENDS
; Function compile flags: /Odtp /RTCsu
; File C:\Users\lsy01\OneDrive\바탕 화면\3-2_Study\인공지능\Source\VS2010\Common\2D\Vector2D.h
;	COMDAT ??XVector2D@@QAEABU0@ABN@Z
_TEXT	SEGMENT
_this$ = -4						; size = 4
_rhs$ = 8						; size = 4
??XVector2D@@QAEABU0@ABN@Z PROC				; Vector2D::operator*=, COMDAT
; _this$ = ecx

; 84   :   {

	push	ebp
	mov	ebp, esp
	push	ecx
	mov	DWORD PTR _this$[ebp], ecx

; 85   :     x *= rhs;

	mov	eax, DWORD PTR _this$[ebp]
	mov	ecx, DWORD PTR _rhs$[ebp]
	movsd	xmm0, QWORD PTR [eax]
	mulsd	xmm0, QWORD PTR [ecx]
	mov	edx, DWORD PTR _this$[ebp]
	movsd	QWORD PTR [edx], xmm0

; 86   :     y *= rhs;

	mov	eax, DWORD PTR _this$[ebp]
	mov	ecx, DWORD PTR _rhs$[ebp]
	movsd	xmm0, QWORD PTR [eax+8]
	mulsd	xmm0, QWORD PTR [ecx]
	mov	edx, DWORD PTR _this$[ebp]
	movsd	QWORD PTR [edx+8], xmm0

; 87   : 
; 88   :     return *this;

	mov	eax, DWORD PTR _this$[ebp]

; 89   :   }

	mov	esp, ebp
	pop	ebp
	ret	4
??XVector2D@@QAEABU0@ABN@Z ENDP				; Vector2D::operator*=
_TEXT	ENDS
; Function compile flags: /Odtp /RTCsu
; File C:\Users\lsy01\OneDrive\바탕 화면\3-2_Study\인공지능\Source\VS2010\Common\2D\Vector2D.h
;	COMDAT ??YVector2D@@QAEABU0@ABU0@@Z
_TEXT	SEGMENT
_this$ = -4						; size = 4
_rhs$ = 8						; size = 4
??YVector2D@@QAEABU0@ABU0@@Z PROC			; Vector2D::operator+=, COMDAT
; _this$ = ecx

; 68   :   {

	push	ebp
	mov	ebp, esp
	push	ecx
	mov	DWORD PTR _this$[ebp], ecx

; 69   :     x += rhs.x;

	mov	eax, DWORD PTR _this$[ebp]
	mov	ecx, DWORD PTR _rhs$[ebp]
	movsd	xmm0, QWORD PTR [eax]
	addsd	xmm0, QWORD PTR [ecx]
	mov	edx, DWORD PTR _this$[ebp]
	movsd	QWORD PTR [edx], xmm0

; 70   :     y += rhs.y;

	mov	eax, DWORD PTR _this$[ebp]
	mov	ecx, DWORD PTR _rhs$[ebp]
	movsd	xmm0, QWORD PTR [eax+8]
	addsd	xmm0, QWORD PTR [ecx+8]
	mov	edx, DWORD PTR _this$[ebp]
	movsd	QWORD PTR [edx+8], xmm0

; 71   : 
; 72   :     return *this;

	mov	eax, DWORD PTR _this$[ebp]

; 73   :   }

	mov	esp, ebp
	pop	ebp
	ret	4
??YVector2D@@QAEABU0@ABU0@@Z ENDP			; Vector2D::operator+=
_TEXT	ENDS
; Function compile flags: /Odtp /RTCsu
; File C:\Users\lsy01\OneDrive\바탕 화면\3-2_Study\인공지능\Source\VS2010\Common\2D\Vector2D.h
;	COMDAT ?Truncate@Vector2D@@QAEXN@Z
_TEXT	SEGMENT
tv73 = -12						; size = 8
_this$ = -4						; size = 4
_max$ = 8						; size = 8
?Truncate@Vector2D@@QAEXN@Z PROC			; Vector2D::Truncate, COMDAT
; _this$ = ecx

; 210  : {

	push	ebp
	mov	ebp, esp
	sub	esp, 12					; 0000000cH
	mov	DWORD PTR [ebp-12], -858993460		; ccccccccH
	mov	DWORD PTR [ebp-8], -858993460		; ccccccccH
	mov	DWORD PTR [ebp-4], -858993460		; ccccccccH
	mov	DWORD PTR _this$[ebp], ecx

; 211  :   if (this->Length() > max)

	mov	ecx, DWORD PTR _this$[ebp]
	call	?Length@Vector2D@@QBENXZ		; Vector2D::Length
	fstp	QWORD PTR tv73[ebp]
	movsd	xmm0, QWORD PTR tv73[ebp]
	comisd	xmm0, QWORD PTR _max$[ebp]
	jbe	SHORT $LN2@Truncate

; 212  :   {
; 213  :     this->Normalize();

	mov	ecx, DWORD PTR _this$[ebp]
	call	?Normalize@Vector2D@@QAEXXZ		; Vector2D::Normalize

; 214  : 
; 215  :     *this *= max;

	lea	eax, DWORD PTR _max$[ebp]
	push	eax
	mov	ecx, DWORD PTR _this$[ebp]
	call	??XVector2D@@QAEABU0@ABN@Z		; Vector2D::operator*=
$LN2@Truncate:

; 216  :   } 
; 217  : }

	add	esp, 12					; 0000000cH
	cmp	ebp, esp
	call	__RTC_CheckEsp
	mov	esp, ebp
	pop	ebp
	ret	8
?Truncate@Vector2D@@QAEXN@Z ENDP			; Vector2D::Truncate
_TEXT	ENDS
; Function compile flags: /Odtp /RTCsu
; File C:\Users\lsy01\OneDrive\바탕 화면\3-2_Study\인공지능\Source\VS2010\Common\2D\Vector2D.h
;	COMDAT ?Perp@Vector2D@@QBE?AU1@XZ
_TEXT	SEGMENT
_this$ = -4						; size = 4
___$ReturnUdt$ = 8					; size = 4
?Perp@Vector2D@@QBE?AU1@XZ PROC				; Vector2D::Perp, COMDAT
; _this$ = ecx

; 176  : {

	push	ebp
	mov	ebp, esp
	push	ecx
	mov	DWORD PTR [ebp-4], -858993460		; ccccccccH
	mov	DWORD PTR _this$[ebp], ecx

; 177  :   return Vector2D(-y, x);

	mov	eax, DWORD PTR _this$[ebp]
	sub	esp, 8
	movsd	xmm0, QWORD PTR [eax]
	movsd	QWORD PTR [esp], xmm0
	mov	ecx, DWORD PTR _this$[ebp]
	movsd	xmm0, QWORD PTR [ecx+8]
	xorps	xmm0, QWORD PTR __xmm@80000000000000008000000000000000
	sub	esp, 8
	movsd	QWORD PTR [esp], xmm0
	mov	ecx, DWORD PTR ___$ReturnUdt$[ebp]
	call	??0Vector2D@@QAE@NN@Z			; Vector2D::Vector2D
	mov	eax, DWORD PTR ___$ReturnUdt$[ebp]

; 178  : }

	add	esp, 4
	cmp	ebp, esp
	call	__RTC_CheckEsp
	mov	esp, ebp
	pop	ebp
	ret	4
?Perp@Vector2D@@QBE?AU1@XZ ENDP				; Vector2D::Perp
_TEXT	ENDS
; Function compile flags: /Odtp /RTCsu
; File C:\Users\lsy01\OneDrive\바탕 화면\3-2_Study\인공지능\Source\VS2010\Common\2D\Vector2D.h
;	COMDAT ?Dot@Vector2D@@QBENABU1@@Z
_TEXT	SEGMENT
tv78 = -12						; size = 8
_this$ = -4						; size = 4
_v2$ = 8						; size = 4
?Dot@Vector2D@@QBENABU1@@Z PROC				; Vector2D::Dot, COMDAT
; _this$ = ecx

; 148  : {

	push	ebp
	mov	ebp, esp
	sub	esp, 12					; 0000000cH
	mov	DWORD PTR _this$[ebp], ecx

; 149  :   return x*v2.x + y*v2.y;

	mov	eax, DWORD PTR _this$[ebp]
	mov	ecx, DWORD PTR _v2$[ebp]
	movsd	xmm0, QWORD PTR [eax]
	mulsd	xmm0, QWORD PTR [ecx]
	mov	edx, DWORD PTR _this$[ebp]
	mov	eax, DWORD PTR _v2$[ebp]
	movsd	xmm1, QWORD PTR [edx+8]
	mulsd	xmm1, QWORD PTR [eax+8]
	addsd	xmm0, xmm1
	movsd	QWORD PTR tv78[ebp], xmm0
	fld	QWORD PTR tv78[ebp]

; 150  : }

	mov	esp, ebp
	pop	ebp
	ret	4
?Dot@Vector2D@@QBENABU1@@Z ENDP				; Vector2D::Dot
_TEXT	ENDS
; Function compile flags: /Odtp /RTCsu
; File C:\Users\lsy01\OneDrive\바탕 화면\3-2_Study\인공지능\Source\VS2010\Common\2D\Vector2D.h
;	COMDAT ?Normalize@Vector2D@@QAEXXZ
_TEXT	SEGMENT
tv79 = -20						; size = 8
_vector_length$ = -12					; size = 8
_this$ = -4						; size = 4
?Normalize@Vector2D@@QAEXXZ PROC			; Vector2D::Normalize, COMDAT
; _this$ = ecx

; 244  : { 

	push	ebp
	mov	ebp, esp
	sub	esp, 20					; 00000014H
	mov	eax, -858993460				; ccccccccH
	mov	DWORD PTR [ebp-20], eax
	mov	DWORD PTR [ebp-16], eax
	mov	DWORD PTR [ebp-12], eax
	mov	DWORD PTR [ebp-8], eax
	mov	DWORD PTR [ebp-4], eax
	mov	DWORD PTR _this$[ebp], ecx

; 245  :   double vector_length = this->Length();

	mov	ecx, DWORD PTR _this$[ebp]
	call	?Length@Vector2D@@QBENXZ		; Vector2D::Length
	fstp	QWORD PTR _vector_length$[ebp]

; 246  : 
; 247  :   if (vector_length > std::numeric_limits<double>::epsilon())

	call	?epsilon@?$numeric_limits@N@std@@SANXZ	; std::numeric_limits<double>::epsilon
	fstp	QWORD PTR tv79[ebp]
	movsd	xmm0, QWORD PTR _vector_length$[ebp]
	comisd	xmm0, QWORD PTR tv79[ebp]
	jbe	SHORT $LN2@Normalize

; 248  :   {
; 249  :     this->x /= vector_length;

	mov	eax, DWORD PTR _this$[ebp]
	movsd	xmm0, QWORD PTR [eax]
	divsd	xmm0, QWORD PTR _vector_length$[ebp]
	mov	ecx, DWORD PTR _this$[ebp]
	movsd	QWORD PTR [ecx], xmm0

; 250  :     this->y /= vector_length;

	mov	edx, DWORD PTR _this$[ebp]
	movsd	xmm0, QWORD PTR [edx+8]
	divsd	xmm0, QWORD PTR _vector_length$[ebp]
	mov	eax, DWORD PTR _this$[ebp]
	movsd	QWORD PTR [eax+8], xmm0
$LN2@Normalize:

; 251  :   }
; 252  : }

	add	esp, 20					; 00000014H
	cmp	ebp, esp
	call	__RTC_CheckEsp
	mov	esp, ebp
	pop	ebp
	ret	0
?Normalize@Vector2D@@QAEXXZ ENDP			; Vector2D::Normalize
_TEXT	ENDS
; Function compile flags: /Odtp /RTCsu
; File C:\Users\lsy01\OneDrive\바탕 화면\3-2_Study\인공지능\Source\VS2010\Common\2D\Vector2D.h
;	COMDAT ?Length@Vector2D@@QBENXZ
_TEXT	SEGMENT
_this$ = -4						; size = 4
?Length@Vector2D@@QBENXZ PROC				; Vector2D::Length, COMDAT
; _this$ = ecx

; 128  : {

	push	ebp
	mov	ebp, esp
	push	ecx
	mov	DWORD PTR [ebp-4], -858993460		; ccccccccH
	mov	DWORD PTR _this$[ebp], ecx

; 129  :   return sqrt(x * x + y * y);

	mov	eax, DWORD PTR _this$[ebp]
	mov	ecx, DWORD PTR _this$[ebp]
	movsd	xmm0, QWORD PTR [eax]
	mulsd	xmm0, QWORD PTR [ecx]
	mov	edx, DWORD PTR _this$[ebp]
	mov	eax, DWORD PTR _this$[ebp]
	movsd	xmm1, QWORD PTR [edx+8]
	mulsd	xmm1, QWORD PTR [eax+8]
	addsd	xmm0, xmm1
	sub	esp, 8
	movsd	QWORD PTR [esp], xmm0
	call	_sqrt
	add	esp, 8

; 130  : }

	add	esp, 4
	cmp	ebp, esp
	call	__RTC_CheckEsp
	mov	esp, ebp
	pop	ebp
	ret	0
?Length@Vector2D@@QBENXZ ENDP				; Vector2D::Length
_TEXT	ENDS
; Function compile flags: /Odtp /RTCsu
; File C:\Users\lsy01\OneDrive\바탕 화면\3-2_Study\인공지능\Source\VS2010\Common\2D\Vector2D.h
;	COMDAT ??0Vector2D@@QAE@NN@Z
_TEXT	SEGMENT
_this$ = -4						; size = 4
_a$ = 8							; size = 8
_b$ = 16						; size = 8
??0Vector2D@@QAE@NN@Z PROC				; Vector2D::Vector2D, COMDAT
; _this$ = ecx

; 25   :   Vector2D(double a, double b):x(a),y(b){}

	push	ebp
	mov	ebp, esp
	push	ecx
	mov	DWORD PTR _this$[ebp], ecx
	mov	eax, DWORD PTR _this$[ebp]
	movsd	xmm0, QWORD PTR _a$[ebp]
	movsd	QWORD PTR [eax], xmm0
	mov	ecx, DWORD PTR _this$[ebp]
	movsd	xmm0, QWORD PTR _b$[ebp]
	movsd	QWORD PTR [ecx+8], xmm0
	mov	eax, DWORD PTR _this$[ebp]
	mov	esp, ebp
	pop	ebp
	ret	16					; 00000010H
??0Vector2D@@QAE@NN@Z ENDP				; Vector2D::Vector2D
_TEXT	ENDS
; Function compile flags: /Odtp /RTCsu
; File C:\Users\lsy01\OneDrive\바탕 화면\3-2_Study\인공지능\Source\VS2010\Common\2D\Vector2D.h
;	COMDAT ??0Vector2D@@QAE@XZ
_TEXT	SEGMENT
_this$ = -4						; size = 4
??0Vector2D@@QAE@XZ PROC				; Vector2D::Vector2D, COMDAT
; _this$ = ecx

; 24   :   Vector2D():x(0.0),y(0.0){}

	push	ebp
	mov	ebp, esp
	push	ecx
	mov	DWORD PTR _this$[ebp], ecx
	mov	eax, DWORD PTR _this$[ebp]
	xorps	xmm0, xmm0
	movsd	QWORD PTR [eax], xmm0
	mov	ecx, DWORD PTR _this$[ebp]
	xorps	xmm0, xmm0
	movsd	QWORD PTR [ecx+8], xmm0
	mov	eax, DWORD PTR _this$[ebp]
	mov	esp, ebp
	pop	ebp
	ret	0
??0Vector2D@@QAE@XZ ENDP				; Vector2D::Vector2D
_TEXT	ENDS
; Function compile flags: /Odtp /RTCsu
; File C:\Program Files\Microsoft Visual Studio\2022\Community\VC\Tools\MSVC\14.32.31326\include\xlocale
;	COMDAT ??0id@locale@std@@QAE@I@Z
_TEXT	SEGMENT
_this$ = -4						; size = 4
__Val$ = 8						; size = 4
??0id@locale@std@@QAE@I@Z PROC				; std::locale::id::id, COMDAT
; _this$ = ecx

; 96   :         __CLR_OR_THIS_CALL id(size_t _Val = 0) : _Id(_Val) {}

	push	ebp
	mov	ebp, esp
	push	ecx
	mov	DWORD PTR _this$[ebp], ecx
	mov	eax, DWORD PTR _this$[ebp]
	mov	ecx, DWORD PTR __Val$[ebp]
	mov	DWORD PTR [eax], ecx
	mov	eax, DWORD PTR _this$[ebp]
	mov	esp, ebp
	pop	ebp
	ret	4
??0id@locale@std@@QAE@I@Z ENDP				; std::locale::id::id
_TEXT	ENDS
; Function compile flags: /Odtp /RTCsu
;	COMDAT ??_Gruntime_error@std@@UAEPAXI@Z
_TEXT	SEGMENT
_this$ = -4						; size = 4
___flags$ = 8						; size = 4
??_Gruntime_error@std@@UAEPAXI@Z PROC			; std::runtime_error::`scalar deleting destructor', COMDAT
; _this$ = ecx
	push	ebp
	mov	ebp, esp
	push	ecx
	mov	DWORD PTR [ebp-4], -858993460		; ccccccccH
	mov	DWORD PTR _this$[ebp], ecx
	mov	ecx, DWORD PTR _this$[ebp]
	call	??1runtime_error@std@@UAE@XZ
	mov	eax, DWORD PTR ___flags$[ebp]
	and	eax, 1
	je	SHORT $LN2@scalar
	push	12					; 0000000cH
	mov	ecx, DWORD PTR _this$[ebp]
	push	ecx
	call	??3@YAXPAXI@Z				; operator delete
	add	esp, 8
$LN2@scalar:
	mov	eax, DWORD PTR _this$[ebp]
	add	esp, 4
	cmp	ebp, esp
	call	__RTC_CheckEsp
	mov	esp, ebp
	pop	ebp
	ret	4
??_Gruntime_error@std@@UAEPAXI@Z ENDP			; std::runtime_error::`scalar deleting destructor'
_TEXT	ENDS
; Function compile flags: /Odtp /RTCsu
;	COMDAT ??0runtime_error@std@@QAE@ABV01@@Z
_TEXT	SEGMENT
_this$ = -4						; size = 4
___that$ = 8						; size = 4
??0runtime_error@std@@QAE@ABV01@@Z PROC			; std::runtime_error::runtime_error, COMDAT
; _this$ = ecx
	push	ebp
	mov	ebp, esp
	push	ecx
	mov	DWORD PTR [ebp-4], -858993460		; ccccccccH
	mov	DWORD PTR _this$[ebp], ecx
	mov	eax, DWORD PTR ___that$[ebp]
	push	eax
	mov	ecx, DWORD PTR _this$[ebp]
	call	??0exception@std@@QAE@ABV01@@Z		; std::exception::exception
	mov	ecx, DWORD PTR _this$[ebp]
	mov	DWORD PTR [ecx], OFFSET ??_7runtime_error@std@@6B@
	mov	eax, DWORD PTR _this$[ebp]
	add	esp, 4
	cmp	ebp, esp
	call	__RTC_CheckEsp
	mov	esp, ebp
	pop	ebp
	ret	4
??0runtime_error@std@@QAE@ABV01@@Z ENDP			; std::runtime_error::runtime_error
_TEXT	ENDS
; Function compile flags: /Odtp /RTCsu
;	COMDAT ??1runtime_error@std@@UAE@XZ
_TEXT	SEGMENT
_this$ = -4						; size = 4
??1runtime_error@std@@UAE@XZ PROC			; std::runtime_error::~runtime_error, COMDAT
; _this$ = ecx
	push	ebp
	mov	ebp, esp
	push	ecx
	mov	DWORD PTR [ebp-4], -858993460		; ccccccccH
	mov	DWORD PTR _this$[ebp], ecx
	mov	ecx, DWORD PTR _this$[ebp]
	call	??1exception@std@@UAE@XZ		; std::exception::~exception
	add	esp, 4
	cmp	ebp, esp
	call	__RTC_CheckEsp
	mov	esp, ebp
	pop	ebp
	ret	0
??1runtime_error@std@@UAE@XZ ENDP			; std::runtime_error::~runtime_error
_TEXT	ENDS
; Function compile flags: /Odtp /RTCsu
; File C:\Program Files\Microsoft Visual Studio\2022\Community\VC\Tools\MSVC\14.32.31326\include\stdexcept
;	COMDAT ??0runtime_error@std@@QAE@ABV?$basic_string@DU?$char_traits@D@std@@V?$allocator@D@2@@1@@Z
_TEXT	SEGMENT
_this$ = -4						; size = 4
__Message$ = 8						; size = 4
??0runtime_error@std@@QAE@ABV?$basic_string@DU?$char_traits@D@std@@V?$allocator@D@2@@1@@Z PROC ; std::runtime_error::runtime_error, COMDAT
; _this$ = ecx

; 105  :     explicit runtime_error(const string& _Message) : _Mybase(_Message.c_str()) {}

	push	ebp
	mov	ebp, esp
	push	ecx
	mov	DWORD PTR [ebp-4], -858993460		; ccccccccH
	mov	DWORD PTR _this$[ebp], ecx
	mov	ecx, DWORD PTR __Message$[ebp]
	call	?c_str@?$basic_string@DU?$char_traits@D@std@@V?$allocator@D@2@@std@@QBEPBDXZ ; std::basic_string<char,std::char_traits<char>,std::allocator<char> >::c_str
	push	eax
	mov	ecx, DWORD PTR _this$[ebp]
	call	??0exception@std@@QAE@QBD@Z		; std::exception::exception
	mov	eax, DWORD PTR _this$[ebp]
	mov	DWORD PTR [eax], OFFSET ??_7runtime_error@std@@6B@
	mov	eax, DWORD PTR _this$[ebp]
	add	esp, 4
	cmp	ebp, esp
	call	__RTC_CheckEsp
	mov	esp, ebp
	pop	ebp
	ret	4
??0runtime_error@std@@QAE@ABV?$basic_string@DU?$char_traits@D@std@@V?$allocator@D@2@@1@@Z ENDP ; std::runtime_error::runtime_error
_TEXT	ENDS
; Function compile flags: /Odtp /RTCsu
;	COMDAT ??1?$_Compressed_pair@V?$allocator@D@std@@V?$_String_val@U?$_Simple_types@D@std@@@2@$00@std@@QAE@XZ
_TEXT	SEGMENT
_this$ = -4						; size = 4
??1?$_Compressed_pair@V?$allocator@D@std@@V?$_String_val@U?$_Simple_types@D@std@@@2@$00@std@@QAE@XZ PROC ; std::_Compressed_pair<std::allocator<char>,std::_String_val<std::_Simple_types<char> >,1>::~_Compressed_pair<std::allocator<char>,std::_String_val<std::_Simple_types<char> >,1>, COMDAT
; _this$ = ecx
	push	ebp
	mov	ebp, esp
	push	ecx
	mov	DWORD PTR [ebp-4], -858993460		; ccccccccH
	mov	DWORD PTR _this$[ebp], ecx
	mov	ecx, DWORD PTR _this$[ebp]
	call	??1?$_String_val@U?$_Simple_types@D@std@@@std@@QAE@XZ
	add	esp, 4
	cmp	ebp, esp
	call	__RTC_CheckEsp
	mov	esp, ebp
	pop	ebp
	ret	0
??1?$_Compressed_pair@V?$allocator@D@std@@V?$_String_val@U?$_Simple_types@D@std@@@2@$00@std@@QAE@XZ ENDP ; std::_Compressed_pair<std::allocator<char>,std::_String_val<std::_Simple_types<char> >,1>::~_Compressed_pair<std::allocator<char>,std::_String_val<std::_Simple_types<char> >,1>
_TEXT	ENDS
; Function compile flags: /Odtp /RTCsu
; File C:\Program Files\Microsoft Visual Studio\2022\Community\VC\Tools\MSVC\14.32.31326\include\xmemory
;	COMDAT ?_Get_first@?$_Compressed_pair@V?$allocator@D@std@@V?$_String_val@U?$_Simple_types@D@std@@@2@$00@std@@QBEABV?$allocator@D@2@XZ
_TEXT	SEGMENT
_this$ = -4						; size = 4
?_Get_first@?$_Compressed_pair@V?$allocator@D@std@@V?$_String_val@U?$_Simple_types@D@std@@@2@$00@std@@QBEABV?$allocator@D@2@XZ PROC ; std::_Compressed_pair<std::allocator<char>,std::_String_val<std::_Simple_types<char> >,1>::_Get_first, COMDAT
; _this$ = ecx

; 1381 :     constexpr const _Ty1& _Get_first() const noexcept {

	push	ebp
	mov	ebp, esp
	push	ecx
	mov	DWORD PTR _this$[ebp], ecx

; 1382 :         return *this;

	mov	eax, DWORD PTR _this$[ebp]

; 1383 :     }

	mov	esp, ebp
	pop	ebp
	ret	0
?_Get_first@?$_Compressed_pair@V?$allocator@D@std@@V?$_String_val@U?$_Simple_types@D@std@@@2@$00@std@@QBEABV?$allocator@D@2@XZ ENDP ; std::_Compressed_pair<std::allocator<char>,std::_String_val<std::_Simple_types<char> >,1>::_Get_first
_TEXT	ENDS
; Function compile flags: /Odtp /RTCsu
; File C:\Program Files\Microsoft Visual Studio\2022\Community\VC\Tools\MSVC\14.32.31326\include\xmemory
;	COMDAT ?_Get_first@?$_Compressed_pair@V?$allocator@D@std@@V?$_String_val@U?$_Simple_types@D@std@@@2@$00@std@@QAEAAV?$allocator@D@2@XZ
_TEXT	SEGMENT
_this$ = -4						; size = 4
?_Get_first@?$_Compressed_pair@V?$allocator@D@std@@V?$_String_val@U?$_Simple_types@D@std@@@2@$00@std@@QAEAAV?$allocator@D@2@XZ PROC ; std::_Compressed_pair<std::allocator<char>,std::_String_val<std::_Simple_types<char> >,1>::_Get_first, COMDAT
; _this$ = ecx

; 1377 :     constexpr _Ty1& _Get_first() noexcept {

	push	ebp
	mov	ebp, esp
	push	ecx
	mov	DWORD PTR _this$[ebp], ecx

; 1378 :         return *this;

	mov	eax, DWORD PTR _this$[ebp]

; 1379 :     }

	mov	esp, ebp
	pop	ebp
	ret	0
?_Get_first@?$_Compressed_pair@V?$allocator@D@std@@V?$_String_val@U?$_Simple_types@D@std@@@2@$00@std@@QAEAAV?$allocator@D@2@XZ ENDP ; std::_Compressed_pair<std::allocator<char>,std::_String_val<std::_Simple_types<char> >,1>::_Get_first
_TEXT	ENDS
; Function compile flags: /Odtp /RTCsu
; File C:\Program Files\Microsoft Visual Studio\2022\Community\VC\Tools\MSVC\14.32.31326\include\xstring
;	COMDAT ?_Getal@?$basic_string@DU?$char_traits@D@std@@V?$allocator@D@2@@std@@ABEABV?$allocator@D@2@XZ
_TEXT	SEGMENT
_this$ = -4						; size = 4
?_Getal@?$basic_string@DU?$char_traits@D@std@@V?$allocator@D@2@@std@@ABEABV?$allocator@D@2@XZ PROC ; std::basic_string<char,std::char_traits<char>,std::allocator<char> >::_Getal, COMDAT
; _this$ = ecx

; 4668 :     _CONSTEXPR20 const _Alty& _Getal() const noexcept {

	push	ebp
	mov	ebp, esp
	push	ecx
	mov	DWORD PTR [ebp-4], -858993460		; ccccccccH
	mov	DWORD PTR _this$[ebp], ecx

; 4669 :         return _Mypair._Get_first();

	mov	ecx, DWORD PTR _this$[ebp]
	call	?_Get_first@?$_Compressed_pair@V?$allocator@D@std@@V?$_String_val@U?$_Simple_types@D@std@@@2@$00@std@@QBEABV?$allocator@D@2@XZ ; std::_Compressed_pair<std::allocator<char>,std::_String_val<std::_Simple_types<char> >,1>::_Get_first

; 4670 :     }

	add	esp, 4
	cmp	ebp, esp
	call	__RTC_CheckEsp
	mov	esp, ebp
	pop	ebp
	ret	0
?_Getal@?$basic_string@DU?$char_traits@D@std@@V?$allocator@D@2@@std@@ABEABV?$allocator@D@2@XZ ENDP ; std::basic_string<char,std::char_traits<char>,std::allocator<char> >::_Getal
_TEXT	ENDS
; Function compile flags: /Odtp /RTCsu
; File C:\Program Files\Microsoft Visual Studio\2022\Community\VC\Tools\MSVC\14.32.31326\include\xstring
;	COMDAT ?_Getal@?$basic_string@DU?$char_traits@D@std@@V?$allocator@D@2@@std@@AAEAAV?$allocator@D@2@XZ
_TEXT	SEGMENT
_this$ = -4						; size = 4
?_Getal@?$basic_string@DU?$char_traits@D@std@@V?$allocator@D@2@@std@@AAEAAV?$allocator@D@2@XZ PROC ; std::basic_string<char,std::char_traits<char>,std::allocator<char> >::_Getal, COMDAT
; _this$ = ecx

; 4664 :     _CONSTEXPR20 _Alty& _Getal() noexcept {

	push	ebp
	mov	ebp, esp
	push	ecx
	mov	DWORD PTR [ebp-4], -858993460		; ccccccccH
	mov	DWORD PTR _this$[ebp], ecx

; 4665 :         return _Mypair._Get_first();

	mov	ecx, DWORD PTR _this$[ebp]
	call	?_Get_first@?$_Compressed_pair@V?$allocator@D@std@@V?$_String_val@U?$_Simple_types@D@std@@@2@$00@std@@QAEAAV?$allocator@D@2@XZ ; std::_Compressed_pair<std::allocator<char>,std::_String_val<std::_Simple_types<char> >,1>::_Get_first

; 4666 :     }

	add	esp, 4
	cmp	ebp, esp
	call	__RTC_CheckEsp
	mov	esp, ebp
	pop	ebp
	ret	0
?_Getal@?$basic_string@DU?$char_traits@D@std@@V?$allocator@D@2@@std@@AAEAAV?$allocator@D@2@XZ ENDP ; std::basic_string<char,std::char_traits<char>,std::allocator<char> >::_Getal
_TEXT	ENDS
; Function compile flags: /Odtp /RTCsu
; File C:\Program Files\Microsoft Visual Studio\2022\Community\VC\Tools\MSVC\14.32.31326\include\xstring
;	COMDAT ?_Tidy_deallocate@?$basic_string@DU?$char_traits@D@std@@V?$allocator@D@2@@std@@AAEXXZ
_TEXT	SEGMENT
$T2 = -25						; size = 1
__Al$3 = -24						; size = 4
__Ptr$4 = -20						; size = 4
_this$ = -16						; size = 4
__$EHRec$ = -12						; size = 12
?_Tidy_deallocate@?$basic_string@DU?$char_traits@D@std@@V?$allocator@D@2@@std@@AAEXXZ PROC ; std::basic_string<char,std::char_traits<char>,std::allocator<char> >::_Tidy_deallocate, COMDAT
; _this$ = ecx

; 4630 :     _CONSTEXPR20 void _Tidy_deallocate() noexcept { // initialize buffer, deallocating any storage

	push	ebp
	mov	ebp, esp
	push	-1
	push	__ehhandler$?_Tidy_deallocate@?$basic_string@DU?$char_traits@D@std@@V?$allocator@D@2@@std@@AAEXXZ
	mov	eax, DWORD PTR fs:0
	push	eax
	sub	esp, 16					; 00000010H
	mov	eax, -858993460				; ccccccccH
	mov	DWORD PTR [ebp-28], eax
	mov	DWORD PTR [ebp-24], eax
	mov	DWORD PTR [ebp-20], eax
	mov	DWORD PTR [ebp-16], eax
	mov	eax, DWORD PTR ___security_cookie
	xor	eax, ebp
	push	eax
	lea	eax, DWORD PTR __$EHRec$[ebp]
	mov	DWORD PTR fs:0, eax
	mov	DWORD PTR _this$[ebp], ecx

; 4631 :         _Mypair._Myval2._Orphan_all();

	mov	ecx, DWORD PTR _this$[ebp]
	call	?_Orphan_all@_Container_base12@std@@QAEXXZ ; std::_Container_base12::_Orphan_all

; 4632 :         if (_Mypair._Myval2._Large_string_engaged()) {

	mov	ecx, DWORD PTR _this$[ebp]
	call	?_Large_string_engaged@?$_String_val@U?$_Simple_types@D@std@@@std@@QBE_NXZ ; std::_String_val<std::_Simple_types<char> >::_Large_string_engaged
	movzx	eax, al
	test	eax, eax
	je	SHORT $LN2@Tidy_deall

; 4633 :             const pointer _Ptr = _Mypair._Myval2._Bx._Ptr;

	mov	ecx, DWORD PTR _this$[ebp]
	mov	edx, DWORD PTR [ecx+4]
	mov	DWORD PTR __Ptr$4[ebp], edx

; 4634 :             auto& _Al          = _Getal();

	mov	ecx, DWORD PTR _this$[ebp]
	call	?_Getal@?$basic_string@DU?$char_traits@D@std@@V?$allocator@D@2@@std@@AAEAAV?$allocator@D@2@XZ ; std::basic_string<char,std::char_traits<char>,std::allocator<char> >::_Getal
	mov	DWORD PTR __Al$3[ebp], eax

; 4635 :             _Destroy_in_place(_Mypair._Myval2._Bx._Ptr);

	mov	eax, DWORD PTR _this$[ebp]
	add	eax, 4
	push	eax
	call	??$_Destroy_in_place@PAD@std@@YAXAAPAD@Z ; std::_Destroy_in_place<char *>
	add	esp, 4

; 4636 :             _Al.deallocate(_Ptr, _Mypair._Myval2._Myres + 1);

	mov	ecx, DWORD PTR _this$[ebp]
	mov	edx, DWORD PTR [ecx+24]
	add	edx, 1
	push	edx
	mov	eax, DWORD PTR __Ptr$4[ebp]
	push	eax
	mov	ecx, DWORD PTR __Al$3[ebp]
	call	?deallocate@?$allocator@D@std@@QAEXQADI@Z ; std::allocator<char>::deallocate
$LN2@Tidy_deall:

; 4637 :         }
; 4638 : 
; 4639 : #if _HAS_CXX20
; 4640 :         if (_STD is_constant_evaluated()) {
; 4641 :             _Mypair._Myval2._Bx._Ptr = nullptr;
; 4642 :             _Mypair._Myval2._Mysize  = 0;
; 4643 :             _Mypair._Myval2._Myres   = 0;
; 4644 :         } else
; 4645 : #endif // _HAS_CXX20
; 4646 :         {
; 4647 :             _Mypair._Myval2._Mysize = 0;

	mov	ecx, DWORD PTR _this$[ebp]
	mov	DWORD PTR [ecx+20], 0

; 4648 :             _Mypair._Myval2._Myres  = _BUF_SIZE - 1;

	mov	edx, DWORD PTR _this$[ebp]
	mov	DWORD PTR [edx+24], 15			; 0000000fH

; 4649 :             // the _Traits::assign is last so the codegen doesn't think the char write can alias this
; 4650 :             _Traits::assign(_Mypair._Myval2._Bx._Buf[0], _Elem());

	mov	BYTE PTR $T2[ebp], 0
	lea	eax, DWORD PTR $T2[ebp]
	push	eax
	mov	ecx, 1
	imul	edx, ecx, 0
	mov	eax, DWORD PTR _this$[ebp]
	lea	ecx, DWORD PTR [eax+edx+4]
	push	ecx
	call	?assign@?$_Narrow_char_traits@DH@std@@SAXAADABD@Z ; std::_Narrow_char_traits<char,int>::assign
	add	esp, 8

; 4651 :         }
; 4652 :     }

	mov	ecx, DWORD PTR __$EHRec$[ebp]
	mov	DWORD PTR fs:0, ecx
	pop	ecx
	add	esp, 28					; 0000001cH
	cmp	ebp, esp
	call	__RTC_CheckEsp
	mov	esp, ebp
	pop	ebp
	ret	0
	int	3
	int	3
	int	3
	int	3
	int	3
_TEXT	ENDS
;	COMDAT text$x
text$x	SEGMENT
__ehhandler$?_Tidy_deallocate@?$basic_string@DU?$char_traits@D@std@@V?$allocator@D@2@@std@@AAEXXZ:
	npad	1
	npad	1
	mov	edx, DWORD PTR [esp+8]
	lea	eax, DWORD PTR [edx+12]
	mov	ecx, DWORD PTR [edx-20]
	xor	ecx, eax
	call	@__security_check_cookie@4
	mov	eax, OFFSET __ehfuncinfo$?_Tidy_deallocate@?$basic_string@DU?$char_traits@D@std@@V?$allocator@D@2@@std@@AAEXXZ
	jmp	___CxxFrameHandler3
text$x	ENDS
?_Tidy_deallocate@?$basic_string@DU?$char_traits@D@std@@V?$allocator@D@2@@std@@AAEXXZ ENDP ; std::basic_string<char,std::char_traits<char>,std::allocator<char> >::_Tidy_deallocate
; Function compile flags: /Odtp /RTCsu
; File C:\Program Files\Microsoft Visual Studio\2022\Community\VC\Tools\MSVC\14.32.31326\include\xstring
;	COMDAT ?_Tidy_init@?$basic_string@DU?$char_traits@D@std@@V?$allocator@D@2@@std@@AAEXXZ
_TEXT	SEGMENT
$T1 = -9						; size = 1
__My_data$ = -8						; size = 4
_this$ = -4						; size = 4
?_Tidy_init@?$basic_string@DU?$char_traits@D@std@@V?$allocator@D@2@@std@@AAEXXZ PROC ; std::basic_string<char,std::char_traits<char>,std::allocator<char> >::_Tidy_init, COMDAT
; _this$ = ecx

; 4608 :     _CONSTEXPR20 void _Tidy_init() noexcept { // initialize basic_string data members

	push	ebp
	mov	ebp, esp
	sub	esp, 12					; 0000000cH
	mov	DWORD PTR [ebp-12], -858993460		; ccccccccH
	mov	DWORD PTR [ebp-8], -858993460		; ccccccccH
	mov	DWORD PTR [ebp-4], -858993460		; ccccccccH
	mov	DWORD PTR _this$[ebp], ecx

; 4609 :         auto& _My_data   = _Mypair._Myval2;

	mov	eax, DWORD PTR _this$[ebp]
	mov	DWORD PTR __My_data$[ebp], eax

; 4610 :         _My_data._Mysize = 0;

	mov	ecx, DWORD PTR __My_data$[ebp]
	mov	DWORD PTR [ecx+20], 0

; 4611 : 
; 4612 : #if _HAS_CXX20
; 4613 :         if (_STD is_constant_evaluated()) {
; 4614 :             _My_data._Myres        = _BUF_SIZE; // SSO disabled in constexpr context
; 4615 :             auto& _Al              = _Getal();
; 4616 :             const pointer _New_ptr = _Al.allocate(_BUF_SIZE + 1); // throws
; 4617 :             _My_data._Bx._Ptr      = _New_ptr;
; 4618 : 
; 4619 :             _Elem* const _Raw_new = _Unfancy(_New_ptr);
; 4620 :             _Traits::assign(_Raw_new, _BUF_SIZE + 1, _Elem());
; 4621 :         } else
; 4622 : #endif // _HAS_CXX20
; 4623 :         {
; 4624 :             _My_data._Myres = _BUF_SIZE - 1;

	mov	edx, DWORD PTR __My_data$[ebp]
	mov	DWORD PTR [edx+24], 15			; 0000000fH

; 4625 :             // the _Traits::assign is last so the codegen doesn't think the char write can alias this
; 4626 :             _Traits::assign(_My_data._Bx._Buf[0], _Elem());

	mov	BYTE PTR $T1[ebp], 0
	lea	eax, DWORD PTR $T1[ebp]
	push	eax
	mov	ecx, 1
	imul	edx, ecx, 0
	mov	eax, DWORD PTR __My_data$[ebp]
	lea	ecx, DWORD PTR [eax+edx+4]
	push	ecx
	call	?assign@?$_Narrow_char_traits@DH@std@@SAXAADABD@Z ; std::_Narrow_char_traits<char,int>::assign
	add	esp, 8

; 4627 :         }
; 4628 :     }

	add	esp, 12					; 0000000cH
	cmp	ebp, esp
	call	__RTC_CheckEsp
	mov	esp, ebp
	pop	ebp
	ret	0
?_Tidy_init@?$basic_string@DU?$char_traits@D@std@@V?$allocator@D@2@@std@@AAEXXZ ENDP ; std::basic_string<char,std::char_traits<char>,std::allocator<char> >::_Tidy_init
_TEXT	ENDS
; Function compile flags: /Odtp /RTCsu
; File C:\Program Files\Microsoft Visual Studio\2022\Community\VC\Tools\MSVC\14.32.31326\include\xstring
;	COMDAT ?_Calculate_growth@?$basic_string@DU?$char_traits@D@std@@V?$allocator@D@2@@std@@ABEII@Z
_TEXT	SEGMENT
_this$ = -4						; size = 4
__Requested$ = 8					; size = 4
?_Calculate_growth@?$basic_string@DU?$char_traits@D@std@@V?$allocator@D@2@@std@@ABEII@Z PROC ; std::basic_string<char,std::char_traits<char>,std::allocator<char> >::_Calculate_growth, COMDAT
; _this$ = ecx

; 4515 :     _NODISCARD _CONSTEXPR20 size_type _Calculate_growth(const size_type _Requested) const noexcept {

	push	ebp
	mov	ebp, esp
	push	ecx
	mov	DWORD PTR [ebp-4], -858993460		; ccccccccH
	mov	DWORD PTR _this$[ebp], ecx

; 4516 :         return _Calculate_growth(_Requested, _Mypair._Myval2._Myres, max_size());

	mov	ecx, DWORD PTR _this$[ebp]
	call	?max_size@?$basic_string@DU?$char_traits@D@std@@V?$allocator@D@2@@std@@QBEIXZ ; std::basic_string<char,std::char_traits<char>,std::allocator<char> >::max_size
	push	eax
	mov	eax, DWORD PTR _this$[ebp]
	mov	ecx, DWORD PTR [eax+24]
	push	ecx
	mov	edx, DWORD PTR __Requested$[ebp]
	push	edx
	call	?_Calculate_growth@?$basic_string@DU?$char_traits@D@std@@V?$allocator@D@2@@std@@CAIIII@Z ; std::basic_string<char,std::char_traits<char>,std::allocator<char> >::_Calculate_growth
	add	esp, 12					; 0000000cH

; 4517 :     }

	add	esp, 4
	cmp	ebp, esp
	call	__RTC_CheckEsp
	mov	esp, ebp
	pop	ebp
	ret	4
?_Calculate_growth@?$basic_string@DU?$char_traits@D@std@@V?$allocator@D@2@@std@@ABEII@Z ENDP ; std::basic_string<char,std::char_traits<char>,std::allocator<char> >::_Calculate_growth
_TEXT	ENDS
; Function compile flags: /Odtp /RTCsu
; File C:\Program Files\Microsoft Visual Studio\2022\Community\VC\Tools\MSVC\14.32.31326\include\xstring
;	COMDAT ?_Calculate_growth@?$basic_string@DU?$char_traits@D@std@@V?$allocator@D@2@@std@@CAIIII@Z
_TEXT	SEGMENT
$T1 = -16						; size = 4
__Masked$ = -8						; size = 4
__Requested$ = 8					; size = 4
__Old$ = 12						; size = 4
__Max$ = 16						; size = 4
?_Calculate_growth@?$basic_string@DU?$char_traits@D@std@@V?$allocator@D@2@@std@@CAIIII@Z PROC ; std::basic_string<char,std::char_traits<char>,std::allocator<char> >::_Calculate_growth, COMDAT

; 4502 :         const size_type _Requested, const size_type _Old, const size_type _Max) noexcept {

	push	ebp
	mov	ebp, esp
	sub	esp, 16					; 00000010H
	mov	eax, -858993460				; ccccccccH
	mov	DWORD PTR [ebp-16], eax
	mov	DWORD PTR [ebp-12], eax
	mov	DWORD PTR [ebp-8], eax
	mov	DWORD PTR [ebp-4], eax

; 4503 :         const size_type _Masked = _Requested | _ALLOC_MASK;

	mov	eax, DWORD PTR __Requested$[ebp]
	or	eax, 15					; 0000000fH
	mov	DWORD PTR __Masked$[ebp], eax

; 4504 :         if (_Masked > _Max) { // the mask overflows, settle for max_size()

	mov	ecx, DWORD PTR __Masked$[ebp]
	cmp	ecx, DWORD PTR __Max$[ebp]
	jbe	SHORT $LN2@Calculate_

; 4505 :             return _Max;

	mov	eax, DWORD PTR __Max$[ebp]
	jmp	SHORT $LN4@Calculate_
$LN2@Calculate_:

; 4506 :         }
; 4507 : 
; 4508 :         if (_Old > _Max - _Old / 2) { // similarly, geometric overflows

	mov	edx, DWORD PTR __Old$[ebp]
	shr	edx, 1
	mov	eax, DWORD PTR __Max$[ebp]
	sub	eax, edx
	cmp	DWORD PTR __Old$[ebp], eax
	jbe	SHORT $LN3@Calculate_

; 4509 :             return _Max;

	mov	eax, DWORD PTR __Max$[ebp]
	jmp	SHORT $LN4@Calculate_
$LN3@Calculate_:

; 4510 :         }
; 4511 : 
; 4512 :         return (_STD max)(_Masked, _Old + _Old / 2);

	mov	ecx, DWORD PTR __Old$[ebp]
	shr	ecx, 1
	add	ecx, DWORD PTR __Old$[ebp]
	mov	DWORD PTR $T1[ebp], ecx
	lea	edx, DWORD PTR $T1[ebp]
	push	edx
	lea	eax, DWORD PTR __Masked$[ebp]
	push	eax
	call	??$max@I@std@@YAABIABI0@Z		; std::max<unsigned int>
	add	esp, 8
	mov	eax, DWORD PTR [eax]
$LN4@Calculate_:

; 4513 :     }

	push	edx
	mov	ecx, ebp
	push	eax
	lea	edx, DWORD PTR $LN7@Calculate_
	call	@_RTC_CheckStackVars@8
	pop	eax
	pop	edx
	add	esp, 16					; 00000010H
	cmp	ebp, esp
	call	__RTC_CheckEsp
	mov	esp, ebp
	pop	ebp
	ret	0
	npad	3
$LN7@Calculate_:
	DD	1
	DD	$LN6@Calculate_
$LN6@Calculate_:
	DD	-8					; fffffff8H
	DD	4
	DD	$LN5@Calculate_
$LN5@Calculate_:
	DB	95					; 0000005fH
	DB	77					; 0000004dH
	DB	97					; 00000061H
	DB	115					; 00000073H
	DB	107					; 0000006bH
	DB	101					; 00000065H
	DB	100					; 00000064H
	DB	0
?_Calculate_growth@?$basic_string@DU?$char_traits@D@std@@V?$allocator@D@2@@std@@CAIIII@Z ENDP ; std::basic_string<char,std::char_traits<char>,std::allocator<char> >::_Calculate_growth
_TEXT	ENDS
; Function compile flags: /Odtp /RTCsu
; File C:\Program Files\Microsoft Visual Studio\2022\Community\VC\Tools\MSVC\14.32.31326\include\xstring
;	COMDAT ?max_size@?$basic_string@DU?$char_traits@D@std@@V?$allocator@D@2@@std@@QBEIXZ
_TEXT	SEGMENT
$T1 = -32						; size = 4
$T2 = -28						; size = 4
$T3 = -24						; size = 4
__Storage_max$ = -20					; size = 4
__Alloc_max$ = -12					; size = 4
_this$ = -4						; size = 4
?max_size@?$basic_string@DU?$char_traits@D@std@@V?$allocator@D@2@@std@@QBEIXZ PROC ; std::basic_string<char,std::char_traits<char>,std::allocator<char> >::max_size, COMDAT
; _this$ = ecx

; 3933 :     _NODISCARD _CONSTEXPR20 size_type max_size() const noexcept {

	push	ebp
	mov	ebp, esp
	sub	esp, 32					; 00000020H
	mov	eax, -858993460				; ccccccccH
	mov	DWORD PTR [ebp-32], eax
	mov	DWORD PTR [ebp-28], eax
	mov	DWORD PTR [ebp-24], eax
	mov	DWORD PTR [ebp-20], eax
	mov	DWORD PTR [ebp-16], eax
	mov	DWORD PTR [ebp-12], eax
	mov	DWORD PTR [ebp-8], eax
	mov	DWORD PTR [ebp-4], eax
	mov	DWORD PTR _this$[ebp], ecx

; 3934 :         const size_type _Alloc_max   = _Alty_traits::max_size(_Getal());

	mov	ecx, DWORD PTR _this$[ebp]
	call	?_Getal@?$basic_string@DU?$char_traits@D@std@@V?$allocator@D@2@@std@@ABEABV?$allocator@D@2@XZ ; std::basic_string<char,std::char_traits<char>,std::allocator<char> >::_Getal
	push	eax
	call	?max_size@?$_Default_allocator_traits@V?$allocator@D@std@@@std@@SAIABV?$allocator@D@2@@Z ; std::_Default_allocator_traits<std::allocator<char> >::max_size
	add	esp, 4
	mov	DWORD PTR __Alloc_max$[ebp], eax

; 3935 :         const size_type _Storage_max = // can always store small string

	mov	DWORD PTR $T3[ebp], 16			; 00000010H
	lea	eax, DWORD PTR $T3[ebp]
	push	eax
	lea	ecx, DWORD PTR __Alloc_max$[ebp]
	push	ecx
	call	??$max@I@std@@YAABIABI0@Z		; std::max<unsigned int>
	add	esp, 8
	mov	edx, DWORD PTR [eax]
	mov	DWORD PTR __Storage_max$[ebp], edx

; 3936 :             (_STD max)(_Alloc_max, static_cast<size_type>(_BUF_SIZE));
; 3937 :         return (_STD min)(static_cast<size_type>((numeric_limits<difference_type>::max)()),

	mov	eax, DWORD PTR __Storage_max$[ebp]
	sub	eax, 1
	mov	DWORD PTR $T2[ebp], eax
	call	?max@?$numeric_limits@H@std@@SAHXZ	; std::numeric_limits<int>::max
	mov	DWORD PTR $T1[ebp], eax
	lea	ecx, DWORD PTR $T2[ebp]
	push	ecx
	lea	edx, DWORD PTR $T1[ebp]
	push	edx
	call	??$min@I@std@@YAABIABI0@Z		; std::min<unsigned int>
	add	esp, 8
	mov	eax, DWORD PTR [eax]

; 3938 :             _Storage_max - 1 // -1 is for null terminator and/or npos
; 3939 :         );
; 3940 :     }

	push	edx
	mov	ecx, ebp
	push	eax
	lea	edx, DWORD PTR $LN5@max_size
	call	@_RTC_CheckStackVars@8
	pop	eax
	pop	edx
	add	esp, 32					; 00000020H
	cmp	ebp, esp
	call	__RTC_CheckEsp
	mov	esp, ebp
	pop	ebp
	ret	0
$LN5@max_size:
	DD	1
	DD	$LN4@max_size
$LN4@max_size:
	DD	-12					; fffffff4H
	DD	4
	DD	$LN3@max_size
$LN3@max_size:
	DB	95					; 0000005fH
	DB	65					; 00000041H
	DB	108					; 0000006cH
	DB	108					; 0000006cH
	DB	111					; 0000006fH
	DB	99					; 00000063H
	DB	95					; 0000005fH
	DB	109					; 0000006dH
	DB	97					; 00000061H
	DB	120					; 00000078H
	DB	0
?max_size@?$basic_string@DU?$char_traits@D@std@@V?$allocator@D@2@@std@@QBEIXZ ENDP ; std::basic_string<char,std::char_traits<char>,std::allocator<char> >::max_size
_TEXT	ENDS
; Function compile flags: /Odtp /RTCsu
; File C:\Program Files\Microsoft Visual Studio\2022\Community\VC\Tools\MSVC\14.32.31326\include\xstring
;	COMDAT ?size@?$basic_string@DU?$char_traits@D@std@@V?$allocator@D@2@@std@@QBEIXZ
_TEXT	SEGMENT
_this$ = -4						; size = 4
?size@?$basic_string@DU?$char_traits@D@std@@V?$allocator@D@2@@std@@QBEIXZ PROC ; std::basic_string<char,std::char_traits<char>,std::allocator<char> >::size, COMDAT
; _this$ = ecx

; 3929 :     _NODISCARD _CONSTEXPR20 size_type size() const noexcept {

	push	ebp
	mov	ebp, esp
	push	ecx
	mov	DWORD PTR _this$[ebp], ecx

; 3930 :         return _Mypair._Myval2._Mysize;

	mov	eax, DWORD PTR _this$[ebp]
	mov	eax, DWORD PTR [eax+20]

; 3931 :     }

	mov	esp, ebp
	pop	ebp
	ret	0
?size@?$basic_string@DU?$char_traits@D@std@@V?$allocator@D@2@@std@@QBEIXZ ENDP ; std::basic_string<char,std::char_traits<char>,std::allocator<char> >::size
_TEXT	ENDS
; Function compile flags: /Odtp /RTCsu
; File C:\Program Files\Microsoft Visual Studio\2022\Community\VC\Tools\MSVC\14.32.31326\include\xstring
;	COMDAT ?c_str@?$basic_string@DU?$char_traits@D@std@@V?$allocator@D@2@@std@@QBEPBDXZ
_TEXT	SEGMENT
_this$ = -4						; size = 4
?c_str@?$basic_string@DU?$char_traits@D@std@@V?$allocator@D@2@@std@@QBEPBDXZ PROC ; std::basic_string<char,std::char_traits<char>,std::allocator<char> >::c_str, COMDAT
; _this$ = ecx

; 3911 :     _NODISCARD _CONSTEXPR20 _Ret_z_ const _Elem* c_str() const noexcept {

	push	ebp
	mov	ebp, esp
	push	ecx
	mov	DWORD PTR [ebp-4], -858993460		; ccccccccH
	mov	DWORD PTR _this$[ebp], ecx

; 3912 :         return _Mypair._Myval2._Myptr();

	mov	ecx, DWORD PTR _this$[ebp]
	call	?_Myptr@?$_String_val@U?$_Simple_types@D@std@@@std@@QBEPBDXZ ; std::_String_val<std::_Simple_types<char> >::_Myptr

; 3913 :     }

	add	esp, 4
	cmp	ebp, esp
	call	__RTC_CheckEsp
	mov	esp, ebp
	pop	ebp
	ret	0
?c_str@?$basic_string@DU?$char_traits@D@std@@V?$allocator@D@2@@std@@QBEPBDXZ ENDP ; std::basic_string<char,std::char_traits<char>,std::allocator<char> >::c_str
_TEXT	ENDS
; Function compile flags: /Odtp /RTCsu
; File C:\Program Files\Microsoft Visual Studio\2022\Community\VC\Tools\MSVC\14.32.31326\include\xstring
;	COMDAT ?assign@?$basic_string@DU?$char_traits@D@std@@V?$allocator@D@2@@std@@QAEAAV12@QBD@Z
_TEXT	SEGMENT
_this$ = -4						; size = 4
__Ptr$ = 8						; size = 4
?assign@?$basic_string@DU?$char_traits@D@std@@V?$allocator@D@2@@std@@QAEAAV12@QBD@Z PROC ; std::basic_string<char,std::char_traits<char>,std::allocator<char> >::assign, COMDAT
; _this$ = ecx

; 3257 :     _CONSTEXPR20 basic_string& assign(_In_z_ const _Elem* const _Ptr) {

	push	ebp
	mov	ebp, esp
	push	ecx
	mov	DWORD PTR [ebp-4], -858993460		; ccccccccH
	mov	DWORD PTR _this$[ebp], ecx

; 3258 :         return assign(_Ptr, _Convert_size<size_type>(_Traits::length(_Ptr)));

	mov	eax, DWORD PTR __Ptr$[ebp]
	push	eax
	call	?length@?$_Narrow_char_traits@DH@std@@SAIQBD@Z ; std::_Narrow_char_traits<char,int>::length
	add	esp, 4
	push	eax
	call	??$_Convert_size@I@std@@YAII@Z		; std::_Convert_size<unsigned int>
	add	esp, 4
	push	eax
	mov	ecx, DWORD PTR __Ptr$[ebp]
	push	ecx
	mov	ecx, DWORD PTR _this$[ebp]
	call	?assign@?$basic_string@DU?$char_traits@D@std@@V?$allocator@D@2@@std@@QAEAAV12@QBDI@Z ; std::basic_string<char,std::char_traits<char>,std::allocator<char> >::assign

; 3259 :     }

	add	esp, 4
	cmp	ebp, esp
	call	__RTC_CheckEsp
	mov	esp, ebp
	pop	ebp
	ret	4
?assign@?$basic_string@DU?$char_traits@D@std@@V?$allocator@D@2@@std@@QAEAAV12@QBD@Z ENDP ; std::basic_string<char,std::char_traits<char>,std::allocator<char> >::assign
_TEXT	ENDS
; Function compile flags: /Odtp /RTCsu
; File C:\Program Files\Microsoft Visual Studio\2022\Community\VC\Tools\MSVC\14.32.31326\include\xstring
;	COMDAT ?assign@?$basic_string@DU?$char_traits@D@std@@V?$allocator@D@2@@std@@QAEAAV12@QBDI@Z
_TEXT	SEGMENT
$T1 = -10						; size = 1
$T2 = -9						; size = 1
__Old_ptr$3 = -8					; size = 4
_this$ = -4						; size = 4
__Ptr$ = 8						; size = 4
__Count$ = 12						; size = 4
?assign@?$basic_string@DU?$char_traits@D@std@@V?$allocator@D@2@@std@@QAEAAV12@QBDI@Z PROC ; std::basic_string<char,std::char_traits<char>,std::allocator<char> >::assign, COMDAT
; _this$ = ecx

; 3238 :         _In_reads_(_Count) const _Elem* const _Ptr, _CRT_GUARDOVERFLOW const size_type _Count) {

	push	ebp
	mov	ebp, esp
	sub	esp, 12					; 0000000cH
	mov	DWORD PTR [ebp-12], -858993460		; ccccccccH
	mov	DWORD PTR [ebp-8], -858993460		; ccccccccH
	mov	DWORD PTR [ebp-4], -858993460		; ccccccccH
	mov	DWORD PTR _this$[ebp], ecx

; 3239 :         // assign [_Ptr, _Ptr + _Count)
; 3240 :         if (_Count <= _Mypair._Myval2._Myres) {

	mov	eax, DWORD PTR _this$[ebp]
	mov	ecx, DWORD PTR __Count$[ebp]
	cmp	ecx, DWORD PTR [eax+24]
	ja	SHORT $LN2@assign

; 3241 :             _Elem* const _Old_ptr   = _Mypair._Myval2._Myptr();

	mov	ecx, DWORD PTR _this$[ebp]
	call	?_Myptr@?$_String_val@U?$_Simple_types@D@std@@@std@@QAEPADXZ ; std::_String_val<std::_Simple_types<char> >::_Myptr
	mov	DWORD PTR __Old_ptr$3[ebp], eax

; 3242 :             _Mypair._Myval2._Mysize = _Count;

	mov	edx, DWORD PTR _this$[ebp]
	mov	eax, DWORD PTR __Count$[ebp]
	mov	DWORD PTR [edx+20], eax

; 3243 :             _Traits::move(_Old_ptr, _Ptr, _Count);

	mov	ecx, DWORD PTR __Count$[ebp]
	push	ecx
	mov	edx, DWORD PTR __Ptr$[ebp]
	push	edx
	mov	eax, DWORD PTR __Old_ptr$3[ebp]
	push	eax
	call	?move@?$_Char_traits@DH@std@@SAPADQADQBDI@Z ; std::_Char_traits<char,int>::move
	add	esp, 12					; 0000000cH

; 3244 :             _Traits::assign(_Old_ptr[_Count], _Elem());

	mov	BYTE PTR $T2[ebp], 0
	lea	ecx, DWORD PTR $T2[ebp]
	push	ecx
	mov	edx, DWORD PTR __Old_ptr$3[ebp]
	add	edx, DWORD PTR __Count$[ebp]
	push	edx
	call	?assign@?$_Narrow_char_traits@DH@std@@SAXAADABD@Z ; std::_Narrow_char_traits<char,int>::assign
	add	esp, 8

; 3245 :             return *this;

	mov	eax, DWORD PTR _this$[ebp]
	jmp	SHORT $LN1@assign
$LN2@assign:

; 3246 :         }
; 3247 : 
; 3248 :         return _Reallocate_for(

	xor	eax, eax
	mov	BYTE PTR $T1[ebp], al
	mov	ecx, DWORD PTR __Ptr$[ebp]
	push	ecx
	movzx	edx, BYTE PTR $T1[ebp]
	push	edx
	mov	eax, DWORD PTR __Count$[ebp]
	push	eax
	mov	ecx, DWORD PTR _this$[ebp]
	call	??$_Reallocate_for@V<lambda_9366063389c5f42a00a5088cf24e69de>@@PBD@?$basic_string@DU?$char_traits@D@std@@V?$allocator@D@2@@std@@AAEAAV01@IV<lambda_9366063389c5f42a00a5088cf24e69de>@@PBD@Z ; std::basic_string<char,std::char_traits<char>,std::allocator<char> >::_Reallocate_for<<lambda_9366063389c5f42a00a5088cf24e69de>,char const *>
$LN1@assign:

; 3249 :             _Count,
; 3250 :             [](_Elem* const _New_ptr, const size_type _Count, const _Elem* const _Ptr) {
; 3251 :                 _Traits::copy(_New_ptr, _Ptr, _Count);
; 3252 :                 _Traits::assign(_New_ptr[_Count], _Elem());
; 3253 :             },
; 3254 :             _Ptr);
; 3255 :     }

	add	esp, 12					; 0000000cH
	cmp	ebp, esp
	call	__RTC_CheckEsp
	mov	esp, ebp
	pop	ebp
	ret	8
?assign@?$basic_string@DU?$char_traits@D@std@@V?$allocator@D@2@@std@@QAEAAV12@QBDI@Z ENDP ; std::basic_string<char,std::char_traits<char>,std::allocator<char> >::assign
_TEXT	ENDS
; Function compile flags: /Odtp /RTCsu
; File C:\Program Files\Microsoft Visual Studio\2022\Community\VC\Tools\MSVC\14.32.31326\include\xstring
;	COMDAT ??1?$basic_string@DU?$char_traits@D@std@@V?$allocator@D@2@@std@@QAE@XZ
_TEXT	SEGMENT
__To_delete$ = -24					; size = 4
_$S10$ = -13						; size = 1
__Alproxy$ = -8						; size = 4
_this$ = -4						; size = 4
??1?$basic_string@DU?$char_traits@D@std@@V?$allocator@D@2@@std@@QAE@XZ PROC ; std::basic_string<char,std::char_traits<char>,std::allocator<char> >::~basic_string<char,std::char_traits<char>,std::allocator<char> >, COMDAT
; _this$ = ecx

; 2999 :     _CONSTEXPR20 ~basic_string() noexcept {

	push	ebp
	mov	ebp, esp
	sub	esp, 24					; 00000018H
	mov	eax, -858993460				; ccccccccH
	mov	DWORD PTR [ebp-24], eax
	mov	DWORD PTR [ebp-20], eax
	mov	DWORD PTR [ebp-16], eax
	mov	DWORD PTR [ebp-12], eax
	mov	DWORD PTR [ebp-8], eax
	mov	DWORD PTR [ebp-4], eax
	mov	DWORD PTR _this$[ebp], ecx

; 3000 :         _Tidy_deallocate();

	mov	ecx, DWORD PTR _this$[ebp]
	call	?_Tidy_deallocate@?$basic_string@DU?$char_traits@D@std@@V?$allocator@D@2@@std@@AAEXXZ ; std::basic_string<char,std::char_traits<char>,std::allocator<char> >::_Tidy_deallocate

; 3001 : #if _ITERATOR_DEBUG_LEVEL != 0
; 3002 :         auto&& _Alproxy          = _GET_PROXY_ALLOCATOR(_Alty, _Getal());

	mov	ecx, DWORD PTR _this$[ebp]
	call	?_Getal@?$basic_string@DU?$char_traits@D@std@@V?$allocator@D@2@@std@@AAEAAV?$allocator@D@2@XZ ; std::basic_string<char,std::char_traits<char>,std::allocator<char> >::_Getal
	push	eax
	lea	ecx, DWORD PTR _$S10$[ebp]
	call	??$?0D@?$allocator@U_Container_proxy@std@@@std@@QAE@ABV?$allocator@D@1@@Z ; std::allocator<std::_Container_proxy>::allocator<std::_Container_proxy><char>
	lea	eax, DWORD PTR _$S10$[ebp]
	mov	DWORD PTR __Alproxy$[ebp], eax

; 3003 :         const auto _To_delete    = _Mypair._Myval2._Myproxy;

	mov	ecx, DWORD PTR _this$[ebp]
	mov	edx, DWORD PTR [ecx]
	mov	DWORD PTR __To_delete$[ebp], edx

; 3004 :         _Mypair._Myval2._Myproxy = nullptr;

	mov	eax, DWORD PTR _this$[ebp]
	mov	DWORD PTR [eax], 0

; 3005 :         _Delete_plain_internal(_Alproxy, _To_delete);

	mov	ecx, DWORD PTR __To_delete$[ebp]
	push	ecx
	mov	edx, DWORD PTR __Alproxy$[ebp]
	push	edx
	call	??$_Delete_plain_internal@V?$allocator@U_Container_proxy@std@@@std@@@std@@YAXAAV?$allocator@U_Container_proxy@std@@@0@QAU_Container_proxy@0@@Z ; std::_Delete_plain_internal<std::allocator<std::_Container_proxy> >
	add	esp, 8

; 3006 : #endif // _ITERATOR_DEBUG_LEVEL != 0
; 3007 :     }

	mov	ecx, DWORD PTR _this$[ebp]
	call	??1?$_Compressed_pair@V?$allocator@D@std@@V?$_String_val@U?$_Simple_types@D@std@@@2@$00@std@@QAE@XZ
	push	edx
	mov	ecx, ebp
	push	eax
	lea	edx, DWORD PTR $LN5@basic_stri
	call	@_RTC_CheckStackVars@8
	pop	eax
	pop	edx
	add	esp, 24					; 00000018H
	cmp	ebp, esp
	call	__RTC_CheckEsp
	mov	esp, ebp
	pop	ebp
	ret	0
	npad	1
$LN5@basic_stri:
	DD	1
	DD	$LN4@basic_stri
$LN4@basic_stri:
	DD	-13					; fffffff3H
	DD	1
	DD	$LN3@basic_stri
$LN3@basic_stri:
	DB	36					; 00000024H
	DB	83					; 00000053H
	DB	49					; 00000031H
	DB	48					; 00000030H
	DB	0
??1?$basic_string@DU?$char_traits@D@std@@V?$allocator@D@2@@std@@QAE@XZ ENDP ; std::basic_string<char,std::char_traits<char>,std::allocator<char> >::~basic_string<char,std::char_traits<char>,std::allocator<char> >
_TEXT	ENDS
; Function compile flags: /Odtp /RTCsu
; File C:\Program Files\Microsoft Visual Studio\2022\Community\VC\Tools\MSVC\14.32.31326\include\xstring
;	COMDAT ??0?$basic_string@DU?$char_traits@D@std@@V?$allocator@D@2@@std@@QAE@U_String_constructor_concat_tag@1@ABV01@QBDI2I@Z
_TEXT	SEGMENT
tv95 = -96						; size = 1
$T2 = -95						; size = 1
$T3 = -94						; size = 1
$T4 = -93						; size = 1
__Fancyptr$5 = -88					; size = 4
__Requested_size$6 = -80				; size = 4
__Activate_large_mode$ = -73				; size = 1
__Proxy$ = -68						; size = 8
_$S17$ = -49						; size = 1
__Alproxy$ = -44					; size = 4
__Ptr$ = -40						; size = 4
__My_data$ = -36					; size = 4
__New_capacity$ = -32					; size = 4
__New_size$ = -24					; size = 4
_this$ = -16						; size = 4
__$EHRec$ = -12						; size = 12
___formal$ = 8						; size = 1
__Source_of_al$ = 12					; size = 4
__Left_ptr$ = 16					; size = 4
__Left_size$ = 20					; size = 4
__Right_ptr$ = 24					; size = 4
__Right_size$ = 28					; size = 4
??0?$basic_string@DU?$char_traits@D@std@@V?$allocator@D@2@@std@@QAE@U_String_constructor_concat_tag@1@ABV01@QBDI2I@Z PROC ; std::basic_string<char,std::char_traits<char>,std::allocator<char> >::basic_string<char,std::char_traits<char>,std::allocator<char> >, COMDAT
; _this$ = ecx

; 2639 :             _One_then_variadic_args_t{}, _Alty_traits::select_on_container_copy_construction(_Source_of_al._Getal())) {

	push	ebp
	mov	ebp, esp
	push	-1
	push	__ehhandler$??0?$basic_string@DU?$char_traits@D@std@@V?$allocator@D@2@@std@@QAE@U_String_constructor_concat_tag@1@ABV01@QBDI2I@Z
	mov	eax, DWORD PTR fs:0
	push	eax
	sub	esp, 84					; 00000054H
	push	edi
	push	ecx
	lea	edi, DWORD PTR [ebp-96]
	mov	ecx, 21					; 00000015H
	mov	eax, -858993460				; ccccccccH
	rep stosd
	pop	ecx
	mov	eax, DWORD PTR ___security_cookie
	xor	eax, ebp
	push	eax
	lea	eax, DWORD PTR __$EHRec$[ebp]
	mov	DWORD PTR fs:0, eax
	mov	DWORD PTR _this$[ebp], ecx

; 2638 :         : _Mypair(

	mov	ecx, DWORD PTR __Source_of_al$[ebp]
	call	?_Getal@?$basic_string@DU?$char_traits@D@std@@V?$allocator@D@2@@std@@ABEABV?$allocator@D@2@XZ ; std::basic_string<char,std::char_traits<char>,std::allocator<char> >::_Getal
	push	eax
	lea	eax, DWORD PTR $T4[ebp]
	push	eax
	call	?select_on_container_copy_construction@?$_Default_allocator_traits@V?$allocator@D@std@@@std@@SA?AV?$allocator@D@2@ABV32@@Z ; std::_Default_allocator_traits<std::allocator<char> >::select_on_container_copy_construction
	add	esp, 8
	push	eax
	movzx	ecx, BYTE PTR $T3[ebp]
	push	ecx
	mov	ecx, DWORD PTR _this$[ebp]
	call	??$?0V?$allocator@D@std@@$$V@?$_Compressed_pair@V?$allocator@D@std@@V?$_String_val@U?$_Simple_types@D@std@@@2@$00@std@@QAE@U_One_then_variadic_args_t@1@$$QAV?$allocator@D@1@@Z ; std::_Compressed_pair<std::allocator<char>,std::_String_val<std::_Simple_types<char> >,1>::_Compressed_pair<std::allocator<char>,std::_String_val<std::_Simple_types<char> >,1><std::allocator<char> >
	mov	DWORD PTR __$EHRec$[ebp+8], 0

; 2640 :         _STL_INTERNAL_CHECK(_Left_size <= max_size());
; 2641 :         _STL_INTERNAL_CHECK(_Right_size <= max_size());
; 2642 :         _STL_INTERNAL_CHECK(_Right_size <= max_size() - _Left_size);
; 2643 :         const auto _New_size    = static_cast<size_type>(_Left_size + _Right_size);

	mov	edx, DWORD PTR __Left_size$[ebp]
	add	edx, DWORD PTR __Right_size$[ebp]
	mov	DWORD PTR __New_size$[ebp], edx

; 2644 :         size_type _New_capacity = _BUF_SIZE - 1;

	mov	DWORD PTR __New_capacity$[ebp], 15	; 0000000fH

; 2645 :         auto& _My_data          = _Mypair._Myval2;

	mov	eax, DWORD PTR _this$[ebp]
	mov	DWORD PTR __My_data$[ebp], eax

; 2646 :         _Elem* _Ptr             = _My_data._Bx._Buf;

	mov	ecx, DWORD PTR __My_data$[ebp]
	add	ecx, 4
	mov	DWORD PTR __Ptr$[ebp], ecx

; 2647 :         auto&& _Alproxy         = _GET_PROXY_ALLOCATOR(_Alty, _Getal());

	mov	ecx, DWORD PTR _this$[ebp]
	call	?_Getal@?$basic_string@DU?$char_traits@D@std@@V?$allocator@D@2@@std@@AAEAAV?$allocator@D@2@XZ ; std::basic_string<char,std::char_traits<char>,std::allocator<char> >::_Getal
	push	eax
	lea	ecx, DWORD PTR _$S17$[ebp]
	call	??$?0D@?$allocator@U_Container_proxy@std@@@std@@QAE@ABV?$allocator@D@1@@Z ; std::allocator<std::_Container_proxy>::allocator<std::_Container_proxy><char>
	lea	edx, DWORD PTR _$S17$[ebp]
	mov	DWORD PTR __Alproxy$[ebp], edx

; 2648 :         _Container_proxy_ptr<_Alty> _Proxy(_Alproxy, _My_data); // throws

	mov	eax, DWORD PTR __My_data$[ebp]
	push	eax
	mov	ecx, DWORD PTR __Alproxy$[ebp]
	push	ecx
	lea	ecx, DWORD PTR __Proxy$[ebp]
	call	??0?$_Container_proxy_ptr12@V?$allocator@U_Container_proxy@std@@@std@@@std@@QAE@AAV?$allocator@U_Container_proxy@std@@@1@AAU_Container_base12@1@@Z ; std::_Container_proxy_ptr12<std::allocator<std::_Container_proxy> >::_Container_proxy_ptr12<std::allocator<std::_Container_proxy> >
	mov	BYTE PTR __$EHRec$[ebp+8], 1

; 2649 : 
; 2650 : #if _HAS_CXX20
; 2651 :         const bool _Activate_large_mode = _New_capacity < _New_size || _STD is_constant_evaluated();
; 2652 : #else // ^^^ _HAS_CXX20 / !_HAS_CXX20 vvv
; 2653 :         const bool _Activate_large_mode = _New_capacity < _New_size;

	mov	edx, DWORD PTR __New_capacity$[ebp]
	cmp	edx, DWORD PTR __New_size$[ebp]
	jae	SHORT $LN4@basic_stri
	mov	BYTE PTR tv95[ebp], 1
	jmp	SHORT $LN5@basic_stri
$LN4@basic_stri:
	mov	BYTE PTR tv95[ebp], 0
$LN5@basic_stri:
	mov	al, BYTE PTR tv95[ebp]
	mov	BYTE PTR __Activate_large_mode$[ebp], al

; 2654 : #endif // _HAS_CXX20
; 2655 : 
; 2656 :         if (_Activate_large_mode) {

	movzx	ecx, BYTE PTR __Activate_large_mode$[ebp]
	test	ecx, ecx
	je	SHORT $LN2@basic_stri

; 2657 :             // we should never allocate less than _BUF_SIZE space (_New_size could be small if constant evaluated)
; 2658 :             const size_type _Requested_size = (_STD max)(_New_size, _BUF_SIZE);

	push	OFFSET ?_BUF_SIZE@?$basic_string@DU?$char_traits@D@std@@V?$allocator@D@2@@std@@0IB
	lea	edx, DWORD PTR __New_size$[ebp]
	push	edx
	call	??$max@I@std@@YAABIABI0@Z		; std::max<unsigned int>
	add	esp, 8
	mov	eax, DWORD PTR [eax]
	mov	DWORD PTR __Requested_size$6[ebp], eax

; 2659 :             _New_capacity                   = _Calculate_growth(_Requested_size, _BUF_SIZE - 1, max_size());

	mov	ecx, DWORD PTR _this$[ebp]
	call	?max_size@?$basic_string@DU?$char_traits@D@std@@V?$allocator@D@2@@std@@QBEIXZ ; std::basic_string<char,std::char_traits<char>,std::allocator<char> >::max_size
	push	eax
	push	15					; 0000000fH
	mov	ecx, DWORD PTR __Requested_size$6[ebp]
	push	ecx
	call	?_Calculate_growth@?$basic_string@DU?$char_traits@D@std@@V?$allocator@D@2@@std@@CAIIII@Z ; std::basic_string<char,std::char_traits<char>,std::allocator<char> >::_Calculate_growth
	add	esp, 12					; 0000000cH
	mov	DWORD PTR __New_capacity$[ebp], eax

; 2660 :             const pointer _Fancyptr         = _Getal().allocate(_New_capacity + 1); // throws

	mov	edx, DWORD PTR __New_capacity$[ebp]
	add	edx, 1
	push	edx
	mov	ecx, DWORD PTR _this$[ebp]
	call	?_Getal@?$basic_string@DU?$char_traits@D@std@@V?$allocator@D@2@@std@@AAEAAV?$allocator@D@2@XZ ; std::basic_string<char,std::char_traits<char>,std::allocator<char> >::_Getal
	mov	ecx, eax
	call	?allocate@?$allocator@D@std@@QAEPADI@Z	; std::allocator<char>::allocate
	mov	DWORD PTR __Fancyptr$5[ebp], eax

; 2661 :             _Ptr                            = _Unfancy(_Fancyptr);

	mov	eax, DWORD PTR __Fancyptr$5[ebp]
	push	eax
	call	??$_Unfancy@D@std@@YAPADPAD@Z		; std::_Unfancy<char>
	add	esp, 4
	mov	DWORD PTR __Ptr$[ebp], eax

; 2662 :             _Construct_in_place(_My_data._Bx._Ptr, _Fancyptr);

	lea	ecx, DWORD PTR __Fancyptr$5[ebp]
	push	ecx
	mov	edx, DWORD PTR __My_data$[ebp]
	add	edx, 4
	push	edx
	call	??$_Construct_in_place@PADABQAD@std@@YAXAAPADABQAD@Z ; std::_Construct_in_place<char *,char * const &>
	add	esp, 8
$LN2@basic_stri:

; 2663 :         }
; 2664 : 
; 2665 : #if _HAS_CXX20
; 2666 :         if (_STD is_constant_evaluated()) { // Begin the lifetimes of the objects before copying to avoid UB
; 2667 :             _Traits::assign(_Ptr, _New_capacity + 1, _Elem());
; 2668 :         }
; 2669 : #endif // _HAS_CXX20
; 2670 : 
; 2671 :         _My_data._Mysize = _New_size;

	mov	eax, DWORD PTR __My_data$[ebp]
	mov	ecx, DWORD PTR __New_size$[ebp]
	mov	DWORD PTR [eax+20], ecx

; 2672 :         _My_data._Myres  = _New_capacity;

	mov	edx, DWORD PTR __My_data$[ebp]
	mov	eax, DWORD PTR __New_capacity$[ebp]
	mov	DWORD PTR [edx+24], eax

; 2673 :         _Traits::copy(_Ptr, _Left_ptr, _Left_size);

	mov	ecx, DWORD PTR __Left_size$[ebp]
	push	ecx
	mov	edx, DWORD PTR __Left_ptr$[ebp]
	push	edx
	mov	eax, DWORD PTR __Ptr$[ebp]
	push	eax
	call	?copy@?$_Char_traits@DH@std@@SAPADQADQBDI@Z ; std::_Char_traits<char,int>::copy
	add	esp, 12					; 0000000cH

; 2674 :         _Traits::copy(_Ptr + static_cast<ptrdiff_t>(_Left_size), _Right_ptr, _Right_size);

	mov	ecx, DWORD PTR __Right_size$[ebp]
	push	ecx
	mov	edx, DWORD PTR __Right_ptr$[ebp]
	push	edx
	mov	eax, DWORD PTR __Ptr$[ebp]
	add	eax, DWORD PTR __Left_size$[ebp]
	push	eax
	call	?copy@?$_Char_traits@DH@std@@SAPADQADQBDI@Z ; std::_Char_traits<char,int>::copy
	add	esp, 12					; 0000000cH

; 2675 :         _Traits::assign(_Ptr[_New_size], _Elem());

	mov	BYTE PTR $T2[ebp], 0
	lea	ecx, DWORD PTR $T2[ebp]
	push	ecx
	mov	edx, DWORD PTR __Ptr$[ebp]
	add	edx, DWORD PTR __New_size$[ebp]
	push	edx
	call	?assign@?$_Narrow_char_traits@DH@std@@SAXAADABD@Z ; std::_Narrow_char_traits<char,int>::assign
	add	esp, 8

; 2676 :         _Proxy._Release();

	lea	ecx, DWORD PTR __Proxy$[ebp]
	call	?_Release@_Basic_container_proxy_ptr12@std@@QAEXXZ ; std::_Basic_container_proxy_ptr12::_Release

; 2677 :     }

	mov	BYTE PTR __$EHRec$[ebp+8], 0
	lea	ecx, DWORD PTR __Proxy$[ebp]
	call	??1?$_Container_proxy_ptr12@V?$allocator@U_Container_proxy@std@@@std@@@std@@QAE@XZ ; std::_Container_proxy_ptr12<std::allocator<std::_Container_proxy> >::~_Container_proxy_ptr12<std::allocator<std::_Container_proxy> >
	mov	DWORD PTR __$EHRec$[ebp+8], -1
	mov	eax, DWORD PTR _this$[ebp]
	push	edx
	mov	ecx, ebp
	push	eax
	lea	edx, DWORD PTR $LN14@basic_stri
	call	@_RTC_CheckStackVars@8
	pop	eax
	pop	edx
	mov	ecx, DWORD PTR __$EHRec$[ebp]
	mov	DWORD PTR fs:0, ecx
	pop	ecx
	pop	edi
	add	esp, 96					; 00000060H
	cmp	ebp, esp
	call	__RTC_CheckEsp
	mov	esp, ebp
	pop	ebp
	ret	24					; 00000018H
$LN14@basic_stri:
	DD	4
	DD	$LN13@basic_stri
$LN13@basic_stri:
	DD	-24					; ffffffe8H
	DD	4
	DD	$LN8@basic_stri
	DD	-49					; ffffffcfH
	DD	1
	DD	$LN9@basic_stri
	DD	-68					; ffffffbcH
	DD	8
	DD	$LN10@basic_stri
	DD	-88					; ffffffa8H
	DD	4
	DD	$LN11@basic_stri
$LN11@basic_stri:
	DB	95					; 0000005fH
	DB	70					; 00000046H
	DB	97					; 00000061H
	DB	110					; 0000006eH
	DB	99					; 00000063H
	DB	121					; 00000079H
	DB	112					; 00000070H
	DB	116					; 00000074H
	DB	114					; 00000072H
	DB	0
$LN10@basic_stri:
	DB	95					; 0000005fH
	DB	80					; 00000050H
	DB	114					; 00000072H
	DB	111					; 0000006fH
	DB	120					; 00000078H
	DB	121					; 00000079H
	DB	0
$LN9@basic_stri:
	DB	36					; 00000024H
	DB	83					; 00000053H
	DB	49					; 00000031H
	DB	55					; 00000037H
	DB	0
$LN8@basic_stri:
	DB	95					; 0000005fH
	DB	78					; 0000004eH
	DB	101					; 00000065H
	DB	119					; 00000077H
	DB	95					; 0000005fH
	DB	115					; 00000073H
	DB	105					; 00000069H
	DB	122					; 0000007aH
	DB	101					; 00000065H
	DB	0
_TEXT	ENDS
;	COMDAT text$x
text$x	SEGMENT
__unwindfunclet$??0?$basic_string@DU?$char_traits@D@std@@V?$allocator@D@2@@std@@QAE@U_String_constructor_concat_tag@1@ABV01@QBDI2I@Z$0:
	mov	ecx, DWORD PTR _this$[ebp]
	jmp	??1?$_Compressed_pair@V?$allocator@D@std@@V?$_String_val@U?$_Simple_types@D@std@@@2@$00@std@@QAE@XZ
__unwindfunclet$??0?$basic_string@DU?$char_traits@D@std@@V?$allocator@D@2@@std@@QAE@U_String_constructor_concat_tag@1@ABV01@QBDI2I@Z$1:
	lea	ecx, DWORD PTR __Proxy$[ebp]
	jmp	??1?$_Container_proxy_ptr12@V?$allocator@U_Container_proxy@std@@@std@@@std@@QAE@XZ ; std::_Container_proxy_ptr12<std::allocator<std::_Container_proxy> >::~_Container_proxy_ptr12<std::allocator<std::_Container_proxy> >
	int	3
	int	3
	int	3
	int	3
	int	3
__ehhandler$??0?$basic_string@DU?$char_traits@D@std@@V?$allocator@D@2@@std@@QAE@U_String_constructor_concat_tag@1@ABV01@QBDI2I@Z:
	npad	1
	npad	1
	mov	edx, DWORD PTR [esp+8]
	lea	eax, DWORD PTR [edx+12]
	mov	ecx, DWORD PTR [edx-92]
	xor	ecx, eax
	call	@__security_check_cookie@4
	mov	eax, OFFSET __ehfuncinfo$??0?$basic_string@DU?$char_traits@D@std@@V?$allocator@D@2@@std@@QAE@U_String_constructor_concat_tag@1@ABV01@QBDI2I@Z
	jmp	___CxxFrameHandler3
text$x	ENDS
??0?$basic_string@DU?$char_traits@D@std@@V?$allocator@D@2@@std@@QAE@U_String_constructor_concat_tag@1@ABV01@QBDI2I@Z ENDP ; std::basic_string<char,std::char_traits<char>,std::allocator<char> >::basic_string<char,std::char_traits<char>,std::allocator<char> >
; Function compile flags: /Odtp /RTCsu
; File C:\Program Files\Microsoft Visual Studio\2022\Community\VC\Tools\MSVC\14.32.31326\include\xstring
;	COMDAT ??0?$basic_string@DU?$char_traits@D@std@@V?$allocator@D@2@@std@@QAE@QBD@Z
_TEXT	SEGMENT
$T2 = -49						; size = 1
__Proxy$ = -44						; size = 8
_$S12$ = -25						; size = 1
__Alproxy$ = -20					; size = 4
_this$ = -16						; size = 4
__$EHRec$ = -12						; size = 12
__Ptr$ = 8						; size = 4
??0?$basic_string@DU?$char_traits@D@std@@V?$allocator@D@2@@std@@QAE@QBD@Z PROC ; std::basic_string<char,std::char_traits<char>,std::allocator<char> >::basic_string<char,std::char_traits<char>,std::allocator<char> >, COMDAT
; _this$ = ecx

; 2532 :     _CONSTEXPR20 basic_string(_In_z_ const _Elem* const _Ptr) : _Mypair(_Zero_then_variadic_args_t{}) {

	push	ebp
	mov	ebp, esp
	push	-1
	push	__ehhandler$??0?$basic_string@DU?$char_traits@D@std@@V?$allocator@D@2@@std@@QAE@QBD@Z
	mov	eax, DWORD PTR fs:0
	push	eax
	sub	esp, 40					; 00000028H
	push	edi
	push	ecx
	lea	edi, DWORD PTR [ebp-52]
	mov	ecx, 10					; 0000000aH
	mov	eax, -858993460				; ccccccccH
	rep stosd
	pop	ecx
	mov	eax, DWORD PTR ___security_cookie
	xor	eax, ebp
	push	eax
	lea	eax, DWORD PTR __$EHRec$[ebp]
	mov	DWORD PTR fs:0, eax
	mov	DWORD PTR _this$[ebp], ecx
	movzx	eax, BYTE PTR $T2[ebp]
	push	eax
	mov	ecx, DWORD PTR _this$[ebp]
	call	??$?0$$V@?$_Compressed_pair@V?$allocator@D@std@@V?$_String_val@U?$_Simple_types@D@std@@@2@$00@std@@QAE@U_Zero_then_variadic_args_t@1@@Z ; std::_Compressed_pair<std::allocator<char>,std::_String_val<std::_Simple_types<char> >,1>::_Compressed_pair<std::allocator<char>,std::_String_val<std::_Simple_types<char> >,1><>
	mov	DWORD PTR __$EHRec$[ebp+8], 0

; 2533 :         auto&& _Alproxy = _GET_PROXY_ALLOCATOR(_Alty, _Getal());

	mov	ecx, DWORD PTR _this$[ebp]
	call	?_Getal@?$basic_string@DU?$char_traits@D@std@@V?$allocator@D@2@@std@@AAEAAV?$allocator@D@2@XZ ; std::basic_string<char,std::char_traits<char>,std::allocator<char> >::_Getal
	push	eax
	lea	ecx, DWORD PTR _$S12$[ebp]
	call	??$?0D@?$allocator@U_Container_proxy@std@@@std@@QAE@ABV?$allocator@D@1@@Z ; std::allocator<std::_Container_proxy>::allocator<std::_Container_proxy><char>
	lea	ecx, DWORD PTR _$S12$[ebp]
	mov	DWORD PTR __Alproxy$[ebp], ecx

; 2534 :         _Container_proxy_ptr<_Alty> _Proxy(_Alproxy, _Mypair._Myval2);

	mov	edx, DWORD PTR _this$[ebp]
	push	edx
	mov	eax, DWORD PTR __Alproxy$[ebp]
	push	eax
	lea	ecx, DWORD PTR __Proxy$[ebp]
	call	??0?$_Container_proxy_ptr12@V?$allocator@U_Container_proxy@std@@@std@@@std@@QAE@AAV?$allocator@U_Container_proxy@std@@@1@AAU_Container_base12@1@@Z ; std::_Container_proxy_ptr12<std::allocator<std::_Container_proxy> >::_Container_proxy_ptr12<std::allocator<std::_Container_proxy> >
	mov	BYTE PTR __$EHRec$[ebp+8], 1

; 2535 :         _Tidy_init();

	mov	ecx, DWORD PTR _this$[ebp]
	call	?_Tidy_init@?$basic_string@DU?$char_traits@D@std@@V?$allocator@D@2@@std@@AAEXXZ ; std::basic_string<char,std::char_traits<char>,std::allocator<char> >::_Tidy_init

; 2536 :         assign(_Ptr);

	mov	ecx, DWORD PTR __Ptr$[ebp]
	push	ecx
	mov	ecx, DWORD PTR _this$[ebp]
	call	?assign@?$basic_string@DU?$char_traits@D@std@@V?$allocator@D@2@@std@@QAEAAV12@QBD@Z ; std::basic_string<char,std::char_traits<char>,std::allocator<char> >::assign

; 2537 :         _Proxy._Release();

	lea	ecx, DWORD PTR __Proxy$[ebp]
	call	?_Release@_Basic_container_proxy_ptr12@std@@QAEXXZ ; std::_Basic_container_proxy_ptr12::_Release

; 2538 :     }

	mov	BYTE PTR __$EHRec$[ebp+8], 0
	lea	ecx, DWORD PTR __Proxy$[ebp]
	call	??1?$_Container_proxy_ptr12@V?$allocator@U_Container_proxy@std@@@std@@@std@@QAE@XZ ; std::_Container_proxy_ptr12<std::allocator<std::_Container_proxy> >::~_Container_proxy_ptr12<std::allocator<std::_Container_proxy> >
	mov	DWORD PTR __$EHRec$[ebp+8], -1
	mov	eax, DWORD PTR _this$[ebp]
	push	edx
	mov	ecx, ebp
	push	eax
	lea	edx, DWORD PTR $LN9@basic_stri
	call	@_RTC_CheckStackVars@8
	pop	eax
	pop	edx
	mov	ecx, DWORD PTR __$EHRec$[ebp]
	mov	DWORD PTR fs:0, ecx
	pop	ecx
	pop	edi
	add	esp, 52					; 00000034H
	cmp	ebp, esp
	call	__RTC_CheckEsp
	mov	esp, ebp
	pop	ebp
	ret	4
$LN9@basic_stri:
	DD	2
	DD	$LN8@basic_stri
$LN8@basic_stri:
	DD	-25					; ffffffe7H
	DD	1
	DD	$LN5@basic_stri
	DD	-44					; ffffffd4H
	DD	8
	DD	$LN6@basic_stri
$LN6@basic_stri:
	DB	95					; 0000005fH
	DB	80					; 00000050H
	DB	114					; 00000072H
	DB	111					; 0000006fH
	DB	120					; 00000078H
	DB	121					; 00000079H
	DB	0
$LN5@basic_stri:
	DB	36					; 00000024H
	DB	83					; 00000053H
	DB	49					; 00000031H
	DB	50					; 00000032H
	DB	0
_TEXT	ENDS
;	COMDAT text$x
text$x	SEGMENT
__unwindfunclet$??0?$basic_string@DU?$char_traits@D@std@@V?$allocator@D@2@@std@@QAE@QBD@Z$0:
	mov	ecx, DWORD PTR _this$[ebp]
	jmp	??1?$_Compressed_pair@V?$allocator@D@std@@V?$_String_val@U?$_Simple_types@D@std@@@2@$00@std@@QAE@XZ
__unwindfunclet$??0?$basic_string@DU?$char_traits@D@std@@V?$allocator@D@2@@std@@QAE@QBD@Z$1:
	lea	ecx, DWORD PTR __Proxy$[ebp]
	jmp	??1?$_Container_proxy_ptr12@V?$allocator@U_Container_proxy@std@@@std@@@std@@QAE@XZ ; std::_Container_proxy_ptr12<std::allocator<std::_Container_proxy> >::~_Container_proxy_ptr12<std::allocator<std::_Container_proxy> >
	int	3
	int	3
	int	3
	int	3
	int	3
__ehhandler$??0?$basic_string@DU?$char_traits@D@std@@V?$allocator@D@2@@std@@QAE@QBD@Z:
	npad	1
	npad	1
	mov	edx, DWORD PTR [esp+8]
	lea	eax, DWORD PTR [edx+12]
	mov	ecx, DWORD PTR [edx-48]
	xor	ecx, eax
	call	@__security_check_cookie@4
	mov	eax, OFFSET __ehfuncinfo$??0?$basic_string@DU?$char_traits@D@std@@V?$allocator@D@2@@std@@QAE@QBD@Z
	jmp	___CxxFrameHandler3
text$x	ENDS
??0?$basic_string@DU?$char_traits@D@std@@V?$allocator@D@2@@std@@QAE@QBD@Z ENDP ; std::basic_string<char,std::char_traits<char>,std::allocator<char> >::basic_string<char,std::char_traits<char>,std::allocator<char> >
; Function compile flags: /Odtp /RTCsu
;	COMDAT ??1?$_String_val@U?$_Simple_types@D@std@@@std@@QAE@XZ
_TEXT	SEGMENT
_this$ = -4						; size = 4
??1?$_String_val@U?$_Simple_types@D@std@@@std@@QAE@XZ PROC ; std::_String_val<std::_Simple_types<char> >::~_String_val<std::_Simple_types<char> >, COMDAT
; _this$ = ecx
	push	ebp
	mov	ebp, esp
	push	ecx
	mov	DWORD PTR [ebp-4], -858993460		; ccccccccH
	mov	DWORD PTR _this$[ebp], ecx
	mov	ecx, DWORD PTR _this$[ebp]
	add	ecx, 4
	call	??1_Bxty@?$_String_val@U?$_Simple_types@D@std@@@std@@QAE@XZ ; std::_String_val<std::_Simple_types<char> >::_Bxty::~_Bxty
	add	esp, 4
	cmp	ebp, esp
	call	__RTC_CheckEsp
	mov	esp, ebp
	pop	ebp
	ret	0
??1?$_String_val@U?$_Simple_types@D@std@@@std@@QAE@XZ ENDP ; std::_String_val<std::_Simple_types<char> >::~_String_val<std::_Simple_types<char> >
_TEXT	ENDS
; Function compile flags: /Odtp /RTCsu
; File C:\Program Files\Microsoft Visual Studio\2022\Community\VC\Tools\MSVC\14.32.31326\include\xstring
;	COMDAT ??1_Bxty@?$_String_val@U?$_Simple_types@D@std@@@std@@QAE@XZ
_TEXT	SEGMENT
_this$ = -4						; size = 4
??1_Bxty@?$_String_val@U?$_Simple_types@D@std@@@std@@QAE@XZ PROC ; std::_String_val<std::_Simple_types<char> >::_Bxty::~_Bxty, COMDAT
; _this$ = ecx

; 2366 :         _CONSTEXPR20 ~_Bxty() noexcept {} // user-provided, for fancy pointers

	push	ebp
	mov	ebp, esp
	push	ecx
	mov	DWORD PTR _this$[ebp], ecx
	mov	esp, ebp
	pop	ebp
	ret	0
??1_Bxty@?$_String_val@U?$_Simple_types@D@std@@@std@@QAE@XZ ENDP ; std::_String_val<std::_Simple_types<char> >::_Bxty::~_Bxty
_TEXT	ENDS
; Function compile flags: /Odtp /RTCsu
; File C:\Program Files\Microsoft Visual Studio\2022\Community\VC\Tools\MSVC\14.32.31326\include\xstring
;	COMDAT ??0_Bxty@?$_String_val@U?$_Simple_types@D@std@@@std@@QAE@XZ
_TEXT	SEGMENT
_this$ = -4						; size = 4
??0_Bxty@?$_String_val@U?$_Simple_types@D@std@@@std@@QAE@XZ PROC ; std::_String_val<std::_Simple_types<char> >::_Bxty::_Bxty, COMDAT
; _this$ = ecx

; 2364 :         _CONSTEXPR20 _Bxty() noexcept : _Ptr() {} // user-provided, for fancy pointers

	push	ebp
	mov	ebp, esp
	push	ecx
	mov	DWORD PTR _this$[ebp], ecx
	mov	eax, DWORD PTR _this$[ebp]
	mov	DWORD PTR [eax], 0
	mov	eax, DWORD PTR _this$[ebp]
	mov	esp, ebp
	pop	ebp
	ret	0
??0_Bxty@?$_String_val@U?$_Simple_types@D@std@@@std@@QAE@XZ ENDP ; std::_String_val<std::_Simple_types<char> >::_Bxty::_Bxty
_TEXT	ENDS
; Function compile flags: /Odtp /RTCsu
; File C:\Program Files\Microsoft Visual Studio\2022\Community\VC\Tools\MSVC\14.32.31326\include\xstring
;	COMDAT ?_Large_string_engaged@?$_String_val@U?$_Simple_types@D@std@@@std@@QBE_NXZ
_TEXT	SEGMENT
tv66 = -8						; size = 4
_this$ = -4						; size = 4
?_Large_string_engaged@?$_String_val@U?$_Simple_types@D@std@@@std@@QBE_NXZ PROC ; std::_String_val<std::_Simple_types<char> >::_Large_string_engaged, COMDAT
; _this$ = ecx

; 2331 :     _CONSTEXPR20 bool _Large_string_engaged() const noexcept {

	push	ebp
	mov	ebp, esp
	sub	esp, 8
	mov	DWORD PTR _this$[ebp], ecx

; 2332 : #if _HAS_CXX20
; 2333 :         if (_STD is_constant_evaluated()) {
; 2334 :             return true;
; 2335 :         }
; 2336 : #endif // _HAS_CXX20
; 2337 :         return _BUF_SIZE <= _Myres;

	mov	eax, DWORD PTR _this$[ebp]
	cmp	DWORD PTR [eax+24], 16			; 00000010H
	jb	SHORT $LN3@Large_stri
	mov	DWORD PTR tv66[ebp], 1
	jmp	SHORT $LN4@Large_stri
$LN3@Large_stri:
	mov	DWORD PTR tv66[ebp], 0
$LN4@Large_stri:
	mov	al, BYTE PTR tv66[ebp]

; 2338 :     }

	mov	esp, ebp
	pop	ebp
	ret	0
?_Large_string_engaged@?$_String_val@U?$_Simple_types@D@std@@@std@@QBE_NXZ ENDP ; std::_String_val<std::_Simple_types<char> >::_Large_string_engaged
_TEXT	ENDS
; Function compile flags: /Odtp /RTCsu
; File C:\Program Files\Microsoft Visual Studio\2022\Community\VC\Tools\MSVC\14.32.31326\include\xstring
;	COMDAT ?_Myptr@?$_String_val@U?$_Simple_types@D@std@@@std@@QBEPBDXZ
_TEXT	SEGMENT
__Result$ = -8						; size = 4
_this$ = -4						; size = 4
?_Myptr@?$_String_val@U?$_Simple_types@D@std@@@std@@QBEPBDXZ PROC ; std::_String_val<std::_Simple_types<char> >::_Myptr, COMDAT
; _this$ = ecx

; 2322 :     _CONSTEXPR20 const value_type* _Myptr() const noexcept {

	push	ebp
	mov	ebp, esp
	sub	esp, 8
	mov	DWORD PTR [ebp-8], -858993460		; ccccccccH
	mov	DWORD PTR [ebp-4], -858993460		; ccccccccH
	mov	DWORD PTR _this$[ebp], ecx

; 2323 :         const value_type* _Result = _Bx._Buf;

	mov	eax, DWORD PTR _this$[ebp]
	add	eax, 4
	mov	DWORD PTR __Result$[ebp], eax

; 2324 :         if (_Large_string_engaged()) {

	mov	ecx, DWORD PTR _this$[ebp]
	call	?_Large_string_engaged@?$_String_val@U?$_Simple_types@D@std@@@std@@QBE_NXZ ; std::_String_val<std::_Simple_types<char> >::_Large_string_engaged
	movzx	ecx, al
	test	ecx, ecx
	je	SHORT $LN2@Myptr

; 2325 :             _Result = _Unfancy(_Bx._Ptr);

	mov	edx, DWORD PTR _this$[ebp]
	mov	eax, DWORD PTR [edx+4]
	push	eax
	call	??$_Unfancy@D@std@@YAPADPAD@Z		; std::_Unfancy<char>
	add	esp, 4
	mov	DWORD PTR __Result$[ebp], eax
$LN2@Myptr:

; 2326 :         }
; 2327 : 
; 2328 :         return _Result;

	mov	eax, DWORD PTR __Result$[ebp]

; 2329 :     }

	add	esp, 8
	cmp	ebp, esp
	call	__RTC_CheckEsp
	mov	esp, ebp
	pop	ebp
	ret	0
?_Myptr@?$_String_val@U?$_Simple_types@D@std@@@std@@QBEPBDXZ ENDP ; std::_String_val<std::_Simple_types<char> >::_Myptr
_TEXT	ENDS
; Function compile flags: /Odtp /RTCsu
; File C:\Program Files\Microsoft Visual Studio\2022\Community\VC\Tools\MSVC\14.32.31326\include\xstring
;	COMDAT ?_Myptr@?$_String_val@U?$_Simple_types@D@std@@@std@@QAEPADXZ
_TEXT	SEGMENT
__Result$ = -8						; size = 4
_this$ = -4						; size = 4
?_Myptr@?$_String_val@U?$_Simple_types@D@std@@@std@@QAEPADXZ PROC ; std::_String_val<std::_Simple_types<char> >::_Myptr, COMDAT
; _this$ = ecx

; 2313 :     _CONSTEXPR20 value_type* _Myptr() noexcept {

	push	ebp
	mov	ebp, esp
	sub	esp, 8
	mov	DWORD PTR [ebp-8], -858993460		; ccccccccH
	mov	DWORD PTR [ebp-4], -858993460		; ccccccccH
	mov	DWORD PTR _this$[ebp], ecx

; 2314 :         value_type* _Result = _Bx._Buf;

	mov	eax, DWORD PTR _this$[ebp]
	add	eax, 4
	mov	DWORD PTR __Result$[ebp], eax

; 2315 :         if (_Large_string_engaged()) {

	mov	ecx, DWORD PTR _this$[ebp]
	call	?_Large_string_engaged@?$_String_val@U?$_Simple_types@D@std@@@std@@QBE_NXZ ; std::_String_val<std::_Simple_types<char> >::_Large_string_engaged
	movzx	ecx, al
	test	ecx, ecx
	je	SHORT $LN2@Myptr

; 2316 :             _Result = _Unfancy(_Bx._Ptr);

	mov	edx, DWORD PTR _this$[ebp]
	mov	eax, DWORD PTR [edx+4]
	push	eax
	call	??$_Unfancy@D@std@@YAPADPAD@Z		; std::_Unfancy<char>
	add	esp, 4
	mov	DWORD PTR __Result$[ebp], eax
$LN2@Myptr:

; 2317 :         }
; 2318 : 
; 2319 :         return _Result;

	mov	eax, DWORD PTR __Result$[ebp]

; 2320 :     }

	add	esp, 8
	cmp	ebp, esp
	call	__RTC_CheckEsp
	mov	esp, ebp
	pop	ebp
	ret	0
?_Myptr@?$_String_val@U?$_Simple_types@D@std@@@std@@QAEPADXZ ENDP ; std::_String_val<std::_Simple_types<char> >::_Myptr
_TEXT	ENDS
; Function compile flags: /Odtp /RTCsu
; File C:\Program Files\Microsoft Visual Studio\2022\Community\VC\Tools\MSVC\14.32.31326\include\xstring
;	COMDAT ??0?$_String_val@U?$_Simple_types@D@std@@@std@@QAE@XZ
_TEXT	SEGMENT
_this$ = -4						; size = 4
??0?$_String_val@U?$_Simple_types@D@std@@@std@@QAE@XZ PROC ; std::_String_val<std::_Simple_types<char> >::_String_val<std::_Simple_types<char> >, COMDAT
; _this$ = ecx

; 2302 :     _CONSTEXPR20 _String_val() noexcept : _Bx() {}

	push	ebp
	mov	ebp, esp
	push	ecx
	mov	DWORD PTR [ebp-4], -858993460		; ccccccccH
	mov	DWORD PTR _this$[ebp], ecx
	mov	ecx, DWORD PTR _this$[ebp]
	call	??0_Container_base12@std@@QAE@XZ	; std::_Container_base12::_Container_base12
	mov	ecx, DWORD PTR _this$[ebp]
	add	ecx, 4
	call	??0_Bxty@?$_String_val@U?$_Simple_types@D@std@@@std@@QAE@XZ ; std::_String_val<std::_Simple_types<char> >::_Bxty::_Bxty

; 2303 : 
; 2304 :     // length of internal buffer, [1, 16]:
; 2305 :     static constexpr size_type _BUF_SIZE = 16 / sizeof(value_type) < 1 ? 1 : 16 / sizeof(value_type);
; 2306 :     // roundup mask for allocated buffers, [0, 15]:
; 2307 :     static constexpr size_type _ALLOC_MASK = sizeof(value_type) <= 1 ? 15
; 2308 :                                            : sizeof(value_type) <= 2 ? 7
; 2309 :                                            : sizeof(value_type) <= 4 ? 3
; 2310 :                                            : sizeof(value_type) <= 8 ? 1
; 2311 :                                                                      : 0;
; 2312 : 
; 2313 :     _CONSTEXPR20 value_type* _Myptr() noexcept {
; 2314 :         value_type* _Result = _Bx._Buf;
; 2315 :         if (_Large_string_engaged()) {
; 2316 :             _Result = _Unfancy(_Bx._Ptr);
; 2317 :         }
; 2318 : 
; 2319 :         return _Result;
; 2320 :     }
; 2321 : 
; 2322 :     _CONSTEXPR20 const value_type* _Myptr() const noexcept {
; 2323 :         const value_type* _Result = _Bx._Buf;
; 2324 :         if (_Large_string_engaged()) {
; 2325 :             _Result = _Unfancy(_Bx._Ptr);
; 2326 :         }
; 2327 : 
; 2328 :         return _Result;
; 2329 :     }
; 2330 : 
; 2331 :     _CONSTEXPR20 bool _Large_string_engaged() const noexcept {
; 2332 : #if _HAS_CXX20
; 2333 :         if (_STD is_constant_evaluated()) {
; 2334 :             return true;
; 2335 :         }
; 2336 : #endif // _HAS_CXX20
; 2337 :         return _BUF_SIZE <= _Myres;
; 2338 :     }
; 2339 : 
; 2340 :     _CONSTEXPR20 void _Check_offset(const size_type _Off) const {
; 2341 :         // checks whether _Off is in the bounds of [0, size()]
; 2342 :         if (_Mysize < _Off) {
; 2343 :             _Xran();
; 2344 :         }
; 2345 :     }
; 2346 : 
; 2347 :     _CONSTEXPR20 void _Check_offset_exclusive(const size_type _Off) const {
; 2348 :         // checks whether _Off is in the bounds of [0, size())
; 2349 :         if (_Mysize <= _Off) {
; 2350 :             _Xran();
; 2351 :         }
; 2352 :     }
; 2353 : 
; 2354 :     [[noreturn]] static void _Xran() {
; 2355 :         _Xout_of_range("invalid string position");
; 2356 :     }
; 2357 : 
; 2358 :     _CONSTEXPR20 size_type _Clamp_suffix_size(const size_type _Off, const size_type _Size) const noexcept {
; 2359 :         // trims _Size to the longest it can be assuming a string at/after _Off
; 2360 :         return (_STD min)(_Size, _Mysize - _Off);
; 2361 :     }
; 2362 : 
; 2363 :     union _Bxty { // storage for small buffer or pointer to larger one
; 2364 :         _CONSTEXPR20 _Bxty() noexcept : _Ptr() {} // user-provided, for fancy pointers
; 2365 : 
; 2366 :         _CONSTEXPR20 ~_Bxty() noexcept {} // user-provided, for fancy pointers
; 2367 : 
; 2368 :         value_type _Buf[_BUF_SIZE];
; 2369 :         pointer _Ptr;
; 2370 :         char _Alias[_BUF_SIZE]; // TRANSITION, ABI: _Alias is preserved for binary compatibility (especially /clr)
; 2371 :     } _Bx;
; 2372 : 
; 2373 :     size_type _Mysize = 0; // current length of string

	mov	eax, DWORD PTR _this$[ebp]
	mov	DWORD PTR [eax+20], 0

; 2374 :     size_type _Myres  = 0; // current storage reserved for string

	mov	ecx, DWORD PTR _this$[ebp]
	mov	DWORD PTR [ecx+24], 0

; 2302 :     _CONSTEXPR20 _String_val() noexcept : _Bx() {}

	mov	eax, DWORD PTR _this$[ebp]
	add	esp, 4
	cmp	ebp, esp
	call	__RTC_CheckEsp
	mov	esp, ebp
	pop	ebp
	ret	0
??0?$_String_val@U?$_Simple_types@D@std@@@std@@QAE@XZ ENDP ; std::_String_val<std::_Simple_types<char> >::_String_val<std::_Simple_types<char> >
_TEXT	ENDS
; Function compile flags: /Odtp /RTCsu
; File C:\Program Files\Microsoft Visual Studio\2022\Community\VC\Tools\MSVC\14.32.31326\include\xmemory
;	COMDAT ?select_on_container_copy_construction@?$_Default_allocator_traits@V?$allocator@D@std@@@std@@SA?AV?$allocator@D@2@ABV32@@Z
_TEXT	SEGMENT
___$ReturnUdt$ = 8					; size = 4
__Al$ = 12						; size = 4
?select_on_container_copy_construction@?$_Default_allocator_traits@V?$allocator@D@std@@@std@@SA?AV?$allocator@D@2@ABV32@@Z PROC ; std::_Default_allocator_traits<std::allocator<char> >::select_on_container_copy_construction, COMDAT

; 697  :     _NODISCARD static _CONSTEXPR20 _Alloc select_on_container_copy_construction(const _Alloc& _Al) {

	push	ebp
	mov	ebp, esp

; 698  :         return _Al;

	mov	eax, DWORD PTR ___$ReturnUdt$[ebp]

; 699  :     }

	pop	ebp
	ret	0
?select_on_container_copy_construction@?$_Default_allocator_traits@V?$allocator@D@std@@@std@@SA?AV?$allocator@D@2@ABV32@@Z ENDP ; std::_Default_allocator_traits<std::allocator<char> >::select_on_container_copy_construction
_TEXT	ENDS
; Function compile flags: /Odtp /RTCsu
; File C:\Program Files\Microsoft Visual Studio\2022\Community\VC\Tools\MSVC\14.32.31326\include\xmemory
;	COMDAT ?max_size@?$_Default_allocator_traits@V?$allocator@D@std@@@std@@SAIABV?$allocator@D@2@@Z
_TEXT	SEGMENT
___formal$ = 8						; size = 4
?max_size@?$_Default_allocator_traits@V?$allocator@D@std@@@std@@SAIABV?$allocator@D@2@@Z PROC ; std::_Default_allocator_traits<std::allocator<char> >::max_size, COMDAT

; 693  :     _NODISCARD static _CONSTEXPR20 size_type max_size(const _Alloc&) noexcept {

	push	ebp
	mov	ebp, esp

; 694  :         return static_cast<size_t>(-1) / sizeof(value_type);

	or	eax, -1

; 695  :     }

	pop	ebp
	ret	0
?max_size@?$_Default_allocator_traits@V?$allocator@D@std@@@std@@SAIABV?$allocator@D@2@@Z ENDP ; std::_Default_allocator_traits<std::allocator<char> >::max_size
_TEXT	ENDS
; Function compile flags: /Odtp /RTCsu
; File C:\Program Files\Microsoft Visual Studio\2022\Community\VC\Tools\MSVC\14.32.31326\include\xmemory
;	COMDAT ?allocate@?$allocator@D@std@@QAEPADI@Z
_TEXT	SEGMENT
_this$ = -4						; size = 4
__Count$ = 8						; size = 4
?allocate@?$allocator@D@std@@QAEPADI@Z PROC		; std::allocator<char>::allocate, COMDAT
; _this$ = ecx

; 833  :     _NODISCARD _CONSTEXPR20 __declspec(allocator) _Ty* allocate(_CRT_GUARDOVERFLOW const size_t _Count) {

	push	ebp
	mov	ebp, esp
	push	ecx
	mov	DWORD PTR [ebp-4], -858993460		; ccccccccH
	mov	DWORD PTR _this$[ebp], ecx

; 834  :         return static_cast<_Ty*>(_Allocate<_New_alignof<_Ty>>(_Get_size_of_n<sizeof(_Ty)>(_Count)));

	mov	eax, DWORD PTR __Count$[ebp]
	push	eax
	call	??$_Get_size_of_n@$00@std@@YAII@Z	; std::_Get_size_of_n<1>
	add	esp, 4
	push	eax
	call	??$_Allocate@$07U_Default_allocate_traits@std@@$0A@@std@@YAPAXI@Z ; std::_Allocate<8,std::_Default_allocate_traits,0>
	add	esp, 4

; 835  :     }

	add	esp, 4
	cmp	ebp, esp
	call	__RTC_CheckEsp
	mov	esp, ebp
	pop	ebp
	ret	4
?allocate@?$allocator@D@std@@QAEPADI@Z ENDP		; std::allocator<char>::allocate
_TEXT	ENDS
; Function compile flags: /Odtp /RTCsu
; File C:\Program Files\Microsoft Visual Studio\2022\Community\VC\Tools\MSVC\14.32.31326\include\xmemory
;	COMDAT ?deallocate@?$allocator@D@std@@QAEXQADI@Z
_TEXT	SEGMENT
_this$ = -4						; size = 4
__Ptr$ = 8						; size = 4
__Count$ = 12						; size = 4
?deallocate@?$allocator@D@std@@QAEXQADI@Z PROC		; std::allocator<char>::deallocate, COMDAT
; _this$ = ecx

; 827  :     _CONSTEXPR20 void deallocate(_Ty* const _Ptr, const size_t _Count) {

	push	ebp
	mov	ebp, esp
	push	ecx
	mov	DWORD PTR [ebp-4], -858993460		; ccccccccH
	mov	DWORD PTR _this$[ebp], ecx
$LN4@deallocate:

; 828  :         _STL_ASSERT(_Ptr != nullptr || _Count == 0, "null pointer cannot point to a block of non-zero size");

	cmp	DWORD PTR __Ptr$[ebp], 0
	jne	SHORT $LN10@deallocate
	cmp	DWORD PTR __Count$[ebp], 0
	jne	SHORT $LN7@deallocate
$LN10@deallocate:
	jmp	SHORT $LN2@deallocate
$LN7@deallocate:
	push	OFFSET ??_C@_0DG@KGHKKGBC@null?5pointer?5cannot?5point?5to?5a?5@
	push	OFFSET ??_C@_02DKCKIIND@?$CFs@
	push	0
	push	828					; 0000033cH
	push	OFFSET ??_C@_0GC@DJFHHHKN@C?3?2Program?5Files?2Microsoft?5Visu@
	push	2
	call	__CrtDbgReport
	add	esp, 24					; 00000018H
	cmp	eax, 1
	jne	SHORT $LN12@deallocate
	int	3
$LN12@deallocate:
	push	0
	push	828					; 0000033cH
	push	OFFSET ??_C@_1ME@GEFGDEOM@?$AAC?$AA?3?$AA?2?$AAP?$AAr?$AAo?$AAg?$AAr?$AAa?$AAm?$AA?5?$AAF?$AAi?$AAl?$AAe@
	push	OFFSET ??_C@_11LOCGONAA@@
	push	OFFSET ??_C@_1HA@FACCKGGH@?$AA?$CC?$AAn?$AAu?$AAl?$AAl?$AA?5?$AAp?$AAo?$AAi?$AAn?$AAt?$AAe?$AAr?$AA?5?$AAc@
	call	__invalid_parameter
	add	esp, 20					; 00000014H
	xor	ecx, ecx
	jne	SHORT $LN7@deallocate
$LN2@deallocate:
	xor	edx, edx
	jne	SHORT $LN4@deallocate

; 829  :         // no overflow check on the following multiply; we assume _Allocate did that check
; 830  :         _Deallocate<_New_alignof<_Ty>>(_Ptr, sizeof(_Ty) * _Count);

	mov	eax, DWORD PTR __Count$[ebp]
	push	eax
	mov	ecx, DWORD PTR __Ptr$[ebp]
	push	ecx
	call	??$_Deallocate@$07$0A@@std@@YAXPAXI@Z	; std::_Deallocate<8,0>
	add	esp, 8

; 831  :     }

	add	esp, 4
	cmp	ebp, esp
	call	__RTC_CheckEsp
	mov	esp, ebp
	pop	ebp
	ret	8
?deallocate@?$allocator@D@std@@QAEXQADI@Z ENDP		; std::allocator<char>::deallocate
_TEXT	ENDS
; Function compile flags: /Odtp /RTCsu
; File C:\Program Files\Microsoft Visual Studio\2022\Community\VC\Tools\MSVC\14.32.31326\include\xmemory
;	COMDAT ??0?$allocator@D@std@@QAE@XZ
_TEXT	SEGMENT
_this$ = -4						; size = 4
??0?$allocator@D@std@@QAE@XZ PROC			; std::allocator<char>::allocator<char>, COMDAT
; _this$ = ecx

; 819  :     constexpr allocator() noexcept {}

	push	ebp
	mov	ebp, esp
	push	ecx
	mov	DWORD PTR _this$[ebp], ecx
	mov	eax, DWORD PTR _this$[ebp]
	mov	esp, ebp
	pop	ebp
	ret	0
??0?$allocator@D@std@@QAE@XZ ENDP			; std::allocator<char>::allocator<char>
_TEXT	ENDS
; Function compile flags: /Odtp /RTCsu
; File C:\Program Files\Microsoft Visual Studio\2022\Community\VC\Tools\MSVC\14.32.31326\include\xstring
;	COMDAT ?_Xlen_string@std@@YAXXZ
_TEXT	SEGMENT
?_Xlen_string@std@@YAXXZ PROC				; std::_Xlen_string, COMDAT

; 2390 : [[noreturn]] inline void _Xlen_string() {

	push	ebp
	mov	ebp, esp

; 2391 :     _Xlength_error("string too long");

	push	OFFSET ??_C@_0BA@JFNIOLAK@string?5too?5long@
	call	?_Xlength_error@std@@YAXPBD@Z		; std::_Xlength_error
$LN2@Xlen_strin:

; 2392 : }

	cmp	ebp, esp
	call	__RTC_CheckEsp
	pop	ebp
	ret	0
?_Xlen_string@std@@YAXXZ ENDP				; std::_Xlen_string
_TEXT	ENDS
; Function compile flags: /Odtp /RTCsu
; File C:\Program Files\Microsoft Visual Studio\2022\Community\VC\Tools\MSVC\14.32.31326\include\xstring
;	COMDAT ?assign@?$_Narrow_char_traits@DH@std@@SAXAADABD@Z
_TEXT	SEGMENT
__Left$ = 8						; size = 4
__Right$ = 12						; size = 4
?assign@?$_Narrow_char_traits@DH@std@@SAXAADABD@Z PROC	; std::_Narrow_char_traits<char,int>::assign, COMDAT

; 438  :     static _CONSTEXPR17 void assign(_Elem& _Left, const _Elem& _Right) noexcept {

	push	ebp
	mov	ebp, esp

; 439  : #if _HAS_CXX20
; 440  :         if (_STD is_constant_evaluated()) {
; 441  :             return _Primary_char_traits::assign(_Left, _Right);
; 442  :         }
; 443  : #endif // _HAS_CXX20
; 444  :         _Left = _Right;

	mov	eax, DWORD PTR __Left$[ebp]
	mov	ecx, DWORD PTR __Right$[ebp]
	mov	dl, BYTE PTR [ecx]
	mov	BYTE PTR [eax], dl

; 445  :     }

	pop	ebp
	ret	0
?assign@?$_Narrow_char_traits@DH@std@@SAXAADABD@Z ENDP	; std::_Narrow_char_traits<char,int>::assign
_TEXT	ENDS
; Function compile flags: /Odtp /RTCsu
; File C:\Program Files\Microsoft Visual Studio\2022\Community\VC\Tools\MSVC\14.32.31326\include\xstring
;	COMDAT ?length@?$_Narrow_char_traits@DH@std@@SAIQBD@Z
_TEXT	SEGMENT
__First$ = 8						; size = 4
?length@?$_Narrow_char_traits@DH@std@@SAIQBD@Z PROC	; std::_Narrow_char_traits<char,int>::length, COMDAT

; 385  :     _NODISCARD static _CONSTEXPR17 size_t length(_In_z_ const _Elem* const _First) noexcept /* strengthened */ {

	push	ebp
	mov	ebp, esp

; 386  :         // find length of null-terminated string
; 387  : #if _HAS_CXX17
; 388  : #ifdef __cpp_char8_t
; 389  :         if constexpr (is_same_v<_Elem, char8_t>) {
; 390  : #if _HAS_U8_INTRINSICS
; 391  :             return __builtin_u8strlen(_First);
; 392  : #else // ^^^ use u8 intrinsics / no u8 intrinsics vvv
; 393  :             return _Primary_char_traits::length(_First);
; 394  : #endif // _HAS_U8_INTRINSICS
; 395  :         } else
; 396  : #endif // __cpp_char8_t
; 397  :         {
; 398  :             return __builtin_strlen(_First);
; 399  :         }
; 400  : #else // _HAS_CXX17
; 401  :         return _CSTD strlen(reinterpret_cast<const char*>(_First));

	mov	eax, DWORD PTR __First$[ebp]
	push	eax
	call	_strlen
	add	esp, 4

; 402  : #endif // _HAS_CXX17
; 403  :     }

	cmp	ebp, esp
	call	__RTC_CheckEsp
	pop	ebp
	ret	0
?length@?$_Narrow_char_traits@DH@std@@SAIQBD@Z ENDP	; std::_Narrow_char_traits<char,int>::length
_TEXT	ENDS
; Function compile flags: /Odtp /RTCsu
; File C:\Program Files\Microsoft Visual Studio\2022\Community\VC\Tools\MSVC\14.32.31326\include\xstring
;	COMDAT ?move@?$_Char_traits@DH@std@@SAPADQADQBDI@Z
_TEXT	SEGMENT
__First1$ = 8						; size = 4
__First2$ = 12						; size = 4
__Count$ = 16						; size = 4
?move@?$_Char_traits@DH@std@@SAPADQADQBDI@Z PROC	; std::_Char_traits<char,int>::move, COMDAT

; 79   :         _In_reads_(_Count) const _Elem* const _First2, const size_t _Count) noexcept /* strengthened */ {

	push	ebp
	mov	ebp, esp

; 80   :         // copy [_First2, _First2 + _Count) to [_First1, ...), allowing overlap
; 81   : #if _HAS_MEMCPY_MEMMOVE_INTRINSICS
; 82   :         __builtin_memmove(_First1, _First2, _Count * sizeof(_Elem));
; 83   : #else // ^^^ _HAS_MEMCPY_MEMMOVE_INTRINSICS ^^^ / vvv !_HAS_MEMCPY_MEMMOVE_INTRINSICS vvv
; 84   : #if _HAS_CXX20
; 85   :         if (_STD is_constant_evaluated()) {
; 86   :             // dest: [_First1, _First1 + _Count)
; 87   :             // src: [_First2, _First2 + _Count)
; 88   :             // We need to handle overlapping ranges.
; 89   :             // If _First1 is in the src range, we need a backward loop.
; 90   :             // Otherwise, the forward loop works (even if the back of dest overlaps the front of src).
; 91   : 
; 92   :             // Usually, we would compare pointers with less-than, even though they could belong to different arrays.
; 93   :             // However, we're not allowed to do that during constant evaluation, so we need a linear scan for equality.
; 94   :             bool _Loop_forward = true;
; 95   : 
; 96   :             for (const _Elem* _Src = _First2; _Src != _First2 + _Count; ++_Src) {
; 97   :                 if (_First1 == _Src) {
; 98   :                     _Loop_forward = false;
; 99   :                     break;
; 100  :                 }
; 101  :             }
; 102  : 
; 103  :             if (_Loop_forward) {
; 104  :                 for (size_t _Idx = 0; _Idx != _Count; ++_Idx) {
; 105  :                     _First1[_Idx] = _First2[_Idx];
; 106  :                 }
; 107  :             } else {
; 108  :                 for (size_t _Idx = _Count; _Idx != 0; --_Idx) {
; 109  :                     _First1[_Idx - 1] = _First2[_Idx - 1];
; 110  :                 }
; 111  :             }
; 112  : 
; 113  :             return _First1;
; 114  :         }
; 115  : #endif // _HAS_CXX20
; 116  : 
; 117  :         _CSTD memmove(_First1, _First2, _Count * sizeof(_Elem));

	mov	eax, DWORD PTR __Count$[ebp]
	push	eax
	mov	ecx, DWORD PTR __First2$[ebp]
	push	ecx
	mov	edx, DWORD PTR __First1$[ebp]
	push	edx
	call	_memmove
	add	esp, 12					; 0000000cH

; 118  : #endif // ^^^ !_HAS_MEMCPY_MEMMOVE_INTRINSICS ^^^
; 119  : 
; 120  :         return _First1;

	mov	eax, DWORD PTR __First1$[ebp]

; 121  :     }

	cmp	ebp, esp
	call	__RTC_CheckEsp
	pop	ebp
	ret	0
?move@?$_Char_traits@DH@std@@SAPADQADQBDI@Z ENDP	; std::_Char_traits<char,int>::move
_TEXT	ENDS
; Function compile flags: /Odtp /RTCsu
; File C:\Program Files\Microsoft Visual Studio\2022\Community\VC\Tools\MSVC\14.32.31326\include\xstring
;	COMDAT ?copy@?$_Char_traits@DH@std@@SAPADQADQBDI@Z
_TEXT	SEGMENT
__First1$ = 8						; size = 4
__First2$ = 12						; size = 4
__Count$ = 16						; size = 4
?copy@?$_Char_traits@DH@std@@SAPADQADQBDI@Z PROC	; std::_Char_traits<char,int>::copy, COMDAT

; 48   :         _In_reads_(_Count) const _Elem* const _First2, const size_t _Count) noexcept /* strengthened */ {

	push	ebp
	mov	ebp, esp

; 49   :         // copy [_First2, _First2 + _Count) to [_First1, ...)
; 50   : #if _HAS_MEMCPY_MEMMOVE_INTRINSICS
; 51   :         __builtin_memcpy(_First1, _First2, _Count * sizeof(_Elem));
; 52   : #else // ^^^ _HAS_MEMCPY_MEMMOVE_INTRINSICS ^^^ / vvv !_HAS_MEMCPY_MEMMOVE_INTRINSICS vvv
; 53   : #if _HAS_CXX20
; 54   :         if (_STD is_constant_evaluated()) {
; 55   :             // pre: [_First1, _First1 + _Count) and [_First2, _First2 + _Count) do not overlap; see LWG-3085
; 56   :             for (size_t _Idx = 0; _Idx != _Count; ++_Idx) {
; 57   :                 _First1[_Idx] = _First2[_Idx];
; 58   :             }
; 59   : 
; 60   :             return _First1;
; 61   :         }
; 62   : #endif // _HAS_CXX20
; 63   : 
; 64   :         _CSTD memcpy(_First1, _First2, _Count * sizeof(_Elem));

	mov	eax, DWORD PTR __Count$[ebp]
	push	eax
	mov	ecx, DWORD PTR __First2$[ebp]
	push	ecx
	mov	edx, DWORD PTR __First1$[ebp]
	push	edx
	call	_memcpy
	add	esp, 12					; 0000000cH

; 65   : #endif // ^^^ !_HAS_MEMCPY_MEMMOVE_INTRINSICS ^^^
; 66   : 
; 67   :         return _First1;

	mov	eax, DWORD PTR __First1$[ebp]

; 68   :     }

	cmp	ebp, esp
	call	__RTC_CheckEsp
	pop	ebp
	ret	0
?copy@?$_Char_traits@DH@std@@SAPADQADQBDI@Z ENDP	; std::_Char_traits<char,int>::copy
_TEXT	ENDS
; Function compile flags: /Odtp /RTCsu
; File C:\Program Files\Microsoft Visual Studio\2022\Community\VC\Tools\MSVC\14.32.31326\include\xmemory
;	COMDAT ??0_Basic_container_proxy_ptr12@std@@IAE@XZ
_TEXT	SEGMENT
_this$ = -4						; size = 4
??0_Basic_container_proxy_ptr12@std@@IAE@XZ PROC	; std::_Basic_container_proxy_ptr12::_Basic_container_proxy_ptr12, COMDAT
; _this$ = ecx

; 1304 :     _CONSTEXPR20 _Basic_container_proxy_ptr12()                       = default;

	push	ebp
	mov	ebp, esp
	push	ecx
	mov	DWORD PTR _this$[ebp], ecx

; 1297 :     _Container_proxy* _Ptr = nullptr;

	mov	eax, DWORD PTR _this$[ebp]
	mov	DWORD PTR [eax], 0

; 1304 :     _CONSTEXPR20 _Basic_container_proxy_ptr12()                       = default;

	mov	eax, DWORD PTR _this$[ebp]
	mov	esp, ebp
	pop	ebp
	ret	0
??0_Basic_container_proxy_ptr12@std@@IAE@XZ ENDP	; std::_Basic_container_proxy_ptr12::_Basic_container_proxy_ptr12
_TEXT	ENDS
; Function compile flags: /Odtp /RTCsu
; File C:\Program Files\Microsoft Visual Studio\2022\Community\VC\Tools\MSVC\14.32.31326\include\xmemory
;	COMDAT ?_Release@_Basic_container_proxy_ptr12@std@@QAEXXZ
_TEXT	SEGMENT
_this$ = -4						; size = 4
?_Release@_Basic_container_proxy_ptr12@std@@QAEXXZ PROC	; std::_Basic_container_proxy_ptr12::_Release, COMDAT
; _this$ = ecx

; 1299 :     constexpr void _Release() noexcept { // disengage this _Basic_container_proxy_ptr12

	push	ebp
	mov	ebp, esp
	push	ecx
	mov	DWORD PTR _this$[ebp], ecx

; 1300 :         _Ptr = nullptr;

	mov	eax, DWORD PTR _this$[ebp]
	mov	DWORD PTR [eax], 0

; 1301 :     }

	mov	esp, ebp
	pop	ebp
	ret	0
?_Release@_Basic_container_proxy_ptr12@std@@QAEXXZ ENDP	; std::_Basic_container_proxy_ptr12::_Release
_TEXT	ENDS
; Function compile flags: /Odtp /RTCsu
; File C:\Program Files\Microsoft Visual Studio\2022\Community\VC\Tools\MSVC\14.32.31326\include\xmemory
;	COMDAT ?_Orphan_me_locked_v3@_Iterator_base12@std@@AAEXXZ
_TEXT	SEGMENT
__Lock$ = -12						; size = 4
_this$ = -4						; size = 4
?_Orphan_me_locked_v3@_Iterator_base12@std@@AAEXXZ PROC	; std::_Iterator_base12::_Orphan_me_locked_v3, COMDAT
; _this$ = ecx

; 1212 :     void _Orphan_me_locked_v3() noexcept {

	push	ebp
	mov	ebp, esp
	sub	esp, 16					; 00000010H
	mov	eax, -858993460				; ccccccccH
	mov	DWORD PTR [ebp-16], eax
	mov	DWORD PTR [ebp-12], eax
	mov	DWORD PTR [ebp-8], eax
	mov	DWORD PTR [ebp-4], eax
	mov	DWORD PTR _this$[ebp], ecx

; 1213 :         _Lockit _Lock(_LOCK_DEBUG);

	push	3
	lea	ecx, DWORD PTR __Lock$[ebp]
	call	??0_Lockit@std@@QAE@H@Z			; std::_Lockit::_Lockit

; 1214 :         _Orphan_me_unlocked_v3();

	mov	ecx, DWORD PTR _this$[ebp]
	call	?_Orphan_me_unlocked_v3@_Iterator_base12@std@@AAEXXZ ; std::_Iterator_base12::_Orphan_me_unlocked_v3

; 1215 :     }

	lea	ecx, DWORD PTR __Lock$[ebp]
	call	??1_Lockit@std@@QAE@XZ			; std::_Lockit::~_Lockit
	push	edx
	mov	ecx, ebp
	push	eax
	lea	edx, DWORD PTR $LN5@Orphan_me_
	call	@_RTC_CheckStackVars@8
	pop	eax
	pop	edx
	add	esp, 16					; 00000010H
	cmp	ebp, esp
	call	__RTC_CheckEsp
	mov	esp, ebp
	pop	ebp
	ret	0
	npad	1
$LN5@Orphan_me_:
	DD	1
	DD	$LN4@Orphan_me_
$LN4@Orphan_me_:
	DD	-12					; fffffff4H
	DD	4
	DD	$LN3@Orphan_me_
$LN3@Orphan_me_:
	DB	95					; 0000005fH
	DB	76					; 0000004cH
	DB	111					; 0000006fH
	DB	99					; 00000063H
	DB	107					; 0000006bH
	DB	0
?_Orphan_me_locked_v3@_Iterator_base12@std@@AAEXXZ ENDP	; std::_Iterator_base12::_Orphan_me_locked_v3
_TEXT	ENDS
; Function compile flags: /Odtp /RTCsu
; File C:\Program Files\Microsoft Visual Studio\2022\Community\VC\Tools\MSVC\14.32.31326\include\xmemory
;	COMDAT ?_Orphan_me_unlocked_v3@_Iterator_base12@std@@AAEXXZ
_TEXT	SEGMENT
__Temp$1 = -12						; size = 4
__Pnext$ = -8						; size = 4
_this$ = -4						; size = 4
?_Orphan_me_unlocked_v3@_Iterator_base12@std@@AAEXXZ PROC ; std::_Iterator_base12::_Orphan_me_unlocked_v3, COMDAT
; _this$ = ecx

; 1195 :     _CONSTEXPR20 void _Orphan_me_unlocked_v3() noexcept {

	push	ebp
	mov	ebp, esp
	sub	esp, 12					; 0000000cH
	mov	DWORD PTR [ebp-12], -858993460		; ccccccccH
	mov	DWORD PTR [ebp-8], -858993460		; ccccccccH
	mov	DWORD PTR [ebp-4], -858993460		; ccccccccH
	mov	DWORD PTR _this$[ebp], ecx

; 1196 :         if (!_Myproxy) { // already orphaned

	mov	eax, DWORD PTR _this$[ebp]
	cmp	DWORD PTR [eax], 0
	jne	SHORT $LN10@Orphan_me_

; 1197 :             return;

	jmp	$LN13@Orphan_me_
$LN10@Orphan_me_:

; 1198 :         }
; 1199 : 
; 1200 :         // adopted, remove self from list
; 1201 :         _Iterator_base12** _Pnext = &_Myproxy->_Myfirstiter;

	mov	ecx, DWORD PTR _this$[ebp]
	mov	edx, DWORD PTR [ecx]
	add	edx, 4
	mov	DWORD PTR __Pnext$[ebp], edx
$LN2@Orphan_me_:

; 1202 :         while (*_Pnext && *_Pnext != this) {

	mov	eax, DWORD PTR __Pnext$[ebp]
	cmp	DWORD PTR [eax], 0
	je	SHORT $LN6@Orphan_me_
	mov	ecx, DWORD PTR __Pnext$[ebp]
	mov	edx, DWORD PTR [ecx]
	cmp	edx, DWORD PTR _this$[ebp]
	je	SHORT $LN6@Orphan_me_

; 1203 :             const auto _Temp = *_Pnext; // TRANSITION, VSO-1269037

	mov	eax, DWORD PTR __Pnext$[ebp]
	mov	ecx, DWORD PTR [eax]
	mov	DWORD PTR __Temp$1[ebp], ecx

; 1204 :             _Pnext           = &_Temp->_Mynextiter;

	mov	edx, DWORD PTR __Temp$1[ebp]
	add	edx, 4
	mov	DWORD PTR __Pnext$[ebp], edx

; 1205 :         }

	jmp	SHORT $LN2@Orphan_me_
$LN6@Orphan_me_:

; 1206 : 
; 1207 :         _STL_VERIFY(*_Pnext, "ITERATOR LIST CORRUPTED!");

	mov	eax, DWORD PTR __Pnext$[ebp]
	cmp	DWORD PTR [eax], 0
	je	SHORT $LN9@Orphan_me_
	jmp	SHORT $LN4@Orphan_me_
$LN9@Orphan_me_:
	push	OFFSET ??_C@_0BJ@LFDBABJJ@ITERATOR?5LIST?5CORRUPTED?$CB@
	push	OFFSET ??_C@_02DKCKIIND@?$CFs@
	push	0
	push	1207					; 000004b7H
	push	OFFSET ??_C@_0GC@DJFHHHKN@C?3?2Program?5Files?2Microsoft?5Visu@
	push	2
	call	__CrtDbgReport
	add	esp, 24					; 00000018H
	cmp	eax, 1
	jne	SHORT $LN14@Orphan_me_
	int	3
$LN14@Orphan_me_:
	push	0
	push	1207					; 000004b7H
	push	OFFSET ??_C@_1ME@GEFGDEOM@?$AAC?$AA?3?$AA?2?$AAP?$AAr?$AAo?$AAg?$AAr?$AAa?$AAm?$AA?5?$AAF?$AAi?$AAl?$AAe@
	push	OFFSET ??_C@_11LOCGONAA@@
	push	OFFSET ??_C@_1DG@PLBPCAEM@?$AA?$CC?$AAI?$AAT?$AAE?$AAR?$AAA?$AAT?$AAO?$AAR?$AA?5?$AAL?$AAI?$AAS?$AAT?$AA?5@
	call	__invalid_parameter
	add	esp, 20					; 00000014H
	xor	edx, edx
	jne	SHORT $LN9@Orphan_me_
$LN4@Orphan_me_:
	xor	eax, eax
	jne	SHORT $LN6@Orphan_me_

; 1208 :         *_Pnext  = _Mynextiter;

	mov	ecx, DWORD PTR __Pnext$[ebp]
	mov	edx, DWORD PTR _this$[ebp]
	mov	eax, DWORD PTR [edx+4]
	mov	DWORD PTR [ecx], eax

; 1209 :         _Myproxy = nullptr;

	mov	ecx, DWORD PTR _this$[ebp]
	mov	DWORD PTR [ecx], 0
$LN13@Orphan_me_:

; 1210 :     }

	add	esp, 12					; 0000000cH
	cmp	ebp, esp
	call	__RTC_CheckEsp
	mov	esp, ebp
	pop	ebp
	ret	0
?_Orphan_me_unlocked_v3@_Iterator_base12@std@@AAEXXZ ENDP ; std::_Iterator_base12::_Orphan_me_unlocked_v3
_TEXT	ENDS
; Function compile flags: /Odtp /RTCsu
; File C:\Program Files\Microsoft Visual Studio\2022\Community\VC\Tools\MSVC\14.32.31326\include\xmemory
;	COMDAT ?_Adopt_locked@_Iterator_base12@std@@AAEXPBU_Container_base12@2@@Z
_TEXT	SEGMENT
__Lock$ = -12						; size = 4
_this$ = -4						; size = 4
__Parent$ = 8						; size = 4
?_Adopt_locked@_Iterator_base12@std@@AAEXPBU_Container_base12@2@@Z PROC ; std::_Iterator_base12::_Adopt_locked, COMDAT
; _this$ = ecx

; 1190 :     void _Adopt_locked(const _Container_base12* _Parent) noexcept {

	push	ebp
	mov	ebp, esp
	sub	esp, 16					; 00000010H
	mov	eax, -858993460				; ccccccccH
	mov	DWORD PTR [ebp-16], eax
	mov	DWORD PTR [ebp-12], eax
	mov	DWORD PTR [ebp-8], eax
	mov	DWORD PTR [ebp-4], eax
	mov	DWORD PTR _this$[ebp], ecx

; 1191 :         _Lockit _Lock(_LOCK_DEBUG);

	push	3
	lea	ecx, DWORD PTR __Lock$[ebp]
	call	??0_Lockit@std@@QAE@H@Z			; std::_Lockit::_Lockit

; 1192 :         _Adopt_unlocked(_Parent);

	mov	eax, DWORD PTR __Parent$[ebp]
	push	eax
	mov	ecx, DWORD PTR _this$[ebp]
	call	?_Adopt_unlocked@_Iterator_base12@std@@AAEXPBU_Container_base12@2@@Z ; std::_Iterator_base12::_Adopt_unlocked

; 1193 :     }

	lea	ecx, DWORD PTR __Lock$[ebp]
	call	??1_Lockit@std@@QAE@XZ			; std::_Lockit::~_Lockit
	push	edx
	mov	ecx, ebp
	push	eax
	lea	edx, DWORD PTR $LN5@Adopt_lock
	call	@_RTC_CheckStackVars@8
	pop	eax
	pop	edx
	add	esp, 16					; 00000010H
	cmp	ebp, esp
	call	__RTC_CheckEsp
	mov	esp, ebp
	pop	ebp
	ret	4
	npad	3
$LN5@Adopt_lock:
	DD	1
	DD	$LN4@Adopt_lock
$LN4@Adopt_lock:
	DD	-12					; fffffff4H
	DD	4
	DD	$LN3@Adopt_lock
$LN3@Adopt_lock:
	DB	95					; 0000005fH
	DB	76					; 0000004cH
	DB	111					; 0000006fH
	DB	99					; 00000063H
	DB	107					; 0000006bH
	DB	0
?_Adopt_locked@_Iterator_base12@std@@AAEXPBU_Container_base12@2@@Z ENDP ; std::_Iterator_base12::_Adopt_locked
_TEXT	ENDS
; Function compile flags: /Odtp /RTCsu
; File C:\Program Files\Microsoft Visual Studio\2022\Community\VC\Tools\MSVC\14.32.31326\include\xmemory
;	COMDAT ?_Adopt_unlocked@_Iterator_base12@std@@AAEXPBU_Container_base12@2@@Z
_TEXT	SEGMENT
__Parent_proxy$ = -8					; size = 4
_this$ = -4						; size = 4
__Parent$ = 8						; size = 4
?_Adopt_unlocked@_Iterator_base12@std@@AAEXPBU_Container_base12@2@@Z PROC ; std::_Iterator_base12::_Adopt_unlocked, COMDAT
; _this$ = ecx

; 1173 :     _CONSTEXPR20 void _Adopt_unlocked(const _Container_base12* _Parent) noexcept {

	push	ebp
	mov	ebp, esp
	sub	esp, 8
	mov	DWORD PTR [ebp-8], -858993460		; ccccccccH
	mov	DWORD PTR [ebp-4], -858993460		; ccccccccH
	mov	DWORD PTR _this$[ebp], ecx

; 1174 :         if (!_Parent) {

	cmp	DWORD PTR __Parent$[ebp], 0
	jne	SHORT $LN2@Adopt_unlo

; 1175 :             _Orphan_me_unlocked_v3();

	mov	ecx, DWORD PTR _this$[ebp]
	call	?_Orphan_me_unlocked_v3@_Iterator_base12@std@@AAEXXZ ; std::_Iterator_base12::_Orphan_me_unlocked_v3

; 1176 :             return;

	jmp	SHORT $LN5@Adopt_unlo
$LN2@Adopt_unlo:

; 1177 :         }
; 1178 : 
; 1179 :         _Container_proxy* _Parent_proxy = _Parent->_Myproxy;

	mov	eax, DWORD PTR __Parent$[ebp]
	mov	ecx, DWORD PTR [eax]
	mov	DWORD PTR __Parent_proxy$[ebp], ecx

; 1180 :         if (_Myproxy != _Parent_proxy) { // change parentage

	mov	edx, DWORD PTR _this$[ebp]
	mov	eax, DWORD PTR [edx]
	cmp	eax, DWORD PTR __Parent_proxy$[ebp]
	je	SHORT $LN5@Adopt_unlo

; 1181 :             if (_Myproxy) { // adopted, remove self from list

	mov	ecx, DWORD PTR _this$[ebp]
	cmp	DWORD PTR [ecx], 0
	je	SHORT $LN4@Adopt_unlo

; 1182 :                 _Orphan_me_unlocked_v3();

	mov	ecx, DWORD PTR _this$[ebp]
	call	?_Orphan_me_unlocked_v3@_Iterator_base12@std@@AAEXXZ ; std::_Iterator_base12::_Orphan_me_unlocked_v3
$LN4@Adopt_unlo:

; 1183 :             }
; 1184 :             _Mynextiter                 = _Parent_proxy->_Myfirstiter;

	mov	edx, DWORD PTR _this$[ebp]
	mov	eax, DWORD PTR __Parent_proxy$[ebp]
	mov	ecx, DWORD PTR [eax+4]
	mov	DWORD PTR [edx+4], ecx

; 1185 :             _Parent_proxy->_Myfirstiter = this;

	mov	edx, DWORD PTR __Parent_proxy$[ebp]
	mov	eax, DWORD PTR _this$[ebp]
	mov	DWORD PTR [edx+4], eax

; 1186 :             _Myproxy                    = _Parent_proxy;

	mov	ecx, DWORD PTR _this$[ebp]
	mov	edx, DWORD PTR __Parent_proxy$[ebp]
	mov	DWORD PTR [ecx], edx
$LN5@Adopt_unlo:

; 1187 :         }
; 1188 :     }

	add	esp, 8
	cmp	ebp, esp
	call	__RTC_CheckEsp
	mov	esp, ebp
	pop	ebp
	ret	4
?_Adopt_unlocked@_Iterator_base12@std@@AAEXPBU_Container_base12@2@@Z ENDP ; std::_Iterator_base12::_Adopt_unlocked
_TEXT	ENDS
; Function compile flags: /Odtp /RTCsu
; File C:\Program Files\Microsoft Visual Studio\2022\Community\VC\Tools\MSVC\14.32.31326\include\xmemory
;	COMDAT ?_Getcont@_Iterator_base12@std@@QBEPBU_Container_base12@2@XZ
_TEXT	SEGMENT
tv68 = -8						; size = 4
_this$ = -4						; size = 4
?_Getcont@_Iterator_base12@std@@QBEPBU_Container_base12@2@XZ PROC ; std::_Iterator_base12::_Getcont, COMDAT
; _this$ = ecx

; 1145 :     _CONSTEXPR20 const _Container_base12* _Getcont() const noexcept {

	push	ebp
	mov	ebp, esp
	sub	esp, 8
	mov	DWORD PTR _this$[ebp], ecx

; 1146 :         return _Myproxy ? _Myproxy->_Mycont : nullptr;

	mov	eax, DWORD PTR _this$[ebp]
	cmp	DWORD PTR [eax], 0
	je	SHORT $LN3@Getcont
	mov	ecx, DWORD PTR _this$[ebp]
	mov	edx, DWORD PTR [ecx]
	mov	eax, DWORD PTR [edx]
	mov	DWORD PTR tv68[ebp], eax
	jmp	SHORT $LN4@Getcont
$LN3@Getcont:
	mov	DWORD PTR tv68[ebp], 0
$LN4@Getcont:
	mov	eax, DWORD PTR tv68[ebp]

; 1147 :     }

	mov	esp, ebp
	pop	ebp
	ret	0
?_Getcont@_Iterator_base12@std@@QBEPBU_Container_base12@2@XZ ENDP ; std::_Iterator_base12::_Getcont
_TEXT	ENDS
; Function compile flags: /Odtp /RTCsu
; File C:\Program Files\Microsoft Visual Studio\2022\Community\VC\Tools\MSVC\14.32.31326\include\xmemory
;	COMDAT ?_Adopt@_Iterator_base12@std@@QAEXPBU_Container_base12@2@@Z
_TEXT	SEGMENT
_this$ = -4						; size = 4
__Parent$ = 8						; size = 4
?_Adopt@_Iterator_base12@std@@QAEXPBU_Container_base12@2@@Z PROC ; std::_Iterator_base12::_Adopt, COMDAT
; _this$ = ecx

; 1125 :     _CONSTEXPR20 void _Adopt(const _Container_base12* _Parent) noexcept {

	push	ebp
	mov	ebp, esp
	push	ecx
	mov	DWORD PTR [ebp-4], -858993460		; ccccccccH
	mov	DWORD PTR _this$[ebp], ecx

; 1126 : #if _HAS_CXX20
; 1127 :         if (_STD is_constant_evaluated()) {
; 1128 :             _Adopt_unlocked(_Parent);
; 1129 :         } else
; 1130 : #endif // _HAS_CXX20
; 1131 :         {
; 1132 :             _Adopt_locked(_Parent);

	mov	eax, DWORD PTR __Parent$[ebp]
	push	eax
	mov	ecx, DWORD PTR _this$[ebp]
	call	?_Adopt_locked@_Iterator_base12@std@@AAEXPBU_Container_base12@2@@Z ; std::_Iterator_base12::_Adopt_locked

; 1133 :         }
; 1134 :     }

	add	esp, 4
	cmp	ebp, esp
	call	__RTC_CheckEsp
	mov	esp, ebp
	pop	ebp
	ret	4
?_Adopt@_Iterator_base12@std@@QAEXPBU_Container_base12@2@@Z ENDP ; std::_Iterator_base12::_Adopt
_TEXT	ENDS
; Function compile flags: /Odtp /RTCsu
; File C:\Program Files\Microsoft Visual Studio\2022\Community\VC\Tools\MSVC\14.32.31326\include\xmemory
;	COMDAT ??1_Iterator_base12@std@@QAE@XZ
_TEXT	SEGMENT
_this$ = -4						; size = 4
??1_Iterator_base12@std@@QAE@XZ PROC			; std::_Iterator_base12::~_Iterator_base12, COMDAT
; _this$ = ecx

; 1114 :     _CONSTEXPR20 ~_Iterator_base12() noexcept {

	push	ebp
	mov	ebp, esp
	push	ecx
	mov	DWORD PTR [ebp-4], -858993460		; ccccccccH
	mov	DWORD PTR _this$[ebp], ecx

; 1115 : #if _HAS_CXX20
; 1116 :         if (_STD is_constant_evaluated()) {
; 1117 :             _Orphan_me_unlocked_v3();
; 1118 :         } else
; 1119 : #endif // _HAS_CXX20
; 1120 :         {
; 1121 :             _Orphan_me_locked_v3();

	mov	ecx, DWORD PTR _this$[ebp]
	call	?_Orphan_me_locked_v3@_Iterator_base12@std@@AAEXXZ ; std::_Iterator_base12::_Orphan_me_locked_v3

; 1122 :         }
; 1123 :     }

	add	esp, 4
	cmp	ebp, esp
	call	__RTC_CheckEsp
	mov	esp, ebp
	pop	ebp
	ret	0
??1_Iterator_base12@std@@QAE@XZ ENDP			; std::_Iterator_base12::~_Iterator_base12
_TEXT	ENDS
; Function compile flags: /Odtp /RTCsu
; File C:\Program Files\Microsoft Visual Studio\2022\Community\VC\Tools\MSVC\14.32.31326\include\xmemory
;	COMDAT ??0_Iterator_base12@std@@QAE@XZ
_TEXT	SEGMENT
_this$ = -4						; size = 4
??0_Iterator_base12@std@@QAE@XZ PROC			; std::_Iterator_base12::_Iterator_base12, COMDAT
; _this$ = ecx

; 1091 :     _CONSTEXPR20 _Iterator_base12() noexcept = default; // construct orphaned iterator

	push	ebp
	mov	ebp, esp
	push	ecx
	mov	DWORD PTR _this$[ebp], ecx

; 1092 : 
; 1093 :     _CONSTEXPR20 _Iterator_base12(const _Iterator_base12& _Right) noexcept {
; 1094 :         *this = _Right;
; 1095 :     }
; 1096 : 
; 1097 :     _CONSTEXPR20 _Iterator_base12& operator=(const _Iterator_base12& _Right) noexcept {
; 1098 : #if _ITERATOR_DEBUG_LEVEL == 2
; 1099 : #if _HAS_CXX20
; 1100 :         if (_STD is_constant_evaluated()) {
; 1101 :             _Assign_unlocked(_Right);
; 1102 :         } else
; 1103 : #endif // _HAS_CXX20
; 1104 :         {
; 1105 :             _Assign_locked(_Right);
; 1106 :         }
; 1107 : #else // ^^^ _ITERATOR_DEBUG_LEVEL == 2 ^^^ / vvv _ITERATOR_DEBUG_LEVEL != 2 vvv
; 1108 :         _Myproxy = _Right._Myproxy;
; 1109 : #endif // _ITERATOR_DEBUG_LEVEL != 2
; 1110 :         return *this;
; 1111 :     }
; 1112 : 
; 1113 : #if _ITERATOR_DEBUG_LEVEL == 2
; 1114 :     _CONSTEXPR20 ~_Iterator_base12() noexcept {
; 1115 : #if _HAS_CXX20
; 1116 :         if (_STD is_constant_evaluated()) {
; 1117 :             _Orphan_me_unlocked_v3();
; 1118 :         } else
; 1119 : #endif // _HAS_CXX20
; 1120 :         {
; 1121 :             _Orphan_me_locked_v3();
; 1122 :         }
; 1123 :     }
; 1124 : 
; 1125 :     _CONSTEXPR20 void _Adopt(const _Container_base12* _Parent) noexcept {
; 1126 : #if _HAS_CXX20
; 1127 :         if (_STD is_constant_evaluated()) {
; 1128 :             _Adopt_unlocked(_Parent);
; 1129 :         } else
; 1130 : #endif // _HAS_CXX20
; 1131 :         {
; 1132 :             _Adopt_locked(_Parent);
; 1133 :         }
; 1134 :     }
; 1135 : #else // ^^^ _ITERATOR_DEBUG_LEVEL == 2 ^^^ / vvv _ITERATOR_DEBUG_LEVEL != 2 vvv
; 1136 :     _CONSTEXPR20 void _Adopt(const _Container_base12* _Parent) noexcept {
; 1137 :         if (_Parent) { // have a parent, do adoption
; 1138 :             _Myproxy = _Parent->_Myproxy;
; 1139 :         } else { // no future parent, just disown current parent
; 1140 :             _Myproxy = nullptr;
; 1141 :         }
; 1142 :     }
; 1143 : #endif // _ITERATOR_DEBUG_LEVEL != 2
; 1144 : 
; 1145 :     _CONSTEXPR20 const _Container_base12* _Getcont() const noexcept {
; 1146 :         return _Myproxy ? _Myproxy->_Mycont : nullptr;
; 1147 :     }
; 1148 : 
; 1149 :     static constexpr bool _Unwrap_when_unverified = _ITERATOR_DEBUG_LEVEL == 0;
; 1150 : 
; 1151 :     mutable _Container_proxy* _Myproxy    = nullptr;

	mov	eax, DWORD PTR _this$[ebp]
	mov	DWORD PTR [eax], 0

; 1152 :     mutable _Iterator_base12* _Mynextiter = nullptr;

	mov	ecx, DWORD PTR _this$[ebp]
	mov	DWORD PTR [ecx+4], 0

; 1091 :     _CONSTEXPR20 _Iterator_base12() noexcept = default; // construct orphaned iterator

	mov	eax, DWORD PTR _this$[ebp]
	mov	esp, ebp
	pop	ebp
	ret	0
??0_Iterator_base12@std@@QAE@XZ ENDP			; std::_Iterator_base12::_Iterator_base12
_TEXT	ENDS
; Function compile flags: /Odtp /RTCsu
; File C:\Program Files\Microsoft Visual Studio\2022\Community\VC\Tools\MSVC\14.32.31326\include\xmemory
;	COMDAT ?_Orphan_all_locked_v3@_Container_base12@std@@AAEXXZ
_TEXT	SEGMENT
__Lock$ = -12						; size = 4
_this$ = -4						; size = 4
?_Orphan_all_locked_v3@_Container_base12@std@@AAEXXZ PROC ; std::_Container_base12::_Orphan_all_locked_v3, COMDAT
; _this$ = ecx

; 1078 :     void _Orphan_all_locked_v3() noexcept {

	push	ebp
	mov	ebp, esp
	sub	esp, 16					; 00000010H
	mov	eax, -858993460				; ccccccccH
	mov	DWORD PTR [ebp-16], eax
	mov	DWORD PTR [ebp-12], eax
	mov	DWORD PTR [ebp-8], eax
	mov	DWORD PTR [ebp-4], eax
	mov	DWORD PTR _this$[ebp], ecx

; 1079 :         _Lockit _Lock(_LOCK_DEBUG);

	push	3
	lea	ecx, DWORD PTR __Lock$[ebp]
	call	??0_Lockit@std@@QAE@H@Z			; std::_Lockit::_Lockit

; 1080 :         _Orphan_all_unlocked_v3();

	mov	ecx, DWORD PTR _this$[ebp]
	call	?_Orphan_all_unlocked_v3@_Container_base12@std@@AAEXXZ ; std::_Container_base12::_Orphan_all_unlocked_v3

; 1081 :     }

	lea	ecx, DWORD PTR __Lock$[ebp]
	call	??1_Lockit@std@@QAE@XZ			; std::_Lockit::~_Lockit
	push	edx
	mov	ecx, ebp
	push	eax
	lea	edx, DWORD PTR $LN5@Orphan_all
	call	@_RTC_CheckStackVars@8
	pop	eax
	pop	edx
	add	esp, 16					; 00000010H
	cmp	ebp, esp
	call	__RTC_CheckEsp
	mov	esp, ebp
	pop	ebp
	ret	0
	npad	1
$LN5@Orphan_all:
	DD	1
	DD	$LN4@Orphan_all
$LN4@Orphan_all:
	DD	-12					; fffffff4H
	DD	4
	DD	$LN3@Orphan_all
$LN3@Orphan_all:
	DB	95					; 0000005fH
	DB	76					; 0000004cH
	DB	111					; 0000006fH
	DB	99					; 00000063H
	DB	107					; 0000006bH
	DB	0
?_Orphan_all_locked_v3@_Container_base12@std@@AAEXXZ ENDP ; std::_Container_base12::_Orphan_all_locked_v3
_TEXT	ENDS
; Function compile flags: /Odtp /RTCsu
; File C:\Program Files\Microsoft Visual Studio\2022\Community\VC\Tools\MSVC\14.32.31326\include\xmemory
;	COMDAT ?_Orphan_all_unlocked_v3@_Container_base12@std@@AAEXXZ
_TEXT	SEGMENT
__Pnext$1 = -8						; size = 4
_this$ = -4						; size = 4
?_Orphan_all_unlocked_v3@_Container_base12@std@@AAEXXZ PROC ; std::_Container_base12::_Orphan_all_unlocked_v3, COMDAT
; _this$ = ecx

; 1219 : _CONSTEXPR20 void _Container_base12::_Orphan_all_unlocked_v3() noexcept {

	push	ebp
	mov	ebp, esp
	sub	esp, 8
	mov	DWORD PTR _this$[ebp], ecx

; 1220 :     if (!_Myproxy) { // no proxy, already done

	mov	eax, DWORD PTR _this$[ebp]
	cmp	DWORD PTR [eax], 0
	jne	SHORT $LN5@Orphan_all

; 1221 :         return;

	jmp	SHORT $LN6@Orphan_all
$LN5@Orphan_all:

; 1222 :     }
; 1223 : 
; 1224 :     // proxy allocated, drain it
; 1225 :     for (auto& _Pnext = _Myproxy->_Myfirstiter; _Pnext; _Pnext = _Pnext->_Mynextiter) { // TRANSITION, VSO-1269037

	mov	ecx, DWORD PTR _this$[ebp]
	mov	edx, DWORD PTR [ecx]
	add	edx, 4
	mov	DWORD PTR __Pnext$1[ebp], edx
	jmp	SHORT $LN4@Orphan_all
$LN2@Orphan_all:
	mov	eax, DWORD PTR __Pnext$1[ebp]
	mov	ecx, DWORD PTR [eax]
	mov	edx, DWORD PTR __Pnext$1[ebp]
	mov	eax, DWORD PTR [ecx+4]
	mov	DWORD PTR [edx], eax
$LN4@Orphan_all:
	mov	ecx, DWORD PTR __Pnext$1[ebp]
	cmp	DWORD PTR [ecx], 0
	je	SHORT $LN3@Orphan_all

; 1226 :         _Pnext->_Myproxy = nullptr;

	mov	edx, DWORD PTR __Pnext$1[ebp]
	mov	eax, DWORD PTR [edx]
	mov	DWORD PTR [eax], 0

; 1227 :     }

	jmp	SHORT $LN2@Orphan_all
$LN3@Orphan_all:

; 1228 :     _Myproxy->_Myfirstiter = nullptr;

	mov	ecx, DWORD PTR _this$[ebp]
	mov	edx, DWORD PTR [ecx]
	mov	DWORD PTR [edx+4], 0
$LN6@Orphan_all:

; 1229 : }

	mov	esp, ebp
	pop	ebp
	ret	0
?_Orphan_all_unlocked_v3@_Container_base12@std@@AAEXXZ ENDP ; std::_Container_base12::_Orphan_all_unlocked_v3
_TEXT	ENDS
; Function compile flags: /Odtp /RTCsu
; File C:\Program Files\Microsoft Visual Studio\2022\Community\VC\Tools\MSVC\14.32.31326\include\xmemory
;	COMDAT ?_Orphan_all@_Container_base12@std@@QAEXXZ
_TEXT	SEGMENT
_this$ = -4						; size = 4
?_Orphan_all@_Container_base12@std@@QAEXXZ PROC		; std::_Container_base12::_Orphan_all, COMDAT
; _this$ = ecx

; 1231 : _CONSTEXPR20 void _Container_base12::_Orphan_all() noexcept {

	push	ebp
	mov	ebp, esp
	push	ecx
	mov	DWORD PTR [ebp-4], -858993460		; ccccccccH
	mov	DWORD PTR _this$[ebp], ecx

; 1232 : #if _ITERATOR_DEBUG_LEVEL == 2
; 1233 : #if _HAS_CXX20
; 1234 :     if (_STD is_constant_evaluated()) {
; 1235 :         _Orphan_all_unlocked_v3();
; 1236 :     } else
; 1237 : #endif // _HAS_CXX20
; 1238 :     {
; 1239 :         _Orphan_all_locked_v3();

	mov	ecx, DWORD PTR _this$[ebp]
	call	?_Orphan_all_locked_v3@_Container_base12@std@@AAEXXZ ; std::_Container_base12::_Orphan_all_locked_v3

; 1240 :     }
; 1241 : #endif // _ITERATOR_DEBUG_LEVEL == 2
; 1242 : }

	add	esp, 4
	cmp	ebp, esp
	call	__RTC_CheckEsp
	mov	esp, ebp
	pop	ebp
	ret	0
?_Orphan_all@_Container_base12@std@@QAEXXZ ENDP		; std::_Container_base12::_Orphan_all
_TEXT	ENDS
; Function compile flags: /Odtp /RTCsu
; File C:\Program Files\Microsoft Visual Studio\2022\Community\VC\Tools\MSVC\14.32.31326\include\xmemory
;	COMDAT ??0_Container_base12@std@@QAE@XZ
_TEXT	SEGMENT
_this$ = -4						; size = 4
??0_Container_base12@std@@QAE@XZ PROC			; std::_Container_base12::_Container_base12, COMDAT
; _this$ = ecx

; 1047 :     _CONSTEXPR20 _Container_base12() noexcept = default;

	push	ebp
	mov	ebp, esp
	push	ecx
	mov	DWORD PTR _this$[ebp], ecx

; 1048 : 
; 1049 :     _Container_base12(const _Container_base12&) = delete;
; 1050 :     _Container_base12& operator=(const _Container_base12&) = delete;
; 1051 : 
; 1052 :     _CONSTEXPR20 void _Orphan_all() noexcept;
; 1053 :     _CONSTEXPR20 void _Swap_proxy_and_iterators(_Container_base12&) noexcept;
; 1054 : 
; 1055 :     template <class _Alloc>
; 1056 :     _CONSTEXPR20 void _Alloc_proxy(_Alloc&& _Al) {
; 1057 :         _Container_proxy* const _New_proxy = _Unfancy(_Al.allocate(1));
; 1058 :         _Construct_in_place(*_New_proxy, this);
; 1059 :         _Myproxy            = _New_proxy;
; 1060 :         _New_proxy->_Mycont = this;
; 1061 :     }
; 1062 : 
; 1063 :     template <class _Alloc>
; 1064 :     _CONSTEXPR20 void _Reload_proxy(_Alloc&& _Old_alloc, _Alloc&& _New_alloc) {
; 1065 :         // pre: no iterators refer to the existing proxy
; 1066 :         _Container_proxy* const _New_proxy = _Unfancy(_New_alloc.allocate(1));
; 1067 :         _Construct_in_place(*_New_proxy, this);
; 1068 :         _New_proxy->_Mycont = this;
; 1069 :         _Delete_plain_internal(_Old_alloc, _STD exchange(_Myproxy, _New_proxy));
; 1070 :     }
; 1071 : 
; 1072 :     _Container_proxy* _Myproxy = nullptr;

	mov	eax, DWORD PTR _this$[ebp]
	mov	DWORD PTR [eax], 0

; 1047 :     _CONSTEXPR20 _Container_base12() noexcept = default;

	mov	eax, DWORD PTR _this$[ebp]
	mov	esp, ebp
	pop	ebp
	ret	0
??0_Container_base12@std@@QAE@XZ ENDP			; std::_Container_base12::_Container_base12
_TEXT	ENDS
; Function compile flags: /Odtp /RTCsu
; File C:\Program Files\Microsoft Visual Studio\2022\Community\VC\Tools\MSVC\14.32.31326\include\xmemory
;	COMDAT ??0_Container_proxy@std@@QAE@PAU_Container_base12@1@@Z
_TEXT	SEGMENT
_this$ = -4						; size = 4
__Mycont_$ = 8						; size = 4
??0_Container_proxy@std@@QAE@PAU_Container_base12@1@@Z PROC ; std::_Container_proxy::_Container_proxy, COMDAT
; _this$ = ecx

; 1039 :     _CONSTEXPR20 _Container_proxy(_Container_base12* _Mycont_) noexcept : _Mycont(_Mycont_) {}

	push	ebp
	mov	ebp, esp
	push	ecx
	mov	DWORD PTR _this$[ebp], ecx
	mov	eax, DWORD PTR _this$[ebp]
	mov	ecx, DWORD PTR __Mycont_$[ebp]
	mov	DWORD PTR [eax], ecx

; 1040 : 
; 1041 :     const _Container_base12* _Mycont       = nullptr;
; 1042 :     mutable _Iterator_base12* _Myfirstiter = nullptr;

	mov	edx, DWORD PTR _this$[ebp]
	mov	DWORD PTR [edx+4], 0

; 1039 :     _CONSTEXPR20 _Container_proxy(_Container_base12* _Mycont_) noexcept : _Mycont(_Mycont_) {}

	mov	eax, DWORD PTR _this$[ebp]
	mov	esp, ebp
	pop	ebp
	ret	4
??0_Container_proxy@std@@QAE@PAU_Container_base12@1@@Z ENDP ; std::_Container_proxy::_Container_proxy
_TEXT	ENDS
; Function compile flags: /Odtp /RTCsu
; File C:\Program Files\Microsoft Visual Studio\2022\Community\VC\Tools\MSVC\14.32.31326\include\xmemory
;	COMDAT ?_Adjust_manually_vector_aligned@std@@YAXAAPAXAAI@Z
_TEXT	SEGMENT
__Back_shift$ = -16					; size = 4
__Min_back_shift$ = -12					; size = 4
__Ptr_container$ = -8					; size = 4
__Ptr_user$ = -4					; size = 4
__Ptr$ = 8						; size = 4
__Bytes$ = 12						; size = 4
?_Adjust_manually_vector_aligned@std@@YAXAAPAXAAI@Z PROC ; std::_Adjust_manually_vector_aligned, COMDAT

; 145  : inline void _Adjust_manually_vector_aligned(void*& _Ptr, size_t& _Bytes) {

	push	ebp
	mov	ebp, esp
	sub	esp, 16					; 00000010H
	mov	eax, -858993460				; ccccccccH
	mov	DWORD PTR [ebp-16], eax
	mov	DWORD PTR [ebp-12], eax
	mov	DWORD PTR [ebp-8], eax
	mov	DWORD PTR [ebp-4], eax

; 146  :     // adjust parameters from _Allocate_manually_vector_aligned to pass to operator delete
; 147  :     _Bytes += _Non_user_size;

	mov	eax, DWORD PTR __Bytes$[ebp]
	mov	ecx, DWORD PTR [eax]
	add	ecx, 39					; 00000027H
	mov	edx, DWORD PTR __Bytes$[ebp]
	mov	DWORD PTR [edx], ecx

; 148  : 
; 149  :     const uintptr_t* const _Ptr_user = static_cast<uintptr_t*>(_Ptr);

	mov	eax, DWORD PTR __Ptr$[ebp]
	mov	ecx, DWORD PTR [eax]
	mov	DWORD PTR __Ptr_user$[ebp], ecx

; 150  :     const uintptr_t _Ptr_container   = _Ptr_user[-1];

	mov	edx, 4
	imul	eax, edx, -1
	mov	ecx, DWORD PTR __Ptr_user$[ebp]
	mov	edx, DWORD PTR [ecx+eax]
	mov	DWORD PTR __Ptr_container$[ebp], edx
$LN4@Adjust_man:

; 151  : 
; 152  :     // If the following asserts, it likely means that we are performing
; 153  :     // an aligned delete on memory coming from an unaligned allocation.
; 154  :     _STL_ASSERT(_Ptr_user[-2] == _Big_allocation_sentinel, "invalid argument");

	mov	eax, 4
	imul	ecx, eax, -2
	mov	edx, DWORD PTR __Ptr_user$[ebp]
	cmp	DWORD PTR [edx+ecx], -84215046		; fafafafaH
	jne	SHORT $LN7@Adjust_man
	jmp	SHORT $LN2@Adjust_man
$LN7@Adjust_man:
	push	OFFSET ??_C@_0BB@FCMFBGOM@invalid?5argument@
	push	OFFSET ??_C@_02DKCKIIND@?$CFs@
	push	0
	push	154					; 0000009aH
	push	OFFSET ??_C@_0GC@DJFHHHKN@C?3?2Program?5Files?2Microsoft?5Visu@
	push	2
	call	__CrtDbgReport
	add	esp, 24					; 00000018H
	cmp	eax, 1
	jne	SHORT $LN19@Adjust_man
	int	3
$LN19@Adjust_man:
	push	0
	push	154					; 0000009aH
	push	OFFSET ??_C@_1ME@GEFGDEOM@?$AAC?$AA?3?$AA?2?$AAP?$AAr?$AAo?$AAg?$AAr?$AAa?$AAm?$AA?5?$AAF?$AAi?$AAl?$AAe@
	push	OFFSET ??_C@_11LOCGONAA@@
	push	OFFSET ??_C@_1CG@JNLFBNGN@?$AA?$CC?$AAi?$AAn?$AAv?$AAa?$AAl?$AAi?$AAd?$AA?5?$AAa?$AAr?$AAg?$AAu?$AAm?$AAe@
	call	__invalid_parameter
	add	esp, 20					; 00000014H
	xor	ecx, ecx
	jne	SHORT $LN7@Adjust_man
$LN2@Adjust_man:
	xor	edx, edx
	jne	SHORT $LN4@Adjust_man

; 155  : 
; 156  :     // Extra paranoia on aligned allocation/deallocation; ensure _Ptr_container is
; 157  :     // in range [_Min_back_shift, _Non_user_size]
; 158  : #ifdef _DEBUG
; 159  :     constexpr uintptr_t _Min_back_shift = 2 * sizeof(void*);

	mov	DWORD PTR __Min_back_shift$[ebp], 8

; 160  : #else // ^^^ _DEBUG ^^^ // vvv !_DEBUG vvv
; 161  :     constexpr uintptr_t _Min_back_shift = sizeof(void*);
; 162  : #endif // _DEBUG
; 163  :     const uintptr_t _Back_shift = reinterpret_cast<uintptr_t>(_Ptr) - _Ptr_container;

	mov	eax, DWORD PTR __Ptr$[ebp]
	mov	ecx, DWORD PTR [eax]
	sub	ecx, DWORD PTR __Ptr_container$[ebp]
	mov	DWORD PTR __Back_shift$[ebp], ecx
$LN10@Adjust_man:

; 164  :     _STL_VERIFY(_Back_shift >= _Min_back_shift && _Back_shift <= _Non_user_size, "invalid argument");

	cmp	DWORD PTR __Back_shift$[ebp], 8
	jb	SHORT $LN13@Adjust_man
	cmp	DWORD PTR __Back_shift$[ebp], 39	; 00000027H
	ja	SHORT $LN13@Adjust_man
	jmp	SHORT $LN8@Adjust_man
$LN13@Adjust_man:
	push	OFFSET ??_C@_0BB@FCMFBGOM@invalid?5argument@
	push	OFFSET ??_C@_02DKCKIIND@?$CFs@
	push	0
	push	164					; 000000a4H
	push	OFFSET ??_C@_0GC@DJFHHHKN@C?3?2Program?5Files?2Microsoft?5Visu@
	push	2
	call	__CrtDbgReport
	add	esp, 24					; 00000018H
	cmp	eax, 1
	jne	SHORT $LN20@Adjust_man
	int	3
$LN20@Adjust_man:
	push	0
	push	164					; 000000a4H
	push	OFFSET ??_C@_1ME@GEFGDEOM@?$AAC?$AA?3?$AA?2?$AAP?$AAr?$AAo?$AAg?$AAr?$AAa?$AAm?$AA?5?$AAF?$AAi?$AAl?$AAe@
	push	OFFSET ??_C@_11LOCGONAA@@
	push	OFFSET ??_C@_1CG@JNLFBNGN@?$AA?$CC?$AAi?$AAn?$AAv?$AAa?$AAl?$AAi?$AAd?$AA?5?$AAa?$AAr?$AAg?$AAu?$AAm?$AAe@
	call	__invalid_parameter
	add	esp, 20					; 00000014H
	xor	eax, eax
	jne	SHORT $LN13@Adjust_man
$LN8@Adjust_man:
	xor	ecx, ecx
	jne	SHORT $LN10@Adjust_man

; 165  :     _Ptr = reinterpret_cast<void*>(_Ptr_container);

	mov	edx, DWORD PTR __Ptr$[ebp]
	mov	eax, DWORD PTR __Ptr_container$[ebp]
	mov	DWORD PTR [edx], eax

; 166  : }

	add	esp, 16					; 00000010H
	cmp	ebp, esp
	call	__RTC_CheckEsp
	mov	esp, ebp
	pop	ebp
	ret	0
?_Adjust_manually_vector_aligned@std@@YAXAAPAXAAI@Z ENDP ; std::_Adjust_manually_vector_aligned
_TEXT	ENDS
; Function compile flags: /Odtp /RTCsu
; File C:\Program Files\Microsoft Visual Studio\2022\Community\VC\Tools\MSVC\14.32.31326\include\xmemory
;	COMDAT ?_Allocate@_Default_allocate_traits@std@@SAPAXI@Z
_TEXT	SEGMENT
__Bytes$ = 8						; size = 4
?_Allocate@_Default_allocate_traits@std@@SAPAXI@Z PROC	; std::_Default_allocate_traits::_Allocate, COMDAT

; 78   :         void* _Allocate(const size_t _Bytes) {

	push	ebp
	mov	ebp, esp

; 79   :         return ::operator new(_Bytes);

	mov	eax, DWORD PTR __Bytes$[ebp]
	push	eax
	call	??2@YAPAXI@Z				; operator new
	add	esp, 4

; 80   :     }

	cmp	ebp, esp
	call	__RTC_CheckEsp
	pop	ebp
	ret	0
?_Allocate@_Default_allocate_traits@std@@SAPAXI@Z ENDP	; std::_Default_allocate_traits::_Allocate
_TEXT	ENDS
; Function compile flags: /Odtp /RTCsu
; File C:\Program Files\Microsoft Visual Studio\2022\Community\VC\Tools\MSVC\14.32.31326\include\exception
;	COMDAT ?_Throw_bad_array_new_length@std@@YAXXZ
_TEXT	SEGMENT
$T1 = -12						; size = 12
?_Throw_bad_array_new_length@std@@YAXXZ PROC		; std::_Throw_bad_array_new_length, COMDAT

; 317  : [[noreturn]] inline void _Throw_bad_array_new_length() {

	push	ebp
	mov	ebp, esp
	sub	esp, 12					; 0000000cH
	mov	DWORD PTR [ebp-12], -858993460		; ccccccccH
	mov	DWORD PTR [ebp-8], -858993460		; ccccccccH
	mov	DWORD PTR [ebp-4], -858993460		; ccccccccH

; 318  :     _THROW(bad_array_new_length{});

	lea	ecx, DWORD PTR $T1[ebp]
	call	??0bad_array_new_length@std@@QAE@XZ	; std::bad_array_new_length::bad_array_new_length
	push	OFFSET __TI3?AVbad_array_new_length@std@@
	lea	eax, DWORD PTR $T1[ebp]
	push	eax
	call	__CxxThrowException@8
$LN2@Throw_bad_:

; 319  : }

	add	esp, 12					; 0000000cH
	cmp	ebp, esp
	call	__RTC_CheckEsp
	mov	esp, ebp
	pop	ebp
	ret	0
?_Throw_bad_array_new_length@std@@YAXXZ ENDP		; std::_Throw_bad_array_new_length
_TEXT	ENDS
; Function compile flags: /Odtp /RTCsu
;	COMDAT ??_Gbad_array_new_length@std@@UAEPAXI@Z
_TEXT	SEGMENT
_this$ = -4						; size = 4
___flags$ = 8						; size = 4
??_Gbad_array_new_length@std@@UAEPAXI@Z PROC		; std::bad_array_new_length::`scalar deleting destructor', COMDAT
; _this$ = ecx
	push	ebp
	mov	ebp, esp
	push	ecx
	mov	DWORD PTR [ebp-4], -858993460		; ccccccccH
	mov	DWORD PTR _this$[ebp], ecx
	mov	ecx, DWORD PTR _this$[ebp]
	call	??1bad_array_new_length@std@@UAE@XZ
	mov	eax, DWORD PTR ___flags$[ebp]
	and	eax, 1
	je	SHORT $LN2@scalar
	push	12					; 0000000cH
	mov	ecx, DWORD PTR _this$[ebp]
	push	ecx
	call	??3@YAXPAXI@Z				; operator delete
	add	esp, 8
$LN2@scalar:
	mov	eax, DWORD PTR _this$[ebp]
	add	esp, 4
	cmp	ebp, esp
	call	__RTC_CheckEsp
	mov	esp, ebp
	pop	ebp
	ret	4
??_Gbad_array_new_length@std@@UAEPAXI@Z ENDP		; std::bad_array_new_length::`scalar deleting destructor'
_TEXT	ENDS
; Function compile flags: /Odtp /RTCsu
;	COMDAT ??0bad_array_new_length@std@@QAE@ABV01@@Z
_TEXT	SEGMENT
_this$ = -4						; size = 4
___that$ = 8						; size = 4
??0bad_array_new_length@std@@QAE@ABV01@@Z PROC		; std::bad_array_new_length::bad_array_new_length, COMDAT
; _this$ = ecx
	push	ebp
	mov	ebp, esp
	push	ecx
	mov	DWORD PTR [ebp-4], -858993460		; ccccccccH
	mov	DWORD PTR _this$[ebp], ecx
	mov	eax, DWORD PTR ___that$[ebp]
	push	eax
	mov	ecx, DWORD PTR _this$[ebp]
	call	??0bad_alloc@std@@QAE@ABV01@@Z
	mov	ecx, DWORD PTR _this$[ebp]
	mov	DWORD PTR [ecx], OFFSET ??_7bad_array_new_length@std@@6B@
	mov	eax, DWORD PTR _this$[ebp]
	add	esp, 4
	cmp	ebp, esp
	call	__RTC_CheckEsp
	mov	esp, ebp
	pop	ebp
	ret	4
??0bad_array_new_length@std@@QAE@ABV01@@Z ENDP		; std::bad_array_new_length::bad_array_new_length
_TEXT	ENDS
; Function compile flags: /Odtp /RTCsu
;	COMDAT ??1bad_array_new_length@std@@UAE@XZ
_TEXT	SEGMENT
_this$ = -4						; size = 4
??1bad_array_new_length@std@@UAE@XZ PROC		; std::bad_array_new_length::~bad_array_new_length, COMDAT
; _this$ = ecx
	push	ebp
	mov	ebp, esp
	push	ecx
	mov	DWORD PTR [ebp-4], -858993460		; ccccccccH
	mov	DWORD PTR _this$[ebp], ecx
	mov	ecx, DWORD PTR _this$[ebp]
	call	??1bad_alloc@std@@UAE@XZ
	add	esp, 4
	cmp	ebp, esp
	call	__RTC_CheckEsp
	mov	esp, ebp
	pop	ebp
	ret	0
??1bad_array_new_length@std@@UAE@XZ ENDP		; std::bad_array_new_length::~bad_array_new_length
_TEXT	ENDS
; Function compile flags: /Odtp /RTCsu
; File C:\Program Files\Microsoft Visual Studio\2022\Community\VC\Tools\MSVC\14.32.31326\include\vcruntime_exception.h
;	COMDAT ??0bad_array_new_length@std@@QAE@XZ
_TEXT	SEGMENT
_this$ = -4						; size = 4
??0bad_array_new_length@std@@QAE@XZ PROC		; std::bad_array_new_length::bad_array_new_length, COMDAT
; _this$ = ecx

; 141  :     {

	push	ebp
	mov	ebp, esp
	push	ecx
	mov	DWORD PTR [ebp-4], -858993460		; ccccccccH
	mov	DWORD PTR _this$[ebp], ecx

; 140  :         : bad_alloc("bad array new length")

	push	OFFSET ??_C@_0BF@KINCDENJ@bad?5array?5new?5length@
	mov	ecx, DWORD PTR _this$[ebp]
	call	??0bad_alloc@std@@AAE@QBD@Z		; std::bad_alloc::bad_alloc

; 141  :     {

	mov	eax, DWORD PTR _this$[ebp]
	mov	DWORD PTR [eax], OFFSET ??_7bad_array_new_length@std@@6B@

; 142  :     }

	mov	eax, DWORD PTR _this$[ebp]
	add	esp, 4
	cmp	ebp, esp
	call	__RTC_CheckEsp
	mov	esp, ebp
	pop	ebp
	ret	0
??0bad_array_new_length@std@@QAE@XZ ENDP		; std::bad_array_new_length::bad_array_new_length
_TEXT	ENDS
; Function compile flags: /Odtp /RTCsu
;	COMDAT ??_Gbad_alloc@std@@UAEPAXI@Z
_TEXT	SEGMENT
_this$ = -4						; size = 4
___flags$ = 8						; size = 4
??_Gbad_alloc@std@@UAEPAXI@Z PROC			; std::bad_alloc::`scalar deleting destructor', COMDAT
; _this$ = ecx
	push	ebp
	mov	ebp, esp
	push	ecx
	mov	DWORD PTR [ebp-4], -858993460		; ccccccccH
	mov	DWORD PTR _this$[ebp], ecx
	mov	ecx, DWORD PTR _this$[ebp]
	call	??1bad_alloc@std@@UAE@XZ
	mov	eax, DWORD PTR ___flags$[ebp]
	and	eax, 1
	je	SHORT $LN2@scalar
	push	12					; 0000000cH
	mov	ecx, DWORD PTR _this$[ebp]
	push	ecx
	call	??3@YAXPAXI@Z				; operator delete
	add	esp, 8
$LN2@scalar:
	mov	eax, DWORD PTR _this$[ebp]
	add	esp, 4
	cmp	ebp, esp
	call	__RTC_CheckEsp
	mov	esp, ebp
	pop	ebp
	ret	4
??_Gbad_alloc@std@@UAEPAXI@Z ENDP			; std::bad_alloc::`scalar deleting destructor'
_TEXT	ENDS
; Function compile flags: /Odtp /RTCsu
;	COMDAT ??0bad_alloc@std@@QAE@ABV01@@Z
_TEXT	SEGMENT
_this$ = -4						; size = 4
___that$ = 8						; size = 4
??0bad_alloc@std@@QAE@ABV01@@Z PROC			; std::bad_alloc::bad_alloc, COMDAT
; _this$ = ecx
	push	ebp
	mov	ebp, esp
	push	ecx
	mov	DWORD PTR [ebp-4], -858993460		; ccccccccH
	mov	DWORD PTR _this$[ebp], ecx
	mov	eax, DWORD PTR ___that$[ebp]
	push	eax
	mov	ecx, DWORD PTR _this$[ebp]
	call	??0exception@std@@QAE@ABV01@@Z		; std::exception::exception
	mov	ecx, DWORD PTR _this$[ebp]
	mov	DWORD PTR [ecx], OFFSET ??_7bad_alloc@std@@6B@
	mov	eax, DWORD PTR _this$[ebp]
	add	esp, 4
	cmp	ebp, esp
	call	__RTC_CheckEsp
	mov	esp, ebp
	pop	ebp
	ret	4
??0bad_alloc@std@@QAE@ABV01@@Z ENDP			; std::bad_alloc::bad_alloc
_TEXT	ENDS
; Function compile flags: /Odtp /RTCsu
;	COMDAT ??1bad_alloc@std@@UAE@XZ
_TEXT	SEGMENT
_this$ = -4						; size = 4
??1bad_alloc@std@@UAE@XZ PROC				; std::bad_alloc::~bad_alloc, COMDAT
; _this$ = ecx
	push	ebp
	mov	ebp, esp
	push	ecx
	mov	DWORD PTR [ebp-4], -858993460		; ccccccccH
	mov	DWORD PTR _this$[ebp], ecx
	mov	ecx, DWORD PTR _this$[ebp]
	call	??1exception@std@@UAE@XZ		; std::exception::~exception
	add	esp, 4
	cmp	ebp, esp
	call	__RTC_CheckEsp
	mov	esp, ebp
	pop	ebp
	ret	0
??1bad_alloc@std@@UAE@XZ ENDP				; std::bad_alloc::~bad_alloc
_TEXT	ENDS
; Function compile flags: /Odtp /RTCsu
; File C:\Program Files\Microsoft Visual Studio\2022\Community\VC\Tools\MSVC\14.32.31326\include\vcruntime_exception.h
;	COMDAT ??0bad_alloc@std@@AAE@QBD@Z
_TEXT	SEGMENT
_this$ = -4						; size = 4
__Message$ = 8						; size = 4
??0bad_alloc@std@@AAE@QBD@Z PROC			; std::bad_alloc::bad_alloc, COMDAT
; _this$ = ecx

; 130  :     {

	push	ebp
	mov	ebp, esp
	push	ecx
	mov	DWORD PTR [ebp-4], -858993460		; ccccccccH
	mov	DWORD PTR _this$[ebp], ecx

; 129  :         : exception(_Message, 1)

	push	1
	mov	eax, DWORD PTR __Message$[ebp]
	push	eax
	mov	ecx, DWORD PTR _this$[ebp]
	call	??0exception@std@@QAE@QBDH@Z		; std::exception::exception

; 130  :     {

	mov	ecx, DWORD PTR _this$[ebp]
	mov	DWORD PTR [ecx], OFFSET ??_7bad_alloc@std@@6B@

; 131  :     }

	mov	eax, DWORD PTR _this$[ebp]
	add	esp, 4
	cmp	ebp, esp
	call	__RTC_CheckEsp
	mov	esp, ebp
	pop	ebp
	ret	4
??0bad_alloc@std@@AAE@QBD@Z ENDP			; std::bad_alloc::bad_alloc
_TEXT	ENDS
; Function compile flags: /Odtp /RTCsu
;	COMDAT ??_Gexception@std@@UAEPAXI@Z
_TEXT	SEGMENT
_this$ = -4						; size = 4
___flags$ = 8						; size = 4
??_Gexception@std@@UAEPAXI@Z PROC			; std::exception::`scalar deleting destructor', COMDAT
; _this$ = ecx
	push	ebp
	mov	ebp, esp
	push	ecx
	mov	DWORD PTR [ebp-4], -858993460		; ccccccccH
	mov	DWORD PTR _this$[ebp], ecx
	mov	ecx, DWORD PTR _this$[ebp]
	call	??1exception@std@@UAE@XZ		; std::exception::~exception
	mov	eax, DWORD PTR ___flags$[ebp]
	and	eax, 1
	je	SHORT $LN2@scalar
	push	12					; 0000000cH
	mov	ecx, DWORD PTR _this$[ebp]
	push	ecx
	call	??3@YAXPAXI@Z				; operator delete
	add	esp, 8
$LN2@scalar:
	mov	eax, DWORD PTR _this$[ebp]
	add	esp, 4
	cmp	ebp, esp
	call	__RTC_CheckEsp
	mov	esp, ebp
	pop	ebp
	ret	4
??_Gexception@std@@UAEPAXI@Z ENDP			; std::exception::`scalar deleting destructor'
_TEXT	ENDS
; Function compile flags: /Odtp /RTCsu
; File C:\Program Files\Microsoft Visual Studio\2022\Community\VC\Tools\MSVC\14.32.31326\include\vcruntime_exception.h
;	COMDAT ?what@exception@std@@UBEPBDXZ
_TEXT	SEGMENT
tv69 = -8						; size = 4
_this$ = -4						; size = 4
?what@exception@std@@UBEPBDXZ PROC			; std::exception::what, COMDAT
; _this$ = ecx

; 94   :     {

	push	ebp
	mov	ebp, esp
	sub	esp, 8
	mov	DWORD PTR _this$[ebp], ecx

; 95   :         return _Data._What ? _Data._What : "Unknown exception";

	mov	eax, DWORD PTR _this$[ebp]
	cmp	DWORD PTR [eax+4], 0
	je	SHORT $LN3@what
	mov	ecx, DWORD PTR _this$[ebp]
	mov	edx, DWORD PTR [ecx+4]
	mov	DWORD PTR tv69[ebp], edx
	jmp	SHORT $LN4@what
$LN3@what:
	mov	DWORD PTR tv69[ebp], OFFSET ??_C@_0BC@EOODALEL@Unknown?5exception@
$LN4@what:
	mov	eax, DWORD PTR tv69[ebp]

; 96   :     }

	mov	esp, ebp
	pop	ebp
	ret	0
?what@exception@std@@UBEPBDXZ ENDP			; std::exception::what
_TEXT	ENDS
; Function compile flags: /Odtp /RTCsu
; File C:\Program Files\Microsoft Visual Studio\2022\Community\VC\Tools\MSVC\14.32.31326\include\vcruntime_exception.h
;	COMDAT ??1exception@std@@UAE@XZ
_TEXT	SEGMENT
_this$ = -4						; size = 4
??1exception@std@@UAE@XZ PROC				; std::exception::~exception, COMDAT
; _this$ = ecx

; 89   :     {

	push	ebp
	mov	ebp, esp
	push	ecx
	mov	DWORD PTR [ebp-4], -858993460		; ccccccccH
	mov	DWORD PTR _this$[ebp], ecx
	mov	eax, DWORD PTR _this$[ebp]
	mov	DWORD PTR [eax], OFFSET ??_7exception@std@@6B@

; 90   :         __std_exception_destroy(&_Data);

	mov	ecx, DWORD PTR _this$[ebp]
	add	ecx, 4
	push	ecx
	call	___std_exception_destroy
	add	esp, 4

; 91   :     }

	add	esp, 4
	cmp	ebp, esp
	call	__RTC_CheckEsp
	mov	esp, ebp
	pop	ebp
	ret	0
??1exception@std@@UAE@XZ ENDP				; std::exception::~exception
_TEXT	ENDS
; Function compile flags: /Odtp /RTCsu
; File C:\Program Files\Microsoft Visual Studio\2022\Community\VC\Tools\MSVC\14.32.31326\include\vcruntime_exception.h
;	COMDAT ??0exception@std@@QAE@ABV01@@Z
_TEXT	SEGMENT
_this$ = -4						; size = 4
__Other$ = 8						; size = 4
??0exception@std@@QAE@ABV01@@Z PROC			; std::exception::exception, COMDAT
; _this$ = ecx

; 72   :     {

	push	ebp
	mov	ebp, esp
	push	ecx
	mov	DWORD PTR [ebp-4], -858993460		; ccccccccH
	mov	DWORD PTR _this$[ebp], ecx
	mov	eax, DWORD PTR _this$[ebp]
	mov	DWORD PTR [eax], OFFSET ??_7exception@std@@6B@

; 71   :         : _Data()

	xor	ecx, ecx
	mov	edx, DWORD PTR _this$[ebp]
	add	edx, 4
	mov	DWORD PTR [edx], ecx
	mov	DWORD PTR [edx+4], ecx

; 73   :         __std_exception_copy(&_Other._Data, &_Data);

	mov	eax, DWORD PTR _this$[ebp]
	add	eax, 4
	push	eax
	mov	ecx, DWORD PTR __Other$[ebp]
	add	ecx, 4
	push	ecx
	call	___std_exception_copy
	add	esp, 8

; 74   :     }

	mov	eax, DWORD PTR _this$[ebp]
	add	esp, 4
	cmp	ebp, esp
	call	__RTC_CheckEsp
	mov	esp, ebp
	pop	ebp
	ret	4
??0exception@std@@QAE@ABV01@@Z ENDP			; std::exception::exception
_TEXT	ENDS
; Function compile flags: /Odtp /RTCsu
; File C:\Program Files\Microsoft Visual Studio\2022\Community\VC\Tools\MSVC\14.32.31326\include\vcruntime_exception.h
;	COMDAT ??0exception@std@@QAE@QBDH@Z
_TEXT	SEGMENT
_this$ = -4						; size = 4
__Message$ = 8						; size = 4
___formal$ = 12						; size = 4
??0exception@std@@QAE@QBDH@Z PROC			; std::exception::exception, COMDAT
; _this$ = ecx

; 66   :     {

	push	ebp
	mov	ebp, esp
	push	ecx
	mov	DWORD PTR _this$[ebp], ecx
	mov	eax, DWORD PTR _this$[ebp]
	mov	DWORD PTR [eax], OFFSET ??_7exception@std@@6B@

; 65   :         : _Data()

	xor	ecx, ecx
	mov	edx, DWORD PTR _this$[ebp]
	add	edx, 4
	mov	DWORD PTR [edx], ecx
	mov	DWORD PTR [edx+4], ecx

; 67   :         _Data._What = _Message;

	mov	eax, DWORD PTR _this$[ebp]
	mov	ecx, DWORD PTR __Message$[ebp]
	mov	DWORD PTR [eax+4], ecx

; 68   :     }

	mov	eax, DWORD PTR _this$[ebp]
	mov	esp, ebp
	pop	ebp
	ret	8
??0exception@std@@QAE@QBDH@Z ENDP			; std::exception::exception
_TEXT	ENDS
; Function compile flags: /Odtp /RTCsu
; File C:\Program Files\Microsoft Visual Studio\2022\Community\VC\Tools\MSVC\14.32.31326\include\vcruntime_exception.h
;	COMDAT ??0exception@std@@QAE@QBD@Z
_TEXT	SEGMENT
__InitData$ = -16					; size = 8
_this$ = -4						; size = 4
__Message$ = 8						; size = 4
??0exception@std@@QAE@QBD@Z PROC			; std::exception::exception, COMDAT
; _this$ = ecx

; 59   :     {

	push	ebp
	mov	ebp, esp
	sub	esp, 20					; 00000014H
	mov	eax, -858993460				; ccccccccH
	mov	DWORD PTR [ebp-20], eax
	mov	DWORD PTR [ebp-16], eax
	mov	DWORD PTR [ebp-12], eax
	mov	DWORD PTR [ebp-8], eax
	mov	DWORD PTR [ebp-4], eax
	mov	DWORD PTR _this$[ebp], ecx
	mov	eax, DWORD PTR _this$[ebp]
	mov	DWORD PTR [eax], OFFSET ??_7exception@std@@6B@

; 58   :         : _Data()

	xor	ecx, ecx
	mov	edx, DWORD PTR _this$[ebp]
	add	edx, 4
	mov	DWORD PTR [edx], ecx
	mov	DWORD PTR [edx+4], ecx

; 60   :         __std_exception_data _InitData = { _Message, true };

	mov	eax, DWORD PTR __Message$[ebp]
	mov	DWORD PTR __InitData$[ebp], eax
	mov	BYTE PTR __InitData$[ebp+4], 1

; 61   :         __std_exception_copy(&_InitData, &_Data);

	mov	ecx, DWORD PTR _this$[ebp]
	add	ecx, 4
	push	ecx
	lea	edx, DWORD PTR __InitData$[ebp]
	push	edx
	call	___std_exception_copy
	add	esp, 8

; 62   :     }

	mov	eax, DWORD PTR _this$[ebp]
	push	edx
	mov	ecx, ebp
	push	eax
	lea	edx, DWORD PTR $LN5@exception
	call	@_RTC_CheckStackVars@8
	pop	eax
	pop	edx
	add	esp, 20					; 00000014H
	cmp	ebp, esp
	call	__RTC_CheckEsp
	mov	esp, ebp
	pop	ebp
	ret	4
$LN5@exception:
	DD	1
	DD	$LN4@exception
$LN4@exception:
	DD	-16					; fffffff0H
	DD	8
	DD	$LN3@exception
$LN3@exception:
	DB	95					; 0000005fH
	DB	73					; 00000049H
	DB	110					; 0000006eH
	DB	105					; 00000069H
	DB	116					; 00000074H
	DB	68					; 00000044H
	DB	97					; 00000061H
	DB	116					; 00000074H
	DB	97					; 00000061H
	DB	0
??0exception@std@@QAE@QBD@Z ENDP			; std::exception::exception
_TEXT	ENDS
; Function compile flags: /Odtp /RTCsu
; File C:\Program Files\Microsoft Visual Studio\2022\Community\VC\Tools\MSVC\14.32.31326\include\limits
;	COMDAT ?epsilon@?$numeric_limits@N@std@@SANXZ
_TEXT	SEGMENT
?epsilon@?$numeric_limits@N@std@@SANXZ PROC		; std::numeric_limits<double>::epsilon, COMDAT

; 920  :     _NODISCARD static constexpr double epsilon() noexcept {

	push	ebp
	mov	ebp, esp

; 921  :         return DBL_EPSILON;

	fld	QWORD PTR __real@3cb0000000000000

; 922  :     }

	pop	ebp
	ret	0
?epsilon@?$numeric_limits@N@std@@SANXZ ENDP		; std::numeric_limits<double>::epsilon
_TEXT	ENDS
; Function compile flags: /Odtp /RTCsu
; File C:\Program Files\Microsoft Visual Studio\2022\Community\VC\Tools\MSVC\14.32.31326\include\limits
;	COMDAT ?max@?$numeric_limits@H@std@@SAHXZ
_TEXT	SEGMENT
?max@?$numeric_limits@H@std@@SAHXZ PROC			; std::numeric_limits<int>::max, COMDAT

; 552  :     _NODISCARD static constexpr int(max)() noexcept {

	push	ebp
	mov	ebp, esp

; 553  :         return INT_MAX;

	mov	eax, 2147483647				; 7fffffffH

; 554  :     }

	pop	ebp
	ret	0
?max@?$numeric_limits@H@std@@SAHXZ ENDP			; std::numeric_limits<int>::max
_TEXT	ENDS
; Function compile flags: /Odtp /RTCsu
; File C:\Program Files\Microsoft Visual Studio\2022\Community\VC\Tools\MSVC\14.32.31326\include\vcruntime_new.h
;	COMDAT ??2@YAPAXIPAX@Z
_TEXT	SEGMENT
__Size$ = 8						; size = 4
__Where$ = 12						; size = 4
??2@YAPAXIPAX@Z PROC					; operator new, COMDAT

; 167  :     {

	push	ebp
	mov	ebp, esp

; 168  :         (void)_Size;
; 169  :         return _Where;

	mov	eax, DWORD PTR __Where$[ebp]

; 170  :     }

	pop	ebp
	ret	0
??2@YAPAXIPAX@Z ENDP					; operator new
_TEXT	ENDS
; Function compile flags: /Odtp /RTCsu
; File C:\Users\lsy01\OneDrive\바탕 화면\3-2_Study\인공지능\Source\VS2010\Buckland_Chapter7 to 10_Raven\armory\Projectile_Pellet.cpp
;	COMDAT ?__empty_global_delete@@YAXPAXI@Z
_TEXT	SEGMENT
___formal$ = 8						; size = 4
___formal$ = 12						; size = 4
?__empty_global_delete@@YAXPAXI@Z PROC			; __empty_global_delete, COMDAT

	push	ebp
	mov	ebp, esp
	pop	ebp
	ret	0
?__empty_global_delete@@YAXPAXI@Z ENDP			; __empty_global_delete
_TEXT	ENDS
; Function compile flags: /Odtp /RTCsu
; File C:\Users\lsy01\OneDrive\바탕 화면\3-2_Study\인공지능\Source\VS2010\Buckland_Chapter7 to 10_Raven\armory\Projectile_Pellet.cpp
;	COMDAT ?__empty_global_delete@@YAXPAX@Z
_TEXT	SEGMENT
___formal$ = 8						; size = 4
?__empty_global_delete@@YAXPAX@Z PROC			; __empty_global_delete, COMDAT

	push	ebp
	mov	ebp, esp
	pop	ebp
	ret	0
?__empty_global_delete@@YAXPAX@Z ENDP			; __empty_global_delete
_TEXT	ENDS
END
