; Listing generated by Microsoft (R) Optimizing Compiler Version 19.32.31329.0 

	TITLE	C:\Users\lsy01\OneDrive\바탕 화면\3-2_Study\인공지능\Source\VS2010\Buckland_Chapter7 to 10_Raven\Debug\Raven_PathPlanner.obj
	.686P
	.XMM
	include listing.inc
	.model	flat

INCLUDELIB LIBCMTD
INCLUDELIB OLDNAMES

CONST	SEGMENT
?colors@@3QBKB DD 0ffH					; colors
	DD	0ff0000H
	DD	0ff00H
	DD	00H
	DD	0c8c8ffH
	DD	0c8c8c8H
	DD	0ffffH
	DD	0aaffH
	DD	0aa00ffH
	DD	05a85H
	DD	0ffffffH
	DD	06400H
	DD	0ffff00H
	DD	0c8c8c8H
	DD	0e6e6ffH
$SG177958 DB	'<Raven_PathPlanner::GetPathAsNodes>: no current search', 00H
	ORG $+5
$SG177959 DB	'C', 00H, ':', 00H, '\', 00H, 'U', 00H, 's', 00H, 'e', 00H
	DB	'r', 00H, 's', 00H, '\', 00H, 'l', 00H, 's', 00H, 'y', 00H, '0'
	DB	00H, '1', 00H, '\', 00H, 'O', 00H, 'n', 00H, 'e', 00H, 'D', 00H
	DB	'r', 00H, 'i', 00H, 'v', 00H, 'e', 00H, '\', 00H, 014H, 0bcH, 0d5H
	DB	0d0H, ' ', 00H, 'T', 0d6H, 't', 0baH, '\', 00H, '3', 00H, '-', 00H
	DB	'2', 00H, '_', 00H, 'S', 00H, 't', 00H, 'u', 00H, 'd', 00H, 'y'
	DB	00H, '\', 00H, 'x', 0c7H, 0f5H, 0acH, 0c0H, 0c9H, 0a5H, 0b2H, '\'
	DB	00H, 'S', 00H, 'o', 00H, 'u', 00H, 'r', 00H, 'c', 00H, 'e', 00H
	DB	'\', 00H, 'V', 00H, 'S', 00H, '2', 00H, '0', 00H, '1', 00H, '0'
	DB	00H, '\', 00H, 'B', 00H, 'u', 00H, 'c', 00H, 'k', 00H, 'l', 00H
	DB	'a', 00H, 'n', 00H, 'd', 00H, '_', 00H, 'C', 00H, 'h', 00H, 'a'
	DB	00H, 'p', 00H, 't', 00H, 'e', 00H, 'r', 00H, '7', 00H, ' ', 00H
	DB	't', 00H, 'o', 00H, ' ', 00H, '1', 00H, '0', 00H, '_', 00H, 'R'
	DB	00H, 'a', 00H, 'v', 00H, 'e', 00H, 'n', 00H, '\', 00H, 'n', 00H
	DB	'a', 00H, 'v', 00H, 'i', 00H, 'g', 00H, 'a', 00H, 't', 00H, 'i'
	DB	00H, 'o', 00H, 'n', 00H, '\', 00H, 'R', 00H, 'a', 00H, 'v', 00H
	DB	'e', 00H, 'n', 00H, '_', 00H, 'P', 00H, 'a', 00H, 't', 00H, 'h'
	DB	00H, 'P', 00H, 'l', 00H, 'a', 00H, 'n', 00H, 'n', 00H, 'e', 00H
	DB	'r', 00H, '.', 00H, 'c', 00H, 'p', 00H, 'p', 00H, 00H, 00H
$SG196150 DB	'invalid argument', 00H
	ORG $+3
$SG177960 DB	'm', 00H, '_', 00H, 'p', 00H, 'C', 00H, 'u', 00H, 'r', 00H
	DB	'r', 00H, 'e', 00H, 'n', 00H, 't', 00H, 'S', 00H, 'e', 00H, 'a'
	DB	00H, 'r', 00H, 'c', 00H, 'h', 00H, ' ', 00H, '&', 00H, '&', 00H
	DB	' ', 00H, '"', 00H, '<', 00H, 'R', 00H, 'a', 00H, 'v', 00H, 'e'
	DB	00H, 'n', 00H, '_', 00H, 'P', 00H, 'a', 00H, 't', 00H, 'h', 00H
	DB	'P', 00H, 'l', 00H, 'a', 00H, 'n', 00H, 'n', 00H, 'e', 00H, 'r'
	DB	00H, ':', 00H, ':', 00H, 'G', 00H, 'e', 00H, 't', 00H, 'P', 00H
	DB	'a', 00H, 't', 00H, 'h', 00H, 'A', 00H, 's', 00H, 'N', 00H, 'o'
	DB	00H, 'd', 00H, 'e', 00H, 's', 00H, '>', 00H, ':', 00H, ' ', 00H
	DB	'n', 00H, 'o', 00H, ' ', 00H, 'c', 00H, 'u', 00H, 'r', 00H, 'r'
	DB	00H, 'e', 00H, 'n', 00H, 't', 00H, ' ', 00H, 's', 00H, 'e', 00H
	DB	'a', 00H, 'r', 00H, 'c', 00H, 'h', 00H, '"', 00H, 00H, 00H
	ORG $+2
$SG178841 DB	'<Raven_PathPlanner::CycleOnce>: No search object instant'
	DB	'iated', 00H
	ORG $+2
$SG196151 DB	'%s', 00H
	ORG $+1
$SG178842 DB	'C', 00H, ':', 00H, '\', 00H, 'U', 00H, 's', 00H, 'e', 00H
	DB	'r', 00H, 's', 00H, '\', 00H, 'l', 00H, 's', 00H, 'y', 00H, '0'
	DB	00H, '1', 00H, '\', 00H, 'O', 00H, 'n', 00H, 'e', 00H, 'D', 00H
	DB	'r', 00H, 'i', 00H, 'v', 00H, 'e', 00H, '\', 00H, 014H, 0bcH, 0d5H
	DB	0d0H, ' ', 00H, 'T', 0d6H, 't', 0baH, '\', 00H, '3', 00H, '-', 00H
	DB	'2', 00H, '_', 00H, 'S', 00H, 't', 00H, 'u', 00H, 'd', 00H, 'y'
	DB	00H, '\', 00H, 'x', 0c7H, 0f5H, 0acH, 0c0H, 0c9H, 0a5H, 0b2H, '\'
	DB	00H, 'S', 00H, 'o', 00H, 'u', 00H, 'r', 00H, 'c', 00H, 'e', 00H
	DB	'\', 00H, 'V', 00H, 'S', 00H, '2', 00H, '0', 00H, '1', 00H, '0'
	DB	00H, '\', 00H, 'B', 00H, 'u', 00H, 'c', 00H, 'k', 00H, 'l', 00H
	DB	'a', 00H, 'n', 00H, 'd', 00H, '_', 00H, 'C', 00H, 'h', 00H, 'a'
	DB	00H, 'p', 00H, 't', 00H, 'e', 00H, 'r', 00H, '7', 00H, ' ', 00H
	DB	't', 00H, 'o', 00H, ' ', 00H, '1', 00H, '0', 00H, '_', 00H, 'R'
	DB	00H, 'a', 00H, 'v', 00H, 'e', 00H, 'n', 00H, '\', 00H, 'n', 00H
	DB	'a', 00H, 'v', 00H, 'i', 00H, 'g', 00H, 'a', 00H, 't', 00H, 'i'
	DB	00H, 'o', 00H, 'n', 00H, '\', 00H, 'R', 00H, 'a', 00H, 'v', 00H
	DB	'e', 00H, 'n', 00H, '_', 00H, 'P', 00H, 'a', 00H, 't', 00H, 'h'
	DB	00H, 'P', 00H, 'l', 00H, 'a', 00H, 'n', 00H, 'n', 00H, 'e', 00H
	DB	'r', 00H, '.', 00H, 'c', 00H, 'p', 00H, 'p', 00H, 00H, 00H
$SG196154 DB	00H, 00H
	ORG $+2
$SG178843 DB	'm', 00H, '_', 00H, 'p', 00H, 'C', 00H, 'u', 00H, 'r', 00H
	DB	'r', 00H, 'e', 00H, 'n', 00H, 't', 00H, 'S', 00H, 'e', 00H, 'a'
	DB	00H, 'r', 00H, 'c', 00H, 'h', 00H, ' ', 00H, '&', 00H, '&', 00H
	DB	' ', 00H, '"', 00H, '<', 00H, 'R', 00H, 'a', 00H, 'v', 00H, 'e'
	DB	00H, 'n', 00H, '_', 00H, 'P', 00H, 'a', 00H, 't', 00H, 'h', 00H
	DB	'P', 00H, 'l', 00H, 'a', 00H, 'n', 00H, 'n', 00H, 'e', 00H, 'r'
	DB	00H, ':', 00H, ':', 00H, 'C', 00H, 'y', 00H, 'c', 00H, 'l', 00H
	DB	'e', 00H, 'O', 00H, 'n', 00H, 'c', 00H, 'e', 00H, '>', 00H, ':'
	DB	00H, ' ', 00H, 'N', 00H, 'o', 00H, ' ', 00H, 's', 00H, 'e', 00H
	DB	'a', 00H, 'r', 00H, 'c', 00H, 'h', 00H, ' ', 00H, 'o', 00H, 'b'
	DB	00H, 'j', 00H, 'e', 00H, 'c', 00H, 't', 00H, ' ', 00H, 'i', 00H
	DB	'n', 00H, 's', 00H, 't', 00H, 'a', 00H, 'n', 00H, 't', 00H, 'i'
	DB	00H, 'a', 00H, 't', 00H, 'e', 00H, 'd', 00H, '"', 00H, 00H, 00H
$SG187708 DB	'<SparseGraph::GetNode>: invalid index', 00H
	ORG $+2
$SG187709 DB	'C', 00H, ':', 00H, '\', 00H, 'U', 00H, 's', 00H, 'e', 00H
	DB	'r', 00H, 's', 00H, '\', 00H, 'l', 00H, 's', 00H, 'y', 00H, '0'
	DB	00H, '1', 00H, '\', 00H, 'O', 00H, 'n', 00H, 'e', 00H, 'D', 00H
	DB	'r', 00H, 'i', 00H, 'v', 00H, 'e', 00H, '\', 00H, 014H, 0bcH, 0d5H
	DB	0d0H, ' ', 00H, 'T', 0d6H, 't', 0baH, '\', 00H, '3', 00H, '-', 00H
	DB	'2', 00H, '_', 00H, 'S', 00H, 't', 00H, 'u', 00H, 'd', 00H, 'y'
	DB	00H, '\', 00H, 'x', 0c7H, 0f5H, 0acH, 0c0H, 0c9H, 0a5H, 0b2H, '\'
	DB	00H, 'S', 00H, 'o', 00H, 'u', 00H, 'r', 00H, 'c', 00H, 'e', 00H
	DB	'\', 00H, 'V', 00H, 'S', 00H, '2', 00H, '0', 00H, '1', 00H, '0'
	DB	00H, '\', 00H, 'C', 00H, 'o', 00H, 'm', 00H, 'm', 00H, 'o', 00H
	DB	'n', 00H, '\', 00H, 'g', 00H, 'r', 00H, 'a', 00H, 'p', 00H, 'h'
	DB	00H, '\', 00H, 'S', 00H, 'p', 00H, 'a', 00H, 'r', 00H, 's', 00H
	DB	'e', 00H, 'G', 00H, 'r', 00H, 'a', 00H, 'p', 00H, 'h', 00H, '.'
	DB	00H, 'h', 00H, 00H, 00H
	ORG $+4
$SG187710 DB	'(', 00H, 'i', 00H, 'd', 00H, 'x', 00H, ' ', 00H, '<', 00H
	DB	' ', 00H, '(', 00H, 'i', 00H, 'n', 00H, 't', 00H, ')', 00H, 'm'
	DB	00H, '_', 00H, 'N', 00H, 'o', 00H, 'd', 00H, 'e', 00H, 's', 00H
	DB	'.', 00H, 's', 00H, 'i', 00H, 'z', 00H, 'e', 00H, '(', 00H, ')'
	DB	00H, ')', 00H, ' ', 00H, '&', 00H, '&', 00H, ' ', 00H, '(', 00H
	DB	'i', 00H, 'd', 00H, 'x', 00H, ' ', 00H, '>', 00H, '=', 00H, '0'
	DB	00H, ')', 00H, ' ', 00H, '&', 00H, '&', 00H, ' ', 00H, '"', 00H
	DB	'<', 00H, 'S', 00H, 'p', 00H, 'a', 00H, 'r', 00H, 's', 00H, 'e'
	DB	00H, 'G', 00H, 'r', 00H, 'a', 00H, 'p', 00H, 'h', 00H, ':', 00H
	DB	':', 00H, 'G', 00H, 'e', 00H, 't', 00H, 'N', 00H, 'o', 00H, 'd'
	DB	00H, 'e', 00H, '>', 00H, ':', 00H, ' ', 00H, 'i', 00H, 'n', 00H
	DB	'v', 00H, 'a', 00H, 'l', 00H, 'i', 00H, 'd', 00H, ' ', 00H, 'i'
	DB	00H, 'n', 00H, 'd', 00H, 'e', 00H, 'x', 00H, '"', 00H, 00H, 00H
$SG196152 DB	'C:\Program Files\Microsoft Visual Studio\2022\Community\'
	DB	'VC\Tools\MSVC\14.32.31326\include\xmemory', 00H
	ORG $+6
$SG196153 DB	'C', 00H, ':', 00H, '\', 00H, 'P', 00H, 'r', 00H, 'o', 00H
	DB	'g', 00H, 'r', 00H, 'a', 00H, 'm', 00H, ' ', 00H, 'F', 00H, 'i'
	DB	00H, 'l', 00H, 'e', 00H, 's', 00H, '\', 00H, 'M', 00H, 'i', 00H
	DB	'c', 00H, 'r', 00H, 'o', 00H, 's', 00H, 'o', 00H, 'f', 00H, 't'
	DB	00H, ' ', 00H, 'V', 00H, 'i', 00H, 's', 00H, 'u', 00H, 'a', 00H
	DB	'l', 00H, ' ', 00H, 'S', 00H, 't', 00H, 'u', 00H, 'd', 00H, 'i'
	DB	00H, 'o', 00H, '\', 00H, '2', 00H, '0', 00H, '2', 00H, '2', 00H
	DB	'\', 00H, 'C', 00H, 'o', 00H, 'm', 00H, 'm', 00H, 'u', 00H, 'n'
	DB	00H, 'i', 00H, 't', 00H, 'y', 00H, '\', 00H, 'V', 00H, 'C', 00H
	DB	'\', 00H, 'T', 00H, 'o', 00H, 'o', 00H, 'l', 00H, 's', 00H, '\'
	DB	00H, 'M', 00H, 'S', 00H, 'V', 00H, 'C', 00H, '\', 00H, '1', 00H
	DB	'4', 00H, '.', 00H, '3', 00H, '2', 00H, '.', 00H, '3', 00H, '1'
	DB	00H, '3', 00H, '2', 00H, '6', 00H, '\', 00H, 'i', 00H, 'n', 00H
	DB	'c', 00H, 'l', 00H, 'u', 00H, 'd', 00H, 'e', 00H, '\', 00H, 'x'
	DB	00H, 'm', 00H, 'e', 00H, 'm', 00H, 'o', 00H, 'r', 00H, 'y', 00H
	DB	00H, 00H
$SG196155 DB	'"', 00H, 'i', 00H, 'n', 00H, 'v', 00H, 'a', 00H, 'l', 00H
	DB	'i', 00H, 'd', 00H, ' ', 00H, 'a', 00H, 'r', 00H, 'g', 00H, 'u'
	DB	00H, 'm', 00H, 'e', 00H, 'n', 00H, 't', 00H, '"', 00H, 00H, 00H
	ORG $+6
$SG196514 DB	'C:\Program Files\Microsoft Visual Studio\2022\Community\'
	DB	'VC\Tools\MSVC\14.32.31326\include\xlocale', 00H
CONST	ENDS
PUBLIC	?__empty_global_delete@@YAXPAX@Z		; __empty_global_delete
PUBLIC	?__empty_global_delete@@YAXPAXI@Z		; __empty_global_delete
PUBLIC	?max@?$numeric_limits@H@std@@SAHXZ		; std::numeric_limits<int>::max
PUBLIC	??2@YAPAXIPAX@Z					; operator new
PUBLIC	??0exception@std@@QAE@QBDH@Z			; std::exception::exception
PUBLIC	??0exception@std@@QAE@ABV01@@Z			; std::exception::exception
PUBLIC	??1exception@std@@UAE@XZ			; std::exception::~exception
PUBLIC	?what@exception@std@@UBEPBDXZ			; std::exception::what
PUBLIC	??_Gexception@std@@UAEPAXI@Z			; std::exception::`scalar deleting destructor'
PUBLIC	??0bad_alloc@std@@AAE@QBD@Z			; std::bad_alloc::bad_alloc
PUBLIC	??1bad_alloc@std@@UAE@XZ			; std::bad_alloc::~bad_alloc
PUBLIC	??0bad_alloc@std@@QAE@ABV01@@Z			; std::bad_alloc::bad_alloc
PUBLIC	??_Gbad_alloc@std@@UAEPAXI@Z			; std::bad_alloc::`scalar deleting destructor'
PUBLIC	??0bad_array_new_length@std@@QAE@XZ		; std::bad_array_new_length::bad_array_new_length
PUBLIC	??1bad_array_new_length@std@@UAE@XZ		; std::bad_array_new_length::~bad_array_new_length
PUBLIC	??0bad_array_new_length@std@@QAE@ABV01@@Z	; std::bad_array_new_length::bad_array_new_length
PUBLIC	??_Gbad_array_new_length@std@@UAEPAXI@Z		; std::bad_array_new_length::`scalar deleting destructor'
PUBLIC	?_Throw_bad_array_new_length@std@@YAXXZ		; std::_Throw_bad_array_new_length
PUBLIC	?_Allocate@_Default_allocate_traits@std@@SAPAXI@Z ; std::_Default_allocate_traits::_Allocate
PUBLIC	?_Adjust_manually_vector_aligned@std@@YAXAAPAXAAI@Z ; std::_Adjust_manually_vector_aligned
PUBLIC	?_Adopt@_Iterator_base0@std@@QAEXPBX@Z		; std::_Iterator_base0::_Adopt
PUBLIC	??0_Container_proxy@std@@QAE@PAU_Container_base12@1@@Z ; std::_Container_proxy::_Container_proxy
PUBLIC	??0_Container_base12@std@@QAE@XZ		; std::_Container_base12::_Container_base12
PUBLIC	?_Orphan_all@_Container_base12@std@@QAEXXZ	; std::_Container_base12::_Orphan_all
PUBLIC	?_Swap_proxy_and_iterators@_Container_base12@std@@QAEXAAU12@@Z ; std::_Container_base12::_Swap_proxy_and_iterators
PUBLIC	?_Orphan_all_unlocked_v3@_Container_base12@std@@AAEXXZ ; std::_Container_base12::_Orphan_all_unlocked_v3
PUBLIC	?_Swap_proxy_and_iterators_unlocked@_Container_base12@std@@AAEXAAU12@@Z ; std::_Container_base12::_Swap_proxy_and_iterators_unlocked
PUBLIC	?_Orphan_all_locked_v3@_Container_base12@std@@AAEXXZ ; std::_Container_base12::_Orphan_all_locked_v3
PUBLIC	?_Swap_proxy_and_iterators_locked@_Container_base12@std@@AAEXAAU12@@Z ; std::_Container_base12::_Swap_proxy_and_iterators_locked
PUBLIC	??0_Iterator_base12@std@@QAE@XZ			; std::_Iterator_base12::_Iterator_base12
PUBLIC	??0_Iterator_base12@std@@QAE@ABU01@@Z		; std::_Iterator_base12::_Iterator_base12
PUBLIC	??4_Iterator_base12@std@@QAEAAU01@ABU01@@Z	; std::_Iterator_base12::operator=
PUBLIC	??1_Iterator_base12@std@@QAE@XZ			; std::_Iterator_base12::~_Iterator_base12
PUBLIC	?_Adopt@_Iterator_base12@std@@QAEXPBU_Container_base12@2@@Z ; std::_Iterator_base12::_Adopt
PUBLIC	?_Getcont@_Iterator_base12@std@@QBEPBU_Container_base12@2@XZ ; std::_Iterator_base12::_Getcont
PUBLIC	?_Assign_unlocked@_Iterator_base12@std@@AAEXABU12@@Z ; std::_Iterator_base12::_Assign_unlocked
PUBLIC	?_Assign_locked@_Iterator_base12@std@@AAEXABU12@@Z ; std::_Iterator_base12::_Assign_locked
PUBLIC	?_Adopt_unlocked@_Iterator_base12@std@@AAEXPBU_Container_base12@2@@Z ; std::_Iterator_base12::_Adopt_unlocked
PUBLIC	?_Adopt_locked@_Iterator_base12@std@@AAEXPBU_Container_base12@2@@Z ; std::_Iterator_base12::_Adopt_locked
PUBLIC	?_Orphan_me_unlocked_v3@_Iterator_base12@std@@AAEXXZ ; std::_Iterator_base12::_Orphan_me_unlocked_v3
PUBLIC	?_Orphan_me_locked_v3@_Iterator_base12@std@@AAEXXZ ; std::_Iterator_base12::_Orphan_me_locked_v3
PUBLIC	?_Release@_Basic_container_proxy_ptr12@std@@QAEXXZ ; std::_Basic_container_proxy_ptr12::_Release
PUBLIC	??0_Basic_container_proxy_ptr12@std@@IAE@XZ	; std::_Basic_container_proxy_ptr12::_Basic_container_proxy_ptr12
PUBLIC	??0id@locale@std@@QAE@I@Z			; std::locale::id::id
PUBLIC	?isEqual@@YA_NNN@Z				; isEqual
PUBLIC	??0?$allocator@N@std@@QAE@XZ			; std::allocator<double>::allocator<double>
PUBLIC	?deallocate@?$allocator@N@std@@QAEXQANI@Z	; std::allocator<double>::deallocate
PUBLIC	?allocate@?$allocator@N@std@@QAEPANI@Z		; std::allocator<double>::allocate
PUBLIC	?max_size@?$_Default_allocator_traits@V?$allocator@N@std@@@std@@SAIABV?$allocator@N@2@@Z ; std::_Default_allocator_traits<std::allocator<double> >::max_size
PUBLIC	??0?$vector@NV?$allocator@N@std@@@std@@QAE@IABNABV?$allocator@N@1@@Z ; std::vector<double,std::allocator<double> >::vector<double,std::allocator<double> >
PUBLIC	??1?$vector@NV?$allocator@N@std@@@std@@QAE@XZ	; std::vector<double,std::allocator<double> >::~vector<double,std::allocator<double> >
PUBLIC	?max_size@?$vector@NV?$allocator@N@std@@@std@@QBEIXZ ; std::vector<double,std::allocator<double> >::max_size
PUBLIC	??A?$vector@NV?$allocator@N@std@@@std@@QAEAANI@Z ; std::vector<double,std::allocator<double> >::operator[]
PUBLIC	??A?$vector@NV?$allocator@N@std@@@std@@QBEABNI@Z ; std::vector<double,std::allocator<double> >::operator[]
PUBLIC	?_Buy_raw@?$vector@NV?$allocator@N@std@@@std@@AAEXI@Z ; std::vector<double,std::allocator<double> >::_Buy_raw
PUBLIC	?_Buy_nonzero@?$vector@NV?$allocator@N@std@@@std@@AAEXI@Z ; std::vector<double,std::allocator<double> >::_Buy_nonzero
PUBLIC	?_Tidy@?$vector@NV?$allocator@N@std@@@std@@AAEXXZ ; std::vector<double,std::allocator<double> >::_Tidy
PUBLIC	?_Xlength@?$vector@NV?$allocator@N@std@@@std@@CAXXZ ; std::vector<double,std::allocator<double> >::_Xlength
PUBLIC	?_Getal@?$vector@NV?$allocator@N@std@@@std@@AAEAAV?$allocator@N@2@XZ ; std::vector<double,std::allocator<double> >::_Getal
PUBLIC	?_Getal@?$vector@NV?$allocator@N@std@@@std@@ABEABV?$allocator@N@2@XZ ; std::vector<double,std::allocator<double> >::_Getal
PUBLIC	??0?$_Vector_val@U?$_Simple_types@N@std@@@std@@QAE@XZ ; std::_Vector_val<std::_Simple_types<double> >::_Vector_val<std::_Simple_types<double> >
PUBLIC	?_Get_first@?$_Compressed_pair@V?$allocator@N@std@@V?$_Vector_val@U?$_Simple_types@N@std@@@2@$00@std@@QAEAAV?$allocator@N@2@XZ ; std::_Compressed_pair<std::allocator<double>,std::_Vector_val<std::_Simple_types<double> >,1>::_Get_first
PUBLIC	?_Get_first@?$_Compressed_pair@V?$allocator@N@std@@V?$_Vector_val@U?$_Simple_types@N@std@@@2@$00@std@@QBEABV?$allocator@N@2@XZ ; std::_Compressed_pair<std::allocator<double>,std::_Vector_val<std::_Simple_types<double> >,1>::_Get_first
PUBLIC	??0Vector2D@@QAE@XZ				; Vector2D::Vector2D
PUBLIC	??0Vector2D@@QAE@NN@Z				; Vector2D::Vector2D
PUBLIC	??G@YA?AUVector2D@@ABU0@0@Z			; operator-
PUBLIC	??H@YA?AUVector2D@@ABU0@0@Z			; operator+
PUBLIC	??K@YA?AUVector2D@@ABU0@N@Z			; operator/
PUBLIC	?Vec2DDistance@@YANABUVector2D@@0@Z		; Vec2DDistance
PUBLIC	?Vec2DDistanceSq@@YANABUVector2D@@0@Z		; Vec2DDistanceSq
PUBLIC	??0?$allocator@H@std@@QAE@XZ			; std::allocator<int>::allocator<int>
PUBLIC	?deallocate@?$allocator@H@std@@QAEXQAHI@Z	; std::allocator<int>::deallocate
PUBLIC	?allocate@?$allocator@H@std@@QAEPAHI@Z		; std::allocator<int>::allocate
PUBLIC	?max_size@?$_Default_allocator_traits@V?$allocator@H@std@@@std@@SAIABV?$allocator@H@2@@Z ; std::_Default_allocator_traits<std::allocator<int> >::max_size
PUBLIC	??0?$vector@HV?$allocator@H@std@@@std@@QAE@XZ	; std::vector<int,std::allocator<int> >::vector<int,std::allocator<int> >
PUBLIC	??1?$vector@HV?$allocator@H@std@@@std@@QAE@XZ	; std::vector<int,std::allocator<int> >::~vector<int,std::allocator<int> >
PUBLIC	?assign@?$vector@HV?$allocator@H@std@@@std@@QAEXIABH@Z ; std::vector<int,std::allocator<int> >::assign
PUBLIC	?_Clear_and_reserve_geometric@?$vector@HV?$allocator@H@std@@@std@@AAEXI@Z ; std::vector<int,std::allocator<int> >::_Clear_and_reserve_geometric
PUBLIC	?max_size@?$vector@HV?$allocator@H@std@@@std@@QBEIXZ ; std::vector<int,std::allocator<int> >::max_size
PUBLIC	?capacity@?$vector@HV?$allocator@H@std@@@std@@QBEIXZ ; std::vector<int,std::allocator<int> >::capacity
PUBLIC	??A?$vector@HV?$allocator@H@std@@@std@@QAEAAHI@Z ; std::vector<int,std::allocator<int> >::operator[]
PUBLIC	?_Calculate_growth@?$vector@HV?$allocator@H@std@@@std@@ABEII@Z ; std::vector<int,std::allocator<int> >::_Calculate_growth
PUBLIC	?_Buy_raw@?$vector@HV?$allocator@H@std@@@std@@AAEXI@Z ; std::vector<int,std::allocator<int> >::_Buy_raw
PUBLIC	?_Tidy@?$vector@HV?$allocator@H@std@@@std@@AAEXXZ ; std::vector<int,std::allocator<int> >::_Tidy
PUBLIC	?_Xlength@?$vector@HV?$allocator@H@std@@@std@@CAXXZ ; std::vector<int,std::allocator<int> >::_Xlength
PUBLIC	?_Getal@?$vector@HV?$allocator@H@std@@@std@@AAEAAV?$allocator@H@2@XZ ; std::vector<int,std::allocator<int> >::_Getal
PUBLIC	?_Getal@?$vector@HV?$allocator@H@std@@@std@@ABEABV?$allocator@H@2@XZ ; std::vector<int,std::allocator<int> >::_Getal
PUBLIC	??0?$_Vector_val@U?$_Simple_types@H@std@@@std@@QAE@XZ ; std::_Vector_val<std::_Simple_types<int> >::_Vector_val<std::_Simple_types<int> >
PUBLIC	?_Get_first@?$_Compressed_pair@V?$allocator@H@std@@V?$_Vector_val@U?$_Simple_types@H@std@@@2@$00@std@@QAEAAV?$allocator@H@2@XZ ; std::_Compressed_pair<std::allocator<int>,std::_Vector_val<std::_Simple_types<int> >,1>::_Get_first
PUBLIC	?_Get_first@?$_Compressed_pair@V?$allocator@H@std@@V?$_Vector_val@U?$_Simple_types@H@std@@@2@$00@std@@QBEABV?$allocator@H@2@XZ ; std::_Compressed_pair<std::allocator<int>,std::_Vector_val<std::_Simple_types<int> >,1>::_Get_first
PUBLIC	??0PathEdge@@QAE@UVector2D@@0HH@Z		; PathEdge::PathEdge
PUBLIC	?Destination@PathEdge@@QBE?AUVector2D@@XZ	; PathEdge::Destination
PUBLIC	?SetDestination@PathEdge@@QAEXUVector2D@@@Z	; PathEdge::SetDestination
PUBLIC	?Source@PathEdge@@QBE?AUVector2D@@XZ		; PathEdge::Source
PUBLIC	?Behavior@PathEdge@@QBEHXZ			; PathEdge::Behavior
PUBLIC	?Pos@BaseGameEntity@@QBE?AUVector2D@@XZ		; BaseGameEntity::Pos
PUBLIC	?ID@BaseGameEntity@@QBEHXZ			; BaseGameEntity::ID
PUBLIC	?EntityType@BaseGameEntity@@QBEHXZ		; BaseGameEntity::EntityType
PUBLIC	??0InvertedAABBox2D@@QAE@UVector2D@@0@Z		; InvertedAABBox2D::InvertedAABBox2D
PUBLIC	?isOverlappedWith@InvertedAABBox2D@@QBE_NABV1@@Z ; InvertedAABBox2D::isOverlappedWith
PUBLIC	?Top@InvertedAABBox2D@@QBENXZ			; InvertedAABBox2D::Top
PUBLIC	?Left@InvertedAABBox2D@@QBENXZ			; InvertedAABBox2D::Left
PUBLIC	?Bottom@InvertedAABBox2D@@QBENXZ		; InvertedAABBox2D::Bottom
PUBLIC	?Right@InvertedAABBox2D@@QBENXZ			; InvertedAABBox2D::Right
PUBLIC	?GetWorld@Raven_Bot@@QAEQAVRaven_Game@@XZ	; Raven_Bot::GetWorld
PUBLIC	?From@GraphEdge@@QBEHXZ				; GraphEdge::From
PUBLIC	?To@GraphEdge@@QBEHXZ				; GraphEdge::To
PUBLIC	?Cost@GraphEdge@@QBENXZ				; GraphEdge::Cost
PUBLIC	?Flags@NavGraphEdge@@QBEHXZ			; NavGraphEdge::Flags
PUBLIC	?IDofIntersectingEntity@NavGraphEdge@@QBEHXZ	; NavGraphEdge::IDofIntersectingEntity
PUBLIC	?Index@GraphNode@@QBEHXZ			; GraphNode::Index
PUBLIC	?size@?$vector@V?$NavGraphNode@PAV?$Trigger@VRaven_Bot@@@@@@V?$allocator@V?$NavGraphNode@PAV?$Trigger@VRaven_Bot@@@@@@@std@@@std@@QBEIXZ ; std::vector<NavGraphNode<Trigger<Raven_Bot> *>,std::allocator<NavGraphNode<Trigger<Raven_Bot> *> > >::size
PUBLIC	??A?$vector@V?$NavGraphNode@PAV?$Trigger@VRaven_Bot@@@@@@V?$allocator@V?$NavGraphNode@PAV?$Trigger@VRaven_Bot@@@@@@@std@@@std@@QBEABV?$NavGraphNode@PAV?$Trigger@VRaven_Bot@@@@@@I@Z ; std::vector<NavGraphNode<Trigger<Raven_Bot> *>,std::allocator<NavGraphNode<Trigger<Raven_Bot> *> > >::operator[]
PUBLIC	??A?$vector@V?$list@VNavGraphEdge@@V?$allocator@VNavGraphEdge@@@std@@@std@@V?$allocator@V?$list@VNavGraphEdge@@V?$allocator@VNavGraphEdge@@@std@@@std@@@2@@std@@QBEABV?$list@VNavGraphEdge@@V?$allocator@VNavGraphEdge@@@std@@@1@I@Z ; std::vector<std::list<NavGraphEdge,std::allocator<NavGraphEdge> >,std::allocator<std::list<NavGraphEdge,std::allocator<NavGraphEdge> > > >::operator[]
PUBLIC	?GetNode@?$SparseGraph@V?$NavGraphNode@PAV?$Trigger@VRaven_Bot@@@@@@VNavGraphEdge@@@@QBEABV?$NavGraphNode@PAV?$Trigger@VRaven_Bot@@@@@@H@Z ; SparseGraph<NavGraphNode<Trigger<Raven_Bot> *>,NavGraphEdge>::GetNode
PUBLIC	?NumNodes@?$SparseGraph@V?$NavGraphNode@PAV?$Trigger@VRaven_Bot@@@@@@VNavGraphEdge@@@@QBEHXZ ; SparseGraph<NavGraphNode<Trigger<Raven_Bot> *>,NavGraphEdge>::NumNodes
PUBLIC	?begin@?$list@PAV?$Trigger@VRaven_Bot@@@@V?$allocator@PAV?$Trigger@VRaven_Bot@@@@@std@@@std@@QBE?AV?$_List_const_iterator@V?$_List_val@U?$_List_simple_types@PAV?$Trigger@VRaven_Bot@@@@@std@@@std@@@2@XZ ; std::list<Trigger<Raven_Bot> *,std::allocator<Trigger<Raven_Bot> *> >::begin
PUBLIC	?end@?$list@PAV?$Trigger@VRaven_Bot@@@@V?$allocator@PAV?$Trigger@VRaven_Bot@@@@@std@@@std@@QBE?AV?$_List_const_iterator@V?$_List_val@U?$_List_simple_types@PAV?$Trigger@VRaven_Bot@@@@@std@@@std@@@2@XZ ; std::list<Trigger<Raven_Bot> *,std::allocator<Trigger<Raven_Bot> *> >::end
PUBLIC	?GetTriggers@?$TriggerSystem@V?$Trigger@VRaven_Bot@@@@@@QBEABV?$list@PAV?$Trigger@VRaven_Bot@@@@V?$allocator@PAV?$Trigger@VRaven_Bot@@@@@std@@@std@@XZ ; TriggerSystem<Trigger<Raven_Bot> >::GetTriggers
PUBLIC	?GetTriggers@Raven_Map@@QBEABV?$list@PAV?$Trigger@VRaven_Bot@@@@V?$allocator@PAV?$Trigger@VRaven_Bot@@@@@std@@@std@@XZ ; Raven_Map::GetTriggers
PUBLIC	?GetNavGraph@Raven_Map@@QBEAAV?$SparseGraph@V?$NavGraphNode@PAV?$Trigger@VRaven_Bot@@@@@@VNavGraphEdge@@@@XZ ; Raven_Map::GetNavGraph
PUBLIC	?GetCellSpace@Raven_Map@@QBEQAV?$CellSpacePartition@PAV?$NavGraphNode@PAV?$Trigger@VRaven_Bot@@@@@@@@XZ ; Raven_Map::GetCellSpace
PUBLIC	?GetCellSpaceNeighborhoodRange@Raven_Map@@QBENXZ ; Raven_Map::GetCellSpaceNeighborhoodRange
PUBLIC	?GetClosestNodeToPosition@Raven_PathPlanner@@ABEHUVector2D@@@Z ; Raven_PathPlanner::GetClosestNodeToPosition
PUBLIC	?SmoothPathEdgesQuick@Raven_PathPlanner@@AAEXAAV?$list@VPathEdge@@V?$allocator@VPathEdge@@@std@@@std@@@Z ; Raven_PathPlanner::SmoothPathEdgesQuick
PUBLIC	?SmoothPathEdgesPrecise@Raven_PathPlanner@@AAEXAAV?$list@VPathEdge@@V?$allocator@VPathEdge@@@std@@@std@@@Z ; Raven_PathPlanner::SmoothPathEdgesPrecise
PUBLIC	?GetReadyForNewSearch@Raven_PathPlanner@@AAEXXZ	; Raven_PathPlanner::GetReadyForNewSearch
PUBLIC	??1Raven_PathPlanner@@QAE@XZ			; Raven_PathPlanner::~Raven_PathPlanner
PUBLIC	??0Raven_PathPlanner@@QAE@PAVRaven_Bot@@@Z	; Raven_PathPlanner::Raven_PathPlanner
PUBLIC	?RequestPathToItem@Raven_PathPlanner@@QAE_NI@Z	; Raven_PathPlanner::RequestPathToItem
PUBLIC	?RequestPathToPosition@Raven_PathPlanner@@QAE_NUVector2D@@@Z ; Raven_PathPlanner::RequestPathToPosition
PUBLIC	?GetPath@Raven_PathPlanner@@QAE?AV?$list@VPathEdge@@V?$allocator@VPathEdge@@@std@@@std@@XZ ; Raven_PathPlanner::GetPath
PUBLIC	?GetCostToNode@Raven_PathPlanner@@QBENI@Z	; Raven_PathPlanner::GetCostToNode
PUBLIC	?GetCostToClosestItem@Raven_PathPlanner@@QBENI@Z ; Raven_PathPlanner::GetCostToClosestItem
PUBLIC	?CycleOnce@Raven_PathPlanner@@QBEHXZ		; Raven_PathPlanner::CycleOnce
PUBLIC	?GetNodePosition@Raven_PathPlanner@@QBE?AUVector2D@@H@Z ; Raven_PathPlanner::GetNodePosition
PUBLIC	?GetMap@Raven_Game@@QAEQAVRaven_Map@@XZ		; Raven_Game::GetMap
PUBLIC	?GetPathManager@Raven_Game@@QAEQAV?$PathManager@VRaven_PathPlanner@@@@XZ ; Raven_Game::GetPathManager
PUBLIC	?deallocate@?$allocator@U?$_List_node@PAVRaven_PathPlanner@@PAX@std@@@std@@QAEXQAU?$_List_node@PAVRaven_PathPlanner@@PAX@2@I@Z ; std::allocator<std::_List_node<Raven_PathPlanner *,void *> >::deallocate
PUBLIC	?allocate@?$allocator@U?$_List_node@PAVRaven_PathPlanner@@PAX@std@@@std@@QAEPAU?$_List_node@PAVRaven_PathPlanner@@PAX@2@I@Z ; std::allocator<std::_List_node<Raven_PathPlanner *,void *> >::allocate
PUBLIC	?max_size@?$_Default_allocator_traits@V?$allocator@U?$_List_node@PAVRaven_PathPlanner@@PAX@std@@@std@@@std@@SAIABV?$allocator@U?$_List_node@PAVRaven_PathPlanner@@PAX@std@@@2@@Z ; std::_Default_allocator_traits<std::allocator<std::_List_node<Raven_PathPlanner *,void *> > >::max_size
PUBLIC	?begin@?$list@PAVRaven_PathPlanner@@V?$allocator@PAVRaven_PathPlanner@@@std@@@std@@QAE?AV?$_List_iterator@V?$_List_val@U?$_List_simple_types@PAVRaven_PathPlanner@@@std@@@std@@@2@XZ ; std::list<Raven_PathPlanner *,std::allocator<Raven_PathPlanner *> >::begin
PUBLIC	?end@?$list@PAVRaven_PathPlanner@@V?$allocator@PAVRaven_PathPlanner@@@std@@@std@@QAE?AV?$_List_iterator@V?$_List_val@U?$_List_simple_types@PAVRaven_PathPlanner@@@std@@@std@@@2@XZ ; std::list<Raven_PathPlanner *,std::allocator<Raven_PathPlanner *> >::end
PUBLIC	?max_size@?$list@PAVRaven_PathPlanner@@V?$allocator@PAVRaven_PathPlanner@@@std@@@std@@QBEIXZ ; std::list<Raven_PathPlanner *,std::allocator<Raven_PathPlanner *> >::max_size
PUBLIC	?push_back@?$list@PAVRaven_PathPlanner@@V?$allocator@PAVRaven_PathPlanner@@@std@@@std@@QAEXABQAVRaven_PathPlanner@@@Z ; std::list<Raven_PathPlanner *,std::allocator<Raven_PathPlanner *> >::push_back
PUBLIC	?remove@?$list@PAVRaven_PathPlanner@@V?$allocator@PAVRaven_PathPlanner@@@std@@@std@@QAE@ABQAVRaven_PathPlanner@@@Z ; std::list<Raven_PathPlanner *,std::allocator<Raven_PathPlanner *> >::remove
PUBLIC	?_Getal@?$list@PAVRaven_PathPlanner@@V?$allocator@PAVRaven_PathPlanner@@@std@@@std@@AAEAAV?$allocator@U?$_List_node@PAVRaven_PathPlanner@@PAX@std@@@2@XZ ; std::list<Raven_PathPlanner *,std::allocator<Raven_PathPlanner *> >::_Getal
PUBLIC	?_Getal@?$list@PAVRaven_PathPlanner@@V?$allocator@PAVRaven_PathPlanner@@@std@@@std@@ABEABV?$allocator@U?$_List_node@PAVRaven_PathPlanner@@PAX@std@@@2@XZ ; std::list<Raven_PathPlanner *,std::allocator<Raven_PathPlanner *> >::_Getal
PUBLIC	?_Orphan_ptr2@?$_List_val@U?$_List_simple_types@PAVRaven_PathPlanner@@@std@@@std@@QAEXPAU?$_List_node@PAVRaven_PathPlanner@@PAX@2@@Z ; std::_List_val<std::_List_simple_types<Raven_PathPlanner *> >::_Orphan_ptr2
PUBLIC	?_Get_first@?$_Compressed_pair@V?$allocator@U?$_List_node@PAVRaven_PathPlanner@@PAX@std@@@std@@V?$_List_val@U?$_List_simple_types@PAVRaven_PathPlanner@@@std@@@2@$00@std@@QAEAAV?$allocator@U?$_List_node@PAVRaven_PathPlanner@@PAX@std@@@2@XZ ; std::_Compressed_pair<std::allocator<std::_List_node<Raven_PathPlanner *,void *> >,std::_List_val<std::_List_simple_types<Raven_PathPlanner *> >,1>::_Get_first
PUBLIC	?_Get_first@?$_Compressed_pair@V?$allocator@U?$_List_node@PAVRaven_PathPlanner@@PAX@std@@@std@@V?$_List_val@U?$_List_simple_types@PAVRaven_PathPlanner@@@std@@@2@$00@std@@QBEABV?$allocator@U?$_List_node@PAVRaven_PathPlanner@@PAX@std@@@2@XZ ; std::_Compressed_pair<std::allocator<std::_List_node<Raven_PathPlanner *,void *> >,std::_List_val<std::_List_simple_types<Raven_PathPlanner *> >,1>::_Get_first
PUBLIC	?Register@?$PathManager@VRaven_PathPlanner@@@@QAEXPAVRaven_PathPlanner@@@Z ; PathManager<Raven_PathPlanner>::Register
PUBLIC	?UnRegister@?$PathManager@VRaven_PathPlanner@@@@QAEXPAVRaven_PathPlanner@@@Z ; PathManager<Raven_PathPlanner>::UnRegister
PUBLIC	??0?$Graph_SearchTimeSliced@VNavGraphEdge@@@@QAE@W4SearchType@0@@Z ; Graph_SearchTimeSliced<NavGraphEdge>::Graph_SearchTimeSliced<NavGraphEdge>
PUBLIC	??1?$Graph_SearchTimeSliced@VNavGraphEdge@@@@UAE@XZ ; Graph_SearchTimeSliced<NavGraphEdge>::~Graph_SearchTimeSliced<NavGraphEdge>
PUBLIC	?GetType@?$Graph_SearchTimeSliced@VNavGraphEdge@@@@QBE?AW4SearchType@1@XZ ; Graph_SearchTimeSliced<NavGraphEdge>::GetType
PUBLIC	??_G?$Graph_SearchTimeSliced@VNavGraphEdge@@@@UAEPAXI@Z ; Graph_SearchTimeSliced<NavGraphEdge>::`scalar deleting destructor'
PUBLIC	?Pos@?$NavGraphNode@PAV?$Trigger@VRaven_Bot@@@@@@QBE?AUVector2D@@XZ ; NavGraphNode<Trigger<Raven_Bot> *>::Pos
PUBLIC	?ExtraInfo@?$NavGraphNode@PAV?$Trigger@VRaven_Bot@@@@@@QBEPAV?$Trigger@VRaven_Bot@@@@XZ ; NavGraphNode<Trigger<Raven_Bot> *>::ExtraInfo
PUBLIC	??0?$_List_unchecked_const_iterator@V?$_List_val@U?$_List_simple_types@PAV?$Trigger@VRaven_Bot@@@@@std@@@std@@U_Iterator_base12@2@@std@@QAE@XZ ; std::_List_unchecked_const_iterator<std::_List_val<std::_List_simple_types<Trigger<Raven_Bot> *> >,std::_Iterator_base12>::_List_unchecked_const_iterator<std::_List_val<std::_List_simple_types<Trigger<Raven_Bot> *> >,std::_Iterator_base12>
PUBLIC	??0?$_List_unchecked_const_iterator@V?$_List_val@U?$_List_simple_types@PAV?$Trigger@VRaven_Bot@@@@@std@@@std@@U_Iterator_base12@2@@std@@QAE@PAU?$_List_node@PAV?$Trigger@VRaven_Bot@@@@PAX@1@PBV?$_List_val@U?$_List_simple_types@PAV?$Trigger@VRaven_Bot@@@@@std@@@1@@Z ; std::_List_unchecked_const_iterator<std::_List_val<std::_List_simple_types<Trigger<Raven_Bot> *> >,std::_Iterator_base12>::_List_unchecked_const_iterator<std::_List_val<std::_List_simple_types<Trigger<Raven_Bot> *> >,std::_Iterator_base12>
PUBLIC	??1?$_List_unchecked_const_iterator@V?$_List_val@U?$_List_simple_types@PAV?$Trigger@VRaven_Bot@@@@@std@@@std@@U_Iterator_base12@2@@std@@QAE@XZ ; std::_List_unchecked_const_iterator<std::_List_val<std::_List_simple_types<Trigger<Raven_Bot> *> >,std::_Iterator_base12>::~_List_unchecked_const_iterator<std::_List_val<std::_List_simple_types<Trigger<Raven_Bot> *> >,std::_Iterator_base12>
PUBLIC	??4?$_List_unchecked_const_iterator@V?$_List_val@U?$_List_simple_types@PAV?$Trigger@VRaven_Bot@@@@@std@@@std@@U_Iterator_base12@2@@std@@QAEAAV01@$$QAV01@@Z ; std::_List_unchecked_const_iterator<std::_List_val<std::_List_simple_types<Trigger<Raven_Bot> *> >,std::_Iterator_base12>::operator=
PUBLIC	??D?$_List_const_iterator@V?$_List_val@U?$_List_simple_types@PAV?$Trigger@VRaven_Bot@@@@@std@@@std@@@std@@QBEABQAV?$Trigger@VRaven_Bot@@@@XZ ; std::_List_const_iterator<std::_List_val<std::_List_simple_types<Trigger<Raven_Bot> *> > >::operator*
PUBLIC	??E?$_List_const_iterator@V?$_List_val@U?$_List_simple_types@PAV?$Trigger@VRaven_Bot@@@@@std@@@std@@@std@@QAEAAV01@XZ ; std::_List_const_iterator<std::_List_val<std::_List_simple_types<Trigger<Raven_Bot> *> > >::operator++
PUBLIC	??8?$_List_const_iterator@V?$_List_val@U?$_List_simple_types@PAV?$Trigger@VRaven_Bot@@@@@std@@@std@@@std@@QBE_NABV01@@Z ; std::_List_const_iterator<std::_List_val<std::_List_simple_types<Trigger<Raven_Bot> *> > >::operator==
PUBLIC	??9?$_List_const_iterator@V?$_List_val@U?$_List_simple_types@PAV?$Trigger@VRaven_Bot@@@@@std@@@std@@@std@@QBE_NABV01@@Z ; std::_List_const_iterator<std::_List_val<std::_List_simple_types<Trigger<Raven_Bot> *> > >::operator!=
PUBLIC	??0?$_List_const_iterator@V?$_List_val@U?$_List_simple_types@PAV?$Trigger@VRaven_Bot@@@@@std@@@std@@@std@@QAE@XZ ; std::_List_const_iterator<std::_List_val<std::_List_simple_types<Trigger<Raven_Bot> *> > >::_List_const_iterator<std::_List_val<std::_List_simple_types<Trigger<Raven_Bot> *> > >
PUBLIC	??1?$_List_const_iterator@V?$_List_val@U?$_List_simple_types@PAV?$Trigger@VRaven_Bot@@@@@std@@@std@@@std@@QAE@XZ ; std::_List_const_iterator<std::_List_val<std::_List_simple_types<Trigger<Raven_Bot> *> > >::~_List_const_iterator<std::_List_val<std::_List_simple_types<Trigger<Raven_Bot> *> > >
PUBLIC	??4?$_List_const_iterator@V?$_List_val@U?$_List_simple_types@PAV?$Trigger@VRaven_Bot@@@@@std@@@std@@@std@@QAEAAV01@$$QAV01@@Z ; std::_List_const_iterator<std::_List_val<std::_List_simple_types<Trigger<Raven_Bot> *> > >::operator=
PUBLIC	??0?$_List_const_iterator@V?$_List_val@U?$_List_simple_types@PAV?$Trigger@VRaven_Bot@@@@@std@@@std@@@std@@QAE@PAU?$_List_node@PAV?$Trigger@VRaven_Bot@@@@PAX@1@PBV?$_List_val@U?$_List_simple_types@PAV?$Trigger@VRaven_Bot@@@@@std@@@1@@Z ; std::_List_const_iterator<std::_List_val<std::_List_simple_types<Trigger<Raven_Bot> *> > >::_List_const_iterator<std::_List_val<std::_List_simple_types<Trigger<Raven_Bot> *> > >
PUBLIC	?GraphNodeIndex@?$Trigger@VRaven_Bot@@@@QBEHXZ	; Trigger<Raven_Bot>::GraphNodeIndex
PUBLIC	?isActive@?$Trigger@VRaven_Bot@@@@QAE_NXZ	; Trigger<Raven_Bot>::isActive
PUBLIC	??0?$allocator@U?$_List_node@VPathEdge@@PAX@std@@@std@@QAE@XZ ; std::allocator<std::_List_node<PathEdge,void *> >::allocator<std::_List_node<PathEdge,void *> >
PUBLIC	?deallocate@?$allocator@U?$_List_node@VPathEdge@@PAX@std@@@std@@QAEXQAU?$_List_node@VPathEdge@@PAX@2@I@Z ; std::allocator<std::_List_node<PathEdge,void *> >::deallocate
PUBLIC	?allocate@?$allocator@U?$_List_node@VPathEdge@@PAX@std@@@std@@QAEPAU?$_List_node@VPathEdge@@PAX@2@I@Z ; std::allocator<std::_List_node<PathEdge,void *> >::allocate
PUBLIC	?deallocate@?$_Default_allocator_traits@V?$allocator@U?$_List_node@VPathEdge@@PAX@std@@@std@@@std@@SAXAAV?$allocator@U?$_List_node@VPathEdge@@PAX@std@@@2@QAU?$_List_node@VPathEdge@@PAX@2@I@Z ; std::_Default_allocator_traits<std::allocator<std::_List_node<PathEdge,void *> > >::deallocate
PUBLIC	?max_size@?$_Default_allocator_traits@V?$allocator@U?$_List_node@VPathEdge@@PAX@std@@@std@@@std@@SAIABV?$allocator@U?$_List_node@VPathEdge@@PAX@std@@@2@@Z ; std::_Default_allocator_traits<std::allocator<std::_List_node<PathEdge,void *> > >::max_size
PUBLIC	??0?$list@VPathEdge@@V?$allocator@VPathEdge@@@std@@@std@@QAE@XZ ; std::list<PathEdge,std::allocator<PathEdge> >::list<PathEdge,std::allocator<PathEdge> >
PUBLIC	??0?$list@VPathEdge@@V?$allocator@VPathEdge@@@std@@@std@@QAE@$$QAV01@@Z ; std::list<PathEdge,std::allocator<PathEdge> >::list<PathEdge,std::allocator<PathEdge> >
PUBLIC	?_Swap_val@?$list@VPathEdge@@V?$allocator@VPathEdge@@@std@@@std@@AAEXAAV12@@Z ; std::list<PathEdge,std::allocator<PathEdge> >::_Swap_val
PUBLIC	?push_front@?$list@VPathEdge@@V?$allocator@VPathEdge@@@std@@@std@@QAEX$$QAVPathEdge@@@Z ; std::list<PathEdge,std::allocator<PathEdge> >::push_front
PUBLIC	?push_back@?$list@VPathEdge@@V?$allocator@VPathEdge@@@std@@@std@@QAEX$$QAVPathEdge@@@Z ; std::list<PathEdge,std::allocator<PathEdge> >::push_back
PUBLIC	??1?$list@VPathEdge@@V?$allocator@VPathEdge@@@std@@@std@@QAE@XZ ; std::list<PathEdge,std::allocator<PathEdge> >::~list<PathEdge,std::allocator<PathEdge> >
PUBLIC	?begin@?$list@VPathEdge@@V?$allocator@VPathEdge@@@std@@@std@@QAE?AV?$_List_iterator@V?$_List_val@U?$_List_simple_types@VPathEdge@@@std@@@std@@@2@XZ ; std::list<PathEdge,std::allocator<PathEdge> >::begin
PUBLIC	?end@?$list@VPathEdge@@V?$allocator@VPathEdge@@@std@@@std@@QAE?AV?$_List_iterator@V?$_List_val@U?$_List_simple_types@VPathEdge@@@std@@@std@@@2@XZ ; std::list<PathEdge,std::allocator<PathEdge> >::end
PUBLIC	?_Make_iter@?$list@VPathEdge@@V?$allocator@VPathEdge@@@std@@@std@@QBE?AV?$_List_iterator@V?$_List_val@U?$_List_simple_types@VPathEdge@@@std@@@std@@@2@PAU?$_List_node@VPathEdge@@PAX@2@@Z ; std::list<PathEdge,std::allocator<PathEdge> >::_Make_iter
PUBLIC	?max_size@?$list@VPathEdge@@V?$allocator@VPathEdge@@@std@@@std@@QBEIXZ ; std::list<PathEdge,std::allocator<PathEdge> >::max_size
PUBLIC	?back@?$list@VPathEdge@@V?$allocator@VPathEdge@@@std@@@std@@QAEAAVPathEdge@@XZ ; std::list<PathEdge,std::allocator<PathEdge> >::back
PUBLIC	?erase@?$list@VPathEdge@@V?$allocator@VPathEdge@@@std@@@std@@QAE?AV?$_List_iterator@V?$_List_val@U?$_List_simple_types@VPathEdge@@@std@@@std@@@2@V?$_List_const_iterator@V?$_List_val@U?$_List_simple_types@VPathEdge@@@std@@@std@@@2@@Z ; std::list<PathEdge,std::allocator<PathEdge> >::erase
PUBLIC	?erase@?$list@VPathEdge@@V?$allocator@VPathEdge@@@std@@@std@@QAE?AV?$_List_iterator@V?$_List_val@U?$_List_simple_types@VPathEdge@@@std@@@std@@@2@V?$_List_const_iterator@V?$_List_val@U?$_List_simple_types@VPathEdge@@@std@@@std@@@2@0@Z ; std::list<PathEdge,std::allocator<PathEdge> >::erase
PUBLIC	?_Unchecked_erase@?$list@VPathEdge@@V?$allocator@VPathEdge@@@std@@@std@@AAEPAU?$_List_node@VPathEdge@@PAX@2@PAU32@QAU32@@Z ; std::list<PathEdge,std::allocator<PathEdge> >::_Unchecked_erase
PUBLIC	?_Tidy@?$list@VPathEdge@@V?$allocator@VPathEdge@@@std@@@std@@AAEXXZ ; std::list<PathEdge,std::allocator<PathEdge> >::_Tidy
PUBLIC	?_Alloc_sentinel_and_proxy@?$list@VPathEdge@@V?$allocator@VPathEdge@@@std@@@std@@AAEXXZ ; std::list<PathEdge,std::allocator<PathEdge> >::_Alloc_sentinel_and_proxy
PUBLIC	?_Getal@?$list@VPathEdge@@V?$allocator@VPathEdge@@@std@@@std@@AAEAAV?$allocator@U?$_List_node@VPathEdge@@PAX@std@@@2@XZ ; std::list<PathEdge,std::allocator<PathEdge> >::_Getal
PUBLIC	?_Getal@?$list@VPathEdge@@V?$allocator@VPathEdge@@@std@@@std@@ABEABV?$allocator@U?$_List_node@VPathEdge@@PAX@std@@@2@XZ ; std::list<PathEdge,std::allocator<PathEdge> >::_Getal
PUBLIC	??0?$_List_val@U?$_List_simple_types@VPathEdge@@@std@@@std@@QAE@XZ ; std::_List_val<std::_List_simple_types<PathEdge> >::_List_val<std::_List_simple_types<PathEdge> >
PUBLIC	?_Orphan_ptr2@?$_List_val@U?$_List_simple_types@VPathEdge@@@std@@@std@@QAEXPAU?$_List_node@VPathEdge@@PAX@2@@Z ; std::_List_val<std::_List_simple_types<PathEdge> >::_Orphan_ptr2
PUBLIC	?_Orphan_non_end@?$_List_val@U?$_List_simple_types@VPathEdge@@@std@@@std@@QAEXXZ ; std::_List_val<std::_List_simple_types<PathEdge> >::_Orphan_non_end
PUBLIC	?_Unlinknode@?$_List_val@U?$_List_simple_types@VPathEdge@@@std@@@std@@QAEPAU?$_List_node@VPathEdge@@PAX@2@PAU32@@Z ; std::_List_val<std::_List_simple_types<PathEdge> >::_Unlinknode
PUBLIC	?_Get_first@?$_Compressed_pair@V?$allocator@U?$_List_node@VPathEdge@@PAX@std@@@std@@V?$_List_val@U?$_List_simple_types@VPathEdge@@@std@@@2@$00@std@@QAEAAV?$allocator@U?$_List_node@VPathEdge@@PAX@std@@@2@XZ ; std::_Compressed_pair<std::allocator<std::_List_node<PathEdge,void *> >,std::_List_val<std::_List_simple_types<PathEdge> >,1>::_Get_first
PUBLIC	?_Get_first@?$_Compressed_pair@V?$allocator@U?$_List_node@VPathEdge@@PAX@std@@@std@@V?$_List_val@U?$_List_simple_types@VPathEdge@@@std@@@2@$00@std@@QBEABV?$allocator@U?$_List_node@VPathEdge@@PAX@std@@@2@XZ ; std::_Compressed_pair<std::allocator<std::_List_node<PathEdge,void *> >,std::_List_val<std::_List_simple_types<PathEdge> >,1>::_Get_first
PUBLIC	??0?$_List_unchecked_const_iterator@V?$_List_val@U?$_List_simple_types@VPathEdge@@@std@@@std@@U_Iterator_base12@2@@std@@QAE@XZ ; std::_List_unchecked_const_iterator<std::_List_val<std::_List_simple_types<PathEdge> >,std::_Iterator_base12>::_List_unchecked_const_iterator<std::_List_val<std::_List_simple_types<PathEdge> >,std::_Iterator_base12>
PUBLIC	??0?$_List_unchecked_const_iterator@V?$_List_val@U?$_List_simple_types@VPathEdge@@@std@@@std@@U_Iterator_base12@2@@std@@QAE@PAU?$_List_node@VPathEdge@@PAX@1@PBV?$_List_val@U?$_List_simple_types@VPathEdge@@@std@@@1@@Z ; std::_List_unchecked_const_iterator<std::_List_val<std::_List_simple_types<PathEdge> >,std::_Iterator_base12>::_List_unchecked_const_iterator<std::_List_val<std::_List_simple_types<PathEdge> >,std::_Iterator_base12>
PUBLIC	??1?$_List_unchecked_const_iterator@V?$_List_val@U?$_List_simple_types@VPathEdge@@@std@@@std@@U_Iterator_base12@2@@std@@QAE@XZ ; std::_List_unchecked_const_iterator<std::_List_val<std::_List_simple_types<PathEdge> >,std::_Iterator_base12>::~_List_unchecked_const_iterator<std::_List_val<std::_List_simple_types<PathEdge> >,std::_Iterator_base12>
PUBLIC	??0?$_List_unchecked_const_iterator@V?$_List_val@U?$_List_simple_types@VPathEdge@@@std@@@std@@U_Iterator_base12@2@@std@@QAE@ABV01@@Z ; std::_List_unchecked_const_iterator<std::_List_val<std::_List_simple_types<PathEdge> >,std::_Iterator_base12>::_List_unchecked_const_iterator<std::_List_val<std::_List_simple_types<PathEdge> >,std::_Iterator_base12>
PUBLIC	??4?$_List_unchecked_const_iterator@V?$_List_val@U?$_List_simple_types@VPathEdge@@@std@@@std@@U_Iterator_base12@2@@std@@QAEAAV01@ABV01@@Z ; std::_List_unchecked_const_iterator<std::_List_val<std::_List_simple_types<PathEdge> >,std::_Iterator_base12>::operator=
PUBLIC	??4?$_List_unchecked_const_iterator@V?$_List_val@U?$_List_simple_types@VPathEdge@@@std@@@std@@U_Iterator_base12@2@@std@@QAEAAV01@$$QAV01@@Z ; std::_List_unchecked_const_iterator<std::_List_val<std::_List_simple_types<PathEdge> >,std::_Iterator_base12>::operator=
PUBLIC	??D?$_List_const_iterator@V?$_List_val@U?$_List_simple_types@VPathEdge@@@std@@@std@@@std@@QBEABVPathEdge@@XZ ; std::_List_const_iterator<std::_List_val<std::_List_simple_types<PathEdge> > >::operator*
PUBLIC	??E?$_List_const_iterator@V?$_List_val@U?$_List_simple_types@VPathEdge@@@std@@@std@@@std@@QAEAAV01@XZ ; std::_List_const_iterator<std::_List_val<std::_List_simple_types<PathEdge> > >::operator++
PUBLIC	??F?$_List_const_iterator@V?$_List_val@U?$_List_simple_types@VPathEdge@@@std@@@std@@@std@@QAEAAV01@XZ ; std::_List_const_iterator<std::_List_val<std::_List_simple_types<PathEdge> > >::operator--
PUBLIC	??8?$_List_const_iterator@V?$_List_val@U?$_List_simple_types@VPathEdge@@@std@@@std@@@std@@QBE_NABV01@@Z ; std::_List_const_iterator<std::_List_val<std::_List_simple_types<PathEdge> > >::operator==
PUBLIC	??9?$_List_const_iterator@V?$_List_val@U?$_List_simple_types@VPathEdge@@@std@@@std@@@std@@QBE_NABV01@@Z ; std::_List_const_iterator<std::_List_val<std::_List_simple_types<PathEdge> > >::operator!=
PUBLIC	?_Verify_range@std@@YAXABV?$_List_const_iterator@V?$_List_val@U?$_List_simple_types@VPathEdge@@@std@@@std@@@1@0@Z ; std::_Verify_range
PUBLIC	??0?$_List_const_iterator@V?$_List_val@U?$_List_simple_types@VPathEdge@@@std@@@std@@@std@@QAE@XZ ; std::_List_const_iterator<std::_List_val<std::_List_simple_types<PathEdge> > >::_List_const_iterator<std::_List_val<std::_List_simple_types<PathEdge> > >
PUBLIC	??1?$_List_const_iterator@V?$_List_val@U?$_List_simple_types@VPathEdge@@@std@@@std@@@std@@QAE@XZ ; std::_List_const_iterator<std::_List_val<std::_List_simple_types<PathEdge> > >::~_List_const_iterator<std::_List_val<std::_List_simple_types<PathEdge> > >
PUBLIC	??0?$_List_const_iterator@V?$_List_val@U?$_List_simple_types@VPathEdge@@@std@@@std@@@std@@QAE@ABV01@@Z ; std::_List_const_iterator<std::_List_val<std::_List_simple_types<PathEdge> > >::_List_const_iterator<std::_List_val<std::_List_simple_types<PathEdge> > >
PUBLIC	??4?$_List_const_iterator@V?$_List_val@U?$_List_simple_types@VPathEdge@@@std@@@std@@@std@@QAEAAV01@ABV01@@Z ; std::_List_const_iterator<std::_List_val<std::_List_simple_types<PathEdge> > >::operator=
PUBLIC	??4?$_List_const_iterator@V?$_List_val@U?$_List_simple_types@VPathEdge@@@std@@@std@@@std@@QAEAAV01@$$QAV01@@Z ; std::_List_const_iterator<std::_List_val<std::_List_simple_types<PathEdge> > >::operator=
PUBLIC	??0?$_List_const_iterator@V?$_List_val@U?$_List_simple_types@VPathEdge@@@std@@@std@@@std@@QAE@PAU?$_List_node@VPathEdge@@PAX@1@PBV?$_List_val@U?$_List_simple_types@VPathEdge@@@std@@@1@@Z ; std::_List_const_iterator<std::_List_val<std::_List_simple_types<PathEdge> > >::_List_const_iterator<std::_List_val<std::_List_simple_types<PathEdge> > >
PUBLIC	??D?$_List_iterator@V?$_List_val@U?$_List_simple_types@VPathEdge@@@std@@@std@@@std@@QBEAAVPathEdge@@XZ ; std::_List_iterator<std::_List_val<std::_List_simple_types<PathEdge> > >::operator*
PUBLIC	??C?$_List_iterator@V?$_List_val@U?$_List_simple_types@VPathEdge@@@std@@@std@@@std@@QBEPAVPathEdge@@XZ ; std::_List_iterator<std::_List_val<std::_List_simple_types<PathEdge> > >::operator->
PUBLIC	??E?$_List_iterator@V?$_List_val@U?$_List_simple_types@VPathEdge@@@std@@@std@@@std@@QAEAAV01@XZ ; std::_List_iterator<std::_List_val<std::_List_simple_types<PathEdge> > >::operator++
PUBLIC	??F?$_List_iterator@V?$_List_val@U?$_List_simple_types@VPathEdge@@@std@@@std@@@std@@QAEAAV01@XZ ; std::_List_iterator<std::_List_val<std::_List_simple_types<PathEdge> > >::operator--
PUBLIC	??0?$_List_iterator@V?$_List_val@U?$_List_simple_types@VPathEdge@@@std@@@std@@@std@@QAE@XZ ; std::_List_iterator<std::_List_val<std::_List_simple_types<PathEdge> > >::_List_iterator<std::_List_val<std::_List_simple_types<PathEdge> > >
PUBLIC	??1?$_List_iterator@V?$_List_val@U?$_List_simple_types@VPathEdge@@@std@@@std@@@std@@QAE@XZ ; std::_List_iterator<std::_List_val<std::_List_simple_types<PathEdge> > >::~_List_iterator<std::_List_val<std::_List_simple_types<PathEdge> > >
PUBLIC	??4?$_List_iterator@V?$_List_val@U?$_List_simple_types@VPathEdge@@@std@@@std@@@std@@QAEAAV01@ABV01@@Z ; std::_List_iterator<std::_List_val<std::_List_simple_types<PathEdge> > >::operator=
PUBLIC	??4?$_List_iterator@V?$_List_val@U?$_List_simple_types@VPathEdge@@@std@@@std@@@std@@QAEAAV01@$$QAV01@@Z ; std::_List_iterator<std::_List_val<std::_List_simple_types<PathEdge> > >::operator=
PUBLIC	??0?$_List_iterator@V?$_List_val@U?$_List_simple_types@VPathEdge@@@std@@@std@@@std@@QAE@PAU?$_List_node@VPathEdge@@PAX@1@PBV?$_List_val@U?$_List_simple_types@VPathEdge@@@std@@@1@@Z ; std::_List_iterator<std::_List_val<std::_List_simple_types<PathEdge> > >::_List_iterator<std::_List_val<std::_List_simple_types<PathEdge> > >
PUBLIC	??0?$allocator@U?$_List_node@HPAX@std@@@std@@QAE@XZ ; std::allocator<std::_List_node<int,void *> >::allocator<std::_List_node<int,void *> >
PUBLIC	?deallocate@?$allocator@U?$_List_node@HPAX@std@@@std@@QAEXQAU?$_List_node@HPAX@2@I@Z ; std::allocator<std::_List_node<int,void *> >::deallocate
PUBLIC	?allocate@?$allocator@U?$_List_node@HPAX@std@@@std@@QAEPAU?$_List_node@HPAX@2@I@Z ; std::allocator<std::_List_node<int,void *> >::allocate
PUBLIC	?deallocate@?$_Default_allocator_traits@V?$allocator@U?$_List_node@HPAX@std@@@std@@@std@@SAXAAV?$allocator@U?$_List_node@HPAX@std@@@2@QAU?$_List_node@HPAX@2@I@Z ; std::_Default_allocator_traits<std::allocator<std::_List_node<int,void *> > >::deallocate
PUBLIC	?max_size@?$_Default_allocator_traits@V?$allocator@U?$_List_node@HPAX@std@@@std@@@std@@SAIABV?$allocator@U?$_List_node@HPAX@std@@@2@@Z ; std::_Default_allocator_traits<std::allocator<std::_List_node<int,void *> > >::max_size
PUBLIC	??0?$list@HV?$allocator@H@std@@@std@@QAE@XZ	; std::list<int,std::allocator<int> >::list<int,std::allocator<int> >
PUBLIC	??0?$list@HV?$allocator@H@std@@@std@@QAE@$$QAV01@@Z ; std::list<int,std::allocator<int> >::list<int,std::allocator<int> >
PUBLIC	?_Swap_val@?$list@HV?$allocator@H@std@@@std@@AAEXAAV12@@Z ; std::list<int,std::allocator<int> >::_Swap_val
PUBLIC	??1?$list@HV?$allocator@H@std@@@std@@QAE@XZ	; std::list<int,std::allocator<int> >::~list<int,std::allocator<int> >
PUBLIC	?max_size@?$list@HV?$allocator@H@std@@@std@@QBEIXZ ; std::list<int,std::allocator<int> >::max_size
PUBLIC	?back@?$list@HV?$allocator@H@std@@@std@@QAEAAHXZ ; std::list<int,std::allocator<int> >::back
PUBLIC	?push_front@?$list@HV?$allocator@H@std@@@std@@QAEXABH@Z ; std::list<int,std::allocator<int> >::push_front
PUBLIC	?push_back@?$list@HV?$allocator@H@std@@@std@@QAEXABH@Z ; std::list<int,std::allocator<int> >::push_back
PUBLIC	?_Tidy@?$list@HV?$allocator@H@std@@@std@@AAEXXZ	; std::list<int,std::allocator<int> >::_Tidy
PUBLIC	?_Alloc_sentinel_and_proxy@?$list@HV?$allocator@H@std@@@std@@AAEXXZ ; std::list<int,std::allocator<int> >::_Alloc_sentinel_and_proxy
PUBLIC	?_Getal@?$list@HV?$allocator@H@std@@@std@@AAEAAV?$allocator@U?$_List_node@HPAX@std@@@2@XZ ; std::list<int,std::allocator<int> >::_Getal
PUBLIC	?_Getal@?$list@HV?$allocator@H@std@@@std@@ABEABV?$allocator@U?$_List_node@HPAX@std@@@2@XZ ; std::list<int,std::allocator<int> >::_Getal
PUBLIC	??0?$_List_val@U?$_List_simple_types@H@std@@@std@@QAE@XZ ; std::_List_val<std::_List_simple_types<int> >::_List_val<std::_List_simple_types<int> >
PUBLIC	?_Get_first@?$_Compressed_pair@V?$allocator@U?$_List_node@HPAX@std@@@std@@V?$_List_val@U?$_List_simple_types@H@std@@@2@$00@std@@QAEAAV?$allocator@U?$_List_node@HPAX@std@@@2@XZ ; std::_Compressed_pair<std::allocator<std::_List_node<int,void *> >,std::_List_val<std::_List_simple_types<int> >,1>::_Get_first
PUBLIC	?_Get_first@?$_Compressed_pair@V?$allocator@U?$_List_node@HPAX@std@@@std@@V?$_List_val@U?$_List_simple_types@H@std@@@2@$00@std@@QBEABV?$allocator@U?$_List_node@HPAX@std@@@2@XZ ; std::_Compressed_pair<std::allocator<std::_List_node<int,void *> >,std::_List_val<std::_List_simple_types<int> >,1>::_Get_first
PUBLIC	?begin@?$vector@U?$Cell@PAV?$NavGraphNode@PAV?$Trigger@VRaven_Bot@@@@@@@@V?$allocator@U?$Cell@PAV?$NavGraphNode@PAV?$Trigger@VRaven_Bot@@@@@@@@@std@@@std@@QAE?AV?$_Vector_iterator@V?$_Vector_val@U?$_Simple_types@U?$Cell@PAV?$NavGraphNode@PAV?$Trigger@VRaven_Bot@@@@@@@@@std@@@std@@@2@XZ ; std::vector<Cell<NavGraphNode<Trigger<Raven_Bot> *> *>,std::allocator<Cell<NavGraphNode<Trigger<Raven_Bot> *> *> > >::begin
PUBLIC	?end@?$vector@U?$Cell@PAV?$NavGraphNode@PAV?$Trigger@VRaven_Bot@@@@@@@@V?$allocator@U?$Cell@PAV?$NavGraphNode@PAV?$Trigger@VRaven_Bot@@@@@@@@@std@@@std@@QAE?AV?$_Vector_iterator@V?$_Vector_val@U?$_Simple_types@U?$Cell@PAV?$NavGraphNode@PAV?$Trigger@VRaven_Bot@@@@@@@@@std@@@std@@@2@XZ ; std::vector<Cell<NavGraphNode<Trigger<Raven_Bot> *> *>,std::allocator<Cell<NavGraphNode<Trigger<Raven_Bot> *> *> > >::end
PUBLIC	?begin@?$vector@PAV?$NavGraphNode@PAV?$Trigger@VRaven_Bot@@@@@@V?$allocator@PAV?$NavGraphNode@PAV?$Trigger@VRaven_Bot@@@@@@@std@@@std@@QAE?AV?$_Vector_iterator@V?$_Vector_val@U?$_Simple_types@PAV?$NavGraphNode@PAV?$Trigger@VRaven_Bot@@@@@@@std@@@std@@@2@XZ ; std::vector<NavGraphNode<Trigger<Raven_Bot> *> *,std::allocator<NavGraphNode<Trigger<Raven_Bot> *> *> >::begin
PUBLIC	?end@?$vector@PAV?$NavGraphNode@PAV?$Trigger@VRaven_Bot@@@@@@V?$allocator@PAV?$NavGraphNode@PAV?$Trigger@VRaven_Bot@@@@@@@std@@@std@@QAE?AV?$_Vector_iterator@V?$_Vector_val@U?$_Simple_types@PAV?$NavGraphNode@PAV?$Trigger@VRaven_Bot@@@@@@@std@@@std@@@2@XZ ; std::vector<NavGraphNode<Trigger<Raven_Bot> *> *,std::allocator<NavGraphNode<Trigger<Raven_Bot> *> *> >::end
PUBLIC	??0?$_Vector_const_iterator@V?$_Vector_val@U?$_Simple_types@PAV?$NavGraphNode@PAV?$Trigger@VRaven_Bot@@@@@@@std@@@std@@@std@@QAE@PAPAV?$NavGraphNode@PAV?$Trigger@VRaven_Bot@@@@@@PBU_Container_base12@1@@Z ; std::_Vector_const_iterator<std::_Vector_val<std::_Simple_types<NavGraphNode<Trigger<Raven_Bot> *> *> > >::_Vector_const_iterator<std::_Vector_val<std::_Simple_types<NavGraphNode<Trigger<Raven_Bot> *> *> > >
PUBLIC	??D?$_Vector_const_iterator@V?$_Vector_val@U?$_Simple_types@PAV?$NavGraphNode@PAV?$Trigger@VRaven_Bot@@@@@@@std@@@std@@@std@@QBEABQAV?$NavGraphNode@PAV?$Trigger@VRaven_Bot@@@@@@XZ ; std::_Vector_const_iterator<std::_Vector_val<std::_Simple_types<NavGraphNode<Trigger<Raven_Bot> *> *> > >::operator*
PUBLIC	??E?$_Vector_const_iterator@V?$_Vector_val@U?$_Simple_types@PAV?$NavGraphNode@PAV?$Trigger@VRaven_Bot@@@@@@@std@@@std@@@std@@QAEAAV01@XZ ; std::_Vector_const_iterator<std::_Vector_val<std::_Simple_types<NavGraphNode<Trigger<Raven_Bot> *> *> > >::operator++
PUBLIC	??8?$_Vector_const_iterator@V?$_Vector_val@U?$_Simple_types@PAV?$NavGraphNode@PAV?$Trigger@VRaven_Bot@@@@@@@std@@@std@@@std@@QBE_NABV01@@Z ; std::_Vector_const_iterator<std::_Vector_val<std::_Simple_types<NavGraphNode<Trigger<Raven_Bot> *> *> > >::operator==
PUBLIC	?_Compat@?$_Vector_const_iterator@V?$_Vector_val@U?$_Simple_types@PAV?$NavGraphNode@PAV?$Trigger@VRaven_Bot@@@@@@@std@@@std@@@std@@QBEXABV12@@Z ; std::_Vector_const_iterator<std::_Vector_val<std::_Simple_types<NavGraphNode<Trigger<Raven_Bot> *> *> > >::_Compat
PUBLIC	??1?$_Vector_const_iterator@V?$_Vector_val@U?$_Simple_types@PAV?$NavGraphNode@PAV?$Trigger@VRaven_Bot@@@@@@@std@@@std@@@std@@QAE@XZ ; std::_Vector_const_iterator<std::_Vector_val<std::_Simple_types<NavGraphNode<Trigger<Raven_Bot> *> *> > >::~_Vector_const_iterator<std::_Vector_val<std::_Simple_types<NavGraphNode<Trigger<Raven_Bot> *> *> > >
PUBLIC	??0?$_Vector_const_iterator@V?$_Vector_val@U?$_Simple_types@PAV?$NavGraphNode@PAV?$Trigger@VRaven_Bot@@@@@@@std@@@std@@@std@@QAE@ABV01@@Z ; std::_Vector_const_iterator<std::_Vector_val<std::_Simple_types<NavGraphNode<Trigger<Raven_Bot> *> *> > >::_Vector_const_iterator<std::_Vector_val<std::_Simple_types<NavGraphNode<Trigger<Raven_Bot> *> *> > >
PUBLIC	??0?$_Vector_const_iterator@V?$_Vector_val@U?$_Simple_types@PAV?$NavGraphNode@PAV?$Trigger@VRaven_Bot@@@@@@@std@@@std@@@std@@QAE@$$QAV01@@Z ; std::_Vector_const_iterator<std::_Vector_val<std::_Simple_types<NavGraphNode<Trigger<Raven_Bot> *> *> > >::_Vector_const_iterator<std::_Vector_val<std::_Simple_types<NavGraphNode<Trigger<Raven_Bot> *> *> > >
PUBLIC	??4?$_Vector_const_iterator@V?$_Vector_val@U?$_Simple_types@PAV?$NavGraphNode@PAV?$Trigger@VRaven_Bot@@@@@@@std@@@std@@@std@@QAEAAV01@$$QAV01@@Z ; std::_Vector_const_iterator<std::_Vector_val<std::_Simple_types<NavGraphNode<Trigger<Raven_Bot> *> *> > >::operator=
PUBLIC	??D?$_Vector_iterator@V?$_Vector_val@U?$_Simple_types@PAV?$NavGraphNode@PAV?$Trigger@VRaven_Bot@@@@@@@std@@@std@@@std@@QBEAAPAV?$NavGraphNode@PAV?$Trigger@VRaven_Bot@@@@@@XZ ; std::_Vector_iterator<std::_Vector_val<std::_Simple_types<NavGraphNode<Trigger<Raven_Bot> *> *> > >::operator*
PUBLIC	??E?$_Vector_iterator@V?$_Vector_val@U?$_Simple_types@PAV?$NavGraphNode@PAV?$Trigger@VRaven_Bot@@@@@@@std@@@std@@@std@@QAEAAV01@XZ ; std::_Vector_iterator<std::_Vector_val<std::_Simple_types<NavGraphNode<Trigger<Raven_Bot> *> *> > >::operator++
PUBLIC	??E?$_Vector_iterator@V?$_Vector_val@U?$_Simple_types@PAV?$NavGraphNode@PAV?$Trigger@VRaven_Bot@@@@@@@std@@@std@@@std@@QAE?AV01@H@Z ; std::_Vector_iterator<std::_Vector_val<std::_Simple_types<NavGraphNode<Trigger<Raven_Bot> *> *> > >::operator++
PUBLIC	??1?$_Vector_iterator@V?$_Vector_val@U?$_Simple_types@PAV?$NavGraphNode@PAV?$Trigger@VRaven_Bot@@@@@@@std@@@std@@@std@@QAE@XZ ; std::_Vector_iterator<std::_Vector_val<std::_Simple_types<NavGraphNode<Trigger<Raven_Bot> *> *> > >::~_Vector_iterator<std::_Vector_val<std::_Simple_types<NavGraphNode<Trigger<Raven_Bot> *> *> > >
PUBLIC	??0?$_Vector_iterator@V?$_Vector_val@U?$_Simple_types@PAV?$NavGraphNode@PAV?$Trigger@VRaven_Bot@@@@@@@std@@@std@@@std@@QAE@ABV01@@Z ; std::_Vector_iterator<std::_Vector_val<std::_Simple_types<NavGraphNode<Trigger<Raven_Bot> *> *> > >::_Vector_iterator<std::_Vector_val<std::_Simple_types<NavGraphNode<Trigger<Raven_Bot> *> *> > >
PUBLIC	??0?$_Vector_iterator@V?$_Vector_val@U?$_Simple_types@PAV?$NavGraphNode@PAV?$Trigger@VRaven_Bot@@@@@@@std@@@std@@@std@@QAE@$$QAV01@@Z ; std::_Vector_iterator<std::_Vector_val<std::_Simple_types<NavGraphNode<Trigger<Raven_Bot> *> *> > >::_Vector_iterator<std::_Vector_val<std::_Simple_types<NavGraphNode<Trigger<Raven_Bot> *> *> > >
PUBLIC	??4?$_Vector_iterator@V?$_Vector_val@U?$_Simple_types@PAV?$NavGraphNode@PAV?$Trigger@VRaven_Bot@@@@@@@std@@@std@@@std@@QAEAAV01@$$QAV01@@Z ; std::_Vector_iterator<std::_Vector_val<std::_Simple_types<NavGraphNode<Trigger<Raven_Bot> *> *> > >::operator=
PUBLIC	??0?$_Vector_iterator@V?$_Vector_val@U?$_Simple_types@PAV?$NavGraphNode@PAV?$Trigger@VRaven_Bot@@@@@@@std@@@std@@@std@@QAE@PAPAV?$NavGraphNode@PAV?$Trigger@VRaven_Bot@@@@@@PBU_Container_base12@1@@Z ; std::_Vector_iterator<std::_Vector_val<std::_Simple_types<NavGraphNode<Trigger<Raven_Bot> *> *> > >::_Vector_iterator<std::_Vector_val<std::_Simple_types<NavGraphNode<Trigger<Raven_Bot> *> *> > >
PUBLIC	?CalculateNeighbors@?$CellSpacePartition@PAV?$NavGraphNode@PAV?$Trigger@VRaven_Bot@@@@@@@@QAEXUVector2D@@N@Z ; CellSpacePartition<NavGraphNode<Trigger<Raven_Bot> *> *>::CalculateNeighbors
PUBLIC	?begin@?$CellSpacePartition@PAV?$NavGraphNode@PAV?$Trigger@VRaven_Bot@@@@@@@@QAEAAPAV?$NavGraphNode@PAV?$Trigger@VRaven_Bot@@@@@@XZ ; CellSpacePartition<NavGraphNode<Trigger<Raven_Bot> *> *>::begin
PUBLIC	?next@?$CellSpacePartition@PAV?$NavGraphNode@PAV?$Trigger@VRaven_Bot@@@@@@@@QAEAAPAV?$NavGraphNode@PAV?$Trigger@VRaven_Bot@@@@@@XZ ; CellSpacePartition<NavGraphNode<Trigger<Raven_Bot> *> *>::next
PUBLIC	?end@?$CellSpacePartition@PAV?$NavGraphNode@PAV?$Trigger@VRaven_Bot@@@@@@@@QAE_NXZ ; CellSpacePartition<NavGraphNode<Trigger<Raven_Bot> *> *>::end
PUBLIC	??0?$allocator@PBVNavGraphEdge@@@std@@QAE@XZ	; std::allocator<NavGraphEdge const *>::allocator<NavGraphEdge const *>
PUBLIC	?deallocate@?$allocator@PBVNavGraphEdge@@@std@@QAEXQAPBVNavGraphEdge@@I@Z ; std::allocator<NavGraphEdge const *>::deallocate
PUBLIC	?allocate@?$allocator@PBVNavGraphEdge@@@std@@QAEPAPBVNavGraphEdge@@I@Z ; std::allocator<NavGraphEdge const *>::allocate
PUBLIC	?max_size@?$_Default_allocator_traits@V?$allocator@PBVNavGraphEdge@@@std@@@std@@SAIABV?$allocator@PBVNavGraphEdge@@@2@@Z ; std::_Default_allocator_traits<std::allocator<NavGraphEdge const *> >::max_size
PUBLIC	?select_on_container_copy_construction@?$_Default_allocator_traits@V?$allocator@PBVNavGraphEdge@@@std@@@std@@SA?AV?$allocator@PBVNavGraphEdge@@@2@ABV32@@Z ; std::_Default_allocator_traits<std::allocator<NavGraphEdge const *> >::select_on_container_copy_construction
PUBLIC	??0?$vector@PBVNavGraphEdge@@V?$allocator@PBVNavGraphEdge@@@std@@@std@@QAE@IABV?$allocator@PBVNavGraphEdge@@@1@@Z ; std::vector<NavGraphEdge const *,std::allocator<NavGraphEdge const *> >::vector<NavGraphEdge const *,std::allocator<NavGraphEdge const *> >
PUBLIC	??0?$vector@PBVNavGraphEdge@@V?$allocator@PBVNavGraphEdge@@@std@@@std@@QAE@ABV01@@Z ; std::vector<NavGraphEdge const *,std::allocator<NavGraphEdge const *> >::vector<NavGraphEdge const *,std::allocator<NavGraphEdge const *> >
PUBLIC	??1?$vector@PBVNavGraphEdge@@V?$allocator@PBVNavGraphEdge@@@std@@@std@@QAE@XZ ; std::vector<NavGraphEdge const *,std::allocator<NavGraphEdge const *> >::~vector<NavGraphEdge const *,std::allocator<NavGraphEdge const *> >
PUBLIC	?max_size@?$vector@PBVNavGraphEdge@@V?$allocator@PBVNavGraphEdge@@@std@@@std@@QBEIXZ ; std::vector<NavGraphEdge const *,std::allocator<NavGraphEdge const *> >::max_size
PUBLIC	??A?$vector@PBVNavGraphEdge@@V?$allocator@PBVNavGraphEdge@@@std@@@std@@QAEAAPBVNavGraphEdge@@I@Z ; std::vector<NavGraphEdge const *,std::allocator<NavGraphEdge const *> >::operator[]
PUBLIC	??A?$vector@PBVNavGraphEdge@@V?$allocator@PBVNavGraphEdge@@@std@@@std@@QBEABQBVNavGraphEdge@@I@Z ; std::vector<NavGraphEdge const *,std::allocator<NavGraphEdge const *> >::operator[]
PUBLIC	?_Buy_raw@?$vector@PBVNavGraphEdge@@V?$allocator@PBVNavGraphEdge@@@std@@@std@@AAEXI@Z ; std::vector<NavGraphEdge const *,std::allocator<NavGraphEdge const *> >::_Buy_raw
PUBLIC	?_Buy_nonzero@?$vector@PBVNavGraphEdge@@V?$allocator@PBVNavGraphEdge@@@std@@@std@@AAEXI@Z ; std::vector<NavGraphEdge const *,std::allocator<NavGraphEdge const *> >::_Buy_nonzero
PUBLIC	?_Tidy@?$vector@PBVNavGraphEdge@@V?$allocator@PBVNavGraphEdge@@@std@@@std@@AAEXXZ ; std::vector<NavGraphEdge const *,std::allocator<NavGraphEdge const *> >::_Tidy
PUBLIC	?_Xlength@?$vector@PBVNavGraphEdge@@V?$allocator@PBVNavGraphEdge@@@std@@@std@@CAXXZ ; std::vector<NavGraphEdge const *,std::allocator<NavGraphEdge const *> >::_Xlength
PUBLIC	?_Getal@?$vector@PBVNavGraphEdge@@V?$allocator@PBVNavGraphEdge@@@std@@@std@@AAEAAV?$allocator@PBVNavGraphEdge@@@2@XZ ; std::vector<NavGraphEdge const *,std::allocator<NavGraphEdge const *> >::_Getal
PUBLIC	?_Getal@?$vector@PBVNavGraphEdge@@V?$allocator@PBVNavGraphEdge@@@std@@@std@@ABEABV?$allocator@PBVNavGraphEdge@@@2@XZ ; std::vector<NavGraphEdge const *,std::allocator<NavGraphEdge const *> >::_Getal
PUBLIC	??0?$_Vector_val@U?$_Simple_types@PBVNavGraphEdge@@@std@@@std@@QAE@XZ ; std::_Vector_val<std::_Simple_types<NavGraphEdge const *> >::_Vector_val<std::_Simple_types<NavGraphEdge const *> >
PUBLIC	?_Get_first@?$_Compressed_pair@V?$allocator@PBVNavGraphEdge@@@std@@V?$_Vector_val@U?$_Simple_types@PBVNavGraphEdge@@@std@@@2@$00@std@@QAEAAV?$allocator@PBVNavGraphEdge@@@2@XZ ; std::_Compressed_pair<std::allocator<NavGraphEdge const *>,std::_Vector_val<std::_Simple_types<NavGraphEdge const *> >,1>::_Get_first
PUBLIC	?_Get_first@?$_Compressed_pair@V?$allocator@PBVNavGraphEdge@@@std@@V?$_Vector_val@U?$_Simple_types@PBVNavGraphEdge@@@std@@@2@$00@std@@QBEABV?$allocator@PBVNavGraphEdge@@@2@XZ ; std::_Compressed_pair<std::allocator<NavGraphEdge const *>,std::_Vector_val<std::_Simple_types<NavGraphEdge const *> >,1>::_Get_first
PUBLIC	??0?$Graph_SearchAStar_TS@V?$SparseGraph@V?$NavGraphNode@PAV?$Trigger@VRaven_Bot@@@@@@VNavGraphEdge@@@@VHeuristic_Euclid@@@@QAE@ABV?$SparseGraph@V?$NavGraphNode@PAV?$Trigger@VRaven_Bot@@@@@@VNavGraphEdge@@@@HH@Z ; Graph_SearchAStar_TS<SparseGraph<NavGraphNode<Trigger<Raven_Bot> *>,NavGraphEdge>,Heuristic_Euclid>::Graph_SearchAStar_TS<SparseGraph<NavGraphNode<Trigger<Raven_Bot> *>,NavGraphEdge>,Heuristic_Euclid>
PUBLIC	??1?$Graph_SearchAStar_TS@V?$SparseGraph@V?$NavGraphNode@PAV?$Trigger@VRaven_Bot@@@@@@VNavGraphEdge@@@@VHeuristic_Euclid@@@@UAE@XZ ; Graph_SearchAStar_TS<SparseGraph<NavGraphNode<Trigger<Raven_Bot> *>,NavGraphEdge>,Heuristic_Euclid>::~Graph_SearchAStar_TS<SparseGraph<NavGraphNode<Trigger<Raven_Bot> *>,NavGraphEdge>,Heuristic_Euclid>
PUBLIC	?CycleOnce@?$Graph_SearchAStar_TS@V?$SparseGraph@V?$NavGraphNode@PAV?$Trigger@VRaven_Bot@@@@@@VNavGraphEdge@@@@VHeuristic_Euclid@@@@UAEHXZ ; Graph_SearchAStar_TS<SparseGraph<NavGraphNode<Trigger<Raven_Bot> *>,NavGraphEdge>,Heuristic_Euclid>::CycleOnce
PUBLIC	?GetSPT@?$Graph_SearchAStar_TS@V?$SparseGraph@V?$NavGraphNode@PAV?$Trigger@VRaven_Bot@@@@@@VNavGraphEdge@@@@VHeuristic_Euclid@@@@UBE?AV?$vector@PBVNavGraphEdge@@V?$allocator@PBVNavGraphEdge@@@std@@@std@@XZ ; Graph_SearchAStar_TS<SparseGraph<NavGraphNode<Trigger<Raven_Bot> *>,NavGraphEdge>,Heuristic_Euclid>::GetSPT
PUBLIC	?GetPathToTarget@?$Graph_SearchAStar_TS@V?$SparseGraph@V?$NavGraphNode@PAV?$Trigger@VRaven_Bot@@@@@@VNavGraphEdge@@@@VHeuristic_Euclid@@@@UBE?AV?$list@HV?$allocator@H@std@@@std@@XZ ; Graph_SearchAStar_TS<SparseGraph<NavGraphNode<Trigger<Raven_Bot> *>,NavGraphEdge>,Heuristic_Euclid>::GetPathToTarget
PUBLIC	?GetPathAsPathEdges@?$Graph_SearchAStar_TS@V?$SparseGraph@V?$NavGraphNode@PAV?$Trigger@VRaven_Bot@@@@@@VNavGraphEdge@@@@VHeuristic_Euclid@@@@UBE?AV?$list@VPathEdge@@V?$allocator@VPathEdge@@@std@@@std@@XZ ; Graph_SearchAStar_TS<SparseGraph<NavGraphNode<Trigger<Raven_Bot> *>,NavGraphEdge>,Heuristic_Euclid>::GetPathAsPathEdges
PUBLIC	?GetCostToTarget@?$Graph_SearchAStar_TS@V?$SparseGraph@V?$NavGraphNode@PAV?$Trigger@VRaven_Bot@@@@@@VNavGraphEdge@@@@VHeuristic_Euclid@@@@UBENXZ ; Graph_SearchAStar_TS<SparseGraph<NavGraphNode<Trigger<Raven_Bot> *>,NavGraphEdge>,Heuristic_Euclid>::GetCostToTarget
PUBLIC	??_G?$Graph_SearchAStar_TS@V?$SparseGraph@V?$NavGraphNode@PAV?$Trigger@VRaven_Bot@@@@@@VNavGraphEdge@@@@VHeuristic_Euclid@@@@UAEPAXI@Z ; Graph_SearchAStar_TS<SparseGraph<NavGraphNode<Trigger<Raven_Bot> *>,NavGraphEdge>,Heuristic_Euclid>::`scalar deleting destructor'
PUBLIC	??0?$Graph_SearchDijkstras_TS@V?$SparseGraph@V?$NavGraphNode@PAV?$Trigger@VRaven_Bot@@@@@@VNavGraphEdge@@@@V?$FindActiveTrigger@V?$Trigger@VRaven_Bot@@@@@@@@QAE@ABV?$SparseGraph@V?$NavGraphNode@PAV?$Trigger@VRaven_Bot@@@@@@VNavGraphEdge@@@@HH@Z ; Graph_SearchDijkstras_TS<SparseGraph<NavGraphNode<Trigger<Raven_Bot> *>,NavGraphEdge>,FindActiveTrigger<Trigger<Raven_Bot> > >::Graph_SearchDijkstras_TS<SparseGraph<NavGraphNode<Trigger<Raven_Bot> *>,NavGraphEdge>,FindActiveTrigger<Trigger<Raven_Bot> > >
PUBLIC	??1?$Graph_SearchDijkstras_TS@V?$SparseGraph@V?$NavGraphNode@PAV?$Trigger@VRaven_Bot@@@@@@VNavGraphEdge@@@@V?$FindActiveTrigger@V?$Trigger@VRaven_Bot@@@@@@@@UAE@XZ ; Graph_SearchDijkstras_TS<SparseGraph<NavGraphNode<Trigger<Raven_Bot> *>,NavGraphEdge>,FindActiveTrigger<Trigger<Raven_Bot> > >::~Graph_SearchDijkstras_TS<SparseGraph<NavGraphNode<Trigger<Raven_Bot> *>,NavGraphEdge>,FindActiveTrigger<Trigger<Raven_Bot> > >
PUBLIC	?CycleOnce@?$Graph_SearchDijkstras_TS@V?$SparseGraph@V?$NavGraphNode@PAV?$Trigger@VRaven_Bot@@@@@@VNavGraphEdge@@@@V?$FindActiveTrigger@V?$Trigger@VRaven_Bot@@@@@@@@UAEHXZ ; Graph_SearchDijkstras_TS<SparseGraph<NavGraphNode<Trigger<Raven_Bot> *>,NavGraphEdge>,FindActiveTrigger<Trigger<Raven_Bot> > >::CycleOnce
PUBLIC	?GetSPT@?$Graph_SearchDijkstras_TS@V?$SparseGraph@V?$NavGraphNode@PAV?$Trigger@VRaven_Bot@@@@@@VNavGraphEdge@@@@V?$FindActiveTrigger@V?$Trigger@VRaven_Bot@@@@@@@@UBE?AV?$vector@PBVNavGraphEdge@@V?$allocator@PBVNavGraphEdge@@@std@@@std@@XZ ; Graph_SearchDijkstras_TS<SparseGraph<NavGraphNode<Trigger<Raven_Bot> *>,NavGraphEdge>,FindActiveTrigger<Trigger<Raven_Bot> > >::GetSPT
PUBLIC	?GetPathToTarget@?$Graph_SearchDijkstras_TS@V?$SparseGraph@V?$NavGraphNode@PAV?$Trigger@VRaven_Bot@@@@@@VNavGraphEdge@@@@V?$FindActiveTrigger@V?$Trigger@VRaven_Bot@@@@@@@@UBE?AV?$list@HV?$allocator@H@std@@@std@@XZ ; Graph_SearchDijkstras_TS<SparseGraph<NavGraphNode<Trigger<Raven_Bot> *>,NavGraphEdge>,FindActiveTrigger<Trigger<Raven_Bot> > >::GetPathToTarget
PUBLIC	?GetPathAsPathEdges@?$Graph_SearchDijkstras_TS@V?$SparseGraph@V?$NavGraphNode@PAV?$Trigger@VRaven_Bot@@@@@@VNavGraphEdge@@@@V?$FindActiveTrigger@V?$Trigger@VRaven_Bot@@@@@@@@UBE?AV?$list@VPathEdge@@V?$allocator@VPathEdge@@@std@@@std@@XZ ; Graph_SearchDijkstras_TS<SparseGraph<NavGraphNode<Trigger<Raven_Bot> *>,NavGraphEdge>,FindActiveTrigger<Trigger<Raven_Bot> > >::GetPathAsPathEdges
PUBLIC	?GetCostToTarget@?$Graph_SearchDijkstras_TS@V?$SparseGraph@V?$NavGraphNode@PAV?$Trigger@VRaven_Bot@@@@@@VNavGraphEdge@@@@V?$FindActiveTrigger@V?$Trigger@VRaven_Bot@@@@@@@@UBENXZ ; Graph_SearchDijkstras_TS<SparseGraph<NavGraphNode<Trigger<Raven_Bot> *>,NavGraphEdge>,FindActiveTrigger<Trigger<Raven_Bot> > >::GetCostToTarget
PUBLIC	??_G?$Graph_SearchDijkstras_TS@V?$SparseGraph@V?$NavGraphNode@PAV?$Trigger@VRaven_Bot@@@@@@VNavGraphEdge@@@@V?$FindActiveTrigger@V?$Trigger@VRaven_Bot@@@@@@@@UAEPAXI@Z ; Graph_SearchDijkstras_TS<SparseGraph<NavGraphNode<Trigger<Raven_Bot> *>,NavGraphEdge>,FindActiveTrigger<Trigger<Raven_Bot> > >::`scalar deleting destructor'
PUBLIC	?Swap@?$IndexedPriorityQLow@N@@AAEXHH@Z		; IndexedPriorityQLow<double>::Swap
PUBLIC	?ReorderUpwards@?$IndexedPriorityQLow@N@@AAEXH@Z ; IndexedPriorityQLow<double>::ReorderUpwards
PUBLIC	?ReorderDownwards@?$IndexedPriorityQLow@N@@AAEXHH@Z ; IndexedPriorityQLow<double>::ReorderDownwards
PUBLIC	??0?$IndexedPriorityQLow@N@@QAE@AAV?$vector@NV?$allocator@N@std@@@std@@H@Z ; IndexedPriorityQLow<double>::IndexedPriorityQLow<double>
PUBLIC	?empty@?$IndexedPriorityQLow@N@@QBE_NXZ		; IndexedPriorityQLow<double>::empty
PUBLIC	?insert@?$IndexedPriorityQLow@N@@QAEXH@Z	; IndexedPriorityQLow<double>::insert
PUBLIC	?Pop@?$IndexedPriorityQLow@N@@QAEHXZ		; IndexedPriorityQLow<double>::Pop
PUBLIC	?ChangePriority@?$IndexedPriorityQLow@N@@QAEXH@Z ; IndexedPriorityQLow<double>::ChangePriority
PUBLIC	??1?$IndexedPriorityQLow@N@@QAE@XZ		; IndexedPriorityQLow<double>::~IndexedPriorityQLow<double>
PUBLIC	??_G?$IndexedPriorityQLow@N@@QAEPAXI@Z		; IndexedPriorityQLow<double>::`scalar deleting destructor'
PUBLIC	?allocate@?$allocator@U_Container_proxy@std@@@std@@QAEPAU_Container_proxy@2@I@Z ; std::allocator<std::_Container_proxy>::allocate
PUBLIC	??$?0U?$_List_node@HPAX@std@@@?$allocator@U_Container_proxy@std@@@std@@QAE@ABV?$allocator@U?$_List_node@HPAX@std@@@1@@Z ; std::allocator<std::_Container_proxy>::allocator<std::_Container_proxy><std::_List_node<int,void *> >
PUBLIC	??$_Delete_plain_internal@V?$allocator@U_Container_proxy@std@@@std@@@std@@YAXAAV?$allocator@U_Container_proxy@std@@@0@QAU_Container_proxy@0@@Z ; std::_Delete_plain_internal<std::allocator<std::_Container_proxy> >
PUBLIC	?pointer_to@?$pointer_traits@PAVPathEdge@@@std@@SAPAVPathEdge@@AAV3@@Z ; std::pointer_traits<PathEdge *>::pointer_to
PUBLIC	??$_Adl_verify_range@V?$_List_const_iterator@V?$_List_val@U?$_List_simple_types@VPathEdge@@@std@@@std@@@std@@V12@@std@@YAXABV?$_List_const_iterator@V?$_List_val@U?$_List_simple_types@VPathEdge@@@std@@@std@@@0@0@Z ; std::_Adl_verify_range<std::_List_const_iterator<std::_List_val<std::_List_simple_types<PathEdge> > >,std::_List_const_iterator<std::_List_val<std::_List_simple_types<PathEdge> > > >
PUBLIC	??$addressof@V?$_List_val@U?$_List_simple_types@VPathEdge@@@std@@@std@@@std@@YAPAV?$_List_val@U?$_List_simple_types@VPathEdge@@@std@@@0@AAV10@@Z ; std::addressof<std::_List_val<std::_List_simple_types<PathEdge> > >
PUBLIC	??$_Freenode@V?$allocator@U?$_List_node@VPathEdge@@PAX@std@@@std@@@?$_List_node@VPathEdge@@PAX@std@@SAXAAV?$allocator@U?$_List_node@VPathEdge@@PAX@std@@@1@PAU01@@Z ; std::_List_node<PathEdge,void *>::_Freenode<std::allocator<std::_List_node<PathEdge,void *> > >
PUBLIC	??$?0U?$_List_node@VPathEdge@@PAX@std@@@?$allocator@U_Container_proxy@std@@@std@@QAE@ABV?$allocator@U?$_List_node@VPathEdge@@PAX@std@@@1@@Z ; std::allocator<std::_Container_proxy>::allocator<std::_Container_proxy><std::_List_node<PathEdge,void *> >
PUBLIC	??$move@AAVPathEdge@@@std@@YA$$QAVPathEdge@@AAV1@@Z ; std::move<PathEdge &>
PUBLIC	??$_Emplace@VPathEdge@@@?$list@VPathEdge@@V?$allocator@VPathEdge@@@std@@@std@@QAEPAU?$_List_node@VPathEdge@@PAX@1@QAU21@$$QAVPathEdge@@@Z ; std::list<PathEdge,std::allocator<PathEdge> >::_Emplace<PathEdge>
PUBLIC	??$move@AAV?$allocator@U?$_List_node@VPathEdge@@PAX@std@@@std@@@std@@YA$$QAV?$allocator@U?$_List_node@VPathEdge@@PAX@std@@@0@AAV10@@Z ; std::move<std::allocator<std::_List_node<PathEdge,void *> > &>
PUBLIC	??$?0V?$allocator@U?$_List_node@VPathEdge@@PAX@std@@@std@@$$V@?$_Compressed_pair@V?$allocator@U?$_List_node@VPathEdge@@PAX@std@@@std@@V?$_List_val@U?$_List_simple_types@VPathEdge@@@std@@@2@$00@std@@QAE@U_One_then_variadic_args_t@1@$$QAV?$allocator@U?$_List_node@VPathEdge@@PAX@std@@@1@@Z ; std::_Compressed_pair<std::allocator<std::_List_node<PathEdge,void *> >,std::_List_val<std::_List_simple_types<PathEdge> >,1>::_Compressed_pair<std::allocator<std::_List_node<PathEdge,void *> >,std::_List_val<std::_List_simple_types<PathEdge> >,1><std::allocator<std::_List_node<PathEdge,void *> > >
PUBLIC	??$addressof@$$CBV?$_List_val@U?$_List_simple_types@PAV?$Trigger@VRaven_Bot@@@@@std@@@std@@@std@@YAPBV?$_List_val@U?$_List_simple_types@PAV?$Trigger@VRaven_Bot@@@@@std@@@0@ABV10@@Z ; std::addressof<std::_List_val<std::_List_simple_types<Trigger<Raven_Bot> *> > const >
PUBLIC	??$min@I@std@@YAABIABI0@Z			; std::min<unsigned int>
PUBLIC	??$exchange@PAU_Container_proxy@std@@$$T@std@@YAPAU_Container_proxy@0@AAPAU10@$$QA$$T@Z ; std::exchange<std::_Container_proxy *,std::nullptr_t>
PUBLIC	??$_Alloc_proxy@V?$allocator@U_Container_proxy@std@@@std@@@_Container_base12@std@@QAEX$$QAV?$allocator@U_Container_proxy@std@@@1@@Z ; std::_Container_base12::_Alloc_proxy<std::allocator<std::_Container_proxy> >
PUBLIC	??0?$_Container_proxy_ptr12@V?$allocator@U_Container_proxy@std@@@std@@@std@@QAE@AAV?$allocator@U_Container_proxy@std@@@1@AAU_Container_base12@1@@Z ; std::_Container_proxy_ptr12<std::allocator<std::_Container_proxy> >::_Container_proxy_ptr12<std::allocator<std::_Container_proxy> >
PUBLIC	??1?$_Container_proxy_ptr12@V?$allocator@U_Container_proxy@std@@@std@@@std@@QAE@XZ ; std::_Container_proxy_ptr12<std::allocator<std::_Container_proxy> >::~_Container_proxy_ptr12<std::allocator<std::_Container_proxy> >
PUBLIC	??$_Unfancy@U_Container_proxy@std@@@std@@YAPAU_Container_proxy@0@PAU10@@Z ; std::_Unfancy<std::_Container_proxy>
PUBLIC	??$addressof@U_Container_base12@std@@@std@@YAPAU_Container_base12@0@AAU10@@Z ; std::addressof<std::_Container_base12>
PUBLIC	??$_Construct_in_place@U_Container_proxy@std@@PAU_Container_base12@2@@std@@YAXAAU_Container_proxy@0@$$QAPAU_Container_base12@0@@Z ; std::_Construct_in_place<std::_Container_proxy,std::_Container_base12 *>
PUBLIC	??$addressof@VPathEdge@@@std@@YAPAVPathEdge@@AAV1@@Z ; std::addressof<PathEdge>
PUBLIC	??$?0PBVNavGraphEdge@@@?$allocator@U_Container_proxy@std@@@std@@QAE@ABV?$allocator@PBVNavGraphEdge@@@1@@Z ; std::allocator<std::_Container_proxy>::allocator<std::_Container_proxy><NavGraphEdge const *>
PUBLIC	??$?0V?$allocator@PBVNavGraphEdge@@@std@@$$V@?$_Compressed_pair@V?$allocator@PBVNavGraphEdge@@@std@@V?$_Vector_val@U?$_Simple_types@PBVNavGraphEdge@@@std@@@2@$00@std@@QAE@U_One_then_variadic_args_t@1@$$QAV?$allocator@PBVNavGraphEdge@@@1@@Z ; std::_Compressed_pair<std::allocator<NavGraphEdge const *>,std::_Vector_val<std::_Simple_types<NavGraphEdge const *> >,1>::_Compressed_pair<std::allocator<NavGraphEdge const *>,std::_Vector_val<std::_Simple_types<NavGraphEdge const *> >,1><std::allocator<NavGraphEdge const *> >
PUBLIC	??$_Construct_n@ABQAPBVNavGraphEdge@@ABQAPBV1@@?$vector@PBVNavGraphEdge@@V?$allocator@PBVNavGraphEdge@@@std@@@std@@AAEXIABQAPBVNavGraphEdge@@0@Z ; std::vector<NavGraphEdge const *,std::allocator<NavGraphEdge const *> >::_Construct_n<NavGraphEdge const * * const &,NavGraphEdge const * * const &>
PUBLIC	??$?0ABV?$allocator@PBVNavGraphEdge@@@std@@$$V@?$_Compressed_pair@V?$allocator@PBVNavGraphEdge@@@std@@V?$_Vector_val@U?$_Simple_types@PBVNavGraphEdge@@@std@@@2@$00@std@@QAE@U_One_then_variadic_args_t@1@ABV?$allocator@PBVNavGraphEdge@@@1@@Z ; std::_Compressed_pair<std::allocator<NavGraphEdge const *>,std::_Vector_val<std::_Simple_types<NavGraphEdge const *> >,1>::_Compressed_pair<std::allocator<NavGraphEdge const *>,std::_Vector_val<std::_Simple_types<NavGraphEdge const *> >,1><std::allocator<NavGraphEdge const *> const &>
PUBLIC	??$_Construct_n@$$V@?$vector@PBVNavGraphEdge@@V?$allocator@PBVNavGraphEdge@@@std@@@std@@AAEXI@Z ; std::vector<NavGraphEdge const *,std::allocator<NavGraphEdge const *> >::_Construct_n<>
PUBLIC	??$addressof@V?$_Vector_val@U?$_Simple_types@PAV?$NavGraphNode@PAV?$Trigger@VRaven_Bot@@@@@@@std@@@std@@@std@@YAPAV?$_Vector_val@U?$_Simple_types@PAV?$NavGraphNode@PAV?$Trigger@VRaven_Bot@@@@@@@std@@@0@AAV10@@Z ; std::addressof<std::_Vector_val<std::_Simple_types<NavGraphNode<Trigger<Raven_Bot> *> *> > >
PUBLIC	??$_Free_non_head@V?$allocator@U?$_List_node@HPAX@std@@@std@@@?$_List_node@HPAX@std@@SAXAAV?$allocator@U?$_List_node@HPAX@std@@@1@PAU01@@Z ; std::_List_node<int,void *>::_Free_non_head<std::allocator<std::_List_node<int,void *> > >
PUBLIC	??$_Freenode0@V?$allocator@U?$_List_node@HPAX@std@@@std@@@?$_List_node@HPAX@std@@SAXAAV?$allocator@U?$_List_node@HPAX@std@@@1@PAU01@@Z ; std::_List_node<int,void *>::_Freenode0<std::allocator<std::_List_node<int,void *> > >
PUBLIC	??$_Construct_in_place@PAU?$_List_node@VPathEdge@@PAX@std@@AAPAU12@@std@@YAXAAPAU?$_List_node@VPathEdge@@PAX@0@0@Z ; std::_Construct_in_place<std::_List_node<PathEdge,void *> *,std::_List_node<PathEdge,void *> * &>
PUBLIC	??$_Free_non_head@V?$allocator@U?$_List_node@VPathEdge@@PAX@std@@@std@@@?$_List_node@VPathEdge@@PAX@std@@SAXAAV?$allocator@U?$_List_node@VPathEdge@@PAX@std@@@1@PAU01@@Z ; std::_List_node<PathEdge,void *>::_Free_non_head<std::allocator<std::_List_node<PathEdge,void *> > >
PUBLIC	??$_Freenode0@V?$allocator@U?$_List_node@VPathEdge@@PAX@std@@@std@@@?$_List_node@VPathEdge@@PAX@std@@SAXAAV?$allocator@U?$_List_node@VPathEdge@@PAX@std@@@1@PAU01@@Z ; std::_List_node<PathEdge,void *>::_Freenode0<std::allocator<std::_List_node<PathEdge,void *> > >
PUBLIC	??$addressof@$$CBV?$_List_val@U?$_List_simple_types@VPathEdge@@@std@@@std@@@std@@YAPBV?$_List_val@U?$_List_simple_types@VPathEdge@@@std@@@0@ABV10@@Z ; std::addressof<std::_List_val<std::_List_simple_types<PathEdge> > const >
PUBLIC	??$_Swap_adl@PAU?$_List_node@VPathEdge@@PAX@std@@@std@@YAXAAPAU?$_List_node@VPathEdge@@PAX@0@0@Z ; std::_Swap_adl<std::_List_node<PathEdge,void *> *>
PUBLIC	??$swap@PAU?$_List_node@VPathEdge@@PAX@std@@$0A@@std@@YAXAAPAU?$_List_node@VPathEdge@@PAX@0@0@Z ; std::swap<std::_List_node<PathEdge,void *> *,0>
PUBLIC	??$swap@I$0A@@std@@YAXAAI0@Z			; std::swap<unsigned int,0>
PUBLIC	??$?0H@?$allocator@U_Container_proxy@std@@@std@@QAE@ABV?$allocator@H@1@@Z ; std::allocator<std::_Container_proxy>::allocator<std::_Container_proxy><int>
PUBLIC	??$?0N@?$allocator@U_Container_proxy@std@@@std@@QAE@ABV?$allocator@N@1@@Z ; std::allocator<std::_Container_proxy>::allocator<std::_Container_proxy><double>
PUBLIC	??$?0ABV?$allocator@N@std@@$$V@?$_Compressed_pair@V?$allocator@N@std@@V?$_Vector_val@U?$_Simple_types@N@std@@@2@$00@std@@QAE@U_One_then_variadic_args_t@1@ABV?$allocator@N@1@@Z ; std::_Compressed_pair<std::allocator<double>,std::_Vector_val<std::_Simple_types<double> >,1>::_Compressed_pair<std::allocator<double>,std::_Vector_val<std::_Simple_types<double> >,1><std::allocator<double> const &>
PUBLIC	??$_Construct_n@ABN@?$vector@NV?$allocator@N@std@@@std@@AAEXIABN@Z ; std::vector<double,std::allocator<double> >::_Construct_n<double const &>
PUBLIC	??$_Get_size_of_n@$07@std@@YAII@Z		; std::_Get_size_of_n<8>
PUBLIC	??$_Allocate@$07U_Default_allocate_traits@std@@$0A@@std@@YAPAXI@Z ; std::_Allocate<8,std::_Default_allocate_traits,0>
PUBLIC	??$_Destroy_range@V?$allocator@PBVNavGraphEdge@@@std@@@std@@YAXPAPBVNavGraphEdge@@QAPBV1@AAV?$allocator@PBVNavGraphEdge@@@0@@Z ; std::_Destroy_range<std::allocator<NavGraphEdge const *> >
PUBLIC	??$_Get_size_of_n@$0DA@@std@@YAII@Z		; std::_Get_size_of_n<48>
PUBLIC	??$_Deallocate@$07$0A@@std@@YAXPAXI@Z		; std::_Deallocate<8,0>
PUBLIC	??$_Destroy_range@V?$allocator@H@std@@@std@@YAXPAHQAHAAV?$allocator@H@0@@Z ; std::_Destroy_range<std::allocator<int> >
PUBLIC	??$_Uninitialized_fill_n@V?$allocator@H@std@@@std@@YAPAHPAHIABHAAV?$allocator@H@0@@Z ; std::_Uninitialized_fill_n<std::allocator<int> >
PUBLIC	??$fill@PAHH@std@@YAXQAH0ABH@Z			; std::fill<int *,int>
PUBLIC	??$?0$$V@?$_Compressed_pair@V?$allocator@H@std@@V?$_Vector_val@U?$_Simple_types@H@std@@@2@$00@std@@QAE@U_Zero_then_variadic_args_t@1@@Z ; std::_Compressed_pair<std::allocator<int>,std::_Vector_val<std::_Simple_types<int> >,1>::_Compressed_pair<std::allocator<int>,std::_Vector_val<std::_Simple_types<int> >,1><>
PUBLIC	??$_Destroy_range@V?$allocator@N@std@@@std@@YAXPANQANAAV?$allocator@N@0@@Z ; std::_Destroy_range<std::allocator<double> >
PUBLIC	??$_Get_size_of_n@$03@std@@YAII@Z		; std::_Get_size_of_n<4>
PUBLIC	??0?$_Vector_const_iterator@V?$_Vector_val@U?$_Simple_types@U?$Cell@PAV?$NavGraphNode@PAV?$Trigger@VRaven_Bot@@@@@@@@@std@@@std@@@std@@QAE@XZ ; std::_Vector_const_iterator<std::_Vector_val<std::_Simple_types<Cell<NavGraphNode<Trigger<Raven_Bot> *> *> > > >::_Vector_const_iterator<std::_Vector_val<std::_Simple_types<Cell<NavGraphNode<Trigger<Raven_Bot> *> *> > > >
PUBLIC	??0?$_Vector_const_iterator@V?$_Vector_val@U?$_Simple_types@U?$Cell@PAV?$NavGraphNode@PAV?$Trigger@VRaven_Bot@@@@@@@@@std@@@std@@@std@@QAE@PAU?$Cell@PAV?$NavGraphNode@PAV?$Trigger@VRaven_Bot@@@@@@@@PBU_Container_base12@1@@Z ; std::_Vector_const_iterator<std::_Vector_val<std::_Simple_types<Cell<NavGraphNode<Trigger<Raven_Bot> *> *> > > >::_Vector_const_iterator<std::_Vector_val<std::_Simple_types<Cell<NavGraphNode<Trigger<Raven_Bot> *> *> > > >
PUBLIC	??E?$_Vector_const_iterator@V?$_Vector_val@U?$_Simple_types@U?$Cell@PAV?$NavGraphNode@PAV?$Trigger@VRaven_Bot@@@@@@@@@std@@@std@@@std@@QAEAAV01@XZ ; std::_Vector_const_iterator<std::_Vector_val<std::_Simple_types<Cell<NavGraphNode<Trigger<Raven_Bot> *> *> > > >::operator++
PUBLIC	??8?$_Vector_const_iterator@V?$_Vector_val@U?$_Simple_types@U?$Cell@PAV?$NavGraphNode@PAV?$Trigger@VRaven_Bot@@@@@@@@@std@@@std@@@std@@QBE_NABV01@@Z ; std::_Vector_const_iterator<std::_Vector_val<std::_Simple_types<Cell<NavGraphNode<Trigger<Raven_Bot> *> *> > > >::operator==
PUBLIC	??9?$_Vector_const_iterator@V?$_Vector_val@U?$_Simple_types@U?$Cell@PAV?$NavGraphNode@PAV?$Trigger@VRaven_Bot@@@@@@@@@std@@@std@@@std@@QBE_NABV01@@Z ; std::_Vector_const_iterator<std::_Vector_val<std::_Simple_types<Cell<NavGraphNode<Trigger<Raven_Bot> *> *> > > >::operator!=
PUBLIC	?_Compat@?$_Vector_const_iterator@V?$_Vector_val@U?$_Simple_types@U?$Cell@PAV?$NavGraphNode@PAV?$Trigger@VRaven_Bot@@@@@@@@@std@@@std@@@std@@QBEXABV12@@Z ; std::_Vector_const_iterator<std::_Vector_val<std::_Simple_types<Cell<NavGraphNode<Trigger<Raven_Bot> *> *> > > >::_Compat
PUBLIC	??1?$_Vector_const_iterator@V?$_Vector_val@U?$_Simple_types@U?$Cell@PAV?$NavGraphNode@PAV?$Trigger@VRaven_Bot@@@@@@@@@std@@@std@@@std@@QAE@XZ ; std::_Vector_const_iterator<std::_Vector_val<std::_Simple_types<Cell<NavGraphNode<Trigger<Raven_Bot> *> *> > > >::~_Vector_const_iterator<std::_Vector_val<std::_Simple_types<Cell<NavGraphNode<Trigger<Raven_Bot> *> *> > > >
PUBLIC	??4?$_Vector_const_iterator@V?$_Vector_val@U?$_Simple_types@U?$Cell@PAV?$NavGraphNode@PAV?$Trigger@VRaven_Bot@@@@@@@@@std@@@std@@@std@@QAEAAV01@$$QAV01@@Z ; std::_Vector_const_iterator<std::_Vector_val<std::_Simple_types<Cell<NavGraphNode<Trigger<Raven_Bot> *> *> > > >::operator=
PUBLIC	??C?$_Vector_iterator@V?$_Vector_val@U?$_Simple_types@U?$Cell@PAV?$NavGraphNode@PAV?$Trigger@VRaven_Bot@@@@@@@@@std@@@std@@@std@@QBEPAU?$Cell@PAV?$NavGraphNode@PAV?$Trigger@VRaven_Bot@@@@@@@@XZ ; std::_Vector_iterator<std::_Vector_val<std::_Simple_types<Cell<NavGraphNode<Trigger<Raven_Bot> *> *> > > >::operator->
PUBLIC	??E?$_Vector_iterator@V?$_Vector_val@U?$_Simple_types@U?$Cell@PAV?$NavGraphNode@PAV?$Trigger@VRaven_Bot@@@@@@@@@std@@@std@@@std@@QAEAAV01@XZ ; std::_Vector_iterator<std::_Vector_val<std::_Simple_types<Cell<NavGraphNode<Trigger<Raven_Bot> *> *> > > >::operator++
PUBLIC	??0?$_Vector_iterator@V?$_Vector_val@U?$_Simple_types@U?$Cell@PAV?$NavGraphNode@PAV?$Trigger@VRaven_Bot@@@@@@@@@std@@@std@@@std@@QAE@XZ ; std::_Vector_iterator<std::_Vector_val<std::_Simple_types<Cell<NavGraphNode<Trigger<Raven_Bot> *> *> > > >::_Vector_iterator<std::_Vector_val<std::_Simple_types<Cell<NavGraphNode<Trigger<Raven_Bot> *> *> > > >
PUBLIC	??1?$_Vector_iterator@V?$_Vector_val@U?$_Simple_types@U?$Cell@PAV?$NavGraphNode@PAV?$Trigger@VRaven_Bot@@@@@@@@@std@@@std@@@std@@QAE@XZ ; std::_Vector_iterator<std::_Vector_val<std::_Simple_types<Cell<NavGraphNode<Trigger<Raven_Bot> *> *> > > >::~_Vector_iterator<std::_Vector_val<std::_Simple_types<Cell<NavGraphNode<Trigger<Raven_Bot> *> *> > > >
PUBLIC	??4?$_Vector_iterator@V?$_Vector_val@U?$_Simple_types@U?$Cell@PAV?$NavGraphNode@PAV?$Trigger@VRaven_Bot@@@@@@@@@std@@@std@@@std@@QAEAAV01@$$QAV01@@Z ; std::_Vector_iterator<std::_Vector_val<std::_Simple_types<Cell<NavGraphNode<Trigger<Raven_Bot> *> *> > > >::operator=
PUBLIC	??0?$_Vector_iterator@V?$_Vector_val@U?$_Simple_types@U?$Cell@PAV?$NavGraphNode@PAV?$Trigger@VRaven_Bot@@@@@@@@@std@@@std@@@std@@QAE@PAU?$Cell@PAV?$NavGraphNode@PAV?$Trigger@VRaven_Bot@@@@@@@@PBU_Container_base12@1@@Z ; std::_Vector_iterator<std::_Vector_val<std::_Simple_types<Cell<NavGraphNode<Trigger<Raven_Bot> *> *> > > >::_Vector_iterator<std::_Vector_val<std::_Simple_types<Cell<NavGraphNode<Trigger<Raven_Bot> *> *> > > >
PUBLIC	?begin@?$list@PAV?$NavGraphNode@PAV?$Trigger@VRaven_Bot@@@@@@V?$allocator@PAV?$NavGraphNode@PAV?$Trigger@VRaven_Bot@@@@@@@std@@@std@@QAE?AV?$_List_iterator@V?$_List_val@U?$_List_simple_types@PAV?$NavGraphNode@PAV?$Trigger@VRaven_Bot@@@@@@@std@@@std@@@2@XZ ; std::list<NavGraphNode<Trigger<Raven_Bot> *> *,std::allocator<NavGraphNode<Trigger<Raven_Bot> *> *> >::begin
PUBLIC	?end@?$list@PAV?$NavGraphNode@PAV?$Trigger@VRaven_Bot@@@@@@V?$allocator@PAV?$NavGraphNode@PAV?$Trigger@VRaven_Bot@@@@@@@std@@@std@@QAE?AV?$_List_iterator@V?$_List_val@U?$_List_simple_types@PAV?$NavGraphNode@PAV?$Trigger@VRaven_Bot@@@@@@@std@@@std@@@2@XZ ; std::list<NavGraphNode<Trigger<Raven_Bot> *> *,std::allocator<NavGraphNode<Trigger<Raven_Bot> *> *> >::end
PUBLIC	?empty@?$list@PAV?$NavGraphNode@PAV?$Trigger@VRaven_Bot@@@@@@V?$allocator@PAV?$NavGraphNode@PAV?$Trigger@VRaven_Bot@@@@@@@std@@@std@@QBE_NXZ ; std::list<NavGraphNode<Trigger<Raven_Bot> *> *,std::allocator<NavGraphNode<Trigger<Raven_Bot> *> *> >::empty
PUBLIC	??0?$_List_unchecked_const_iterator@V?$_List_val@U?$_List_simple_types@PAV?$NavGraphNode@PAV?$Trigger@VRaven_Bot@@@@@@@std@@@std@@U_Iterator_base12@2@@std@@QAE@PAU?$_List_node@PAV?$NavGraphNode@PAV?$Trigger@VRaven_Bot@@@@@@PAX@1@PBV?$_List_val@U?$_List_simple_types@PAV?$NavGraphNode@PAV?$Trigger@VRaven_Bot@@@@@@@std@@@1@@Z ; std::_List_unchecked_const_iterator<std::_List_val<std::_List_simple_types<NavGraphNode<Trigger<Raven_Bot> *> *> >,std::_Iterator_base12>::_List_unchecked_const_iterator<std::_List_val<std::_List_simple_types<NavGraphNode<Trigger<Raven_Bot> *> *> >,std::_Iterator_base12>
PUBLIC	??1?$_List_unchecked_const_iterator@V?$_List_val@U?$_List_simple_types@PAV?$NavGraphNode@PAV?$Trigger@VRaven_Bot@@@@@@@std@@@std@@U_Iterator_base12@2@@std@@QAE@XZ ; std::_List_unchecked_const_iterator<std::_List_val<std::_List_simple_types<NavGraphNode<Trigger<Raven_Bot> *> *> >,std::_Iterator_base12>::~_List_unchecked_const_iterator<std::_List_val<std::_List_simple_types<NavGraphNode<Trigger<Raven_Bot> *> *> >,std::_Iterator_base12>
PUBLIC	??D?$_List_const_iterator@V?$_List_val@U?$_List_simple_types@PAV?$NavGraphNode@PAV?$Trigger@VRaven_Bot@@@@@@@std@@@std@@@std@@QBEABQAV?$NavGraphNode@PAV?$Trigger@VRaven_Bot@@@@@@XZ ; std::_List_const_iterator<std::_List_val<std::_List_simple_types<NavGraphNode<Trigger<Raven_Bot> *> *> > >::operator*
PUBLIC	??E?$_List_const_iterator@V?$_List_val@U?$_List_simple_types@PAV?$NavGraphNode@PAV?$Trigger@VRaven_Bot@@@@@@@std@@@std@@@std@@QAEAAV01@XZ ; std::_List_const_iterator<std::_List_val<std::_List_simple_types<NavGraphNode<Trigger<Raven_Bot> *> *> > >::operator++
PUBLIC	??8?$_List_const_iterator@V?$_List_val@U?$_List_simple_types@PAV?$NavGraphNode@PAV?$Trigger@VRaven_Bot@@@@@@@std@@@std@@@std@@QBE_NABV01@@Z ; std::_List_const_iterator<std::_List_val<std::_List_simple_types<NavGraphNode<Trigger<Raven_Bot> *> *> > >::operator==
PUBLIC	??9?$_List_const_iterator@V?$_List_val@U?$_List_simple_types@PAV?$NavGraphNode@PAV?$Trigger@VRaven_Bot@@@@@@@std@@@std@@@std@@QBE_NABV01@@Z ; std::_List_const_iterator<std::_List_val<std::_List_simple_types<NavGraphNode<Trigger<Raven_Bot> *> *> > >::operator!=
PUBLIC	??1?$_List_const_iterator@V?$_List_val@U?$_List_simple_types@PAV?$NavGraphNode@PAV?$Trigger@VRaven_Bot@@@@@@@std@@@std@@@std@@QAE@XZ ; std::_List_const_iterator<std::_List_val<std::_List_simple_types<NavGraphNode<Trigger<Raven_Bot> *> *> > >::~_List_const_iterator<std::_List_val<std::_List_simple_types<NavGraphNode<Trigger<Raven_Bot> *> *> > >
PUBLIC	??0?$_List_const_iterator@V?$_List_val@U?$_List_simple_types@PAV?$NavGraphNode@PAV?$Trigger@VRaven_Bot@@@@@@@std@@@std@@@std@@QAE@PAU?$_List_node@PAV?$NavGraphNode@PAV?$Trigger@VRaven_Bot@@@@@@PAX@1@PBV?$_List_val@U?$_List_simple_types@PAV?$NavGraphNode@PAV?$Trigger@VRaven_Bot@@@@@@@std@@@1@@Z ; std::_List_const_iterator<std::_List_val<std::_List_simple_types<NavGraphNode<Trigger<Raven_Bot> *> *> > >::_List_const_iterator<std::_List_val<std::_List_simple_types<NavGraphNode<Trigger<Raven_Bot> *> *> > >
PUBLIC	??D?$_List_iterator@V?$_List_val@U?$_List_simple_types@PAV?$NavGraphNode@PAV?$Trigger@VRaven_Bot@@@@@@@std@@@std@@@std@@QBEAAPAV?$NavGraphNode@PAV?$Trigger@VRaven_Bot@@@@@@XZ ; std::_List_iterator<std::_List_val<std::_List_simple_types<NavGraphNode<Trigger<Raven_Bot> *> *> > >::operator*
PUBLIC	??E?$_List_iterator@V?$_List_val@U?$_List_simple_types@PAV?$NavGraphNode@PAV?$Trigger@VRaven_Bot@@@@@@@std@@@std@@@std@@QAEAAV01@XZ ; std::_List_iterator<std::_List_val<std::_List_simple_types<NavGraphNode<Trigger<Raven_Bot> *> *> > >::operator++
PUBLIC	??1?$_List_iterator@V?$_List_val@U?$_List_simple_types@PAV?$NavGraphNode@PAV?$Trigger@VRaven_Bot@@@@@@@std@@@std@@@std@@QAE@XZ ; std::_List_iterator<std::_List_val<std::_List_simple_types<NavGraphNode<Trigger<Raven_Bot> *> *> > >::~_List_iterator<std::_List_val<std::_List_simple_types<NavGraphNode<Trigger<Raven_Bot> *> *> > >
PUBLIC	??0?$_List_iterator@V?$_List_val@U?$_List_simple_types@PAV?$NavGraphNode@PAV?$Trigger@VRaven_Bot@@@@@@@std@@@std@@@std@@QAE@PAU?$_List_node@PAV?$NavGraphNode@PAV?$Trigger@VRaven_Bot@@@@@@PAX@1@PBV?$_List_val@U?$_List_simple_types@PAV?$NavGraphNode@PAV?$Trigger@VRaven_Bot@@@@@@@std@@@1@@Z ; std::_List_iterator<std::_List_val<std::_List_simple_types<NavGraphNode<Trigger<Raven_Bot> *> *> > >::_List_iterator<std::_List_val<std::_List_simple_types<NavGraphNode<Trigger<Raven_Bot> *> *> > >
PUBLIC	??0?$_List_unchecked_const_iterator@V?$_List_val@U?$_List_simple_types@PAVRaven_PathPlanner@@@std@@@std@@U_Iterator_base12@2@@std@@QAE@PAU?$_List_node@PAVRaven_PathPlanner@@PAX@1@PBV?$_List_val@U?$_List_simple_types@PAVRaven_PathPlanner@@@std@@@1@@Z ; std::_List_unchecked_const_iterator<std::_List_val<std::_List_simple_types<Raven_PathPlanner *> >,std::_Iterator_base12>::_List_unchecked_const_iterator<std::_List_val<std::_List_simple_types<Raven_PathPlanner *> >,std::_Iterator_base12>
PUBLIC	??1?$_List_unchecked_const_iterator@V?$_List_val@U?$_List_simple_types@PAVRaven_PathPlanner@@@std@@@std@@U_Iterator_base12@2@@std@@QAE@XZ ; std::_List_unchecked_const_iterator<std::_List_val<std::_List_simple_types<Raven_PathPlanner *> >,std::_Iterator_base12>::~_List_unchecked_const_iterator<std::_List_val<std::_List_simple_types<Raven_PathPlanner *> >,std::_Iterator_base12>
PUBLIC	??0?$_List_unchecked_const_iterator@V?$_List_val@U?$_List_simple_types@PAVRaven_PathPlanner@@@std@@@std@@U_Iterator_base12@2@@std@@QAE@$$QAV01@@Z ; std::_List_unchecked_const_iterator<std::_List_val<std::_List_simple_types<Raven_PathPlanner *> >,std::_Iterator_base12>::_List_unchecked_const_iterator<std::_List_val<std::_List_simple_types<Raven_PathPlanner *> >,std::_Iterator_base12>
PUBLIC	??8?$_List_const_iterator@V?$_List_val@U?$_List_simple_types@PAVRaven_PathPlanner@@@std@@@std@@@std@@QBE_NABV01@@Z ; std::_List_const_iterator<std::_List_val<std::_List_simple_types<Raven_PathPlanner *> > >::operator==
PUBLIC	?_Verify_range@std@@YAXABV?$_List_const_iterator@V?$_List_val@U?$_List_simple_types@PAVRaven_PathPlanner@@@std@@@std@@@1@0@Z ; std::_Verify_range
PUBLIC	?_Seek_to@?$_List_const_iterator@V?$_List_val@U?$_List_simple_types@PAVRaven_PathPlanner@@@std@@@std@@@std@@QAEXV?$_List_unchecked_const_iterator@V?$_List_val@U?$_List_simple_types@PAVRaven_PathPlanner@@@std@@@std@@U_Iterator_base0@2@@2@@Z ; std::_List_const_iterator<std::_List_val<std::_List_simple_types<Raven_PathPlanner *> > >::_Seek_to
PUBLIC	??1?$_List_const_iterator@V?$_List_val@U?$_List_simple_types@PAVRaven_PathPlanner@@@std@@@std@@@std@@QAE@XZ ; std::_List_const_iterator<std::_List_val<std::_List_simple_types<Raven_PathPlanner *> > >::~_List_const_iterator<std::_List_val<std::_List_simple_types<Raven_PathPlanner *> > >
PUBLIC	??0?$_List_const_iterator@V?$_List_val@U?$_List_simple_types@PAVRaven_PathPlanner@@@std@@@std@@@std@@QAE@$$QAV01@@Z ; std::_List_const_iterator<std::_List_val<std::_List_simple_types<Raven_PathPlanner *> > >::_List_const_iterator<std::_List_val<std::_List_simple_types<Raven_PathPlanner *> > >
PUBLIC	??0?$_List_const_iterator@V?$_List_val@U?$_List_simple_types@PAVRaven_PathPlanner@@@std@@@std@@@std@@QAE@PAU?$_List_node@PAVRaven_PathPlanner@@PAX@1@PBV?$_List_val@U?$_List_simple_types@PAVRaven_PathPlanner@@@std@@@1@@Z ; std::_List_const_iterator<std::_List_val<std::_List_simple_types<Raven_PathPlanner *> > >::_List_const_iterator<std::_List_val<std::_List_simple_types<Raven_PathPlanner *> > >
PUBLIC	?_Unwrapped@?$_List_iterator@V?$_List_val@U?$_List_simple_types@PAVRaven_PathPlanner@@@std@@@std@@@std@@QBE?AV?$_List_unchecked_iterator@V?$_List_val@U?$_List_simple_types@PAVRaven_PathPlanner@@@std@@@std@@@2@XZ ; std::_List_iterator<std::_List_val<std::_List_simple_types<Raven_PathPlanner *> > >::_Unwrapped
PUBLIC	??1?$_List_iterator@V?$_List_val@U?$_List_simple_types@PAVRaven_PathPlanner@@@std@@@std@@@std@@QAE@XZ ; std::_List_iterator<std::_List_val<std::_List_simple_types<Raven_PathPlanner *> > >::~_List_iterator<std::_List_val<std::_List_simple_types<Raven_PathPlanner *> > >
PUBLIC	??0?$_List_iterator@V?$_List_val@U?$_List_simple_types@PAVRaven_PathPlanner@@@std@@@std@@@std@@QAE@$$QAV01@@Z ; std::_List_iterator<std::_List_val<std::_List_simple_types<Raven_PathPlanner *> > >::_List_iterator<std::_List_val<std::_List_simple_types<Raven_PathPlanner *> > >
PUBLIC	??0?$_List_iterator@V?$_List_val@U?$_List_simple_types@PAVRaven_PathPlanner@@@std@@@std@@@std@@QAE@PAU?$_List_node@PAVRaven_PathPlanner@@PAX@1@PBV?$_List_val@U?$_List_simple_types@PAVRaven_PathPlanner@@@std@@@1@@Z ; std::_List_iterator<std::_List_val<std::_List_simple_types<Raven_PathPlanner *> > >::_List_iterator<std::_List_val<std::_List_simple_types<Raven_PathPlanner *> > >
PUBLIC	??$find@V?$_List_iterator@V?$_List_val@U?$_List_simple_types@PAVRaven_PathPlanner@@@std@@@std@@@std@@PAVRaven_PathPlanner@@@std@@YA?AV?$_List_iterator@V?$_List_val@U?$_List_simple_types@PAVRaven_PathPlanner@@@std@@@std@@@0@V10@V10@ABQAVRaven_PathPlanner@@@Z ; std::find<std::_List_iterator<std::_List_val<std::_List_simple_types<Raven_PathPlanner *> > >,Raven_PathPlanner *>
PUBLIC	??R<lambda_310c7fe23c524a4e1dd0703325d8ee77>@@QBE@ABQAVRaven_PathPlanner@@@Z ; <lambda_310c7fe23c524a4e1dd0703325d8ee77>::operator()
PUBLIC	??0<lambda_310c7fe23c524a4e1dd0703325d8ee77>@@QAE@ABQAVRaven_PathPlanner@@@Z ; <lambda_310c7fe23c524a4e1dd0703325d8ee77>::<lambda_310c7fe23c524a4e1dd0703325d8ee77>
PUBLIC	??$remove_if@V<lambda_310c7fe23c524a4e1dd0703325d8ee77>@@@?$list@PAVRaven_PathPlanner@@V?$allocator@PAVRaven_PathPlanner@@@std@@@std@@QAE?A_PV<lambda_310c7fe23c524a4e1dd0703325d8ee77>@@@Z ; std::list<Raven_PathPlanner *,std::allocator<Raven_PathPlanner *> >::remove_if<<lambda_310c7fe23c524a4e1dd0703325d8ee77> >
PUBLIC	??0_List_node_remove_op@?$list@PAVRaven_PathPlanner@@V?$allocator@PAVRaven_PathPlanner@@@std@@@std@@QAE@AAV12@@Z ; std::list<Raven_PathPlanner *,std::allocator<Raven_PathPlanner *> >::_List_node_remove_op::_List_node_remove_op
PUBLIC	?_Transfer_back@_List_node_remove_op@?$list@PAVRaven_PathPlanner@@V?$allocator@PAVRaven_PathPlanner@@@std@@@std@@QAEPAU?$_List_node@PAVRaven_PathPlanner@@PAX@3@QAU43@@Z ; std::list<Raven_PathPlanner *,std::allocator<Raven_PathPlanner *> >::_List_node_remove_op::_Transfer_back
PUBLIC	??1_List_node_remove_op@?$list@PAVRaven_PathPlanner@@V?$allocator@PAVRaven_PathPlanner@@@std@@@std@@QAE@XZ ; std::list<Raven_PathPlanner *,std::allocator<Raven_PathPlanner *> >::_List_node_remove_op::~_List_node_remove_op
PUBLIC	?begin@?$list@VNavGraphEdge@@V?$allocator@VNavGraphEdge@@@std@@@std@@QBE?AV?$_List_const_iterator@V?$_List_val@U?$_List_simple_types@VNavGraphEdge@@@std@@@std@@@2@XZ ; std::list<NavGraphEdge,std::allocator<NavGraphEdge> >::begin
PUBLIC	?end@?$list@VNavGraphEdge@@V?$allocator@VNavGraphEdge@@@std@@@std@@QBE?AV?$_List_const_iterator@V?$_List_val@U?$_List_simple_types@VNavGraphEdge@@@std@@@std@@@2@XZ ; std::list<NavGraphEdge,std::allocator<NavGraphEdge> >::end
PUBLIC	??0?$_List_unchecked_const_iterator@V?$_List_val@U?$_List_simple_types@VNavGraphEdge@@@std@@@std@@U_Iterator_base12@2@@std@@QAE@XZ ; std::_List_unchecked_const_iterator<std::_List_val<std::_List_simple_types<NavGraphEdge> >,std::_Iterator_base12>::_List_unchecked_const_iterator<std::_List_val<std::_List_simple_types<NavGraphEdge> >,std::_Iterator_base12>
PUBLIC	??0?$_List_unchecked_const_iterator@V?$_List_val@U?$_List_simple_types@VNavGraphEdge@@@std@@@std@@U_Iterator_base12@2@@std@@QAE@PAU?$_List_node@VNavGraphEdge@@PAX@1@PBV?$_List_val@U?$_List_simple_types@VNavGraphEdge@@@std@@@1@@Z ; std::_List_unchecked_const_iterator<std::_List_val<std::_List_simple_types<NavGraphEdge> >,std::_Iterator_base12>::_List_unchecked_const_iterator<std::_List_val<std::_List_simple_types<NavGraphEdge> >,std::_Iterator_base12>
PUBLIC	??1?$_List_unchecked_const_iterator@V?$_List_val@U?$_List_simple_types@VNavGraphEdge@@@std@@@std@@U_Iterator_base12@2@@std@@QAE@XZ ; std::_List_unchecked_const_iterator<std::_List_val<std::_List_simple_types<NavGraphEdge> >,std::_Iterator_base12>::~_List_unchecked_const_iterator<std::_List_val<std::_List_simple_types<NavGraphEdge> >,std::_Iterator_base12>
PUBLIC	??4?$_List_unchecked_const_iterator@V?$_List_val@U?$_List_simple_types@VNavGraphEdge@@@std@@@std@@U_Iterator_base12@2@@std@@QAEAAV01@$$QAV01@@Z ; std::_List_unchecked_const_iterator<std::_List_val<std::_List_simple_types<NavGraphEdge> >,std::_Iterator_base12>::operator=
PUBLIC	??D?$_List_const_iterator@V?$_List_val@U?$_List_simple_types@VNavGraphEdge@@@std@@@std@@@std@@QBEABVNavGraphEdge@@XZ ; std::_List_const_iterator<std::_List_val<std::_List_simple_types<NavGraphEdge> > >::operator*
PUBLIC	??E?$_List_const_iterator@V?$_List_val@U?$_List_simple_types@VNavGraphEdge@@@std@@@std@@@std@@QAEAAV01@XZ ; std::_List_const_iterator<std::_List_val<std::_List_simple_types<NavGraphEdge> > >::operator++
PUBLIC	??8?$_List_const_iterator@V?$_List_val@U?$_List_simple_types@VNavGraphEdge@@@std@@@std@@@std@@QBE_NABV01@@Z ; std::_List_const_iterator<std::_List_val<std::_List_simple_types<NavGraphEdge> > >::operator==
PUBLIC	??0?$_List_const_iterator@V?$_List_val@U?$_List_simple_types@VNavGraphEdge@@@std@@@std@@@std@@QAE@XZ ; std::_List_const_iterator<std::_List_val<std::_List_simple_types<NavGraphEdge> > >::_List_const_iterator<std::_List_val<std::_List_simple_types<NavGraphEdge> > >
PUBLIC	??1?$_List_const_iterator@V?$_List_val@U?$_List_simple_types@VNavGraphEdge@@@std@@@std@@@std@@QAE@XZ ; std::_List_const_iterator<std::_List_val<std::_List_simple_types<NavGraphEdge> > >::~_List_const_iterator<std::_List_val<std::_List_simple_types<NavGraphEdge> > >
PUBLIC	??4?$_List_const_iterator@V?$_List_val@U?$_List_simple_types@VNavGraphEdge@@@std@@@std@@@std@@QAEAAV01@$$QAV01@@Z ; std::_List_const_iterator<std::_List_val<std::_List_simple_types<NavGraphEdge> > >::operator=
PUBLIC	??0?$_List_const_iterator@V?$_List_val@U?$_List_simple_types@VNavGraphEdge@@@std@@@std@@@std@@QAE@PAU?$_List_node@VNavGraphEdge@@PAX@1@PBV?$_List_val@U?$_List_simple_types@VNavGraphEdge@@@std@@@1@@Z ; std::_List_const_iterator<std::_List_val<std::_List_simple_types<NavGraphEdge> > >::_List_const_iterator<std::_List_val<std::_List_simple_types<NavGraphEdge> > >
PUBLIC	??0ConstEdgeIterator@?$SparseGraph@V?$NavGraphNode@PAV?$Trigger@VRaven_Bot@@@@@@VNavGraphEdge@@@@QAE@ABV1@H@Z ; SparseGraph<NavGraphNode<Trigger<Raven_Bot> *>,NavGraphEdge>::ConstEdgeIterator::ConstEdgeIterator
PUBLIC	?begin@ConstEdgeIterator@?$SparseGraph@V?$NavGraphNode@PAV?$Trigger@VRaven_Bot@@@@@@VNavGraphEdge@@@@QAEPBVNavGraphEdge@@XZ ; SparseGraph<NavGraphNode<Trigger<Raven_Bot> *>,NavGraphEdge>::ConstEdgeIterator::begin
PUBLIC	?next@ConstEdgeIterator@?$SparseGraph@V?$NavGraphNode@PAV?$Trigger@VRaven_Bot@@@@@@VNavGraphEdge@@@@QAEPBVNavGraphEdge@@XZ ; SparseGraph<NavGraphNode<Trigger<Raven_Bot> *>,NavGraphEdge>::ConstEdgeIterator::next
PUBLIC	?end@ConstEdgeIterator@?$SparseGraph@V?$NavGraphNode@PAV?$Trigger@VRaven_Bot@@@@@@VNavGraphEdge@@@@QAE_NXZ ; SparseGraph<NavGraphNode<Trigger<Raven_Bot> *>,NavGraphEdge>::ConstEdgeIterator::end
PUBLIC	??1ConstEdgeIterator@?$SparseGraph@V?$NavGraphNode@PAV?$Trigger@VRaven_Bot@@@@@@VNavGraphEdge@@@@QAE@XZ ; SparseGraph<NavGraphNode<Trigger<Raven_Bot> *>,NavGraphEdge>::ConstEdgeIterator::~ConstEdgeIterator
PUBLIC	??$Calculate@V?$SparseGraph@V?$NavGraphNode@PAV?$Trigger@VRaven_Bot@@@@@@VNavGraphEdge@@@@@Heuristic_Euclid@@SANABV?$SparseGraph@V?$NavGraphNode@PAV?$Trigger@VRaven_Bot@@@@@@VNavGraphEdge@@@@HH@Z ; Heuristic_Euclid::Calculate<SparseGraph<NavGraphNode<Trigger<Raven_Bot> *>,NavGraphEdge> >
PUBLIC	??$isSatisfied@V?$SparseGraph@V?$NavGraphNode@PAV?$Trigger@VRaven_Bot@@@@@@VNavGraphEdge@@@@@?$FindActiveTrigger@V?$Trigger@VRaven_Bot@@@@@@SA_NABV?$SparseGraph@V?$NavGraphNode@PAV?$Trigger@VRaven_Bot@@@@@@VNavGraphEdge@@@@HH@Z ; FindActiveTrigger<Trigger<Raven_Bot> >::isSatisfied<SparseGraph<NavGraphNode<Trigger<Raven_Bot> *>,NavGraphEdge> >
PUBLIC	??$_Deallocate_plain@V?$allocator@U_Container_proxy@std@@@std@@@std@@YAXAAV?$allocator@U_Container_proxy@std@@@0@QAU_Container_proxy@0@@Z ; std::_Deallocate_plain<std::allocator<std::_Container_proxy> >
PUBLIC	??$destroy@VPathEdge@@@?$_Default_allocator_traits@V?$allocator@U?$_List_node@VPathEdge@@PAX@std@@@std@@@std@@SAXAAV?$allocator@U?$_List_node@VPathEdge@@PAX@std@@@1@QAVPathEdge@@@Z ; std::_Default_allocator_traits<std::allocator<std::_List_node<PathEdge,void *> > >::destroy<PathEdge>
PUBLIC	??0?$_Alloc_construct_ptr@V?$allocator@U?$_List_node@VPathEdge@@PAX@std@@@std@@@std@@QAE@AAV?$allocator@U?$_List_node@VPathEdge@@PAX@std@@@1@@Z ; std::_Alloc_construct_ptr<std::allocator<std::_List_node<PathEdge,void *> > >::_Alloc_construct_ptr<std::allocator<std::_List_node<PathEdge,void *> > >
PUBLIC	?_Allocate@?$_Alloc_construct_ptr@V?$allocator@U?$_List_node@VPathEdge@@PAX@std@@@std@@@std@@QAEXXZ ; std::_Alloc_construct_ptr<std::allocator<std::_List_node<PathEdge,void *> > >::_Allocate
PUBLIC	??1?$_Alloc_construct_ptr@V?$allocator@U?$_List_node@VPathEdge@@PAX@std@@@std@@@std@@QAE@XZ ; std::_Alloc_construct_ptr<std::allocator<std::_List_node<PathEdge,void *> > >::~_Alloc_construct_ptr<std::allocator<std::_List_node<PathEdge,void *> > >
PUBLIC	??1?$_List_node_emplace_op2@V?$allocator@U?$_List_node@VPathEdge@@PAX@std@@@std@@@std@@QAE@XZ ; std::_List_node_emplace_op2<std::allocator<std::_List_node<PathEdge,void *> > >::~_List_node_emplace_op2<std::allocator<std::_List_node<PathEdge,void *> > >
PUBLIC	?_Transfer_before@?$_List_node_emplace_op2@V?$allocator@U?$_List_node@VPathEdge@@PAX@std@@@std@@@std@@QAEPAU?$_List_node@VPathEdge@@PAX@2@QAU32@@Z ; std::_List_node_emplace_op2<std::allocator<std::_List_node<PathEdge,void *> > >::_Transfer_before
PUBLIC	??$forward@VPathEdge@@@std@@YA$$QAVPathEdge@@AAV1@@Z ; std::forward<PathEdge>
PUBLIC	??$?0VPathEdge@@@?$_List_node_emplace_op2@V?$allocator@U?$_List_node@VPathEdge@@PAX@std@@@std@@@std@@QAE@AAV?$allocator@U?$_List_node@VPathEdge@@PAX@std@@@1@$$QAVPathEdge@@@Z ; std::_List_node_emplace_op2<std::allocator<std::_List_node<PathEdge,void *> > >::_List_node_emplace_op2<std::allocator<std::_List_node<PathEdge,void *> > ><PathEdge>
PUBLIC	??$forward@V?$allocator@U?$_List_node@VPathEdge@@PAX@std@@@std@@@std@@YA$$QAV?$allocator@U?$_List_node@VPathEdge@@PAX@std@@@0@AAV10@@Z ; std::forward<std::allocator<std::_List_node<PathEdge,void *> > >
PUBLIC	??$addressof@U_Container_proxy@std@@@std@@YAPAU_Container_proxy@0@AAU10@@Z ; std::addressof<std::_Container_proxy>
PUBLIC	??$_Voidify_iter@PAU_Container_proxy@std@@@std@@YAPAXPAU_Container_proxy@0@@Z ; std::_Voidify_iter<std::_Container_proxy *>
PUBLIC	??$forward@PAU_Container_base12@std@@@std@@YA$$QAPAU_Container_base12@0@AAPAU10@@Z ; std::forward<std::_Container_base12 *>
PUBLIC	??$forward@V?$allocator@PBVNavGraphEdge@@@std@@@std@@YA$$QAV?$allocator@PBVNavGraphEdge@@@0@AAV10@@Z ; std::forward<std::allocator<NavGraphEdge const *> >
PUBLIC	??1?$_Tidy_guard@V?$vector@PBVNavGraphEdge@@V?$allocator@PBVNavGraphEdge@@@std@@@std@@@std@@QAE@XZ ; std::_Tidy_guard<std::vector<NavGraphEdge const *,std::allocator<NavGraphEdge const *> > >::~_Tidy_guard<std::vector<NavGraphEdge const *,std::allocator<NavGraphEdge const *> > >
PUBLIC	??$forward@ABQAPBVNavGraphEdge@@@std@@YAABQAPBVNavGraphEdge@@ABQAPBV1@@Z ; std::forward<NavGraphEdge const * * const &>
PUBLIC	??$_Uninitialized_copy@PAPBVNavGraphEdge@@V?$allocator@PBVNavGraphEdge@@@std@@@std@@YAPAPBVNavGraphEdge@@QAPBV1@0PAPBV1@AAV?$allocator@PBVNavGraphEdge@@@0@@Z ; std::_Uninitialized_copy<NavGraphEdge const * *,std::allocator<NavGraphEdge const *> >
PUBLIC	??$forward@ABV?$allocator@PBVNavGraphEdge@@@std@@@std@@YAABV?$allocator@PBVNavGraphEdge@@@0@ABV10@@Z ; std::forward<std::allocator<NavGraphEdge const *> const &>
PUBLIC	??$_Uninitialized_value_construct_n@V?$allocator@PBVNavGraphEdge@@@std@@@std@@YAPAPBVNavGraphEdge@@PAPBV1@IAAV?$allocator@PBVNavGraphEdge@@@0@@Z ; std::_Uninitialized_value_construct_n<std::allocator<NavGraphEdge const *> >
PUBLIC	??$_Freenode@V?$allocator@U?$_List_node@HPAX@std@@@std@@@?$_List_node@HPAX@std@@SAXAAV?$allocator@U?$_List_node@HPAX@std@@@1@PAU01@@Z ; std::_List_node<int,void *>::_Freenode<std::allocator<std::_List_node<int,void *> > >
PUBLIC	??$_Destroy_in_place@PAU?$_List_node@HPAX@std@@@std@@YAXAAPAU?$_List_node@HPAX@0@@Z ; std::_Destroy_in_place<std::_List_node<int,void *> *>
PUBLIC	??$addressof@PAU?$_List_node@VPathEdge@@PAX@std@@@std@@YAPAPAU?$_List_node@VPathEdge@@PAX@0@AAPAU10@@Z ; std::addressof<std::_List_node<PathEdge,void *> *>
PUBLIC	??$_Voidify_iter@PAPAU?$_List_node@VPathEdge@@PAX@std@@@std@@YAPAXPAPAU?$_List_node@VPathEdge@@PAX@0@@Z ; std::_Voidify_iter<std::_List_node<PathEdge,void *> * *>
PUBLIC	??$forward@AAPAU?$_List_node@VPathEdge@@PAX@std@@@std@@YAAAPAU?$_List_node@VPathEdge@@PAX@0@AAPAU10@@Z ; std::forward<std::_List_node<PathEdge,void *> * &>
PUBLIC	??$_Destroy_in_place@PAU?$_List_node@VPathEdge@@PAX@std@@@std@@YAXAAPAU?$_List_node@VPathEdge@@PAX@0@@Z ; std::_Destroy_in_place<std::_List_node<PathEdge,void *> *>
PUBLIC	??$move@AAI@std@@YA$$QAIAAI@Z			; std::move<unsigned int &>
PUBLIC	??$forward@ABV?$allocator@N@std@@@std@@YAABV?$allocator@N@0@ABV10@@Z ; std::forward<std::allocator<double> const &>
PUBLIC	??1?$_Tidy_guard@V?$vector@NV?$allocator@N@std@@@std@@@std@@QAE@XZ ; std::_Tidy_guard<std::vector<double,std::allocator<double> > >::~_Tidy_guard<std::vector<double,std::allocator<double> > >
PUBLIC	??$_Uninitialized_fill_n@V?$allocator@N@std@@@std@@YAPANPANIABNAAV?$allocator@N@0@@Z ; std::_Uninitialized_fill_n<std::allocator<double> >
PUBLIC	??$_Allocate_manually_vector_aligned@U_Default_allocate_traits@std@@@std@@YAPAXI@Z ; std::_Allocate_manually_vector_aligned<std::_Default_allocate_traits>
PUBLIC	??$_Is_all_bits_zero@H@std@@YA_NABH@Z		; std::_Is_all_bits_zero<int>
PUBLIC	??$_Unfancy@H@std@@YAPAHPAH@Z			; std::_Unfancy<int>
PUBLIC	??$_Fill_zero_memset@PAH@std@@YAXPAHI@Z		; std::_Fill_zero_memset<int *>
PUBLIC	??0?$_Uninitialized_backout_al@V?$allocator@H@std@@@std@@QAE@PAHAAV?$allocator@H@1@@Z ; std::_Uninitialized_backout_al<std::allocator<int> >::_Uninitialized_backout_al<std::allocator<int> >
PUBLIC	??1?$_Uninitialized_backout_al@V?$allocator@H@std@@@std@@QAE@XZ ; std::_Uninitialized_backout_al<std::allocator<int> >::~_Uninitialized_backout_al<std::allocator<int> >
PUBLIC	?_Release@?$_Uninitialized_backout_al@V?$allocator@H@std@@@std@@QAEPAHXZ ; std::_Uninitialized_backout_al<std::allocator<int> >::_Release
PUBLIC	??$_Emplace_back@ABH@?$_Uninitialized_backout_al@V?$allocator@H@std@@@std@@QAEXABH@Z ; std::_Uninitialized_backout_al<std::allocator<int> >::_Emplace_back<int const &>
PUBLIC	??$_Adl_verify_range@PAHPAH@std@@YAXABQAH0@Z	; std::_Adl_verify_range<int *,int *>
PUBLIC	??$_Get_unwrapped@ABQAH@std@@YA?A_TABQAH@Z	; std::_Get_unwrapped<int * const &>
PUBLIC	??$_Construct_in_place@PAU?$_List_node@VPathEdge@@PAX@std@@ABQAU12@@std@@YAXAAPAU?$_List_node@VPathEdge@@PAX@0@ABQAU10@@Z ; std::_Construct_in_place<std::_List_node<PathEdge,void *> *,std::_List_node<PathEdge,void *> * const &>
PUBLIC	??$addressof@PAU?$_List_node@PAVRaven_PathPlanner@@PAX@std@@@std@@YAPAPAU?$_List_node@PAVRaven_PathPlanner@@PAX@0@AAPAU10@@Z ; std::addressof<std::_List_node<Raven_PathPlanner *,void *> *>
PUBLIC	??$destroy@PAU?$_List_node@PAVRaven_PathPlanner@@PAX@std@@@?$_Default_allocator_traits@V?$allocator@U?$_List_node@PAVRaven_PathPlanner@@PAX@std@@@std@@@std@@SAXAAV?$allocator@U?$_List_node@PAVRaven_PathPlanner@@PAX@std@@@1@QAPAU?$_List_node@PAVRaven_PathPlanner@@PAX@1@@Z ; std::_Default_allocator_traits<std::allocator<std::_List_node<Raven_PathPlanner *,void *> > >::destroy<std::_List_node<Raven_PathPlanner *,void *> *>
PUBLIC	??$addressof@PAVRaven_PathPlanner@@@std@@YAPAPAVRaven_PathPlanner@@AAPAV1@@Z ; std::addressof<Raven_PathPlanner *>
PUBLIC	??$destroy@PAVRaven_PathPlanner@@@?$_Default_allocator_traits@V?$allocator@U?$_List_node@PAVRaven_PathPlanner@@PAX@std@@@std@@@std@@SAXAAV?$allocator@U?$_List_node@PAVRaven_PathPlanner@@PAX@std@@@1@QAPAVRaven_PathPlanner@@@Z ; std::_Default_allocator_traits<std::allocator<std::_List_node<Raven_PathPlanner *,void *> > >::destroy<Raven_PathPlanner *>
PUBLIC	??$exchange@PAU?$_List_node@PAVRaven_PathPlanner@@PAX@std@@PAU12@@std@@YAPAU?$_List_node@PAVRaven_PathPlanner@@PAX@0@AAPAU10@$$QAPAU10@@Z ; std::exchange<std::_List_node<Raven_PathPlanner *,void *> *,std::_List_node<Raven_PathPlanner *,void *> *>
PUBLIC	??$addressof@V?$_List_val@U?$_List_simple_types@PAV?$NavGraphNode@PAV?$Trigger@VRaven_Bot@@@@@@@std@@@std@@@std@@YAPAV?$_List_val@U?$_List_simple_types@PAV?$NavGraphNode@PAV?$Trigger@VRaven_Bot@@@@@@@std@@@0@AAV10@@Z ; std::addressof<std::_List_val<std::_List_simple_types<NavGraphNode<Trigger<Raven_Bot> *> *> > >
PUBLIC	??$addressof@V?$_Vector_val@U?$_Simple_types@U?$Cell@PAV?$NavGraphNode@PAV?$Trigger@VRaven_Bot@@@@@@@@@std@@@std@@@std@@YAPAV?$_Vector_val@U?$_Simple_types@U?$Cell@PAV?$NavGraphNode@PAV?$Trigger@VRaven_Bot@@@@@@@@@std@@@0@AAV10@@Z ; std::addressof<std::_Vector_val<std::_Simple_types<Cell<NavGraphNode<Trigger<Raven_Bot> *> *> > > >
PUBLIC	??$_Emplace@ABH@?$list@HV?$allocator@H@std@@@std@@QAEPAU?$_List_node@HPAX@1@QAU21@ABH@Z ; std::list<int,std::allocator<int> >::_Emplace<int const &>
PUBLIC	??$move@AAV?$allocator@U?$_List_node@HPAX@std@@@std@@@std@@YA$$QAV?$allocator@U?$_List_node@HPAX@std@@@0@AAV10@@Z ; std::move<std::allocator<std::_List_node<int,void *> > &>
PUBLIC	??$?0V?$allocator@U?$_List_node@HPAX@std@@@std@@$$V@?$_Compressed_pair@V?$allocator@U?$_List_node@HPAX@std@@@std@@V?$_List_val@U?$_List_simple_types@H@std@@@2@$00@std@@QAE@U_One_then_variadic_args_t@1@$$QAV?$allocator@U?$_List_node@HPAX@std@@@1@@Z ; std::_Compressed_pair<std::allocator<std::_List_node<int,void *> >,std::_List_val<std::_List_simple_types<int> >,1>::_Compressed_pair<std::allocator<std::_List_node<int,void *> >,std::_List_val<std::_List_simple_types<int> >,1><std::allocator<std::_List_node<int,void *> > >
PUBLIC	??$?0$$V@?$_Compressed_pair@V?$allocator@U?$_List_node@HPAX@std@@@std@@V?$_List_val@U?$_List_simple_types@H@std@@@2@$00@std@@QAE@U_Zero_then_variadic_args_t@1@@Z ; std::_Compressed_pair<std::allocator<std::_List_node<int,void *> >,std::_List_val<std::_List_simple_types<int> >,1>::_Compressed_pair<std::allocator<std::_List_node<int,void *> >,std::_List_val<std::_List_simple_types<int> >,1><>
PUBLIC	??$?0$$V@?$_Compressed_pair@V?$allocator@U?$_List_node@VPathEdge@@PAX@std@@@std@@V?$_List_val@U?$_List_simple_types@VPathEdge@@@std@@@2@$00@std@@QAE@U_Zero_then_variadic_args_t@1@@Z ; std::_Compressed_pair<std::allocator<std::_List_node<PathEdge,void *> >,std::_List_val<std::_List_simple_types<PathEdge> >,1>::_Compressed_pair<std::allocator<std::_List_node<PathEdge,void *> >,std::_List_val<std::_List_simple_types<PathEdge> >,1><>
PUBLIC	??$_Emplace@ABQAVRaven_PathPlanner@@@?$list@PAVRaven_PathPlanner@@V?$allocator@PAVRaven_PathPlanner@@@std@@@std@@QAEPAU?$_List_node@PAVRaven_PathPlanner@@PAX@1@QAU21@ABQAVRaven_PathPlanner@@@Z ; std::list<Raven_PathPlanner *,std::allocator<Raven_PathPlanner *> >::_Emplace<Raven_PathPlanner * const &>
PUBLIC	??$addressof@V?$_List_val@U?$_List_simple_types@PAVRaven_PathPlanner@@@std@@@std@@@std@@YAPAV?$_List_val@U?$_List_simple_types@PAVRaven_PathPlanner@@@std@@@0@AAV10@@Z ; std::addressof<std::_List_val<std::_List_simple_types<Raven_PathPlanner *> > >
PUBLIC	??$addressof@$$CBV?$_List_val@U?$_List_simple_types@VNavGraphEdge@@@std@@@std@@@std@@YAPBV?$_List_val@U?$_List_simple_types@VNavGraphEdge@@@std@@@0@ABV10@@Z ; std::addressof<std::_List_val<std::_List_simple_types<NavGraphEdge> > const >
PUBLIC	??$_Construct_in_place@PAU?$_List_node@HPAX@std@@AAPAU12@@std@@YAXAAPAU?$_List_node@HPAX@0@0@Z ; std::_Construct_in_place<std::_List_node<int,void *> *,std::_List_node<int,void *> * &>
PUBLIC	??$_Swap_adl@PAU?$_List_node@HPAX@std@@@std@@YAXAAPAU?$_List_node@HPAX@0@0@Z ; std::_Swap_adl<std::_List_node<int,void *> *>
PUBLIC	??$swap@PAU?$_List_node@HPAX@std@@$0A@@std@@YAXAAPAU?$_List_node@HPAX@0@0@Z ; std::swap<std::_List_node<int,void *> *,0>
PUBLIC	??$_Get_size_of_n@$0M@@std@@YAII@Z		; std::_Get_size_of_n<12>
PUBLIC	??$move@AAPAU?$_List_node@VPathEdge@@PAX@std@@@std@@YA$$QAPAU?$_List_node@VPathEdge@@PAX@0@AAPAU10@@Z ; std::move<std::_List_node<PathEdge,void *> * &>
PUBLIC	??$_Adl_verify_range@V?$_List_iterator@V?$_List_val@U?$_List_simple_types@PAVRaven_PathPlanner@@@std@@@std@@@std@@V12@@std@@YAXABV?$_List_iterator@V?$_List_val@U?$_List_simple_types@PAVRaven_PathPlanner@@@std@@@std@@@0@0@Z ; std::_Adl_verify_range<std::_List_iterator<std::_List_val<std::_List_simple_types<Raven_PathPlanner *> > >,std::_List_iterator<std::_List_val<std::_List_simple_types<Raven_PathPlanner *> > > >
PUBLIC	??$_Get_unwrapped@AAV?$_List_iterator@V?$_List_val@U?$_List_simple_types@PAVRaven_PathPlanner@@@std@@@std@@@std@@@std@@YA?A_TAAV?$_List_iterator@V?$_List_val@U?$_List_simple_types@PAVRaven_PathPlanner@@@std@@@std@@@0@@Z ; std::_Get_unwrapped<std::_List_iterator<std::_List_val<std::_List_simple_types<Raven_PathPlanner *> > > &>
PUBLIC	??0?$_List_unchecked_const_iterator@V?$_List_val@U?$_List_simple_types@PAVRaven_PathPlanner@@@std@@@std@@U_Iterator_base0@2@@std@@QAE@PAU?$_List_node@PAVRaven_PathPlanner@@PAX@1@PBV?$_List_val@U?$_List_simple_types@PAVRaven_PathPlanner@@@std@@@1@@Z ; std::_List_unchecked_const_iterator<std::_List_val<std::_List_simple_types<Raven_PathPlanner *> >,std::_Iterator_base0>::_List_unchecked_const_iterator<std::_List_val<std::_List_simple_types<Raven_PathPlanner *> >,std::_Iterator_base0>
PUBLIC	??D?$_List_unchecked_const_iterator@V?$_List_val@U?$_List_simple_types@PAVRaven_PathPlanner@@@std@@@std@@U_Iterator_base0@2@@std@@QBEABQAVRaven_PathPlanner@@XZ ; std::_List_unchecked_const_iterator<std::_List_val<std::_List_simple_types<Raven_PathPlanner *> >,std::_Iterator_base0>::operator*
PUBLIC	??E?$_List_unchecked_const_iterator@V?$_List_val@U?$_List_simple_types@PAVRaven_PathPlanner@@@std@@@std@@U_Iterator_base0@2@@std@@QAEAAV01@XZ ; std::_List_unchecked_const_iterator<std::_List_val<std::_List_simple_types<Raven_PathPlanner *> >,std::_Iterator_base0>::operator++
PUBLIC	??8?$_List_unchecked_const_iterator@V?$_List_val@U?$_List_simple_types@PAVRaven_PathPlanner@@@std@@@std@@U_Iterator_base0@2@@std@@QBE_NABV01@@Z ; std::_List_unchecked_const_iterator<std::_List_val<std::_List_simple_types<Raven_PathPlanner *> >,std::_Iterator_base0>::operator==
PUBLIC	??9?$_List_unchecked_const_iterator@V?$_List_val@U?$_List_simple_types@PAVRaven_PathPlanner@@@std@@@std@@U_Iterator_base0@2@@std@@QBE_NABV01@@Z ; std::_List_unchecked_const_iterator<std::_List_val<std::_List_simple_types<Raven_PathPlanner *> >,std::_Iterator_base0>::operator!=
PUBLIC	??D?$_List_unchecked_iterator@V?$_List_val@U?$_List_simple_types@PAVRaven_PathPlanner@@@std@@@std@@@std@@QBEAAPAVRaven_PathPlanner@@XZ ; std::_List_unchecked_iterator<std::_List_val<std::_List_simple_types<Raven_PathPlanner *> > >::operator*
PUBLIC	??E?$_List_unchecked_iterator@V?$_List_val@U?$_List_simple_types@PAVRaven_PathPlanner@@@std@@@std@@@std@@QAEAAV01@XZ ; std::_List_unchecked_iterator<std::_List_val<std::_List_simple_types<Raven_PathPlanner *> > >::operator++
PUBLIC	??0?$_List_unchecked_iterator@V?$_List_val@U?$_List_simple_types@PAVRaven_PathPlanner@@@std@@@std@@@std@@QAE@PAU?$_List_node@PAVRaven_PathPlanner@@PAX@1@PBV?$_List_val@U?$_List_simple_types@PAVRaven_PathPlanner@@@std@@@1@@Z ; std::_List_unchecked_iterator<std::_List_val<std::_List_simple_types<Raven_PathPlanner *> > >::_List_unchecked_iterator<std::_List_val<std::_List_simple_types<Raven_PathPlanner *> > >
PUBLIC	??$_Get_unwrapped@ABV?$_List_iterator@V?$_List_val@U?$_List_simple_types@PAVRaven_PathPlanner@@@std@@@std@@@std@@@std@@YA?A_TABV?$_List_iterator@V?$_List_val@U?$_List_simple_types@PAVRaven_PathPlanner@@@std@@@std@@@0@@Z ; std::_Get_unwrapped<std::_List_iterator<std::_List_val<std::_List_simple_types<Raven_PathPlanner *> > > const &>
PUBLIC	??$_Find_unchecked@V?$_List_unchecked_iterator@V?$_List_val@U?$_List_simple_types@PAVRaven_PathPlanner@@@std@@@std@@@std@@PAVRaven_PathPlanner@@@std@@YA?AV?$_List_unchecked_iterator@V?$_List_val@U?$_List_simple_types@PAVRaven_PathPlanner@@@std@@@std@@@0@V10@V10@ABQAVRaven_PathPlanner@@@Z ; std::_Find_unchecked<std::_List_unchecked_iterator<std::_List_val<std::_List_simple_types<Raven_PathPlanner *> > >,Raven_PathPlanner *>
PUBLIC	??$_Seek_wrapped@V?$_List_iterator@V?$_List_val@U?$_List_simple_types@PAVRaven_PathPlanner@@@std@@@std@@@std@@V?$_List_unchecked_iterator@V?$_List_val@U?$_List_simple_types@PAVRaven_PathPlanner@@@std@@@std@@@2@@std@@YAXAAV?$_List_iterator@V?$_List_val@U?$_List_simple_types@PAVRaven_PathPlanner@@@std@@@std@@@0@$$QAV?$_List_unchecked_iterator@V?$_List_val@U?$_List_simple_types@PAVRaven_PathPlanner@@@std@@@std@@@0@@Z ; std::_Seek_wrapped<std::_List_iterator<std::_List_val<std::_List_simple_types<Raven_PathPlanner *> > >,std::_List_unchecked_iterator<std::_List_val<std::_List_simple_types<Raven_PathPlanner *> > > >
PUBLIC	?deallocate@?$_Default_allocator_traits@V?$allocator@U_Container_proxy@std@@@std@@@std@@SAXAAV?$allocator@U_Container_proxy@std@@@2@QAU_Container_proxy@2@I@Z ; std::_Default_allocator_traits<std::allocator<std::_Container_proxy> >::deallocate
PUBLIC	??$construct@VPathEdge@@V1@@?$_Default_allocator_traits@V?$allocator@U?$_List_node@VPathEdge@@PAX@std@@@std@@@std@@SAXAAV?$allocator@U?$_List_node@VPathEdge@@PAX@std@@@1@QAVPathEdge@@$$QAV3@@Z ; std::_Default_allocator_traits<std::allocator<std::_List_node<PathEdge,void *> > >::construct<PathEdge,PathEdge>
PUBLIC	??$_Get_unwrapped@ABQAPBVNavGraphEdge@@@std@@YA?A_TABQAPBVNavGraphEdge@@@Z ; std::_Get_unwrapped<NavGraphEdge const * * const &>
PUBLIC	??$_Unfancy@PBVNavGraphEdge@@@std@@YAPAPBVNavGraphEdge@@PAPBV1@@Z ; std::_Unfancy<NavGraphEdge const *>
PUBLIC	??$_Copy_memmove@PAPBVNavGraphEdge@@PAPBV1@@std@@YAPAPBVNavGraphEdge@@PAPBV1@00@Z ; std::_Copy_memmove<NavGraphEdge const * *,NavGraphEdge const * *>
PUBLIC	??0?$_Uninitialized_backout_al@V?$allocator@PBVNavGraphEdge@@@std@@@std@@QAE@PAPBVNavGraphEdge@@AAV?$allocator@PBVNavGraphEdge@@@1@@Z ; std::_Uninitialized_backout_al<std::allocator<NavGraphEdge const *> >::_Uninitialized_backout_al<std::allocator<NavGraphEdge const *> >
PUBLIC	??1?$_Uninitialized_backout_al@V?$allocator@PBVNavGraphEdge@@@std@@@std@@QAE@XZ ; std::_Uninitialized_backout_al<std::allocator<NavGraphEdge const *> >::~_Uninitialized_backout_al<std::allocator<NavGraphEdge const *> >
PUBLIC	?_Release@?$_Uninitialized_backout_al@V?$allocator@PBVNavGraphEdge@@@std@@@std@@QAEPAPBVNavGraphEdge@@XZ ; std::_Uninitialized_backout_al<std::allocator<NavGraphEdge const *> >::_Release
PUBLIC	??$_Emplace_back@AAPBVNavGraphEdge@@@?$_Uninitialized_backout_al@V?$allocator@PBVNavGraphEdge@@@std@@@std@@QAEXAAPBVNavGraphEdge@@@Z ; std::_Uninitialized_backout_al<std::allocator<NavGraphEdge const *> >::_Emplace_back<NavGraphEdge const * &>
PUBLIC	??$_Zero_range@PAPBVNavGraphEdge@@@std@@YAPAPBVNavGraphEdge@@QAPBV1@0@Z ; std::_Zero_range<NavGraphEdge const * *>
PUBLIC	??$_Emplace_back@$$V@?$_Uninitialized_backout_al@V?$allocator@PBVNavGraphEdge@@@std@@@std@@QAEXXZ ; std::_Uninitialized_backout_al<std::allocator<NavGraphEdge const *> >::_Emplace_back<>
PUBLIC	??$addressof@H@std@@YAPAHAAH@Z			; std::addressof<int>
PUBLIC	??$destroy@H@?$_Default_allocator_traits@V?$allocator@U?$_List_node@HPAX@std@@@std@@@std@@SAXAAV?$allocator@U?$_List_node@HPAX@std@@@1@QAH@Z ; std::_Default_allocator_traits<std::allocator<std::_List_node<int,void *> > >::destroy<int>
PUBLIC	??$_Is_all_bits_zero@N@std@@YA_NABN@Z		; std::_Is_all_bits_zero<double>
PUBLIC	??$_Unfancy@N@std@@YAPANPAN@Z			; std::_Unfancy<double>
PUBLIC	??$_Fill_zero_memset@PAN@std@@YAXPANI@Z		; std::_Fill_zero_memset<double *>
PUBLIC	??0?$_Uninitialized_backout_al@V?$allocator@N@std@@@std@@QAE@PANAAV?$allocator@N@1@@Z ; std::_Uninitialized_backout_al<std::allocator<double> >::_Uninitialized_backout_al<std::allocator<double> >
PUBLIC	??1?$_Uninitialized_backout_al@V?$allocator@N@std@@@std@@QAE@XZ ; std::_Uninitialized_backout_al<std::allocator<double> >::~_Uninitialized_backout_al<std::allocator<double> >
PUBLIC	?_Release@?$_Uninitialized_backout_al@V?$allocator@N@std@@@std@@QAEPANXZ ; std::_Uninitialized_backout_al<std::allocator<double> >::_Release
PUBLIC	??$_Emplace_back@ABN@?$_Uninitialized_backout_al@V?$allocator@N@std@@@std@@QAEXABN@Z ; std::_Uninitialized_backout_al<std::allocator<double> >::_Emplace_back<double const &>
PUBLIC	??$_To_address@PAH@std@@YA?A_PABQAH@Z		; std::_To_address<int *>
PUBLIC	??$forward@ABH@std@@YAABHABH@Z			; std::forward<int const &>
PUBLIC	??$construct@HABH@?$_Default_allocator_traits@V?$allocator@H@std@@@std@@SAXAAV?$allocator@H@1@QAHABH@Z ; std::_Default_allocator_traits<std::allocator<int> >::construct<int,int const &>
PUBLIC	??$_Verify_range@H@std@@YAXQBH0@Z		; std::_Verify_range<int>
PUBLIC	??$forward@ABQAU?$_List_node@VPathEdge@@PAX@std@@@std@@YAABQAU?$_List_node@VPathEdge@@PAX@0@ABQAU10@@Z ; std::forward<std::_List_node<PathEdge,void *> * const &>
PUBLIC	??0?$_Alloc_construct_ptr@V?$allocator@U?$_List_node@HPAX@std@@@std@@@std@@QAE@AAV?$allocator@U?$_List_node@HPAX@std@@@1@@Z ; std::_Alloc_construct_ptr<std::allocator<std::_List_node<int,void *> > >::_Alloc_construct_ptr<std::allocator<std::_List_node<int,void *> > >
PUBLIC	?_Allocate@?$_Alloc_construct_ptr@V?$allocator@U?$_List_node@HPAX@std@@@std@@@std@@QAEXXZ ; std::_Alloc_construct_ptr<std::allocator<std::_List_node<int,void *> > >::_Allocate
PUBLIC	??1?$_Alloc_construct_ptr@V?$allocator@U?$_List_node@HPAX@std@@@std@@@std@@QAE@XZ ; std::_Alloc_construct_ptr<std::allocator<std::_List_node<int,void *> > >::~_Alloc_construct_ptr<std::allocator<std::_List_node<int,void *> > >
PUBLIC	??1?$_List_node_emplace_op2@V?$allocator@U?$_List_node@HPAX@std@@@std@@@std@@QAE@XZ ; std::_List_node_emplace_op2<std::allocator<std::_List_node<int,void *> > >::~_List_node_emplace_op2<std::allocator<std::_List_node<int,void *> > >
PUBLIC	?_Transfer_before@?$_List_node_emplace_op2@V?$allocator@U?$_List_node@HPAX@std@@@std@@@std@@QAEPAU?$_List_node@HPAX@2@QAU32@@Z ; std::_List_node_emplace_op2<std::allocator<std::_List_node<int,void *> > >::_Transfer_before
PUBLIC	??$?0ABH@?$_List_node_emplace_op2@V?$allocator@U?$_List_node@HPAX@std@@@std@@@std@@QAE@AAV?$allocator@U?$_List_node@HPAX@std@@@1@ABH@Z ; std::_List_node_emplace_op2<std::allocator<std::_List_node<int,void *> > >::_List_node_emplace_op2<std::allocator<std::_List_node<int,void *> > ><int const &>
PUBLIC	??$forward@V?$allocator@U?$_List_node@HPAX@std@@@std@@@std@@YA$$QAV?$allocator@U?$_List_node@HPAX@std@@@0@AAV10@@Z ; std::forward<std::allocator<std::_List_node<int,void *> > >
PUBLIC	??0?$_Alloc_construct_ptr@V?$allocator@U?$_List_node@PAVRaven_PathPlanner@@PAX@std@@@std@@@std@@QAE@AAV?$allocator@U?$_List_node@PAVRaven_PathPlanner@@PAX@std@@@1@@Z ; std::_Alloc_construct_ptr<std::allocator<std::_List_node<Raven_PathPlanner *,void *> > >::_Alloc_construct_ptr<std::allocator<std::_List_node<Raven_PathPlanner *,void *> > >
PUBLIC	?_Allocate@?$_Alloc_construct_ptr@V?$allocator@U?$_List_node@PAVRaven_PathPlanner@@PAX@std@@@std@@@std@@QAEXXZ ; std::_Alloc_construct_ptr<std::allocator<std::_List_node<Raven_PathPlanner *,void *> > >::_Allocate
PUBLIC	??1?$_Alloc_construct_ptr@V?$allocator@U?$_List_node@PAVRaven_PathPlanner@@PAX@std@@@std@@@std@@QAE@XZ ; std::_Alloc_construct_ptr<std::allocator<std::_List_node<Raven_PathPlanner *,void *> > >::~_Alloc_construct_ptr<std::allocator<std::_List_node<Raven_PathPlanner *,void *> > >
PUBLIC	??1?$_List_node_emplace_op2@V?$allocator@U?$_List_node@PAVRaven_PathPlanner@@PAX@std@@@std@@@std@@QAE@XZ ; std::_List_node_emplace_op2<std::allocator<std::_List_node<Raven_PathPlanner *,void *> > >::~_List_node_emplace_op2<std::allocator<std::_List_node<Raven_PathPlanner *,void *> > >
PUBLIC	?_Transfer_before@?$_List_node_emplace_op2@V?$allocator@U?$_List_node@PAVRaven_PathPlanner@@PAX@std@@@std@@@std@@QAEPAU?$_List_node@PAVRaven_PathPlanner@@PAX@2@QAU32@@Z ; std::_List_node_emplace_op2<std::allocator<std::_List_node<Raven_PathPlanner *,void *> > >::_Transfer_before
PUBLIC	??$forward@ABQAVRaven_PathPlanner@@@std@@YAABQAVRaven_PathPlanner@@ABQAV1@@Z ; std::forward<Raven_PathPlanner * const &>
PUBLIC	??$?0ABQAVRaven_PathPlanner@@@?$_List_node_emplace_op2@V?$allocator@U?$_List_node@PAVRaven_PathPlanner@@PAX@std@@@std@@@std@@QAE@AAV?$allocator@U?$_List_node@PAVRaven_PathPlanner@@PAX@std@@@1@ABQAVRaven_PathPlanner@@@Z ; std::_List_node_emplace_op2<std::allocator<std::_List_node<Raven_PathPlanner *,void *> > >::_List_node_emplace_op2<std::allocator<std::_List_node<Raven_PathPlanner *,void *> > ><Raven_PathPlanner * const &>
PUBLIC	??$addressof@PAU?$_List_node@HPAX@std@@@std@@YAPAPAU?$_List_node@HPAX@0@AAPAU10@@Z ; std::addressof<std::_List_node<int,void *> *>
PUBLIC	??$_Voidify_iter@PAPAU?$_List_node@HPAX@std@@@std@@YAPAXPAPAU?$_List_node@HPAX@0@@Z ; std::_Voidify_iter<std::_List_node<int,void *> * *>
PUBLIC	??$forward@AAPAU?$_List_node@HPAX@std@@@std@@YAAAPAU?$_List_node@HPAX@0@AAPAU10@@Z ; std::forward<std::_List_node<int,void *> * &>
PUBLIC	??$_Construct_in_place@PAU?$_List_node@PAVRaven_PathPlanner@@PAX@std@@ABQAU12@@std@@YAXAAPAU?$_List_node@PAVRaven_PathPlanner@@PAX@0@ABQAU10@@Z ; std::_Construct_in_place<std::_List_node<Raven_PathPlanner *,void *> *,std::_List_node<Raven_PathPlanner *,void *> * const &>
PUBLIC	??$_Construct_in_place@PAU?$_List_node@HPAX@std@@ABQAU12@@std@@YAXAAPAU?$_List_node@HPAX@0@ABQAU10@@Z ; std::_Construct_in_place<std::_List_node<int,void *> *,std::_List_node<int,void *> * const &>
PUBLIC	??$move@AAPAU?$_List_node@HPAX@std@@@std@@YA$$QAPAU?$_List_node@HPAX@0@AAPAU10@@Z ; std::move<std::_List_node<int,void *> * &>
PUBLIC	??$forward@V?$_List_unchecked_iterator@V?$_List_val@U?$_List_simple_types@PAVRaven_PathPlanner@@@std@@@std@@@std@@@std@@YA$$QAV?$_List_unchecked_iterator@V?$_List_val@U?$_List_simple_types@PAVRaven_PathPlanner@@@std@@@std@@@0@AAV10@@Z ; std::forward<std::_List_unchecked_iterator<std::_List_val<std::_List_simple_types<Raven_PathPlanner *> > > >
PUBLIC	??$_Voidify_iter@PAVPathEdge@@@std@@YAPAXPAVPathEdge@@@Z ; std::_Voidify_iter<PathEdge *>
PUBLIC	??$_To_address@PAPBVNavGraphEdge@@@std@@YA?A_PABQAPBVNavGraphEdge@@@Z ; std::_To_address<NavGraphEdge const * *>
PUBLIC	??$forward@AAPBVNavGraphEdge@@@std@@YAAAPBVNavGraphEdge@@AAPBV1@@Z ; std::forward<NavGraphEdge const * &>
PUBLIC	??$construct@PBVNavGraphEdge@@AAPBV1@@?$_Default_allocator_traits@V?$allocator@PBVNavGraphEdge@@@std@@@std@@SAXAAV?$allocator@PBVNavGraphEdge@@@1@QAPBVNavGraphEdge@@AAPBV3@@Z ; std::_Default_allocator_traits<std::allocator<NavGraphEdge const *> >::construct<NavGraphEdge const *,NavGraphEdge const * &>
PUBLIC	??$construct@PBVNavGraphEdge@@$$V@?$_Default_allocator_traits@V?$allocator@PBVNavGraphEdge@@@std@@@std@@SAXAAV?$allocator@PBVNavGraphEdge@@@1@QAPBVNavGraphEdge@@@Z ; std::_Default_allocator_traits<std::allocator<NavGraphEdge const *> >::construct<NavGraphEdge const *>
PUBLIC	??$_To_address@PAN@std@@YA?A_PABQAN@Z		; std::_To_address<double *>
PUBLIC	??$forward@ABN@std@@YAABNABN@Z			; std::forward<double const &>
PUBLIC	??$construct@NABN@?$_Default_allocator_traits@V?$allocator@N@std@@@std@@SAXAAV?$allocator@N@1@QANABN@Z ; std::_Default_allocator_traits<std::allocator<double> >::construct<double,double const &>
PUBLIC	??$_Voidify_iter@PAH@std@@YAPAXPAH@Z		; std::_Voidify_iter<int *>
PUBLIC	??$construct@HABH@?$_Default_allocator_traits@V?$allocator@U?$_List_node@HPAX@std@@@std@@@std@@SAXAAV?$allocator@U?$_List_node@HPAX@std@@@1@QAHABH@Z ; std::_Default_allocator_traits<std::allocator<std::_List_node<int,void *> > >::construct<int,int const &>
PUBLIC	??$construct@PAVRaven_PathPlanner@@ABQAV1@@?$_Default_allocator_traits@V?$allocator@U?$_List_node@PAVRaven_PathPlanner@@PAX@std@@@std@@@std@@SAXAAV?$allocator@U?$_List_node@PAVRaven_PathPlanner@@PAX@std@@@1@QAPAVRaven_PathPlanner@@ABQAV3@@Z ; std::_Default_allocator_traits<std::allocator<std::_List_node<Raven_PathPlanner *,void *> > >::construct<Raven_PathPlanner *,Raven_PathPlanner * const &>
PUBLIC	??$_Voidify_iter@PAPAU?$_List_node@PAVRaven_PathPlanner@@PAX@std@@@std@@YAPAXPAPAU?$_List_node@PAVRaven_PathPlanner@@PAX@0@@Z ; std::_Voidify_iter<std::_List_node<Raven_PathPlanner *,void *> * *>
PUBLIC	??$forward@ABQAU?$_List_node@PAVRaven_PathPlanner@@PAX@std@@@std@@YAABQAU?$_List_node@PAVRaven_PathPlanner@@PAX@0@ABQAU10@@Z ; std::forward<std::_List_node<Raven_PathPlanner *,void *> * const &>
PUBLIC	??$forward@ABQAU?$_List_node@HPAX@std@@@std@@YAABQAU?$_List_node@HPAX@0@ABQAU10@@Z ; std::forward<std::_List_node<int,void *> * const &>
PUBLIC	??$_Voidify_iter@PAPBVNavGraphEdge@@@std@@YAPAXPAPBVNavGraphEdge@@@Z ; std::_Voidify_iter<NavGraphEdge const * *>
PUBLIC	??$_Voidify_iter@PAN@std@@YAPAXPAN@Z		; std::_Voidify_iter<double *>
PUBLIC	??$_Voidify_iter@PAPAVRaven_PathPlanner@@@std@@YAPAXPAPAVRaven_PathPlanner@@@Z ; std::_Voidify_iter<Raven_PathPlanner * *>
PUBLIC	??_7exception@std@@6B@				; std::exception::`vftable'
PUBLIC	??_C@_0BC@EOODALEL@Unknown?5exception@		; `string'
PUBLIC	??_7bad_alloc@std@@6B@				; std::bad_alloc::`vftable'
PUBLIC	??_7bad_array_new_length@std@@6B@		; std::bad_array_new_length::`vftable'
PUBLIC	??_C@_0BF@KINCDENJ@bad?5array?5new?5length@	; `string'
PUBLIC	__TI3?AVbad_array_new_length@std@@
PUBLIC	__CTA3?AVbad_array_new_length@std@@
PUBLIC	??_R0?AVbad_array_new_length@std@@@8		; std::bad_array_new_length `RTTI Type Descriptor'
PUBLIC	__CT??_R0?AVbad_array_new_length@std@@@8??0bad_array_new_length@std@@QAE@ABV01@@Z12
PUBLIC	??_R0?AVbad_alloc@std@@@8			; std::bad_alloc `RTTI Type Descriptor'
PUBLIC	__CT??_R0?AVbad_alloc@std@@@8??0bad_alloc@std@@QAE@ABV01@@Z12
PUBLIC	??_R0?AVexception@std@@@8			; std::exception `RTTI Type Descriptor'
PUBLIC	__CT??_R0?AVexception@std@@@8??0exception@std@@QAE@ABV01@@Z12
PUBLIC	??_C@_0BB@FCMFBGOM@invalid?5argument@		; `string'
PUBLIC	??_C@_02DKCKIIND@?$CFs@				; `string'
PUBLIC	??_C@_0GC@DJFHHHKN@C?3?2Program?5Files?2Microsoft?5Visu@ ; `string'
PUBLIC	??_C@_1ME@GEFGDEOM@?$AAC?$AA?3?$AA?2?$AAP?$AAr?$AAo?$AAg?$AAr?$AAa?$AAm?$AA?5?$AAF?$AAi?$AAl?$AAe@ ; `string'
PUBLIC	??_C@_11LOCGONAA@@				; `string'
PUBLIC	??_C@_1CG@JNLFBNGN@?$AA?$CC?$AAi?$AAn?$AAv?$AAa?$AAl?$AAi?$AAd?$AA?5?$AAa?$AAr?$AAg?$AAu?$AAm?$AAe@ ; `string'
PUBLIC	??_C@_0BJ@LFDBABJJ@ITERATOR?5LIST?5CORRUPTED?$CB@ ; `string'
PUBLIC	??_C@_1DG@PLBPCAEM@?$AA?$CC?$AAI?$AAT?$AAE?$AAR?$AAA?$AAT?$AAO?$AAR?$AA?5?$AAL?$AAI?$AAS?$AAT?$AA?5@ ; `string'
PUBLIC	??_7?$Graph_SearchTimeSliced@VNavGraphEdge@@@@6B@ ; Graph_SearchTimeSliced<NavGraphEdge>::`vftable'
PUBLIC	??_7?$Graph_SearchAStar_TS@V?$SparseGraph@V?$NavGraphNode@PAV?$Trigger@VRaven_Bot@@@@@@VNavGraphEdge@@@@VHeuristic_Euclid@@@@6B@ ; Graph_SearchAStar_TS<SparseGraph<NavGraphNode<Trigger<Raven_Bot> *>,NavGraphEdge>,Heuristic_Euclid>::`vftable'
PUBLIC	??_7?$Graph_SearchDijkstras_TS@V?$SparseGraph@V?$NavGraphNode@PAV?$Trigger@VRaven_Bot@@@@@@VNavGraphEdge@@@@V?$FindActiveTrigger@V?$Trigger@VRaven_Bot@@@@@@@@6B@ ; Graph_SearchDijkstras_TS<SparseGraph<NavGraphNode<Trigger<Raven_Bot> *>,NavGraphEdge>,FindActiveTrigger<Trigger<Raven_Bot> > >::`vftable'
PUBLIC	??_C@_0BM@JDPDBGEE@back?$CI?$CJ?5called?5on?5empty?5list@ ; `string'
PUBLIC	??_C@_0FP@KGLKFOGA@C?3?2Program?5Files?2Microsoft?5Visu@ ; `string'
PUBLIC	??_C@_1LO@IMCCBHIA@?$AAC?$AA?3?$AA?2?$AAP?$AAr?$AAo?$AAg?$AAr?$AAa?$AAm?$AA?5?$AAF?$AAi?$AAl?$AAe@ ; `string'
PUBLIC	??_C@_1DM@EADKENAA@?$AA?$CC?$AAb?$AAa?$AAc?$AAk?$AA?$CI?$AA?$CJ?$AA?5?$AAc?$AAa?$AAl?$AAl?$AAe?$AAd?$AA?5@ ; `string'
PUBLIC	??_C@_0CC@KEJJOMBH@list?5erase?5iterator?5outside?5ran@ ; `string'
PUBLIC	??_C@_1EI@FHIDKIBN@?$AA?$CC?$AAl?$AAi?$AAs?$AAt?$AA?5?$AAe?$AAr?$AAa?$AAs?$AAe?$AA?5?$AAi?$AAt?$AAe@ ; `string'
PUBLIC	??_C@_0DB@ENBCPNKO@cannot?5increment?5value?9initiali@ ; `string'
PUBLIC	??_C@_1GG@JLMAGPNK@?$AA?$CC?$AAc?$AAa?$AAn?$AAn?$AAo?$AAt?$AA?5?$AAi?$AAn?$AAc?$AAr?$AAe?$AAm?$AAe@ ; `string'
PUBLIC	??_C@_0CD@PMFMCEG@cannot?5increment?5end?5list?5itera@ ; `string'
PUBLIC	??_C@_1EK@OKKCFDJN@?$AA?$CC?$AAc?$AAa?$AAn?$AAn?$AAo?$AAt?$AA?5?$AAi?$AAn?$AAc?$AAr?$AAe?$AAm?$AAe@ ; `string'
PUBLIC	??_C@_0DD@MBIHGLJE@cannot?5dereference?5value?9initia@ ; `string'
PUBLIC	??_C@_1GK@NKIMOCIG@?$AA?$CC?$AAc?$AAa?$AAn?$AAn?$AAo?$AAt?$AA?5?$AAd?$AAe?$AAr?$AAe?$AAf?$AAe?$AAr@ ; `string'
PUBLIC	??_C@_0CF@JCBFHMPL@cannot?5dereference?5end?5list?5ite@ ; `string'
PUBLIC	??_C@_1EO@CNEFBDCF@?$AA?$CC?$AAc?$AAa?$AAn?$AAn?$AAo?$AAt?$AA?5?$AAd?$AAe?$AAr?$AAe?$AAf?$AAe?$AAr@ ; `string'
PUBLIC	?id@?$codecvt@DDU_Mbstatet@@@std@@2V0locale@2@A	; std::codecvt<char,char,_Mbstatet>::id
PUBLIC	?id@?$num_put@DV?$ostreambuf_iterator@DU?$char_traits@D@std@@@std@@@std@@2V0locale@2@A ; std::num_put<char,std::ostreambuf_iterator<char,std::char_traits<char> > >::id
PUBLIC	??_C@_0BO@PFKOHNJC@vector?5subscript?5out?5of?5range@ ; `string'
PUBLIC	??_C@_0GB@GDCALCPO@C?3?2Program?5Files?2Microsoft?5Visu@ ; `string'
PUBLIC	??_C@_1MC@BJDJHFOD@?$AAC?$AA?3?$AA?2?$AAP?$AAr?$AAo?$AAg?$AAr?$AAa?$AAm?$AA?5?$AAF?$AAi?$AAl?$AAe@ ; `string'
PUBLIC	??_C@_1EA@LEKOKFNB@?$AA?$CC?$AAv?$AAe?$AAc?$AAt?$AAo?$AAr?$AA?5?$AAs?$AAu?$AAb?$AAs?$AAc?$AAr?$AAi@ ; `string'
PUBLIC	?id@?$numpunct@D@std@@2V0locale@2@A		; std::numpunct<char>::id
PUBLIC	??_C@_1KO@OHNANAAJ@?$AAC?$AA?3?$AA?2?$AAU?$AAs?$AAe?$AAr?$AAs?$AA?2?$AAl?$AAs?$AAy?$AA0?$AA1?$AA?2@ ; `string'
PUBLIC	??_C@_1DA@HEIDPBNG@?$AAm?$AA_?$AAi?$AAS?$AAi?$AAz?$AAe?$AA?$CL?$AA1?$AA?5?$AA?$DM?$AA?$DN?$AA?5?$AAm?$AA_@ ; `string'
PUBLIC	??_C@_0BM@BALDKKHE@list?5iterators?5incompatible@ ; `string'
PUBLIC	??_C@_1DM@KDLJAKOP@?$AA?$CC?$AAl?$AAi?$AAs?$AAt?$AA?5?$AAi?$AAt?$AAe?$AAr?$AAa?$AAt?$AAo?$AAr?$AAs@ ; `string'
PUBLIC	??_C@_0DB@MCPEHPCC@cannot?5decrement?5value?9initiali@ ; `string'
PUBLIC	??_C@_1GG@FLDKPFOH@?$AA?$CC?$AAc?$AAa?$AAn?$AAn?$AAo?$AAt?$AA?5?$AAd?$AAe?$AAc?$AAr?$AAe?$AAm?$AAe@ ; `string'
PUBLIC	??_C@_0CF@BAAFPBMN@cannot?5decrement?5begin?5list?5ite@ ; `string'
PUBLIC	??_C@_1EO@PPPLIDNC@?$AA?$CC?$AAc?$AAa?$AAn?$AAn?$AAo?$AAt?$AA?5?$AAd?$AAe?$AAc?$AAr?$AAe?$AAm?$AAe@ ; `string'
PUBLIC	??_C@_0BO@CAOBBIOC@vector?5iterators?5incompatible@ ; `string'
PUBLIC	??_C@_1EA@DJDGNIII@?$AA?$CC?$AAv?$AAe?$AAc?$AAt?$AAo?$AAr?$AA?5?$AAi?$AAt?$AAe?$AAr?$AAa?$AAt?$AAo@ ; `string'
PUBLIC	??_C@_0DC@KEKNBAEB@can?8t?5increment?5value?9initializ@ ; `string'
PUBLIC	??_C@_1GI@EDCILPL@?$AA?$CC?$AAc?$AAa?$AAn?$AA?8?$AAt?$AA?5?$AAi?$AAn?$AAc?$AAr?$AAe?$AAm?$AAe?$AAn@ ; `string'
PUBLIC	??_C@_0CJ@OAAAAGPM@can?8t?5increment?5vector?5iterator@ ; `string'
PUBLIC	??_C@_1FG@LDPPKMGP@?$AA?$CC?$AAc?$AAa?$AAn?$AA?8?$AAt?$AA?5?$AAi?$AAn?$AAc?$AAr?$AAe?$AAm?$AAe?$AAn@ ; `string'
PUBLIC	??_C@_0DE@CHADHGFF@can?8t?5dereference?5value?9initial@ ; `string'
PUBLIC	??_C@_1GM@FNBFNBEL@?$AA?$CC?$AAc?$AAa?$AAn?$AA?8?$AAt?$AA?5?$AAd?$AAe?$AAr?$AAe?$AAf?$AAe?$AAr?$AAe@ ; `string'
PUBLIC	??_C@_0CP@MDHADBHN@can?8t?5dereference?5out?5of?5range?5@ ; `string'
PUBLIC	??_C@_1GC@JDCKOLAC@?$AA?$CC?$AAc?$AAa?$AAn?$AA?8?$AAt?$AA?5?$AAd?$AAe?$AAr?$AAe?$AAf?$AAe?$AAr?$AAe@ ; `string'
PUBLIC	??_C@_0DG@KGHKKGBC@null?5pointer?5cannot?5point?5to?5a?5@ ; `string'
PUBLIC	??_C@_1HA@FACCKGGH@?$AA?$CC?$AAn?$AAu?$AAl?$AAl?$AA?5?$AAp?$AAo?$AAi?$AAn?$AAt?$AAe?$AAr?$AA?5?$AAc@ ; `string'
PUBLIC	??_C@_0BA@FOIKENOD@vector?5too?5long@		; `string'
PUBLIC	??_C@_0O@NKNMEGII@list?5too?5long@		; `string'
PUBLIC	?id@?$num_get@DV?$istreambuf_iterator@DU?$char_traits@D@std@@@std@@@std@@2V0locale@2@A ; std::num_get<char,std::istreambuf_iterator<char,std::char_traits<char> > >::id
PUBLIC	??_C@_0DG@GAGDEJEE@list?5iterators?5in?5range?5are?5fro@ ; `string'
PUBLIC	??_C@_1HA@KAMKPLHN@?$AA?$CC?$AAl?$AAi?$AAs?$AAt?$AA?5?$AAi?$AAt?$AAe?$AAr?$AAa?$AAt?$AAo?$AAr?$AAs@ ; `string'
PUBLIC	??_C@_0BJ@HAJGEHKO@transposed?5pointer?5range@	; `string'
PUBLIC	??_C@_0GD@GLKFIMHC@C?3?2Program?5Files?2Microsoft?5Visu@ ; `string'
PUBLIC	??_C@_1MG@NOLPABAB@?$AAC?$AA?3?$AA?2?$AAP?$AAr?$AAo?$AAg?$AAr?$AAa?$AAm?$AA?5?$AAF?$AAi?$AAl?$AAe@ ; `string'
PUBLIC	??_C@_1DG@FJIKMGFD@?$AA?$CC?$AAt?$AAr?$AAa?$AAn?$AAs?$AAp?$AAo?$AAs?$AAe?$AAd?$AA?5?$AAp?$AAo?$AAi@ ; `string'
PUBLIC	??_R4exception@std@@6B@				; std::exception::`RTTI Complete Object Locator'
PUBLIC	??_R3exception@std@@8				; std::exception::`RTTI Class Hierarchy Descriptor'
PUBLIC	??_R2exception@std@@8				; std::exception::`RTTI Base Class Array'
PUBLIC	??_R1A@?0A@EA@exception@std@@8			; std::exception::`RTTI Base Class Descriptor at (0,-1,0,64)'
PUBLIC	??_R4bad_alloc@std@@6B@				; std::bad_alloc::`RTTI Complete Object Locator'
PUBLIC	??_R3bad_alloc@std@@8				; std::bad_alloc::`RTTI Class Hierarchy Descriptor'
PUBLIC	??_R2bad_alloc@std@@8				; std::bad_alloc::`RTTI Base Class Array'
PUBLIC	??_R1A@?0A@EA@bad_alloc@std@@8			; std::bad_alloc::`RTTI Base Class Descriptor at (0,-1,0,64)'
PUBLIC	??_R4bad_array_new_length@std@@6B@		; std::bad_array_new_length::`RTTI Complete Object Locator'
PUBLIC	??_R3bad_array_new_length@std@@8		; std::bad_array_new_length::`RTTI Class Hierarchy Descriptor'
PUBLIC	??_R2bad_array_new_length@std@@8		; std::bad_array_new_length::`RTTI Base Class Array'
PUBLIC	??_R1A@?0A@EA@bad_array_new_length@std@@8	; std::bad_array_new_length::`RTTI Base Class Descriptor at (0,-1,0,64)'
PUBLIC	??_R4?$Graph_SearchTimeSliced@VNavGraphEdge@@@@6B@ ; Graph_SearchTimeSliced<NavGraphEdge>::`RTTI Complete Object Locator'
PUBLIC	??_R0?AV?$Graph_SearchTimeSliced@VNavGraphEdge@@@@@8 ; Graph_SearchTimeSliced<NavGraphEdge> `RTTI Type Descriptor'
PUBLIC	??_R3?$Graph_SearchTimeSliced@VNavGraphEdge@@@@8 ; Graph_SearchTimeSliced<NavGraphEdge>::`RTTI Class Hierarchy Descriptor'
PUBLIC	??_R2?$Graph_SearchTimeSliced@VNavGraphEdge@@@@8 ; Graph_SearchTimeSliced<NavGraphEdge>::`RTTI Base Class Array'
PUBLIC	??_R1A@?0A@EA@?$Graph_SearchTimeSliced@VNavGraphEdge@@@@8 ; Graph_SearchTimeSliced<NavGraphEdge>::`RTTI Base Class Descriptor at (0,-1,0,64)'
PUBLIC	??_R4?$Graph_SearchAStar_TS@V?$SparseGraph@V?$NavGraphNode@PAV?$Trigger@VRaven_Bot@@@@@@VNavGraphEdge@@@@VHeuristic_Euclid@@@@6B@ ; Graph_SearchAStar_TS<SparseGraph<NavGraphNode<Trigger<Raven_Bot> *>,NavGraphEdge>,Heuristic_Euclid>::`RTTI Complete Object Locator'
PUBLIC	??_R0?AV?$Graph_SearchAStar_TS@V?$SparseGraph@V?$NavGraphNode@PAV?$Trigger@VRaven_Bot@@@@@@VNavGraphEdge@@@@VHeuristic_Euclid@@@@@8 ; Graph_SearchAStar_TS<SparseGraph<NavGraphNode<Trigger<Raven_Bot> *>,NavGraphEdge>,Heuristic_Euclid> `RTTI Type Descriptor'
PUBLIC	??_R3?$Graph_SearchAStar_TS@V?$SparseGraph@V?$NavGraphNode@PAV?$Trigger@VRaven_Bot@@@@@@VNavGraphEdge@@@@VHeuristic_Euclid@@@@8 ; Graph_SearchAStar_TS<SparseGraph<NavGraphNode<Trigger<Raven_Bot> *>,NavGraphEdge>,Heuristic_Euclid>::`RTTI Class Hierarchy Descriptor'
PUBLIC	??_R2?$Graph_SearchAStar_TS@V?$SparseGraph@V?$NavGraphNode@PAV?$Trigger@VRaven_Bot@@@@@@VNavGraphEdge@@@@VHeuristic_Euclid@@@@8 ; Graph_SearchAStar_TS<SparseGraph<NavGraphNode<Trigger<Raven_Bot> *>,NavGraphEdge>,Heuristic_Euclid>::`RTTI Base Class Array'
PUBLIC	??_R1A@?0A@EA@?$Graph_SearchAStar_TS@V?$SparseGraph@V?$NavGraphNode@PAV?$Trigger@VRaven_Bot@@@@@@VNavGraphEdge@@@@VHeuristic_Euclid@@@@8 ; Graph_SearchAStar_TS<SparseGraph<NavGraphNode<Trigger<Raven_Bot> *>,NavGraphEdge>,Heuristic_Euclid>::`RTTI Base Class Descriptor at (0,-1,0,64)'
PUBLIC	??_R4?$Graph_SearchDijkstras_TS@V?$SparseGraph@V?$NavGraphNode@PAV?$Trigger@VRaven_Bot@@@@@@VNavGraphEdge@@@@V?$FindActiveTrigger@V?$Trigger@VRaven_Bot@@@@@@@@6B@ ; Graph_SearchDijkstras_TS<SparseGraph<NavGraphNode<Trigger<Raven_Bot> *>,NavGraphEdge>,FindActiveTrigger<Trigger<Raven_Bot> > >::`RTTI Complete Object Locator'
PUBLIC	??_R0?AV?$Graph_SearchDijkstras_TS@V?$SparseGraph@V?$NavGraphNode@PAV?$Trigger@VRaven_Bot@@@@@@VNavGraphEdge@@@@V?$FindActiveTrigger@V?$Trigger@VRaven_Bot@@@@@@@@@8 ; Graph_SearchDijkstras_TS<SparseGraph<NavGraphNode<Trigger<Raven_Bot> *>,NavGraphEdge>,FindActiveTrigger<Trigger<Raven_Bot> > > `RTTI Type Descriptor'
PUBLIC	??_R3?$Graph_SearchDijkstras_TS@V?$SparseGraph@V?$NavGraphNode@PAV?$Trigger@VRaven_Bot@@@@@@VNavGraphEdge@@@@V?$FindActiveTrigger@V?$Trigger@VRaven_Bot@@@@@@@@8 ; Graph_SearchDijkstras_TS<SparseGraph<NavGraphNode<Trigger<Raven_Bot> *>,NavGraphEdge>,FindActiveTrigger<Trigger<Raven_Bot> > >::`RTTI Class Hierarchy Descriptor'
PUBLIC	??_R2?$Graph_SearchDijkstras_TS@V?$SparseGraph@V?$NavGraphNode@PAV?$Trigger@VRaven_Bot@@@@@@VNavGraphEdge@@@@V?$FindActiveTrigger@V?$Trigger@VRaven_Bot@@@@@@@@8 ; Graph_SearchDijkstras_TS<SparseGraph<NavGraphNode<Trigger<Raven_Bot> *>,NavGraphEdge>,FindActiveTrigger<Trigger<Raven_Bot> > >::`RTTI Base Class Array'
PUBLIC	??_R1A@?0A@EA@?$Graph_SearchDijkstras_TS@V?$SparseGraph@V?$NavGraphNode@PAV?$Trigger@VRaven_Bot@@@@@@VNavGraphEdge@@@@V?$FindActiveTrigger@V?$Trigger@VRaven_Bot@@@@@@@@8 ; Graph_SearchDijkstras_TS<SparseGraph<NavGraphNode<Trigger<Raven_Bot> *>,NavGraphEdge>,FindActiveTrigger<Trigger<Raven_Bot> > >::`RTTI Base Class Descriptor at (0,-1,0,64)'
PUBLIC	__real@3d719799812dea11
PUBLIC	__real@4000000000000000
PUBLIC	__real@7fefffffffffffff
PUBLIC	__real@bff0000000000000
EXTRN	__purecall:PROC
EXTRN	??2@YAPAXI@Z:PROC				; operator new
EXTRN	??3@YAXPAXI@Z:PROC				; operator delete
EXTRN	__invalid_parameter:PROC
EXTRN	_fabs:PROC
EXTRN	_sqrt:PROC
EXTRN	_memcmp:PROC
EXTRN	_memmove:PROC
EXTRN	_memset:PROC
EXTRN	__CrtDbgReport:PROC
EXTRN	??0_Lockit@std@@QAE@H@Z:PROC			; std::_Lockit::_Lockit
EXTRN	??1_Lockit@std@@QAE@XZ:PROC			; std::_Lockit::~_Lockit
EXTRN	___std_exception_copy:PROC
EXTRN	___std_exception_destroy:PROC
EXTRN	??_Eexception@std@@UAEPAXI@Z:PROC		; std::exception::`vector deleting destructor'
EXTRN	??_Ebad_alloc@std@@UAEPAXI@Z:PROC		; std::bad_alloc::`vector deleting destructor'
EXTRN	??_Ebad_array_new_length@std@@UAEPAXI@Z:PROC	; std::bad_array_new_length::`vector deleting destructor'
EXTRN	?_Xlength_error@std@@YAXPBD@Z:PROC		; std::_Xlength_error
EXTRN	__wassert:PROC
EXTRN	?canWalkTo@Raven_Bot@@QBE_NUVector2D@@@Z:PROC	; Raven_Bot::canWalkTo
EXTRN	?canWalkBetween@Raven_Bot@@QBE_NUVector2D@@0@Z:PROC ; Raven_Bot::canWalkBetween
EXTRN	?CalculateCostToTravelBetweenNodes@Raven_Map@@QBENHH@Z:PROC ; Raven_Map::CalculateCostToTravelBetweenNodes
EXTRN	?Instance@Raven_UserOptions@@SAPAV1@XZ:PROC	; Raven_UserOptions::Instance
EXTRN	?Instance@MessageDispatcher@@SAPAV1@XZ:PROC	; MessageDispatcher::Instance
EXTRN	?DispatchMsg@MessageDispatcher@@QAEXNHHHPAX@Z:PROC ; MessageDispatcher::DispatchMsg
EXTRN	??_E?$Graph_SearchTimeSliced@VNavGraphEdge@@@@UAEPAXI@Z:PROC ; Graph_SearchTimeSliced<NavGraphEdge>::`vector deleting destructor'
EXTRN	??_E?$Graph_SearchAStar_TS@V?$SparseGraph@V?$NavGraphNode@PAV?$Trigger@VRaven_Bot@@@@@@VNavGraphEdge@@@@VHeuristic_Euclid@@@@UAEPAXI@Z:PROC ; Graph_SearchAStar_TS<SparseGraph<NavGraphNode<Trigger<Raven_Bot> *>,NavGraphEdge>,Heuristic_Euclid>::`vector deleting destructor'
EXTRN	??_E?$Graph_SearchDijkstras_TS@V?$SparseGraph@V?$NavGraphNode@PAV?$Trigger@VRaven_Bot@@@@@@VNavGraphEdge@@@@V?$FindActiveTrigger@V?$Trigger@VRaven_Bot@@@@@@@@UAEPAXI@Z:PROC ; Graph_SearchDijkstras_TS<SparseGraph<NavGraphNode<Trigger<Raven_Bot> *>,NavGraphEdge>,FindActiveTrigger<Trigger<Raven_Bot> > >::`vector deleting destructor'
EXTRN	@_RTC_CheckStackVars@8:PROC
EXTRN	@__security_check_cookie@4:PROC
EXTRN	__CxxThrowException@8:PROC
EXTRN	__RTC_CheckEsp:PROC
EXTRN	__RTC_InitBase:PROC
EXTRN	__RTC_Shutdown:PROC
EXTRN	___CxxFrameHandler3:PROC
EXTRN	_memset:PROC
EXTRN	??_7type_info@@6B@:QWORD			; type_info::`vftable'
EXTRN	___security_cookie:DWORD
EXTRN	__fltused:DWORD
;	COMDAT ?id@?$codecvt@DDU_Mbstatet@@@std@@2V0locale@2@A
_BSS	SEGMENT
?id@?$codecvt@DDU_Mbstatet@@@std@@2V0locale@2@A DD 01H DUP (?) ; std::codecvt<char,char,_Mbstatet>::id
_BSS	ENDS
;	COMDAT ?id@?$num_put@DV?$ostreambuf_iterator@DU?$char_traits@D@std@@@std@@@std@@2V0locale@2@A
_BSS	SEGMENT
?id@?$num_put@DV?$ostreambuf_iterator@DU?$char_traits@D@std@@@std@@@std@@2V0locale@2@A DD 01H DUP (?) ; std::num_put<char,std::ostreambuf_iterator<char,std::char_traits<char> > >::id
_BSS	ENDS
;	COMDAT ?id@?$numpunct@D@std@@2V0locale@2@A
_BSS	SEGMENT
?id@?$numpunct@D@std@@2V0locale@2@A DD 01H DUP (?)	; std::numpunct<char>::id
_BSS	ENDS
;	COMDAT ?id@?$num_get@DV?$istreambuf_iterator@DU?$char_traits@D@std@@@std@@@std@@2V0locale@2@A
_BSS	SEGMENT
?id@?$num_get@DV?$istreambuf_iterator@DU?$char_traits@D@std@@@std@@@std@@2V0locale@2@A DD 01H DUP (?) ; std::num_get<char,std::istreambuf_iterator<char,std::char_traits<char> > >::id
_BSS	ENDS
;	COMDAT CRT$XCU
CRT$XCU	SEGMENT
??id$initializer$@?$num_put@DV?$ostreambuf_iterator@DU?$char_traits@D@std@@@std@@@std@@2P6AXXZA@@3P6AXXZA DD FLAT:??__E?id@?$num_put@DV?$ostreambuf_iterator@DU?$char_traits@D@std@@@std@@@std@@2V0locale@2@A@@YAXXZ ; ??id$initializer$@?$num_put@DV?$ostreambuf_iterator@DU?$char_traits@D@std@@@std@@@std@@2P6AXXZA@@3P6AXXZA
CRT$XCU	ENDS
;	COMDAT __real@bff0000000000000
CONST	SEGMENT
__real@bff0000000000000 DQ 0bff0000000000000r	; -1
CONST	ENDS
;	COMDAT __real@7fefffffffffffff
CONST	SEGMENT
__real@7fefffffffffffff DQ 07fefffffffffffffr	; 1.79769e+308
CONST	ENDS
;	COMDAT __real@4000000000000000
CONST	SEGMENT
__real@4000000000000000 DQ 04000000000000000r	; 2
CONST	ENDS
;	COMDAT __real@3d719799812dea11
CONST	SEGMENT
__real@3d719799812dea11 DQ 03d719799812dea11r	; 1e-12
CONST	ENDS
;	COMDAT rtc$TMZ
rtc$TMZ	SEGMENT
__RTC_Shutdown.rtc$TMZ DD FLAT:__RTC_Shutdown
rtc$TMZ	ENDS
;	COMDAT rtc$IMZ
rtc$IMZ	SEGMENT
__RTC_InitBase.rtc$IMZ DD FLAT:__RTC_InitBase
rtc$IMZ	ENDS
;	COMDAT ??_R1A@?0A@EA@?$Graph_SearchDijkstras_TS@V?$SparseGraph@V?$NavGraphNode@PAV?$Trigger@VRaven_Bot@@@@@@VNavGraphEdge@@@@V?$FindActiveTrigger@V?$Trigger@VRaven_Bot@@@@@@@@8
rdata$r	SEGMENT
??_R1A@?0A@EA@?$Graph_SearchDijkstras_TS@V?$SparseGraph@V?$NavGraphNode@PAV?$Trigger@VRaven_Bot@@@@@@VNavGraphEdge@@@@V?$FindActiveTrigger@V?$Trigger@VRaven_Bot@@@@@@@@8 DD FLAT:??_R0?AV?$Graph_SearchDijkstras_TS@V?$SparseGraph@V?$NavGraphNode@PAV?$Trigger@VRaven_Bot@@@@@@VNavGraphEdge@@@@V?$FindActiveTrigger@V?$Trigger@VRaven_Bot@@@@@@@@@8 ; Graph_SearchDijkstras_TS<SparseGraph<NavGraphNode<Trigger<Raven_Bot> *>,NavGraphEdge>,FindActiveTrigger<Trigger<Raven_Bot> > >::`RTTI Base Class Descriptor at (0,-1,0,64)'
	DD	01H
	DD	00H
	DD	0ffffffffH
	DD	00H
	DD	040H
	DD	FLAT:??_R3?$Graph_SearchDijkstras_TS@V?$SparseGraph@V?$NavGraphNode@PAV?$Trigger@VRaven_Bot@@@@@@VNavGraphEdge@@@@V?$FindActiveTrigger@V?$Trigger@VRaven_Bot@@@@@@@@8
rdata$r	ENDS
;	COMDAT ??_R2?$Graph_SearchDijkstras_TS@V?$SparseGraph@V?$NavGraphNode@PAV?$Trigger@VRaven_Bot@@@@@@VNavGraphEdge@@@@V?$FindActiveTrigger@V?$Trigger@VRaven_Bot@@@@@@@@8
rdata$r	SEGMENT
??_R2?$Graph_SearchDijkstras_TS@V?$SparseGraph@V?$NavGraphNode@PAV?$Trigger@VRaven_Bot@@@@@@VNavGraphEdge@@@@V?$FindActiveTrigger@V?$Trigger@VRaven_Bot@@@@@@@@8 DD FLAT:??_R1A@?0A@EA@?$Graph_SearchDijkstras_TS@V?$SparseGraph@V?$NavGraphNode@PAV?$Trigger@VRaven_Bot@@@@@@VNavGraphEdge@@@@V?$FindActiveTrigger@V?$Trigger@VRaven_Bot@@@@@@@@8 ; Graph_SearchDijkstras_TS<SparseGraph<NavGraphNode<Trigger<Raven_Bot> *>,NavGraphEdge>,FindActiveTrigger<Trigger<Raven_Bot> > >::`RTTI Base Class Array'
	DD	FLAT:??_R1A@?0A@EA@?$Graph_SearchTimeSliced@VNavGraphEdge@@@@8
rdata$r	ENDS
;	COMDAT ??_R3?$Graph_SearchDijkstras_TS@V?$SparseGraph@V?$NavGraphNode@PAV?$Trigger@VRaven_Bot@@@@@@VNavGraphEdge@@@@V?$FindActiveTrigger@V?$Trigger@VRaven_Bot@@@@@@@@8
rdata$r	SEGMENT
??_R3?$Graph_SearchDijkstras_TS@V?$SparseGraph@V?$NavGraphNode@PAV?$Trigger@VRaven_Bot@@@@@@VNavGraphEdge@@@@V?$FindActiveTrigger@V?$Trigger@VRaven_Bot@@@@@@@@8 DD 00H ; Graph_SearchDijkstras_TS<SparseGraph<NavGraphNode<Trigger<Raven_Bot> *>,NavGraphEdge>,FindActiveTrigger<Trigger<Raven_Bot> > >::`RTTI Class Hierarchy Descriptor'
	DD	00H
	DD	02H
	DD	FLAT:??_R2?$Graph_SearchDijkstras_TS@V?$SparseGraph@V?$NavGraphNode@PAV?$Trigger@VRaven_Bot@@@@@@VNavGraphEdge@@@@V?$FindActiveTrigger@V?$Trigger@VRaven_Bot@@@@@@@@8
rdata$r	ENDS
;	COMDAT ??_R0?AV?$Graph_SearchDijkstras_TS@V?$SparseGraph@V?$NavGraphNode@PAV?$Trigger@VRaven_Bot@@@@@@VNavGraphEdge@@@@V?$FindActiveTrigger@V?$Trigger@VRaven_Bot@@@@@@@@@8
data$rs	SEGMENT
??_R0?AV?$Graph_SearchDijkstras_TS@V?$SparseGraph@V?$NavGraphNode@PAV?$Trigger@VRaven_Bot@@@@@@VNavGraphEdge@@@@V?$FindActiveTrigger@V?$Trigger@VRaven_Bot@@@@@@@@@8 DD FLAT:??_7type_info@@6B@ ; Graph_SearchDijkstras_TS<SparseGraph<NavGraphNode<Trigger<Raven_Bot> *>,NavGraphEdge>,FindActiveTrigger<Trigger<Raven_Bot> > > `RTTI Type Descriptor'
	DD	00H
	DB	'.?AV?$Graph_SearchDijkstras_TS@V?$SparseGraph@V?$NavGrap'
	DB	'hNode@PAV?$Trigger@VRaven_Bot@@@@@@VNavGraphEdge@@@@V?$FindAc'
	DB	'tiveTrigger@V?$Trigger@VRaven_Bot@@@@@@@@', 00H
data$rs	ENDS
;	COMDAT ??_R4?$Graph_SearchDijkstras_TS@V?$SparseGraph@V?$NavGraphNode@PAV?$Trigger@VRaven_Bot@@@@@@VNavGraphEdge@@@@V?$FindActiveTrigger@V?$Trigger@VRaven_Bot@@@@@@@@6B@
rdata$r	SEGMENT
??_R4?$Graph_SearchDijkstras_TS@V?$SparseGraph@V?$NavGraphNode@PAV?$Trigger@VRaven_Bot@@@@@@VNavGraphEdge@@@@V?$FindActiveTrigger@V?$Trigger@VRaven_Bot@@@@@@@@6B@ DD 00H ; Graph_SearchDijkstras_TS<SparseGraph<NavGraphNode<Trigger<Raven_Bot> *>,NavGraphEdge>,FindActiveTrigger<Trigger<Raven_Bot> > >::`RTTI Complete Object Locator'
	DD	00H
	DD	00H
	DD	FLAT:??_R0?AV?$Graph_SearchDijkstras_TS@V?$SparseGraph@V?$NavGraphNode@PAV?$Trigger@VRaven_Bot@@@@@@VNavGraphEdge@@@@V?$FindActiveTrigger@V?$Trigger@VRaven_Bot@@@@@@@@@8
	DD	FLAT:??_R3?$Graph_SearchDijkstras_TS@V?$SparseGraph@V?$NavGraphNode@PAV?$Trigger@VRaven_Bot@@@@@@VNavGraphEdge@@@@V?$FindActiveTrigger@V?$Trigger@VRaven_Bot@@@@@@@@8
rdata$r	ENDS
;	COMDAT ??_R1A@?0A@EA@?$Graph_SearchAStar_TS@V?$SparseGraph@V?$NavGraphNode@PAV?$Trigger@VRaven_Bot@@@@@@VNavGraphEdge@@@@VHeuristic_Euclid@@@@8
rdata$r	SEGMENT
??_R1A@?0A@EA@?$Graph_SearchAStar_TS@V?$SparseGraph@V?$NavGraphNode@PAV?$Trigger@VRaven_Bot@@@@@@VNavGraphEdge@@@@VHeuristic_Euclid@@@@8 DD FLAT:??_R0?AV?$Graph_SearchAStar_TS@V?$SparseGraph@V?$NavGraphNode@PAV?$Trigger@VRaven_Bot@@@@@@VNavGraphEdge@@@@VHeuristic_Euclid@@@@@8 ; Graph_SearchAStar_TS<SparseGraph<NavGraphNode<Trigger<Raven_Bot> *>,NavGraphEdge>,Heuristic_Euclid>::`RTTI Base Class Descriptor at (0,-1,0,64)'
	DD	01H
	DD	00H
	DD	0ffffffffH
	DD	00H
	DD	040H
	DD	FLAT:??_R3?$Graph_SearchAStar_TS@V?$SparseGraph@V?$NavGraphNode@PAV?$Trigger@VRaven_Bot@@@@@@VNavGraphEdge@@@@VHeuristic_Euclid@@@@8
rdata$r	ENDS
;	COMDAT ??_R2?$Graph_SearchAStar_TS@V?$SparseGraph@V?$NavGraphNode@PAV?$Trigger@VRaven_Bot@@@@@@VNavGraphEdge@@@@VHeuristic_Euclid@@@@8
rdata$r	SEGMENT
??_R2?$Graph_SearchAStar_TS@V?$SparseGraph@V?$NavGraphNode@PAV?$Trigger@VRaven_Bot@@@@@@VNavGraphEdge@@@@VHeuristic_Euclid@@@@8 DD FLAT:??_R1A@?0A@EA@?$Graph_SearchAStar_TS@V?$SparseGraph@V?$NavGraphNode@PAV?$Trigger@VRaven_Bot@@@@@@VNavGraphEdge@@@@VHeuristic_Euclid@@@@8 ; Graph_SearchAStar_TS<SparseGraph<NavGraphNode<Trigger<Raven_Bot> *>,NavGraphEdge>,Heuristic_Euclid>::`RTTI Base Class Array'
	DD	FLAT:??_R1A@?0A@EA@?$Graph_SearchTimeSliced@VNavGraphEdge@@@@8
rdata$r	ENDS
;	COMDAT ??_R3?$Graph_SearchAStar_TS@V?$SparseGraph@V?$NavGraphNode@PAV?$Trigger@VRaven_Bot@@@@@@VNavGraphEdge@@@@VHeuristic_Euclid@@@@8
rdata$r	SEGMENT
??_R3?$Graph_SearchAStar_TS@V?$SparseGraph@V?$NavGraphNode@PAV?$Trigger@VRaven_Bot@@@@@@VNavGraphEdge@@@@VHeuristic_Euclid@@@@8 DD 00H ; Graph_SearchAStar_TS<SparseGraph<NavGraphNode<Trigger<Raven_Bot> *>,NavGraphEdge>,Heuristic_Euclid>::`RTTI Class Hierarchy Descriptor'
	DD	00H
	DD	02H
	DD	FLAT:??_R2?$Graph_SearchAStar_TS@V?$SparseGraph@V?$NavGraphNode@PAV?$Trigger@VRaven_Bot@@@@@@VNavGraphEdge@@@@VHeuristic_Euclid@@@@8
rdata$r	ENDS
;	COMDAT ??_R0?AV?$Graph_SearchAStar_TS@V?$SparseGraph@V?$NavGraphNode@PAV?$Trigger@VRaven_Bot@@@@@@VNavGraphEdge@@@@VHeuristic_Euclid@@@@@8
data$rs	SEGMENT
??_R0?AV?$Graph_SearchAStar_TS@V?$SparseGraph@V?$NavGraphNode@PAV?$Trigger@VRaven_Bot@@@@@@VNavGraphEdge@@@@VHeuristic_Euclid@@@@@8 DD FLAT:??_7type_info@@6B@ ; Graph_SearchAStar_TS<SparseGraph<NavGraphNode<Trigger<Raven_Bot> *>,NavGraphEdge>,Heuristic_Euclid> `RTTI Type Descriptor'
	DD	00H
	DB	'.?AV?$Graph_SearchAStar_TS@V?$SparseGraph@V?$NavGraphNod'
	DB	'e@PAV?$Trigger@VRaven_Bot@@@@@@VNavGraphEdge@@@@VHeuristic_Eu'
	DB	'clid@@@@', 00H
data$rs	ENDS
;	COMDAT ??_R4?$Graph_SearchAStar_TS@V?$SparseGraph@V?$NavGraphNode@PAV?$Trigger@VRaven_Bot@@@@@@VNavGraphEdge@@@@VHeuristic_Euclid@@@@6B@
rdata$r	SEGMENT
??_R4?$Graph_SearchAStar_TS@V?$SparseGraph@V?$NavGraphNode@PAV?$Trigger@VRaven_Bot@@@@@@VNavGraphEdge@@@@VHeuristic_Euclid@@@@6B@ DD 00H ; Graph_SearchAStar_TS<SparseGraph<NavGraphNode<Trigger<Raven_Bot> *>,NavGraphEdge>,Heuristic_Euclid>::`RTTI Complete Object Locator'
	DD	00H
	DD	00H
	DD	FLAT:??_R0?AV?$Graph_SearchAStar_TS@V?$SparseGraph@V?$NavGraphNode@PAV?$Trigger@VRaven_Bot@@@@@@VNavGraphEdge@@@@VHeuristic_Euclid@@@@@8
	DD	FLAT:??_R3?$Graph_SearchAStar_TS@V?$SparseGraph@V?$NavGraphNode@PAV?$Trigger@VRaven_Bot@@@@@@VNavGraphEdge@@@@VHeuristic_Euclid@@@@8
rdata$r	ENDS
;	COMDAT ??_R1A@?0A@EA@?$Graph_SearchTimeSliced@VNavGraphEdge@@@@8
rdata$r	SEGMENT
??_R1A@?0A@EA@?$Graph_SearchTimeSliced@VNavGraphEdge@@@@8 DD FLAT:??_R0?AV?$Graph_SearchTimeSliced@VNavGraphEdge@@@@@8 ; Graph_SearchTimeSliced<NavGraphEdge>::`RTTI Base Class Descriptor at (0,-1,0,64)'
	DD	00H
	DD	00H
	DD	0ffffffffH
	DD	00H
	DD	040H
	DD	FLAT:??_R3?$Graph_SearchTimeSliced@VNavGraphEdge@@@@8
rdata$r	ENDS
;	COMDAT ??_R2?$Graph_SearchTimeSliced@VNavGraphEdge@@@@8
rdata$r	SEGMENT
??_R2?$Graph_SearchTimeSliced@VNavGraphEdge@@@@8 DD FLAT:??_R1A@?0A@EA@?$Graph_SearchTimeSliced@VNavGraphEdge@@@@8 ; Graph_SearchTimeSliced<NavGraphEdge>::`RTTI Base Class Array'
rdata$r	ENDS
;	COMDAT ??_R3?$Graph_SearchTimeSliced@VNavGraphEdge@@@@8
rdata$r	SEGMENT
??_R3?$Graph_SearchTimeSliced@VNavGraphEdge@@@@8 DD 00H	; Graph_SearchTimeSliced<NavGraphEdge>::`RTTI Class Hierarchy Descriptor'
	DD	00H
	DD	01H
	DD	FLAT:??_R2?$Graph_SearchTimeSliced@VNavGraphEdge@@@@8
rdata$r	ENDS
;	COMDAT ??_R0?AV?$Graph_SearchTimeSliced@VNavGraphEdge@@@@@8
data$rs	SEGMENT
??_R0?AV?$Graph_SearchTimeSliced@VNavGraphEdge@@@@@8 DD FLAT:??_7type_info@@6B@ ; Graph_SearchTimeSliced<NavGraphEdge> `RTTI Type Descriptor'
	DD	00H
	DB	'.?AV?$Graph_SearchTimeSliced@VNavGraphEdge@@@@', 00H
data$rs	ENDS
;	COMDAT ??_R4?$Graph_SearchTimeSliced@VNavGraphEdge@@@@6B@
rdata$r	SEGMENT
??_R4?$Graph_SearchTimeSliced@VNavGraphEdge@@@@6B@ DD 00H ; Graph_SearchTimeSliced<NavGraphEdge>::`RTTI Complete Object Locator'
	DD	00H
	DD	00H
	DD	FLAT:??_R0?AV?$Graph_SearchTimeSliced@VNavGraphEdge@@@@@8
	DD	FLAT:??_R3?$Graph_SearchTimeSliced@VNavGraphEdge@@@@8
rdata$r	ENDS
;	COMDAT ??_R1A@?0A@EA@bad_array_new_length@std@@8
rdata$r	SEGMENT
??_R1A@?0A@EA@bad_array_new_length@std@@8 DD FLAT:??_R0?AVbad_array_new_length@std@@@8 ; std::bad_array_new_length::`RTTI Base Class Descriptor at (0,-1,0,64)'
	DD	02H
	DD	00H
	DD	0ffffffffH
	DD	00H
	DD	040H
	DD	FLAT:??_R3bad_array_new_length@std@@8
rdata$r	ENDS
;	COMDAT ??_R2bad_array_new_length@std@@8
rdata$r	SEGMENT
??_R2bad_array_new_length@std@@8 DD FLAT:??_R1A@?0A@EA@bad_array_new_length@std@@8 ; std::bad_array_new_length::`RTTI Base Class Array'
	DD	FLAT:??_R1A@?0A@EA@bad_alloc@std@@8
	DD	FLAT:??_R1A@?0A@EA@exception@std@@8
rdata$r	ENDS
;	COMDAT ??_R3bad_array_new_length@std@@8
rdata$r	SEGMENT
??_R3bad_array_new_length@std@@8 DD 00H			; std::bad_array_new_length::`RTTI Class Hierarchy Descriptor'
	DD	00H
	DD	03H
	DD	FLAT:??_R2bad_array_new_length@std@@8
rdata$r	ENDS
;	COMDAT ??_R4bad_array_new_length@std@@6B@
rdata$r	SEGMENT
??_R4bad_array_new_length@std@@6B@ DD 00H		; std::bad_array_new_length::`RTTI Complete Object Locator'
	DD	00H
	DD	00H
	DD	FLAT:??_R0?AVbad_array_new_length@std@@@8
	DD	FLAT:??_R3bad_array_new_length@std@@8
rdata$r	ENDS
;	COMDAT ??_R1A@?0A@EA@bad_alloc@std@@8
rdata$r	SEGMENT
??_R1A@?0A@EA@bad_alloc@std@@8 DD FLAT:??_R0?AVbad_alloc@std@@@8 ; std::bad_alloc::`RTTI Base Class Descriptor at (0,-1,0,64)'
	DD	01H
	DD	00H
	DD	0ffffffffH
	DD	00H
	DD	040H
	DD	FLAT:??_R3bad_alloc@std@@8
rdata$r	ENDS
;	COMDAT ??_R2bad_alloc@std@@8
rdata$r	SEGMENT
??_R2bad_alloc@std@@8 DD FLAT:??_R1A@?0A@EA@bad_alloc@std@@8 ; std::bad_alloc::`RTTI Base Class Array'
	DD	FLAT:??_R1A@?0A@EA@exception@std@@8
rdata$r	ENDS
;	COMDAT ??_R3bad_alloc@std@@8
rdata$r	SEGMENT
??_R3bad_alloc@std@@8 DD 00H				; std::bad_alloc::`RTTI Class Hierarchy Descriptor'
	DD	00H
	DD	02H
	DD	FLAT:??_R2bad_alloc@std@@8
rdata$r	ENDS
;	COMDAT ??_R4bad_alloc@std@@6B@
rdata$r	SEGMENT
??_R4bad_alloc@std@@6B@ DD 00H				; std::bad_alloc::`RTTI Complete Object Locator'
	DD	00H
	DD	00H
	DD	FLAT:??_R0?AVbad_alloc@std@@@8
	DD	FLAT:??_R3bad_alloc@std@@8
rdata$r	ENDS
;	COMDAT ??_R1A@?0A@EA@exception@std@@8
rdata$r	SEGMENT
??_R1A@?0A@EA@exception@std@@8 DD FLAT:??_R0?AVexception@std@@@8 ; std::exception::`RTTI Base Class Descriptor at (0,-1,0,64)'
	DD	00H
	DD	00H
	DD	0ffffffffH
	DD	00H
	DD	040H
	DD	FLAT:??_R3exception@std@@8
rdata$r	ENDS
;	COMDAT ??_R2exception@std@@8
rdata$r	SEGMENT
??_R2exception@std@@8 DD FLAT:??_R1A@?0A@EA@exception@std@@8 ; std::exception::`RTTI Base Class Array'
rdata$r	ENDS
;	COMDAT ??_R3exception@std@@8
rdata$r	SEGMENT
??_R3exception@std@@8 DD 00H				; std::exception::`RTTI Class Hierarchy Descriptor'
	DD	00H
	DD	01H
	DD	FLAT:??_R2exception@std@@8
rdata$r	ENDS
;	COMDAT ??_R4exception@std@@6B@
rdata$r	SEGMENT
??_R4exception@std@@6B@ DD 00H				; std::exception::`RTTI Complete Object Locator'
	DD	00H
	DD	00H
	DD	FLAT:??_R0?AVexception@std@@@8
	DD	FLAT:??_R3exception@std@@8
rdata$r	ENDS
;	COMDAT ??_C@_1DG@FJIKMGFD@?$AA?$CC?$AAt?$AAr?$AAa?$AAn?$AAs?$AAp?$AAo?$AAs?$AAe?$AAd?$AA?5?$AAp?$AAo?$AAi@
CONST	SEGMENT
??_C@_1DG@FJIKMGFD@?$AA?$CC?$AAt?$AAr?$AAa?$AAn?$AAs?$AAp?$AAo?$AAs?$AAe?$AAd?$AA?5?$AAp?$AAo?$AAi@ DB '"'
	DB	00H, 't', 00H, 'r', 00H, 'a', 00H, 'n', 00H, 's', 00H, 'p', 00H
	DB	'o', 00H, 's', 00H, 'e', 00H, 'd', 00H, ' ', 00H, 'p', 00H, 'o'
	DB	00H, 'i', 00H, 'n', 00H, 't', 00H, 'e', 00H, 'r', 00H, ' ', 00H
	DB	'r', 00H, 'a', 00H, 'n', 00H, 'g', 00H, 'e', 00H, '"', 00H, 00H
	DB	00H						; `string'
CONST	ENDS
;	COMDAT ??_C@_1MG@NOLPABAB@?$AAC?$AA?3?$AA?2?$AAP?$AAr?$AAo?$AAg?$AAr?$AAa?$AAm?$AA?5?$AAF?$AAi?$AAl?$AAe@
CONST	SEGMENT
??_C@_1MG@NOLPABAB@?$AAC?$AA?3?$AA?2?$AAP?$AAr?$AAo?$AAg?$AAr?$AAa?$AAm?$AA?5?$AAF?$AAi?$AAl?$AAe@ DB 'C'
	DB	00H, ':', 00H, '\', 00H, 'P', 00H, 'r', 00H, 'o', 00H, 'g', 00H
	DB	'r', 00H, 'a', 00H, 'm', 00H, ' ', 00H, 'F', 00H, 'i', 00H, 'l'
	DB	00H, 'e', 00H, 's', 00H, '\', 00H, 'M', 00H, 'i', 00H, 'c', 00H
	DB	'r', 00H, 'o', 00H, 's', 00H, 'o', 00H, 'f', 00H, 't', 00H, ' '
	DB	00H, 'V', 00H, 'i', 00H, 's', 00H, 'u', 00H, 'a', 00H, 'l', 00H
	DB	' ', 00H, 'S', 00H, 't', 00H, 'u', 00H, 'd', 00H, 'i', 00H, 'o'
	DB	00H, '\', 00H, '2', 00H, '0', 00H, '2', 00H, '2', 00H, '\', 00H
	DB	'C', 00H, 'o', 00H, 'm', 00H, 'm', 00H, 'u', 00H, 'n', 00H, 'i'
	DB	00H, 't', 00H, 'y', 00H, '\', 00H, 'V', 00H, 'C', 00H, '\', 00H
	DB	'T', 00H, 'o', 00H, 'o', 00H, 'l', 00H, 's', 00H, '\', 00H, 'M'
	DB	00H, 'S', 00H, 'V', 00H, 'C', 00H, '\', 00H, '1', 00H, '4', 00H
	DB	'.', 00H, '3', 00H, '2', 00H, '.', 00H, '3', 00H, '1', 00H, '3'
	DB	00H, '2', 00H, '6', 00H, '\', 00H, 'i', 00H, 'n', 00H, 'c', 00H
	DB	'l', 00H, 'u', 00H, 'd', 00H, 'e', 00H, '\', 00H, 'x', 00H, 'u'
	DB	00H, 't', 00H, 'i', 00H, 'l', 00H, 'i', 00H, 't', 00H, 'y', 00H
	DB	00H, 00H					; `string'
CONST	ENDS
;	COMDAT ??_C@_0GD@GLKFIMHC@C?3?2Program?5Files?2Microsoft?5Visu@
CONST	SEGMENT
??_C@_0GD@GLKFIMHC@C?3?2Program?5Files?2Microsoft?5Visu@ DB 'C:\Program F'
	DB	'iles\Microsoft Visual Studio\2022\Community\VC\Tools\MSVC\14.'
	DB	'32.31326\include\xutility', 00H		; `string'
CONST	ENDS
;	COMDAT ??_C@_0BJ@HAJGEHKO@transposed?5pointer?5range@
CONST	SEGMENT
??_C@_0BJ@HAJGEHKO@transposed?5pointer?5range@ DB 'transposed pointer ran'
	DB	'ge', 00H					; `string'
CONST	ENDS
;	COMDAT ??_C@_1HA@KAMKPLHN@?$AA?$CC?$AAl?$AAi?$AAs?$AAt?$AA?5?$AAi?$AAt?$AAe?$AAr?$AAa?$AAt?$AAo?$AAr?$AAs@
CONST	SEGMENT
??_C@_1HA@KAMKPLHN@?$AA?$CC?$AAl?$AAi?$AAs?$AAt?$AA?5?$AAi?$AAt?$AAe?$AAr?$AAa?$AAt?$AAo?$AAr?$AAs@ DB '"'
	DB	00H, 'l', 00H, 'i', 00H, 's', 00H, 't', 00H, ' ', 00H, 'i', 00H
	DB	't', 00H, 'e', 00H, 'r', 00H, 'a', 00H, 't', 00H, 'o', 00H, 'r'
	DB	00H, 's', 00H, ' ', 00H, 'i', 00H, 'n', 00H, ' ', 00H, 'r', 00H
	DB	'a', 00H, 'n', 00H, 'g', 00H, 'e', 00H, ' ', 00H, 'a', 00H, 'r'
	DB	00H, 'e', 00H, ' ', 00H, 'f', 00H, 'r', 00H, 'o', 00H, 'm', 00H
	DB	' ', 00H, 'd', 00H, 'i', 00H, 'f', 00H, 'f', 00H, 'e', 00H, 'r'
	DB	00H, 'e', 00H, 'n', 00H, 't', 00H, ' ', 00H, 'c', 00H, 'o', 00H
	DB	'n', 00H, 't', 00H, 'a', 00H, 'i', 00H, 'n', 00H, 'e', 00H, 'r'
	DB	00H, 's', 00H, '"', 00H, 00H, 00H		; `string'
CONST	ENDS
;	COMDAT ??_C@_0DG@GAGDEJEE@list?5iterators?5in?5range?5are?5fro@
CONST	SEGMENT
??_C@_0DG@GAGDEJEE@list?5iterators?5in?5range?5are?5fro@ DB 'list iterato'
	DB	'rs in range are from different containers', 00H ; `string'
CONST	ENDS
;	COMDAT ??_C@_0O@NKNMEGII@list?5too?5long@
CONST	SEGMENT
??_C@_0O@NKNMEGII@list?5too?5long@ DB 'list too long', 00H ; `string'
CONST	ENDS
;	COMDAT ??_C@_0BA@FOIKENOD@vector?5too?5long@
CONST	SEGMENT
??_C@_0BA@FOIKENOD@vector?5too?5long@ DB 'vector too long', 00H ; `string'
CONST	ENDS
;	COMDAT ??_C@_1HA@FACCKGGH@?$AA?$CC?$AAn?$AAu?$AAl?$AAl?$AA?5?$AAp?$AAo?$AAi?$AAn?$AAt?$AAe?$AAr?$AA?5?$AAc@
CONST	SEGMENT
??_C@_1HA@FACCKGGH@?$AA?$CC?$AAn?$AAu?$AAl?$AAl?$AA?5?$AAp?$AAo?$AAi?$AAn?$AAt?$AAe?$AAr?$AA?5?$AAc@ DB '"'
	DB	00H, 'n', 00H, 'u', 00H, 'l', 00H, 'l', 00H, ' ', 00H, 'p', 00H
	DB	'o', 00H, 'i', 00H, 'n', 00H, 't', 00H, 'e', 00H, 'r', 00H, ' '
	DB	00H, 'c', 00H, 'a', 00H, 'n', 00H, 'n', 00H, 'o', 00H, 't', 00H
	DB	' ', 00H, 'p', 00H, 'o', 00H, 'i', 00H, 'n', 00H, 't', 00H, ' '
	DB	00H, 't', 00H, 'o', 00H, ' ', 00H, 'a', 00H, ' ', 00H, 'b', 00H
	DB	'l', 00H, 'o', 00H, 'c', 00H, 'k', 00H, ' ', 00H, 'o', 00H, 'f'
	DB	00H, ' ', 00H, 'n', 00H, 'o', 00H, 'n', 00H, '-', 00H, 'z', 00H
	DB	'e', 00H, 'r', 00H, 'o', 00H, ' ', 00H, 's', 00H, 'i', 00H, 'z'
	DB	00H, 'e', 00H, '"', 00H, 00H, 00H		; `string'
CONST	ENDS
;	COMDAT ??_C@_0DG@KGHKKGBC@null?5pointer?5cannot?5point?5to?5a?5@
CONST	SEGMENT
??_C@_0DG@KGHKKGBC@null?5pointer?5cannot?5point?5to?5a?5@ DB 'null pointe'
	DB	'r cannot point to a block of non-zero size', 00H ; `string'
CONST	ENDS
;	COMDAT ??_C@_1GC@JDCKOLAC@?$AA?$CC?$AAc?$AAa?$AAn?$AA?8?$AAt?$AA?5?$AAd?$AAe?$AAr?$AAe?$AAf?$AAe?$AAr?$AAe@
CONST	SEGMENT
??_C@_1GC@JDCKOLAC@?$AA?$CC?$AAc?$AAa?$AAn?$AA?8?$AAt?$AA?5?$AAd?$AAe?$AAr?$AAe?$AAf?$AAe?$AAr?$AAe@ DB '"'
	DB	00H, 'c', 00H, 'a', 00H, 'n', 00H, '''', 00H, 't', 00H, ' ', 00H
	DB	'd', 00H, 'e', 00H, 'r', 00H, 'e', 00H, 'f', 00H, 'e', 00H, 'r'
	DB	00H, 'e', 00H, 'n', 00H, 'c', 00H, 'e', 00H, ' ', 00H, 'o', 00H
	DB	'u', 00H, 't', 00H, ' ', 00H, 'o', 00H, 'f', 00H, ' ', 00H, 'r'
	DB	00H, 'a', 00H, 'n', 00H, 'g', 00H, 'e', 00H, ' ', 00H, 'v', 00H
	DB	'e', 00H, 'c', 00H, 't', 00H, 'o', 00H, 'r', 00H, ' ', 00H, 'i'
	DB	00H, 't', 00H, 'e', 00H, 'r', 00H, 'a', 00H, 't', 00H, 'o', 00H
	DB	'r', 00H, '"', 00H, 00H, 00H			; `string'
CONST	ENDS
;	COMDAT ??_C@_0CP@MDHADBHN@can?8t?5dereference?5out?5of?5range?5@
CONST	SEGMENT
??_C@_0CP@MDHADBHN@can?8t?5dereference?5out?5of?5range?5@ DB 'can''t dere'
	DB	'ference out of range vector iterator', 00H	; `string'
CONST	ENDS
;	COMDAT ??_C@_1GM@FNBFNBEL@?$AA?$CC?$AAc?$AAa?$AAn?$AA?8?$AAt?$AA?5?$AAd?$AAe?$AAr?$AAe?$AAf?$AAe?$AAr?$AAe@
CONST	SEGMENT
??_C@_1GM@FNBFNBEL@?$AA?$CC?$AAc?$AAa?$AAn?$AA?8?$AAt?$AA?5?$AAd?$AAe?$AAr?$AAe?$AAf?$AAe?$AAr?$AAe@ DB '"'
	DB	00H, 'c', 00H, 'a', 00H, 'n', 00H, '''', 00H, 't', 00H, ' ', 00H
	DB	'd', 00H, 'e', 00H, 'r', 00H, 'e', 00H, 'f', 00H, 'e', 00H, 'r'
	DB	00H, 'e', 00H, 'n', 00H, 'c', 00H, 'e', 00H, ' ', 00H, 'v', 00H
	DB	'a', 00H, 'l', 00H, 'u', 00H, 'e', 00H, '-', 00H, 'i', 00H, 'n'
	DB	00H, 'i', 00H, 't', 00H, 'i', 00H, 'a', 00H, 'l', 00H, 'i', 00H
	DB	'z', 00H, 'e', 00H, 'd', 00H, ' ', 00H, 'v', 00H, 'e', 00H, 'c'
	DB	00H, 't', 00H, 'o', 00H, 'r', 00H, ' ', 00H, 'i', 00H, 't', 00H
	DB	'e', 00H, 'r', 00H, 'a', 00H, 't', 00H, 'o', 00H, 'r', 00H, '"'
	DB	00H, 00H, 00H				; `string'
CONST	ENDS
;	COMDAT ??_C@_0DE@CHADHGFF@can?8t?5dereference?5value?9initial@
CONST	SEGMENT
??_C@_0DE@CHADHGFF@can?8t?5dereference?5value?9initial@ DB 'can''t derefe'
	DB	'rence value-initialized vector iterator', 00H ; `string'
CONST	ENDS
;	COMDAT ??_C@_1FG@LDPPKMGP@?$AA?$CC?$AAc?$AAa?$AAn?$AA?8?$AAt?$AA?5?$AAi?$AAn?$AAc?$AAr?$AAe?$AAm?$AAe?$AAn@
CONST	SEGMENT
??_C@_1FG@LDPPKMGP@?$AA?$CC?$AAc?$AAa?$AAn?$AA?8?$AAt?$AA?5?$AAi?$AAn?$AAc?$AAr?$AAe?$AAm?$AAe?$AAn@ DB '"'
	DB	00H, 'c', 00H, 'a', 00H, 'n', 00H, '''', 00H, 't', 00H, ' ', 00H
	DB	'i', 00H, 'n', 00H, 'c', 00H, 'r', 00H, 'e', 00H, 'm', 00H, 'e'
	DB	00H, 'n', 00H, 't', 00H, ' ', 00H, 'v', 00H, 'e', 00H, 'c', 00H
	DB	't', 00H, 'o', 00H, 'r', 00H, ' ', 00H, 'i', 00H, 't', 00H, 'e'
	DB	00H, 'r', 00H, 'a', 00H, 't', 00H, 'o', 00H, 'r', 00H, ' ', 00H
	DB	'p', 00H, 'a', 00H, 's', 00H, 't', 00H, ' ', 00H, 'e', 00H, 'n'
	DB	00H, 'd', 00H, '"', 00H, 00H, 00H		; `string'
CONST	ENDS
;	COMDAT ??_C@_0CJ@OAAAAGPM@can?8t?5increment?5vector?5iterator@
CONST	SEGMENT
??_C@_0CJ@OAAAAGPM@can?8t?5increment?5vector?5iterator@ DB 'can''t increm'
	DB	'ent vector iterator past end', 00H		; `string'
CONST	ENDS
;	COMDAT ??_C@_1GI@EDCILPL@?$AA?$CC?$AAc?$AAa?$AAn?$AA?8?$AAt?$AA?5?$AAi?$AAn?$AAc?$AAr?$AAe?$AAm?$AAe?$AAn@
CONST	SEGMENT
??_C@_1GI@EDCILPL@?$AA?$CC?$AAc?$AAa?$AAn?$AA?8?$AAt?$AA?5?$AAi?$AAn?$AAc?$AAr?$AAe?$AAm?$AAe?$AAn@ DB '"'
	DB	00H, 'c', 00H, 'a', 00H, 'n', 00H, '''', 00H, 't', 00H, ' ', 00H
	DB	'i', 00H, 'n', 00H, 'c', 00H, 'r', 00H, 'e', 00H, 'm', 00H, 'e'
	DB	00H, 'n', 00H, 't', 00H, ' ', 00H, 'v', 00H, 'a', 00H, 'l', 00H
	DB	'u', 00H, 'e', 00H, '-', 00H, 'i', 00H, 'n', 00H, 'i', 00H, 't'
	DB	00H, 'i', 00H, 'a', 00H, 'l', 00H, 'i', 00H, 'z', 00H, 'e', 00H
	DB	'd', 00H, ' ', 00H, 'v', 00H, 'e', 00H, 'c', 00H, 't', 00H, 'o'
	DB	00H, 'r', 00H, ' ', 00H, 'i', 00H, 't', 00H, 'e', 00H, 'r', 00H
	DB	'a', 00H, 't', 00H, 'o', 00H, 'r', 00H, '"', 00H, 00H, 00H ; `string'
CONST	ENDS
;	COMDAT ??_C@_0DC@KEKNBAEB@can?8t?5increment?5value?9initializ@
CONST	SEGMENT
??_C@_0DC@KEKNBAEB@can?8t?5increment?5value?9initializ@ DB 'can''t increm'
	DB	'ent value-initialized vector iterator', 00H	; `string'
CONST	ENDS
;	COMDAT ??_C@_1EA@DJDGNIII@?$AA?$CC?$AAv?$AAe?$AAc?$AAt?$AAo?$AAr?$AA?5?$AAi?$AAt?$AAe?$AAr?$AAa?$AAt?$AAo@
CONST	SEGMENT
??_C@_1EA@DJDGNIII@?$AA?$CC?$AAv?$AAe?$AAc?$AAt?$AAo?$AAr?$AA?5?$AAi?$AAt?$AAe?$AAr?$AAa?$AAt?$AAo@ DB '"'
	DB	00H, 'v', 00H, 'e', 00H, 'c', 00H, 't', 00H, 'o', 00H, 'r', 00H
	DB	' ', 00H, 'i', 00H, 't', 00H, 'e', 00H, 'r', 00H, 'a', 00H, 't'
	DB	00H, 'o', 00H, 'r', 00H, 's', 00H, ' ', 00H, 'i', 00H, 'n', 00H
	DB	'c', 00H, 'o', 00H, 'm', 00H, 'p', 00H, 'a', 00H, 't', 00H, 'i'
	DB	00H, 'b', 00H, 'l', 00H, 'e', 00H, '"', 00H, 00H, 00H ; `string'
CONST	ENDS
;	COMDAT ??_C@_0BO@CAOBBIOC@vector?5iterators?5incompatible@
CONST	SEGMENT
??_C@_0BO@CAOBBIOC@vector?5iterators?5incompatible@ DB 'vector iterators '
	DB	'incompatible', 00H				; `string'
CONST	ENDS
;	COMDAT ??_C@_1EO@PPPLIDNC@?$AA?$CC?$AAc?$AAa?$AAn?$AAn?$AAo?$AAt?$AA?5?$AAd?$AAe?$AAc?$AAr?$AAe?$AAm?$AAe@
CONST	SEGMENT
??_C@_1EO@PPPLIDNC@?$AA?$CC?$AAc?$AAa?$AAn?$AAn?$AAo?$AAt?$AA?5?$AAd?$AAe?$AAc?$AAr?$AAe?$AAm?$AAe@ DB '"'
	DB	00H, 'c', 00H, 'a', 00H, 'n', 00H, 'n', 00H, 'o', 00H, 't', 00H
	DB	' ', 00H, 'd', 00H, 'e', 00H, 'c', 00H, 'r', 00H, 'e', 00H, 'm'
	DB	00H, 'e', 00H, 'n', 00H, 't', 00H, ' ', 00H, 'b', 00H, 'e', 00H
	DB	'g', 00H, 'i', 00H, 'n', 00H, ' ', 00H, 'l', 00H, 'i', 00H, 's'
	DB	00H, 't', 00H, ' ', 00H, 'i', 00H, 't', 00H, 'e', 00H, 'r', 00H
	DB	'a', 00H, 't', 00H, 'o', 00H, 'r', 00H, '"', 00H, 00H, 00H ; `string'
CONST	ENDS
;	COMDAT ??_C@_0CF@BAAFPBMN@cannot?5decrement?5begin?5list?5ite@
CONST	SEGMENT
??_C@_0CF@BAAFPBMN@cannot?5decrement?5begin?5list?5ite@ DB 'cannot decrem'
	DB	'ent begin list iterator', 00H		; `string'
CONST	ENDS
;	COMDAT ??_C@_1GG@FLDKPFOH@?$AA?$CC?$AAc?$AAa?$AAn?$AAn?$AAo?$AAt?$AA?5?$AAd?$AAe?$AAc?$AAr?$AAe?$AAm?$AAe@
CONST	SEGMENT
??_C@_1GG@FLDKPFOH@?$AA?$CC?$AAc?$AAa?$AAn?$AAn?$AAo?$AAt?$AA?5?$AAd?$AAe?$AAc?$AAr?$AAe?$AAm?$AAe@ DB '"'
	DB	00H, 'c', 00H, 'a', 00H, 'n', 00H, 'n', 00H, 'o', 00H, 't', 00H
	DB	' ', 00H, 'd', 00H, 'e', 00H, 'c', 00H, 'r', 00H, 'e', 00H, 'm'
	DB	00H, 'e', 00H, 'n', 00H, 't', 00H, ' ', 00H, 'v', 00H, 'a', 00H
	DB	'l', 00H, 'u', 00H, 'e', 00H, '-', 00H, 'i', 00H, 'n', 00H, 'i'
	DB	00H, 't', 00H, 'i', 00H, 'a', 00H, 'l', 00H, 'i', 00H, 'z', 00H
	DB	'e', 00H, 'd', 00H, ' ', 00H, 'l', 00H, 'i', 00H, 's', 00H, 't'
	DB	00H, ' ', 00H, 'i', 00H, 't', 00H, 'e', 00H, 'r', 00H, 'a', 00H
	DB	't', 00H, 'o', 00H, 'r', 00H, '"', 00H, 00H, 00H ; `string'
CONST	ENDS
;	COMDAT ??_C@_0DB@MCPEHPCC@cannot?5decrement?5value?9initiali@
CONST	SEGMENT
??_C@_0DB@MCPEHPCC@cannot?5decrement?5value?9initiali@ DB 'cannot decreme'
	DB	'nt value-initialized list iterator', 00H	; `string'
CONST	ENDS
;	COMDAT ??_C@_1DM@KDLJAKOP@?$AA?$CC?$AAl?$AAi?$AAs?$AAt?$AA?5?$AAi?$AAt?$AAe?$AAr?$AAa?$AAt?$AAo?$AAr?$AAs@
CONST	SEGMENT
??_C@_1DM@KDLJAKOP@?$AA?$CC?$AAl?$AAi?$AAs?$AAt?$AA?5?$AAi?$AAt?$AAe?$AAr?$AAa?$AAt?$AAo?$AAr?$AAs@ DB '"'
	DB	00H, 'l', 00H, 'i', 00H, 's', 00H, 't', 00H, ' ', 00H, 'i', 00H
	DB	't', 00H, 'e', 00H, 'r', 00H, 'a', 00H, 't', 00H, 'o', 00H, 'r'
	DB	00H, 's', 00H, ' ', 00H, 'i', 00H, 'n', 00H, 'c', 00H, 'o', 00H
	DB	'm', 00H, 'p', 00H, 'a', 00H, 't', 00H, 'i', 00H, 'b', 00H, 'l'
	DB	00H, 'e', 00H, '"', 00H, 00H, 00H		; `string'
CONST	ENDS
;	COMDAT ??_C@_0BM@BALDKKHE@list?5iterators?5incompatible@
CONST	SEGMENT
??_C@_0BM@BALDKKHE@list?5iterators?5incompatible@ DB 'list iterators inco'
	DB	'mpatible', 00H				; `string'
CONST	ENDS
;	COMDAT ??_C@_1DA@HEIDPBNG@?$AAm?$AA_?$AAi?$AAS?$AAi?$AAz?$AAe?$AA?$CL?$AA1?$AA?5?$AA?$DM?$AA?$DN?$AA?5?$AAm?$AA_@
CONST	SEGMENT
??_C@_1DA@HEIDPBNG@?$AAm?$AA_?$AAi?$AAS?$AAi?$AAz?$AAe?$AA?$CL?$AA1?$AA?5?$AA?$DM?$AA?$DN?$AA?5?$AAm?$AA_@ DB 'm'
	DB	00H, '_', 00H, 'i', 00H, 'S', 00H, 'i', 00H, 'z', 00H, 'e', 00H
	DB	'+', 00H, '1', 00H, ' ', 00H, '<', 00H, '=', 00H, ' ', 00H, 'm'
	DB	00H, '_', 00H, 'i', 00H, 'M', 00H, 'a', 00H, 'x', 00H, 'S', 00H
	DB	'i', 00H, 'z', 00H, 'e', 00H, 00H, 00H	; `string'
CONST	ENDS
;	COMDAT ??_C@_1KO@OHNANAAJ@?$AAC?$AA?3?$AA?2?$AAU?$AAs?$AAe?$AAr?$AAs?$AA?2?$AAl?$AAs?$AAy?$AA0?$AA1?$AA?2@
CONST	SEGMENT
??_C@_1KO@OHNANAAJ@?$AAC?$AA?3?$AA?2?$AAU?$AAs?$AAe?$AAr?$AAs?$AA?2?$AAl?$AAs?$AAy?$AA0?$AA1?$AA?2@ DB 'C'
	DB	00H, ':', 00H, '\', 00H, 'U', 00H, 's', 00H, 'e', 00H, 'r', 00H
	DB	's', 00H, '\', 00H, 'l', 00H, 's', 00H, 'y', 00H, '0', 00H, '1'
	DB	00H, '\', 00H, 'O', 00H, 'n', 00H, 'e', 00H, 'D', 00H, 'r', 00H
	DB	'i', 00H, 'v', 00H, 'e', 00H, '\', 00H, 014H, 0bcH, 0d5H, 0d0H
	DB	' ', 00H, 'T', 0d6H, 't', 0baH, '\', 00H, '3', 00H, '-', 00H, '2'
	DB	00H, '_', 00H, 'S', 00H, 't', 00H, 'u', 00H, 'd', 00H, 'y', 00H
	DB	'\', 00H, 'x', 0c7H, 0f5H, 0acH, 0c0H, 0c9H, 0a5H, 0b2H, '\', 00H
	DB	'S', 00H, 'o', 00H, 'u', 00H, 'r', 00H, 'c', 00H, 'e', 00H, '\'
	DB	00H, 'V', 00H, 'S', 00H, '2', 00H, '0', 00H, '1', 00H, '0', 00H
	DB	'\', 00H, 'C', 00H, 'o', 00H, 'm', 00H, 'm', 00H, 'o', 00H, 'n'
	DB	00H, '\', 00H, 'm', 00H, 'i', 00H, 's', 00H, 'c', 00H, '\', 00H
	DB	'P', 00H, 'r', 00H, 'i', 00H, 'o', 00H, 'r', 00H, 'i', 00H, 't'
	DB	00H, 'y', 00H, 'Q', 00H, 'u', 00H, 'e', 00H, 'u', 00H, 'e', 00H
	DB	'.', 00H, 'h', 00H, 00H, 00H			; `string'
CONST	ENDS
;	COMDAT ??_C@_1EA@LEKOKFNB@?$AA?$CC?$AAv?$AAe?$AAc?$AAt?$AAo?$AAr?$AA?5?$AAs?$AAu?$AAb?$AAs?$AAc?$AAr?$AAi@
CONST	SEGMENT
??_C@_1EA@LEKOKFNB@?$AA?$CC?$AAv?$AAe?$AAc?$AAt?$AAo?$AAr?$AA?5?$AAs?$AAu?$AAb?$AAs?$AAc?$AAr?$AAi@ DB '"'
	DB	00H, 'v', 00H, 'e', 00H, 'c', 00H, 't', 00H, 'o', 00H, 'r', 00H
	DB	' ', 00H, 's', 00H, 'u', 00H, 'b', 00H, 's', 00H, 'c', 00H, 'r'
	DB	00H, 'i', 00H, 'p', 00H, 't', 00H, ' ', 00H, 'o', 00H, 'u', 00H
	DB	't', 00H, ' ', 00H, 'o', 00H, 'f', 00H, ' ', 00H, 'r', 00H, 'a'
	DB	00H, 'n', 00H, 'g', 00H, 'e', 00H, '"', 00H, 00H, 00H ; `string'
CONST	ENDS
;	COMDAT ??_C@_1MC@BJDJHFOD@?$AAC?$AA?3?$AA?2?$AAP?$AAr?$AAo?$AAg?$AAr?$AAa?$AAm?$AA?5?$AAF?$AAi?$AAl?$AAe@
CONST	SEGMENT
??_C@_1MC@BJDJHFOD@?$AAC?$AA?3?$AA?2?$AAP?$AAr?$AAo?$AAg?$AAr?$AAa?$AAm?$AA?5?$AAF?$AAi?$AAl?$AAe@ DB 'C'
	DB	00H, ':', 00H, '\', 00H, 'P', 00H, 'r', 00H, 'o', 00H, 'g', 00H
	DB	'r', 00H, 'a', 00H, 'm', 00H, ' ', 00H, 'F', 00H, 'i', 00H, 'l'
	DB	00H, 'e', 00H, 's', 00H, '\', 00H, 'M', 00H, 'i', 00H, 'c', 00H
	DB	'r', 00H, 'o', 00H, 's', 00H, 'o', 00H, 'f', 00H, 't', 00H, ' '
	DB	00H, 'V', 00H, 'i', 00H, 's', 00H, 'u', 00H, 'a', 00H, 'l', 00H
	DB	' ', 00H, 'S', 00H, 't', 00H, 'u', 00H, 'd', 00H, 'i', 00H, 'o'
	DB	00H, '\', 00H, '2', 00H, '0', 00H, '2', 00H, '2', 00H, '\', 00H
	DB	'C', 00H, 'o', 00H, 'm', 00H, 'm', 00H, 'u', 00H, 'n', 00H, 'i'
	DB	00H, 't', 00H, 'y', 00H, '\', 00H, 'V', 00H, 'C', 00H, '\', 00H
	DB	'T', 00H, 'o', 00H, 'o', 00H, 'l', 00H, 's', 00H, '\', 00H, 'M'
	DB	00H, 'S', 00H, 'V', 00H, 'C', 00H, '\', 00H, '1', 00H, '4', 00H
	DB	'.', 00H, '3', 00H, '2', 00H, '.', 00H, '3', 00H, '1', 00H, '3'
	DB	00H, '2', 00H, '6', 00H, '\', 00H, 'i', 00H, 'n', 00H, 'c', 00H
	DB	'l', 00H, 'u', 00H, 'd', 00H, 'e', 00H, '\', 00H, 'v', 00H, 'e'
	DB	00H, 'c', 00H, 't', 00H, 'o', 00H, 'r', 00H, 00H, 00H ; `string'
CONST	ENDS
;	COMDAT ??_C@_0GB@GDCALCPO@C?3?2Program?5Files?2Microsoft?5Visu@
CONST	SEGMENT
??_C@_0GB@GDCALCPO@C?3?2Program?5Files?2Microsoft?5Visu@ DB 'C:\Program F'
	DB	'iles\Microsoft Visual Studio\2022\Community\VC\Tools\MSVC\14.'
	DB	'32.31326\include\vector', 00H		; `string'
CONST	ENDS
;	COMDAT ??_C@_0BO@PFKOHNJC@vector?5subscript?5out?5of?5range@
CONST	SEGMENT
??_C@_0BO@PFKOHNJC@vector?5subscript?5out?5of?5range@ DB 'vector subscrip'
	DB	't out of range', 00H			; `string'
CONST	ENDS
;	COMDAT ??_C@_1EO@CNEFBDCF@?$AA?$CC?$AAc?$AAa?$AAn?$AAn?$AAo?$AAt?$AA?5?$AAd?$AAe?$AAr?$AAe?$AAf?$AAe?$AAr@
CONST	SEGMENT
??_C@_1EO@CNEFBDCF@?$AA?$CC?$AAc?$AAa?$AAn?$AAn?$AAo?$AAt?$AA?5?$AAd?$AAe?$AAr?$AAe?$AAf?$AAe?$AAr@ DB '"'
	DB	00H, 'c', 00H, 'a', 00H, 'n', 00H, 'n', 00H, 'o', 00H, 't', 00H
	DB	' ', 00H, 'd', 00H, 'e', 00H, 'r', 00H, 'e', 00H, 'f', 00H, 'e'
	DB	00H, 'r', 00H, 'e', 00H, 'n', 00H, 'c', 00H, 'e', 00H, ' ', 00H
	DB	'e', 00H, 'n', 00H, 'd', 00H, ' ', 00H, 'l', 00H, 'i', 00H, 's'
	DB	00H, 't', 00H, ' ', 00H, 'i', 00H, 't', 00H, 'e', 00H, 'r', 00H
	DB	'a', 00H, 't', 00H, 'o', 00H, 'r', 00H, '"', 00H, 00H, 00H ; `string'
CONST	ENDS
;	COMDAT ??_C@_0CF@JCBFHMPL@cannot?5dereference?5end?5list?5ite@
CONST	SEGMENT
??_C@_0CF@JCBFHMPL@cannot?5dereference?5end?5list?5ite@ DB 'cannot derefe'
	DB	'rence end list iterator', 00H		; `string'
CONST	ENDS
;	COMDAT ??_C@_1GK@NKIMOCIG@?$AA?$CC?$AAc?$AAa?$AAn?$AAn?$AAo?$AAt?$AA?5?$AAd?$AAe?$AAr?$AAe?$AAf?$AAe?$AAr@
CONST	SEGMENT
??_C@_1GK@NKIMOCIG@?$AA?$CC?$AAc?$AAa?$AAn?$AAn?$AAo?$AAt?$AA?5?$AAd?$AAe?$AAr?$AAe?$AAf?$AAe?$AAr@ DB '"'
	DB	00H, 'c', 00H, 'a', 00H, 'n', 00H, 'n', 00H, 'o', 00H, 't', 00H
	DB	' ', 00H, 'd', 00H, 'e', 00H, 'r', 00H, 'e', 00H, 'f', 00H, 'e'
	DB	00H, 'r', 00H, 'e', 00H, 'n', 00H, 'c', 00H, 'e', 00H, ' ', 00H
	DB	'v', 00H, 'a', 00H, 'l', 00H, 'u', 00H, 'e', 00H, '-', 00H, 'i'
	DB	00H, 'n', 00H, 'i', 00H, 't', 00H, 'i', 00H, 'a', 00H, 'l', 00H
	DB	'i', 00H, 'z', 00H, 'e', 00H, 'd', 00H, ' ', 00H, 'l', 00H, 'i'
	DB	00H, 's', 00H, 't', 00H, ' ', 00H, 'i', 00H, 't', 00H, 'e', 00H
	DB	'r', 00H, 'a', 00H, 't', 00H, 'o', 00H, 'r', 00H, '"', 00H, 00H
	DB	00H						; `string'
CONST	ENDS
;	COMDAT ??_C@_0DD@MBIHGLJE@cannot?5dereference?5value?9initia@
CONST	SEGMENT
??_C@_0DD@MBIHGLJE@cannot?5dereference?5value?9initia@ DB 'cannot derefer'
	DB	'ence value-initialized list iterator', 00H	; `string'
CONST	ENDS
;	COMDAT ??_C@_1EK@OKKCFDJN@?$AA?$CC?$AAc?$AAa?$AAn?$AAn?$AAo?$AAt?$AA?5?$AAi?$AAn?$AAc?$AAr?$AAe?$AAm?$AAe@
CONST	SEGMENT
??_C@_1EK@OKKCFDJN@?$AA?$CC?$AAc?$AAa?$AAn?$AAn?$AAo?$AAt?$AA?5?$AAi?$AAn?$AAc?$AAr?$AAe?$AAm?$AAe@ DB '"'
	DB	00H, 'c', 00H, 'a', 00H, 'n', 00H, 'n', 00H, 'o', 00H, 't', 00H
	DB	' ', 00H, 'i', 00H, 'n', 00H, 'c', 00H, 'r', 00H, 'e', 00H, 'm'
	DB	00H, 'e', 00H, 'n', 00H, 't', 00H, ' ', 00H, 'e', 00H, 'n', 00H
	DB	'd', 00H, ' ', 00H, 'l', 00H, 'i', 00H, 's', 00H, 't', 00H, ' '
	DB	00H, 'i', 00H, 't', 00H, 'e', 00H, 'r', 00H, 'a', 00H, 't', 00H
	DB	'o', 00H, 'r', 00H, '"', 00H, 00H, 00H	; `string'
CONST	ENDS
;	COMDAT ??_C@_0CD@PMFMCEG@cannot?5increment?5end?5list?5itera@
CONST	SEGMENT
??_C@_0CD@PMFMCEG@cannot?5increment?5end?5list?5itera@ DB 'cannot increme'
	DB	'nt end list iterator', 00H			; `string'
CONST	ENDS
;	COMDAT ??_C@_1GG@JLMAGPNK@?$AA?$CC?$AAc?$AAa?$AAn?$AAn?$AAo?$AAt?$AA?5?$AAi?$AAn?$AAc?$AAr?$AAe?$AAm?$AAe@
CONST	SEGMENT
??_C@_1GG@JLMAGPNK@?$AA?$CC?$AAc?$AAa?$AAn?$AAn?$AAo?$AAt?$AA?5?$AAi?$AAn?$AAc?$AAr?$AAe?$AAm?$AAe@ DB '"'
	DB	00H, 'c', 00H, 'a', 00H, 'n', 00H, 'n', 00H, 'o', 00H, 't', 00H
	DB	' ', 00H, 'i', 00H, 'n', 00H, 'c', 00H, 'r', 00H, 'e', 00H, 'm'
	DB	00H, 'e', 00H, 'n', 00H, 't', 00H, ' ', 00H, 'v', 00H, 'a', 00H
	DB	'l', 00H, 'u', 00H, 'e', 00H, '-', 00H, 'i', 00H, 'n', 00H, 'i'
	DB	00H, 't', 00H, 'i', 00H, 'a', 00H, 'l', 00H, 'i', 00H, 'z', 00H
	DB	'e', 00H, 'd', 00H, ' ', 00H, 'l', 00H, 'i', 00H, 's', 00H, 't'
	DB	00H, ' ', 00H, 'i', 00H, 't', 00H, 'e', 00H, 'r', 00H, 'a', 00H
	DB	't', 00H, 'o', 00H, 'r', 00H, '"', 00H, 00H, 00H ; `string'
CONST	ENDS
;	COMDAT ??_C@_0DB@ENBCPNKO@cannot?5increment?5value?9initiali@
CONST	SEGMENT
??_C@_0DB@ENBCPNKO@cannot?5increment?5value?9initiali@ DB 'cannot increme'
	DB	'nt value-initialized list iterator', 00H	; `string'
CONST	ENDS
;	COMDAT ??_C@_1EI@FHIDKIBN@?$AA?$CC?$AAl?$AAi?$AAs?$AAt?$AA?5?$AAe?$AAr?$AAa?$AAs?$AAe?$AA?5?$AAi?$AAt?$AAe@
CONST	SEGMENT
??_C@_1EI@FHIDKIBN@?$AA?$CC?$AAl?$AAi?$AAs?$AAt?$AA?5?$AAe?$AAr?$AAa?$AAs?$AAe?$AA?5?$AAi?$AAt?$AAe@ DB '"'
	DB	00H, 'l', 00H, 'i', 00H, 's', 00H, 't', 00H, ' ', 00H, 'e', 00H
	DB	'r', 00H, 'a', 00H, 's', 00H, 'e', 00H, ' ', 00H, 'i', 00H, 't'
	DB	00H, 'e', 00H, 'r', 00H, 'a', 00H, 't', 00H, 'o', 00H, 'r', 00H
	DB	' ', 00H, 'o', 00H, 'u', 00H, 't', 00H, 's', 00H, 'i', 00H, 'd'
	DB	00H, 'e', 00H, ' ', 00H, 'r', 00H, 'a', 00H, 'n', 00H, 'g', 00H
	DB	'e', 00H, '"', 00H, 00H, 00H			; `string'
CONST	ENDS
;	COMDAT ??_C@_0CC@KEJJOMBH@list?5erase?5iterator?5outside?5ran@
CONST	SEGMENT
??_C@_0CC@KEJJOMBH@list?5erase?5iterator?5outside?5ran@ DB 'list erase it'
	DB	'erator outside range', 00H			; `string'
CONST	ENDS
;	COMDAT ??_C@_1DM@EADKENAA@?$AA?$CC?$AAb?$AAa?$AAc?$AAk?$AA?$CI?$AA?$CJ?$AA?5?$AAc?$AAa?$AAl?$AAl?$AAe?$AAd?$AA?5@
CONST	SEGMENT
??_C@_1DM@EADKENAA@?$AA?$CC?$AAb?$AAa?$AAc?$AAk?$AA?$CI?$AA?$CJ?$AA?5?$AAc?$AAa?$AAl?$AAl?$AAe?$AAd?$AA?5@ DB '"'
	DB	00H, 'b', 00H, 'a', 00H, 'c', 00H, 'k', 00H, '(', 00H, ')', 00H
	DB	' ', 00H, 'c', 00H, 'a', 00H, 'l', 00H, 'l', 00H, 'e', 00H, 'd'
	DB	00H, ' ', 00H, 'o', 00H, 'n', 00H, ' ', 00H, 'e', 00H, 'm', 00H
	DB	'p', 00H, 't', 00H, 'y', 00H, ' ', 00H, 'l', 00H, 'i', 00H, 's'
	DB	00H, 't', 00H, '"', 00H, 00H, 00H		; `string'
CONST	ENDS
;	COMDAT ??_C@_1LO@IMCCBHIA@?$AAC?$AA?3?$AA?2?$AAP?$AAr?$AAo?$AAg?$AAr?$AAa?$AAm?$AA?5?$AAF?$AAi?$AAl?$AAe@
CONST	SEGMENT
??_C@_1LO@IMCCBHIA@?$AAC?$AA?3?$AA?2?$AAP?$AAr?$AAo?$AAg?$AAr?$AAa?$AAm?$AA?5?$AAF?$AAi?$AAl?$AAe@ DB 'C'
	DB	00H, ':', 00H, '\', 00H, 'P', 00H, 'r', 00H, 'o', 00H, 'g', 00H
	DB	'r', 00H, 'a', 00H, 'm', 00H, ' ', 00H, 'F', 00H, 'i', 00H, 'l'
	DB	00H, 'e', 00H, 's', 00H, '\', 00H, 'M', 00H, 'i', 00H, 'c', 00H
	DB	'r', 00H, 'o', 00H, 's', 00H, 'o', 00H, 'f', 00H, 't', 00H, ' '
	DB	00H, 'V', 00H, 'i', 00H, 's', 00H, 'u', 00H, 'a', 00H, 'l', 00H
	DB	' ', 00H, 'S', 00H, 't', 00H, 'u', 00H, 'd', 00H, 'i', 00H, 'o'
	DB	00H, '\', 00H, '2', 00H, '0', 00H, '2', 00H, '2', 00H, '\', 00H
	DB	'C', 00H, 'o', 00H, 'm', 00H, 'm', 00H, 'u', 00H, 'n', 00H, 'i'
	DB	00H, 't', 00H, 'y', 00H, '\', 00H, 'V', 00H, 'C', 00H, '\', 00H
	DB	'T', 00H, 'o', 00H, 'o', 00H, 'l', 00H, 's', 00H, '\', 00H, 'M'
	DB	00H, 'S', 00H, 'V', 00H, 'C', 00H, '\', 00H, '1', 00H, '4', 00H
	DB	'.', 00H, '3', 00H, '2', 00H, '.', 00H, '3', 00H, '1', 00H, '3'
	DB	00H, '2', 00H, '6', 00H, '\', 00H, 'i', 00H, 'n', 00H, 'c', 00H
	DB	'l', 00H, 'u', 00H, 'd', 00H, 'e', 00H, '\', 00H, 'l', 00H, 'i'
	DB	00H, 's', 00H, 't', 00H, 00H, 00H		; `string'
CONST	ENDS
;	COMDAT ??_C@_0FP@KGLKFOGA@C?3?2Program?5Files?2Microsoft?5Visu@
CONST	SEGMENT
??_C@_0FP@KGLKFOGA@C?3?2Program?5Files?2Microsoft?5Visu@ DB 'C:\Program F'
	DB	'iles\Microsoft Visual Studio\2022\Community\VC\Tools\MSVC\14.'
	DB	'32.31326\include\list', 00H			; `string'
CONST	ENDS
;	COMDAT ??_C@_0BM@JDPDBGEE@back?$CI?$CJ?5called?5on?5empty?5list@
CONST	SEGMENT
??_C@_0BM@JDPDBGEE@back?$CI?$CJ?5called?5on?5empty?5list@ DB 'back() call'
	DB	'ed on empty list', 00H			; `string'
CONST	ENDS
;	COMDAT ??_7?$Graph_SearchDijkstras_TS@V?$SparseGraph@V?$NavGraphNode@PAV?$Trigger@VRaven_Bot@@@@@@VNavGraphEdge@@@@V?$FindActiveTrigger@V?$Trigger@VRaven_Bot@@@@@@@@6B@
CONST	SEGMENT
??_7?$Graph_SearchDijkstras_TS@V?$SparseGraph@V?$NavGraphNode@PAV?$Trigger@VRaven_Bot@@@@@@VNavGraphEdge@@@@V?$FindActiveTrigger@V?$Trigger@VRaven_Bot@@@@@@@@6B@ DD FLAT:??_R4?$Graph_SearchDijkstras_TS@V?$SparseGraph@V?$NavGraphNode@PAV?$Trigger@VRaven_Bot@@@@@@VNavGraphEdge@@@@V?$FindActiveTrigger@V?$Trigger@VRaven_Bot@@@@@@@@6B@ ; Graph_SearchDijkstras_TS<SparseGraph<NavGraphNode<Trigger<Raven_Bot> *>,NavGraphEdge>,FindActiveTrigger<Trigger<Raven_Bot> > >::`vftable'
	DD	FLAT:??_E?$Graph_SearchDijkstras_TS@V?$SparseGraph@V?$NavGraphNode@PAV?$Trigger@VRaven_Bot@@@@@@VNavGraphEdge@@@@V?$FindActiveTrigger@V?$Trigger@VRaven_Bot@@@@@@@@UAEPAXI@Z
	DD	FLAT:?CycleOnce@?$Graph_SearchDijkstras_TS@V?$SparseGraph@V?$NavGraphNode@PAV?$Trigger@VRaven_Bot@@@@@@VNavGraphEdge@@@@V?$FindActiveTrigger@V?$Trigger@VRaven_Bot@@@@@@@@UAEHXZ
	DD	FLAT:?GetSPT@?$Graph_SearchDijkstras_TS@V?$SparseGraph@V?$NavGraphNode@PAV?$Trigger@VRaven_Bot@@@@@@VNavGraphEdge@@@@V?$FindActiveTrigger@V?$Trigger@VRaven_Bot@@@@@@@@UBE?AV?$vector@PBVNavGraphEdge@@V?$allocator@PBVNavGraphEdge@@@std@@@std@@XZ
	DD	FLAT:?GetCostToTarget@?$Graph_SearchDijkstras_TS@V?$SparseGraph@V?$NavGraphNode@PAV?$Trigger@VRaven_Bot@@@@@@VNavGraphEdge@@@@V?$FindActiveTrigger@V?$Trigger@VRaven_Bot@@@@@@@@UBENXZ
	DD	FLAT:?GetPathToTarget@?$Graph_SearchDijkstras_TS@V?$SparseGraph@V?$NavGraphNode@PAV?$Trigger@VRaven_Bot@@@@@@VNavGraphEdge@@@@V?$FindActiveTrigger@V?$Trigger@VRaven_Bot@@@@@@@@UBE?AV?$list@HV?$allocator@H@std@@@std@@XZ
	DD	FLAT:?GetPathAsPathEdges@?$Graph_SearchDijkstras_TS@V?$SparseGraph@V?$NavGraphNode@PAV?$Trigger@VRaven_Bot@@@@@@VNavGraphEdge@@@@V?$FindActiveTrigger@V?$Trigger@VRaven_Bot@@@@@@@@UBE?AV?$list@VPathEdge@@V?$allocator@VPathEdge@@@std@@@std@@XZ
CONST	ENDS
;	COMDAT ??_7?$Graph_SearchAStar_TS@V?$SparseGraph@V?$NavGraphNode@PAV?$Trigger@VRaven_Bot@@@@@@VNavGraphEdge@@@@VHeuristic_Euclid@@@@6B@
CONST	SEGMENT
??_7?$Graph_SearchAStar_TS@V?$SparseGraph@V?$NavGraphNode@PAV?$Trigger@VRaven_Bot@@@@@@VNavGraphEdge@@@@VHeuristic_Euclid@@@@6B@ DD FLAT:??_R4?$Graph_SearchAStar_TS@V?$SparseGraph@V?$NavGraphNode@PAV?$Trigger@VRaven_Bot@@@@@@VNavGraphEdge@@@@VHeuristic_Euclid@@@@6B@ ; Graph_SearchAStar_TS<SparseGraph<NavGraphNode<Trigger<Raven_Bot> *>,NavGraphEdge>,Heuristic_Euclid>::`vftable'
	DD	FLAT:??_E?$Graph_SearchAStar_TS@V?$SparseGraph@V?$NavGraphNode@PAV?$Trigger@VRaven_Bot@@@@@@VNavGraphEdge@@@@VHeuristic_Euclid@@@@UAEPAXI@Z
	DD	FLAT:?CycleOnce@?$Graph_SearchAStar_TS@V?$SparseGraph@V?$NavGraphNode@PAV?$Trigger@VRaven_Bot@@@@@@VNavGraphEdge@@@@VHeuristic_Euclid@@@@UAEHXZ
	DD	FLAT:?GetSPT@?$Graph_SearchAStar_TS@V?$SparseGraph@V?$NavGraphNode@PAV?$Trigger@VRaven_Bot@@@@@@VNavGraphEdge@@@@VHeuristic_Euclid@@@@UBE?AV?$vector@PBVNavGraphEdge@@V?$allocator@PBVNavGraphEdge@@@std@@@std@@XZ
	DD	FLAT:?GetCostToTarget@?$Graph_SearchAStar_TS@V?$SparseGraph@V?$NavGraphNode@PAV?$Trigger@VRaven_Bot@@@@@@VNavGraphEdge@@@@VHeuristic_Euclid@@@@UBENXZ
	DD	FLAT:?GetPathToTarget@?$Graph_SearchAStar_TS@V?$SparseGraph@V?$NavGraphNode@PAV?$Trigger@VRaven_Bot@@@@@@VNavGraphEdge@@@@VHeuristic_Euclid@@@@UBE?AV?$list@HV?$allocator@H@std@@@std@@XZ
	DD	FLAT:?GetPathAsPathEdges@?$Graph_SearchAStar_TS@V?$SparseGraph@V?$NavGraphNode@PAV?$Trigger@VRaven_Bot@@@@@@VNavGraphEdge@@@@VHeuristic_Euclid@@@@UBE?AV?$list@VPathEdge@@V?$allocator@VPathEdge@@@std@@@std@@XZ
CONST	ENDS
;	COMDAT ??_7?$Graph_SearchTimeSliced@VNavGraphEdge@@@@6B@
CONST	SEGMENT
??_7?$Graph_SearchTimeSliced@VNavGraphEdge@@@@6B@ DD FLAT:??_R4?$Graph_SearchTimeSliced@VNavGraphEdge@@@@6B@ ; Graph_SearchTimeSliced<NavGraphEdge>::`vftable'
	DD	FLAT:??_E?$Graph_SearchTimeSliced@VNavGraphEdge@@@@UAEPAXI@Z
	DD	FLAT:__purecall
	DD	FLAT:__purecall
	DD	FLAT:__purecall
	DD	FLAT:__purecall
	DD	FLAT:__purecall
CONST	ENDS
;	COMDAT ??_C@_1DG@PLBPCAEM@?$AA?$CC?$AAI?$AAT?$AAE?$AAR?$AAA?$AAT?$AAO?$AAR?$AA?5?$AAL?$AAI?$AAS?$AAT?$AA?5@
CONST	SEGMENT
??_C@_1DG@PLBPCAEM@?$AA?$CC?$AAI?$AAT?$AAE?$AAR?$AAA?$AAT?$AAO?$AAR?$AA?5?$AAL?$AAI?$AAS?$AAT?$AA?5@ DB '"'
	DB	00H, 'I', 00H, 'T', 00H, 'E', 00H, 'R', 00H, 'A', 00H, 'T', 00H
	DB	'O', 00H, 'R', 00H, ' ', 00H, 'L', 00H, 'I', 00H, 'S', 00H, 'T'
	DB	00H, ' ', 00H, 'C', 00H, 'O', 00H, 'R', 00H, 'R', 00H, 'U', 00H
	DB	'P', 00H, 'T', 00H, 'E', 00H, 'D', 00H, '!', 00H, '"', 00H, 00H
	DB	00H						; `string'
CONST	ENDS
;	COMDAT ??_C@_0BJ@LFDBABJJ@ITERATOR?5LIST?5CORRUPTED?$CB@
CONST	SEGMENT
??_C@_0BJ@LFDBABJJ@ITERATOR?5LIST?5CORRUPTED?$CB@ DB 'ITERATOR LIST CORRU'
	DB	'PTED!', 00H					; `string'
CONST	ENDS
;	COMDAT ??_C@_1CG@JNLFBNGN@?$AA?$CC?$AAi?$AAn?$AAv?$AAa?$AAl?$AAi?$AAd?$AA?5?$AAa?$AAr?$AAg?$AAu?$AAm?$AAe@
CONST	SEGMENT
??_C@_1CG@JNLFBNGN@?$AA?$CC?$AAi?$AAn?$AAv?$AAa?$AAl?$AAi?$AAd?$AA?5?$AAa?$AAr?$AAg?$AAu?$AAm?$AAe@ DB '"'
	DB	00H, 'i', 00H, 'n', 00H, 'v', 00H, 'a', 00H, 'l', 00H, 'i', 00H
	DB	'd', 00H, ' ', 00H, 'a', 00H, 'r', 00H, 'g', 00H, 'u', 00H, 'm'
	DB	00H, 'e', 00H, 'n', 00H, 't', 00H, '"', 00H, 00H, 00H ; `string'
CONST	ENDS
;	COMDAT ??_C@_11LOCGONAA@@
CONST	SEGMENT
??_C@_11LOCGONAA@@ DB 00H, 00H				; `string'
CONST	ENDS
;	COMDAT ??_C@_1ME@GEFGDEOM@?$AAC?$AA?3?$AA?2?$AAP?$AAr?$AAo?$AAg?$AAr?$AAa?$AAm?$AA?5?$AAF?$AAi?$AAl?$AAe@
CONST	SEGMENT
??_C@_1ME@GEFGDEOM@?$AAC?$AA?3?$AA?2?$AAP?$AAr?$AAo?$AAg?$AAr?$AAa?$AAm?$AA?5?$AAF?$AAi?$AAl?$AAe@ DB 'C'
	DB	00H, ':', 00H, '\', 00H, 'P', 00H, 'r', 00H, 'o', 00H, 'g', 00H
	DB	'r', 00H, 'a', 00H, 'm', 00H, ' ', 00H, 'F', 00H, 'i', 00H, 'l'
	DB	00H, 'e', 00H, 's', 00H, '\', 00H, 'M', 00H, 'i', 00H, 'c', 00H
	DB	'r', 00H, 'o', 00H, 's', 00H, 'o', 00H, 'f', 00H, 't', 00H, ' '
	DB	00H, 'V', 00H, 'i', 00H, 's', 00H, 'u', 00H, 'a', 00H, 'l', 00H
	DB	' ', 00H, 'S', 00H, 't', 00H, 'u', 00H, 'd', 00H, 'i', 00H, 'o'
	DB	00H, '\', 00H, '2', 00H, '0', 00H, '2', 00H, '2', 00H, '\', 00H
	DB	'C', 00H, 'o', 00H, 'm', 00H, 'm', 00H, 'u', 00H, 'n', 00H, 'i'
	DB	00H, 't', 00H, 'y', 00H, '\', 00H, 'V', 00H, 'C', 00H, '\', 00H
	DB	'T', 00H, 'o', 00H, 'o', 00H, 'l', 00H, 's', 00H, '\', 00H, 'M'
	DB	00H, 'S', 00H, 'V', 00H, 'C', 00H, '\', 00H, '1', 00H, '4', 00H
	DB	'.', 00H, '3', 00H, '2', 00H, '.', 00H, '3', 00H, '1', 00H, '3'
	DB	00H, '2', 00H, '6', 00H, '\', 00H, 'i', 00H, 'n', 00H, 'c', 00H
	DB	'l', 00H, 'u', 00H, 'd', 00H, 'e', 00H, '\', 00H, 'x', 00H, 'm'
	DB	00H, 'e', 00H, 'm', 00H, 'o', 00H, 'r', 00H, 'y', 00H, 00H, 00H ; `string'
CONST	ENDS
;	COMDAT ??_C@_0GC@DJFHHHKN@C?3?2Program?5Files?2Microsoft?5Visu@
CONST	SEGMENT
??_C@_0GC@DJFHHHKN@C?3?2Program?5Files?2Microsoft?5Visu@ DB 'C:\Program F'
	DB	'iles\Microsoft Visual Studio\2022\Community\VC\Tools\MSVC\14.'
	DB	'32.31326\include\xmemory', 00H		; `string'
CONST	ENDS
;	COMDAT ??_C@_02DKCKIIND@?$CFs@
CONST	SEGMENT
??_C@_02DKCKIIND@?$CFs@ DB '%s', 00H			; `string'
CONST	ENDS
;	COMDAT ??_C@_0BB@FCMFBGOM@invalid?5argument@
CONST	SEGMENT
??_C@_0BB@FCMFBGOM@invalid?5argument@ DB 'invalid argument', 00H ; `string'
CONST	ENDS
;	COMDAT __CT??_R0?AVexception@std@@@8??0exception@std@@QAE@ABV01@@Z12
xdata$x	SEGMENT
__CT??_R0?AVexception@std@@@8??0exception@std@@QAE@ABV01@@Z12 DD 00H
	DD	FLAT:??_R0?AVexception@std@@@8
	DD	00H
	DD	0ffffffffH
	ORG $+4
	DD	0cH
	DD	FLAT:??0exception@std@@QAE@ABV01@@Z
xdata$x	ENDS
;	COMDAT ??_R0?AVexception@std@@@8
data$r	SEGMENT
??_R0?AVexception@std@@@8 DD FLAT:??_7type_info@@6B@	; std::exception `RTTI Type Descriptor'
	DD	00H
	DB	'.?AVexception@std@@', 00H
data$r	ENDS
;	COMDAT __CT??_R0?AVbad_alloc@std@@@8??0bad_alloc@std@@QAE@ABV01@@Z12
xdata$x	SEGMENT
__CT??_R0?AVbad_alloc@std@@@8??0bad_alloc@std@@QAE@ABV01@@Z12 DD 010H
	DD	FLAT:??_R0?AVbad_alloc@std@@@8
	DD	00H
	DD	0ffffffffH
	ORG $+4
	DD	0cH
	DD	FLAT:??0bad_alloc@std@@QAE@ABV01@@Z
xdata$x	ENDS
;	COMDAT ??_R0?AVbad_alloc@std@@@8
data$r	SEGMENT
??_R0?AVbad_alloc@std@@@8 DD FLAT:??_7type_info@@6B@	; std::bad_alloc `RTTI Type Descriptor'
	DD	00H
	DB	'.?AVbad_alloc@std@@', 00H
data$r	ENDS
;	COMDAT __CT??_R0?AVbad_array_new_length@std@@@8??0bad_array_new_length@std@@QAE@ABV01@@Z12
xdata$x	SEGMENT
__CT??_R0?AVbad_array_new_length@std@@@8??0bad_array_new_length@std@@QAE@ABV01@@Z12 DD 00H
	DD	FLAT:??_R0?AVbad_array_new_length@std@@@8
	DD	00H
	DD	0ffffffffH
	ORG $+4
	DD	0cH
	DD	FLAT:??0bad_array_new_length@std@@QAE@ABV01@@Z
xdata$x	ENDS
;	COMDAT ??_R0?AVbad_array_new_length@std@@@8
data$r	SEGMENT
??_R0?AVbad_array_new_length@std@@@8 DD FLAT:??_7type_info@@6B@ ; std::bad_array_new_length `RTTI Type Descriptor'
	DD	00H
	DB	'.?AVbad_array_new_length@std@@', 00H
data$r	ENDS
;	COMDAT __CTA3?AVbad_array_new_length@std@@
xdata$x	SEGMENT
__CTA3?AVbad_array_new_length@std@@ DD 03H
	DD	FLAT:__CT??_R0?AVbad_array_new_length@std@@@8??0bad_array_new_length@std@@QAE@ABV01@@Z12
	DD	FLAT:__CT??_R0?AVbad_alloc@std@@@8??0bad_alloc@std@@QAE@ABV01@@Z12
	DD	FLAT:__CT??_R0?AVexception@std@@@8??0exception@std@@QAE@ABV01@@Z12
xdata$x	ENDS
;	COMDAT __TI3?AVbad_array_new_length@std@@
xdata$x	SEGMENT
__TI3?AVbad_array_new_length@std@@ DD 00H
	DD	FLAT:??1bad_array_new_length@std@@UAE@XZ
	DD	00H
	DD	FLAT:__CTA3?AVbad_array_new_length@std@@
xdata$x	ENDS
;	COMDAT ??_C@_0BF@KINCDENJ@bad?5array?5new?5length@
CONST	SEGMENT
??_C@_0BF@KINCDENJ@bad?5array?5new?5length@ DB 'bad array new length', 00H ; `string'
CONST	ENDS
;	COMDAT ??_7bad_array_new_length@std@@6B@
CONST	SEGMENT
??_7bad_array_new_length@std@@6B@ DD FLAT:??_R4bad_array_new_length@std@@6B@ ; std::bad_array_new_length::`vftable'
	DD	FLAT:??_Ebad_array_new_length@std@@UAEPAXI@Z
	DD	FLAT:?what@exception@std@@UBEPBDXZ
CONST	ENDS
;	COMDAT ??_7bad_alloc@std@@6B@
CONST	SEGMENT
??_7bad_alloc@std@@6B@ DD FLAT:??_R4bad_alloc@std@@6B@	; std::bad_alloc::`vftable'
	DD	FLAT:??_Ebad_alloc@std@@UAEPAXI@Z
	DD	FLAT:?what@exception@std@@UBEPBDXZ
CONST	ENDS
;	COMDAT ??_C@_0BC@EOODALEL@Unknown?5exception@
CONST	SEGMENT
??_C@_0BC@EOODALEL@Unknown?5exception@ DB 'Unknown exception', 00H ; `string'
CONST	ENDS
;	COMDAT ??_7exception@std@@6B@
CONST	SEGMENT
??_7exception@std@@6B@ DD FLAT:??_R4exception@std@@6B@	; std::exception::`vftable'
	DD	FLAT:??_Eexception@std@@UAEPAXI@Z
	DD	FLAT:?what@exception@std@@UBEPBDXZ
CONST	ENDS
;	COMDAT voltbl
voltbl	SEGMENT
_volmd	DB	016H
voltbl	ENDS
;	COMDAT xdata$x
xdata$x	SEGMENT
__unwindtable$??$?0ABQAVRaven_PathPlanner@@@?$_List_node_emplace_op2@V?$allocator@U?$_List_node@PAVRaven_PathPlanner@@PAX@std@@@std@@@std@@QAE@AAV?$allocator@U?$_List_node@PAVRaven_PathPlanner@@PAX@std@@@1@ABQAVRaven_PathPlanner@@@Z DD 0ffffffffH
	DD	FLAT:__unwindfunclet$??$?0ABQAVRaven_PathPlanner@@@?$_List_node_emplace_op2@V?$allocator@U?$_List_node@PAVRaven_PathPlanner@@PAX@std@@@std@@@std@@QAE@AAV?$allocator@U?$_List_node@PAVRaven_PathPlanner@@PAX@std@@@1@ABQAVRaven_PathPlanner@@@Z$0
__ehfuncinfo$??$?0ABQAVRaven_PathPlanner@@@?$_List_node_emplace_op2@V?$allocator@U?$_List_node@PAVRaven_PathPlanner@@PAX@std@@@std@@@std@@QAE@AAV?$allocator@U?$_List_node@PAVRaven_PathPlanner@@PAX@std@@@1@ABQAVRaven_PathPlanner@@@Z DD 019930522H
	DD	01H
	DD	FLAT:__unwindtable$??$?0ABQAVRaven_PathPlanner@@@?$_List_node_emplace_op2@V?$allocator@U?$_List_node@PAVRaven_PathPlanner@@PAX@std@@@std@@@std@@QAE@AAV?$allocator@U?$_List_node@PAVRaven_PathPlanner@@PAX@std@@@1@ABQAVRaven_PathPlanner@@@Z
	DD	2 DUP(00H)
	DD	2 DUP(00H)
	DD	00H
	DD	01H
xdata$x	ENDS
;	COMDAT voltbl
voltbl	SEGMENT
_volmd	DB	09H
voltbl	ENDS
;	COMDAT xdata$x
xdata$x	SEGMENT
__ehfuncinfo$??1?$_List_node_emplace_op2@V?$allocator@U?$_List_node@PAVRaven_PathPlanner@@PAX@std@@@std@@@std@@QAE@XZ DD 019930522H
	DD	00H
	DD	00H
	DD	2 DUP(00H)
	DD	2 DUP(00H)
	DD	00H
	DD	05H
xdata$x	ENDS
;	COMDAT voltbl
voltbl	SEGMENT
_volmd	DB	09H
voltbl	ENDS
;	COMDAT xdata$x
xdata$x	SEGMENT
__ehfuncinfo$??1?$_Alloc_construct_ptr@V?$allocator@U?$_List_node@PAVRaven_PathPlanner@@PAX@std@@@std@@@std@@QAE@XZ DD 019930522H
	DD	00H
	DD	00H
	DD	2 DUP(00H)
	DD	2 DUP(00H)
	DD	00H
	DD	05H
xdata$x	ENDS
;	COMDAT voltbl
voltbl	SEGMENT
_volmd	DB	016H
voltbl	ENDS
;	COMDAT xdata$x
xdata$x	SEGMENT
__unwindtable$??$?0ABH@?$_List_node_emplace_op2@V?$allocator@U?$_List_node@HPAX@std@@@std@@@std@@QAE@AAV?$allocator@U?$_List_node@HPAX@std@@@1@ABH@Z DD 0ffffffffH
	DD	FLAT:__unwindfunclet$??$?0ABH@?$_List_node_emplace_op2@V?$allocator@U?$_List_node@HPAX@std@@@std@@@std@@QAE@AAV?$allocator@U?$_List_node@HPAX@std@@@1@ABH@Z$0
__ehfuncinfo$??$?0ABH@?$_List_node_emplace_op2@V?$allocator@U?$_List_node@HPAX@std@@@std@@@std@@QAE@AAV?$allocator@U?$_List_node@HPAX@std@@@1@ABH@Z DD 019930522H
	DD	01H
	DD	FLAT:__unwindtable$??$?0ABH@?$_List_node_emplace_op2@V?$allocator@U?$_List_node@HPAX@std@@@std@@@std@@QAE@AAV?$allocator@U?$_List_node@HPAX@std@@@1@ABH@Z
	DD	2 DUP(00H)
	DD	2 DUP(00H)
	DD	00H
	DD	01H
xdata$x	ENDS
;	COMDAT voltbl
voltbl	SEGMENT
_volmd	DB	09H
voltbl	ENDS
;	COMDAT xdata$x
xdata$x	SEGMENT
__ehfuncinfo$??1?$_List_node_emplace_op2@V?$allocator@U?$_List_node@HPAX@std@@@std@@@std@@QAE@XZ DD 019930522H
	DD	00H
	DD	00H
	DD	2 DUP(00H)
	DD	2 DUP(00H)
	DD	00H
	DD	05H
xdata$x	ENDS
;	COMDAT voltbl
voltbl	SEGMENT
_volmd	DB	09H
voltbl	ENDS
;	COMDAT xdata$x
xdata$x	SEGMENT
__ehfuncinfo$??1?$_Alloc_construct_ptr@V?$allocator@U?$_List_node@HPAX@std@@@std@@@std@@QAE@XZ DD 019930522H
	DD	00H
	DD	00H
	DD	2 DUP(00H)
	DD	2 DUP(00H)
	DD	00H
	DD	05H
xdata$x	ENDS
;	COMDAT voltbl
voltbl	SEGMENT
_volmd	DB	016H
voltbl	ENDS
;	COMDAT xdata$x
xdata$x	SEGMENT
__unwindtable$??$_Uninitialized_fill_n@V?$allocator@N@std@@@std@@YAPANPANIABNAAV?$allocator@N@0@@Z DD 0ffffffffH
	DD	FLAT:__unwindfunclet$??$_Uninitialized_fill_n@V?$allocator@N@std@@@std@@YAPANPANIABNAAV?$allocator@N@0@@Z$0
__ehfuncinfo$??$_Uninitialized_fill_n@V?$allocator@N@std@@@std@@YAPANPANIABNAAV?$allocator@N@0@@Z DD 019930522H
	DD	01H
	DD	FLAT:__unwindtable$??$_Uninitialized_fill_n@V?$allocator@N@std@@@std@@YAPANPANIABNAAV?$allocator@N@0@@Z
	DD	2 DUP(00H)
	DD	2 DUP(00H)
	DD	00H
	DD	01H
xdata$x	ENDS
;	COMDAT voltbl
voltbl	SEGMENT
_volmd	DB	09H
voltbl	ENDS
;	COMDAT xdata$x
xdata$x	SEGMENT
__ehfuncinfo$??$_Freenode@V?$allocator@U?$_List_node@HPAX@std@@@std@@@?$_List_node@HPAX@std@@SAXAAV?$allocator@U?$_List_node@HPAX@std@@@1@PAU01@@Z DD 019930522H
	DD	00H
	DD	00H
	DD	2 DUP(00H)
	DD	2 DUP(00H)
	DD	00H
	DD	05H
xdata$x	ENDS
;	COMDAT voltbl
voltbl	SEGMENT
_volmd	DB	016H
voltbl	ENDS
;	COMDAT xdata$x
xdata$x	SEGMENT
__unwindtable$??$_Uninitialized_value_construct_n@V?$allocator@PBVNavGraphEdge@@@std@@@std@@YAPAPBVNavGraphEdge@@PAPBV1@IAAV?$allocator@PBVNavGraphEdge@@@0@@Z DD 0ffffffffH
	DD	FLAT:__unwindfunclet$??$_Uninitialized_value_construct_n@V?$allocator@PBVNavGraphEdge@@@std@@@std@@YAPAPBVNavGraphEdge@@PAPBV1@IAAV?$allocator@PBVNavGraphEdge@@@0@@Z$0
__ehfuncinfo$??$_Uninitialized_value_construct_n@V?$allocator@PBVNavGraphEdge@@@std@@@std@@YAPAPBVNavGraphEdge@@PAPBV1@IAAV?$allocator@PBVNavGraphEdge@@@0@@Z DD 019930522H
	DD	01H
	DD	FLAT:__unwindtable$??$_Uninitialized_value_construct_n@V?$allocator@PBVNavGraphEdge@@@std@@@std@@YAPAPBVNavGraphEdge@@PAPBV1@IAAV?$allocator@PBVNavGraphEdge@@@0@@Z
	DD	2 DUP(00H)
	DD	2 DUP(00H)
	DD	00H
	DD	01H
xdata$x	ENDS
;	COMDAT voltbl
voltbl	SEGMENT
_volmd	DB	016H
voltbl	ENDS
;	COMDAT xdata$x
xdata$x	SEGMENT
__unwindtable$??$_Uninitialized_copy@PAPBVNavGraphEdge@@V?$allocator@PBVNavGraphEdge@@@std@@@std@@YAPAPBVNavGraphEdge@@QAPBV1@0PAPBV1@AAV?$allocator@PBVNavGraphEdge@@@0@@Z DD 0ffffffffH
	DD	FLAT:__unwindfunclet$??$_Uninitialized_copy@PAPBVNavGraphEdge@@V?$allocator@PBVNavGraphEdge@@@std@@@std@@YAPAPBVNavGraphEdge@@QAPBV1@0PAPBV1@AAV?$allocator@PBVNavGraphEdge@@@0@@Z$0
__ehfuncinfo$??$_Uninitialized_copy@PAPBVNavGraphEdge@@V?$allocator@PBVNavGraphEdge@@@std@@@std@@YAPAPBVNavGraphEdge@@QAPBV1@0PAPBV1@AAV?$allocator@PBVNavGraphEdge@@@0@@Z DD 019930522H
	DD	01H
	DD	FLAT:__unwindtable$??$_Uninitialized_copy@PAPBVNavGraphEdge@@V?$allocator@PBVNavGraphEdge@@@std@@@std@@YAPAPBVNavGraphEdge@@QAPBV1@0PAPBV1@AAV?$allocator@PBVNavGraphEdge@@@0@@Z
	DD	2 DUP(00H)
	DD	2 DUP(00H)
	DD	00H
	DD	01H
xdata$x	ENDS
;	COMDAT voltbl
voltbl	SEGMENT
_volmd	DB	016H
voltbl	ENDS
;	COMDAT xdata$x
xdata$x	SEGMENT
__unwindtable$??$?0VPathEdge@@@?$_List_node_emplace_op2@V?$allocator@U?$_List_node@VPathEdge@@PAX@std@@@std@@@std@@QAE@AAV?$allocator@U?$_List_node@VPathEdge@@PAX@std@@@1@$$QAVPathEdge@@@Z DD 0ffffffffH
	DD	FLAT:__unwindfunclet$??$?0VPathEdge@@@?$_List_node_emplace_op2@V?$allocator@U?$_List_node@VPathEdge@@PAX@std@@@std@@@std@@QAE@AAV?$allocator@U?$_List_node@VPathEdge@@PAX@std@@@1@$$QAVPathEdge@@@Z$0
__ehfuncinfo$??$?0VPathEdge@@@?$_List_node_emplace_op2@V?$allocator@U?$_List_node@VPathEdge@@PAX@std@@@std@@@std@@QAE@AAV?$allocator@U?$_List_node@VPathEdge@@PAX@std@@@1@$$QAVPathEdge@@@Z DD 019930522H
	DD	01H
	DD	FLAT:__unwindtable$??$?0VPathEdge@@@?$_List_node_emplace_op2@V?$allocator@U?$_List_node@VPathEdge@@PAX@std@@@std@@@std@@QAE@AAV?$allocator@U?$_List_node@VPathEdge@@PAX@std@@@1@$$QAVPathEdge@@@Z
	DD	2 DUP(00H)
	DD	2 DUP(00H)
	DD	00H
	DD	01H
xdata$x	ENDS
;	COMDAT voltbl
voltbl	SEGMENT
_volmd	DB	09H
voltbl	ENDS
;	COMDAT xdata$x
xdata$x	SEGMENT
__ehfuncinfo$??1?$_List_node_emplace_op2@V?$allocator@U?$_List_node@VPathEdge@@PAX@std@@@std@@@std@@QAE@XZ DD 019930522H
	DD	00H
	DD	00H
	DD	2 DUP(00H)
	DD	2 DUP(00H)
	DD	00H
	DD	05H
xdata$x	ENDS
;	COMDAT voltbl
voltbl	SEGMENT
_volmd	DB	09H
voltbl	ENDS
;	COMDAT xdata$x
xdata$x	SEGMENT
__ehfuncinfo$??1?$_Alloc_construct_ptr@V?$allocator@U?$_List_node@VPathEdge@@PAX@std@@@std@@@std@@QAE@XZ DD 019930522H
	DD	00H
	DD	00H
	DD	2 DUP(00H)
	DD	2 DUP(00H)
	DD	00H
	DD	05H
xdata$x	ENDS
;	COMDAT voltbl
voltbl	SEGMENT
_volmd	DB	09H
voltbl	ENDS
;	COMDAT xdata$x
xdata$x	SEGMENT
__ehfuncinfo$??$_Deallocate_plain@V?$allocator@U_Container_proxy@std@@@std@@@std@@YAXAAV?$allocator@U_Container_proxy@std@@@0@QAU_Container_proxy@0@@Z DD 019930522H
	DD	00H
	DD	00H
	DD	2 DUP(00H)
	DD	2 DUP(00H)
	DD	00H
	DD	05H
xdata$x	ENDS
;	COMDAT voltbl
voltbl	SEGMENT
_volmd	DB	09H
voltbl	ENDS
;	COMDAT xdata$x
xdata$x	SEGMENT
__ehfuncinfo$??1_List_node_remove_op@?$list@PAVRaven_PathPlanner@@V?$allocator@PAVRaven_PathPlanner@@@std@@@std@@QAE@XZ DD 019930522H
	DD	00H
	DD	00H
	DD	2 DUP(00H)
	DD	2 DUP(00H)
	DD	00H
	DD	05H
xdata$x	ENDS
;	COMDAT voltbl
voltbl	SEGMENT
_volmd	DB	016H
voltbl	ENDS
;	COMDAT xdata$x
xdata$x	SEGMENT
__unwindtable$??$remove_if@V<lambda_310c7fe23c524a4e1dd0703325d8ee77>@@@?$list@PAVRaven_PathPlanner@@V?$allocator@PAVRaven_PathPlanner@@@std@@@std@@QAE?A_PV<lambda_310c7fe23c524a4e1dd0703325d8ee77>@@@Z DD 0ffffffffH
	DD	FLAT:__unwindfunclet$??$remove_if@V<lambda_310c7fe23c524a4e1dd0703325d8ee77>@@@?$list@PAVRaven_PathPlanner@@V?$allocator@PAVRaven_PathPlanner@@@std@@@std@@QAE?A_PV<lambda_310c7fe23c524a4e1dd0703325d8ee77>@@@Z$0
__ehfuncinfo$??$remove_if@V<lambda_310c7fe23c524a4e1dd0703325d8ee77>@@@?$list@PAVRaven_PathPlanner@@V?$allocator@PAVRaven_PathPlanner@@@std@@@std@@QAE?A_PV<lambda_310c7fe23c524a4e1dd0703325d8ee77>@@@Z DD 019930522H
	DD	01H
	DD	FLAT:__unwindtable$??$remove_if@V<lambda_310c7fe23c524a4e1dd0703325d8ee77>@@@?$list@PAVRaven_PathPlanner@@V?$allocator@PAVRaven_PathPlanner@@@std@@@std@@QAE?A_PV<lambda_310c7fe23c524a4e1dd0703325d8ee77>@@@Z
	DD	2 DUP(00H)
	DD	2 DUP(00H)
	DD	00H
	DD	01H
xdata$x	ENDS
;	COMDAT voltbl
voltbl	SEGMENT
_volmd	DB	01eH
voltbl	ENDS
;	COMDAT xdata$x
xdata$x	SEGMENT
__unwindtable$??$find@V?$_List_iterator@V?$_List_val@U?$_List_simple_types@PAVRaven_PathPlanner@@@std@@@std@@@std@@PAVRaven_PathPlanner@@@std@@YA?AV?$_List_iterator@V?$_List_val@U?$_List_simple_types@PAVRaven_PathPlanner@@@std@@@std@@@0@V10@V10@ABQAVRaven_PathPlanner@@@Z DD 0ffffffffH
	DD	FLAT:__unwindfunclet$??$find@V?$_List_iterator@V?$_List_val@U?$_List_simple_types@PAVRaven_PathPlanner@@@std@@@std@@@std@@PAVRaven_PathPlanner@@@std@@YA?AV?$_List_iterator@V?$_List_val@U?$_List_simple_types@PAVRaven_PathPlanner@@@std@@@std@@@0@V10@V10@ABQAVRaven_PathPlanner@@@Z$0
	DD	00H
	DD	FLAT:__unwindfunclet$??$find@V?$_List_iterator@V?$_List_val@U?$_List_simple_types@PAVRaven_PathPlanner@@@std@@@std@@@std@@PAVRaven_PathPlanner@@@std@@YA?AV?$_List_iterator@V?$_List_val@U?$_List_simple_types@PAVRaven_PathPlanner@@@std@@@std@@@0@V10@V10@ABQAVRaven_PathPlanner@@@Z$1
__ehfuncinfo$??$find@V?$_List_iterator@V?$_List_val@U?$_List_simple_types@PAVRaven_PathPlanner@@@std@@@std@@@std@@PAVRaven_PathPlanner@@@std@@YA?AV?$_List_iterator@V?$_List_val@U?$_List_simple_types@PAVRaven_PathPlanner@@@std@@@std@@@0@V10@V10@ABQAVRaven_PathPlanner@@@Z DD 019930522H
	DD	02H
	DD	FLAT:__unwindtable$??$find@V?$_List_iterator@V?$_List_val@U?$_List_simple_types@PAVRaven_PathPlanner@@@std@@@std@@@std@@PAVRaven_PathPlanner@@@std@@YA?AV?$_List_iterator@V?$_List_val@U?$_List_simple_types@PAVRaven_PathPlanner@@@std@@@std@@@0@V10@V10@ABQAVRaven_PathPlanner@@@Z
	DD	2 DUP(00H)
	DD	2 DUP(00H)
	DD	00H
	DD	01H
xdata$x	ENDS
;	COMDAT voltbl
voltbl	SEGMENT
_volmd	DB	016H
voltbl	ENDS
;	COMDAT xdata$x
xdata$x	SEGMENT
__unwindtable$??$_Uninitialized_fill_n@V?$allocator@H@std@@@std@@YAPAHPAHIABHAAV?$allocator@H@0@@Z DD 0ffffffffH
	DD	FLAT:__unwindfunclet$??$_Uninitialized_fill_n@V?$allocator@H@std@@@std@@YAPAHPAHIABHAAV?$allocator@H@0@@Z$0
__ehfuncinfo$??$_Uninitialized_fill_n@V?$allocator@H@std@@@std@@YAPAHPAHIABHAAV?$allocator@H@0@@Z DD 019930522H
	DD	01H
	DD	FLAT:__unwindtable$??$_Uninitialized_fill_n@V?$allocator@H@std@@@std@@YAPAHPAHIABHAAV?$allocator@H@0@@Z
	DD	2 DUP(00H)
	DD	2 DUP(00H)
	DD	00H
	DD	01H
xdata$x	ENDS
;	COMDAT voltbl
voltbl	SEGMENT
_volmd	DB	09H
voltbl	ENDS
;	COMDAT xdata$x
xdata$x	SEGMENT
__ehfuncinfo$??$_Deallocate@$07$0A@@std@@YAXPAXI@Z DD 019930522H
	DD	00H
	DD	00H
	DD	2 DUP(00H)
	DD	2 DUP(00H)
	DD	00H
	DD	05H
xdata$x	ENDS
;	COMDAT voltbl
voltbl	SEGMENT
_volmd	DB	01eH
voltbl	ENDS
;	COMDAT xdata$x
xdata$x	SEGMENT
__unwindtable$??$_Construct_n@ABN@?$vector@NV?$allocator@N@std@@@std@@AAEXIABN@Z DD 0ffffffffH
	DD	FLAT:__unwindfunclet$??$_Construct_n@ABN@?$vector@NV?$allocator@N@std@@@std@@AAEXIABN@Z$0
	DD	00H
	DD	FLAT:__unwindfunclet$??$_Construct_n@ABN@?$vector@NV?$allocator@N@std@@@std@@AAEXIABN@Z$1
__ehfuncinfo$??$_Construct_n@ABN@?$vector@NV?$allocator@N@std@@@std@@AAEXIABN@Z DD 019930522H
	DD	02H
	DD	FLAT:__unwindtable$??$_Construct_n@ABN@?$vector@NV?$allocator@N@std@@@std@@AAEXIABN@Z
	DD	2 DUP(00H)
	DD	2 DUP(00H)
	DD	00H
	DD	01H
xdata$x	ENDS
;	COMDAT voltbl
voltbl	SEGMENT
_volmd	DB	09H
voltbl	ENDS
;	COMDAT xdata$x
xdata$x	SEGMENT
__ehfuncinfo$??$_Freenode0@V?$allocator@U?$_List_node@VPathEdge@@PAX@std@@@std@@@?$_List_node@VPathEdge@@PAX@std@@SAXAAV?$allocator@U?$_List_node@VPathEdge@@PAX@std@@@1@PAU01@@Z DD 019930522H
	DD	00H
	DD	00H
	DD	2 DUP(00H)
	DD	2 DUP(00H)
	DD	00H
	DD	05H
xdata$x	ENDS
;	COMDAT voltbl
voltbl	SEGMENT
_volmd	DB	09H
voltbl	ENDS
;	COMDAT xdata$x
xdata$x	SEGMENT
__ehfuncinfo$??$_Freenode0@V?$allocator@U?$_List_node@HPAX@std@@@std@@@?$_List_node@HPAX@std@@SAXAAV?$allocator@U?$_List_node@HPAX@std@@@1@PAU01@@Z DD 019930522H
	DD	00H
	DD	00H
	DD	2 DUP(00H)
	DD	2 DUP(00H)
	DD	00H
	DD	05H
xdata$x	ENDS
;	COMDAT voltbl
voltbl	SEGMENT
_volmd	DB	01eH
voltbl	ENDS
;	COMDAT xdata$x
xdata$x	SEGMENT
__unwindtable$??$_Construct_n@$$V@?$vector@PBVNavGraphEdge@@V?$allocator@PBVNavGraphEdge@@@std@@@std@@AAEXI@Z DD 0ffffffffH
	DD	FLAT:__unwindfunclet$??$_Construct_n@$$V@?$vector@PBVNavGraphEdge@@V?$allocator@PBVNavGraphEdge@@@std@@@std@@AAEXI@Z$0
	DD	00H
	DD	FLAT:__unwindfunclet$??$_Construct_n@$$V@?$vector@PBVNavGraphEdge@@V?$allocator@PBVNavGraphEdge@@@std@@@std@@AAEXI@Z$1
__ehfuncinfo$??$_Construct_n@$$V@?$vector@PBVNavGraphEdge@@V?$allocator@PBVNavGraphEdge@@@std@@@std@@AAEXI@Z DD 019930522H
	DD	02H
	DD	FLAT:__unwindtable$??$_Construct_n@$$V@?$vector@PBVNavGraphEdge@@V?$allocator@PBVNavGraphEdge@@@std@@@std@@AAEXI@Z
	DD	2 DUP(00H)
	DD	2 DUP(00H)
	DD	00H
	DD	01H
xdata$x	ENDS
;	COMDAT voltbl
voltbl	SEGMENT
_volmd	DB	01eH
voltbl	ENDS
;	COMDAT xdata$x
xdata$x	SEGMENT
__unwindtable$??$_Construct_n@ABQAPBVNavGraphEdge@@ABQAPBV1@@?$vector@PBVNavGraphEdge@@V?$allocator@PBVNavGraphEdge@@@std@@@std@@AAEXIABQAPBVNavGraphEdge@@0@Z DD 0ffffffffH
	DD	FLAT:__unwindfunclet$??$_Construct_n@ABQAPBVNavGraphEdge@@ABQAPBV1@@?$vector@PBVNavGraphEdge@@V?$allocator@PBVNavGraphEdge@@@std@@@std@@AAEXIABQAPBVNavGraphEdge@@0@Z$0
	DD	00H
	DD	FLAT:__unwindfunclet$??$_Construct_n@ABQAPBVNavGraphEdge@@ABQAPBV1@@?$vector@PBVNavGraphEdge@@V?$allocator@PBVNavGraphEdge@@@std@@@std@@AAEXIABQAPBVNavGraphEdge@@0@Z$1
__ehfuncinfo$??$_Construct_n@ABQAPBVNavGraphEdge@@ABQAPBV1@@?$vector@PBVNavGraphEdge@@V?$allocator@PBVNavGraphEdge@@@std@@@std@@AAEXIABQAPBVNavGraphEdge@@0@Z DD 019930522H
	DD	02H
	DD	FLAT:__unwindtable$??$_Construct_n@ABQAPBVNavGraphEdge@@ABQAPBV1@@?$vector@PBVNavGraphEdge@@V?$allocator@PBVNavGraphEdge@@@std@@@std@@AAEXIABQAPBVNavGraphEdge@@0@Z
	DD	2 DUP(00H)
	DD	2 DUP(00H)
	DD	00H
	DD	01H
xdata$x	ENDS
;	COMDAT voltbl
voltbl	SEGMENT
_volmd	DB	09H
voltbl	ENDS
;	COMDAT xdata$x
xdata$x	SEGMENT
__ehfuncinfo$??$_Freenode@V?$allocator@U?$_List_node@VPathEdge@@PAX@std@@@std@@@?$_List_node@VPathEdge@@PAX@std@@SAXAAV?$allocator@U?$_List_node@VPathEdge@@PAX@std@@@1@PAU01@@Z DD 019930522H
	DD	00H
	DD	00H
	DD	2 DUP(00H)
	DD	2 DUP(00H)
	DD	00H
	DD	05H
xdata$x	ENDS
;	COMDAT voltbl
voltbl	SEGMENT
_volmd	DB	024H
voltbl	ENDS
;	COMDAT xdata$x
xdata$x	SEGMENT
__unwindtable$??0?$IndexedPriorityQLow@N@@QAE@AAV?$vector@NV?$allocator@N@std@@@std@@H@Z DD 0ffffffffH
	DD	FLAT:__unwindfunclet$??0?$IndexedPriorityQLow@N@@QAE@AAV?$vector@NV?$allocator@N@std@@@std@@H@Z$0
	DD	00H
	DD	FLAT:__unwindfunclet$??0?$IndexedPriorityQLow@N@@QAE@AAV?$vector@NV?$allocator@N@std@@@std@@H@Z$1
__ehfuncinfo$??0?$IndexedPriorityQLow@N@@QAE@AAV?$vector@NV?$allocator@N@std@@@std@@H@Z DD 019930522H
	DD	02H
	DD	FLAT:__unwindtable$??0?$IndexedPriorityQLow@N@@QAE@AAV?$vector@NV?$allocator@N@std@@@std@@H@Z
	DD	2 DUP(00H)
	DD	2 DUP(00H)
	DD	00H
	DD	01H
xdata$x	ENDS
;	COMDAT voltbl
voltbl	SEGMENT
_volmd	DB	016H
voltbl	ENDS
;	COMDAT xdata$x
xdata$x	SEGMENT
__unwindtable$?GetPathAsPathEdges@?$Graph_SearchDijkstras_TS@V?$SparseGraph@V?$NavGraphNode@PAV?$Trigger@VRaven_Bot@@@@@@VNavGraphEdge@@@@V?$FindActiveTrigger@V?$Trigger@VRaven_Bot@@@@@@@@UBE?AV?$list@VPathEdge@@V?$allocator@VPathEdge@@@std@@@std@@XZ DD 0ffffffffH
	DD	FLAT:__unwindfunclet$?GetPathAsPathEdges@?$Graph_SearchDijkstras_TS@V?$SparseGraph@V?$NavGraphNode@PAV?$Trigger@VRaven_Bot@@@@@@VNavGraphEdge@@@@V?$FindActiveTrigger@V?$Trigger@VRaven_Bot@@@@@@@@UBE?AV?$list@VPathEdge@@V?$allocator@VPathEdge@@@std@@@std@@XZ$0
__ehfuncinfo$?GetPathAsPathEdges@?$Graph_SearchDijkstras_TS@V?$SparseGraph@V?$NavGraphNode@PAV?$Trigger@VRaven_Bot@@@@@@VNavGraphEdge@@@@V?$FindActiveTrigger@V?$Trigger@VRaven_Bot@@@@@@@@UBE?AV?$list@VPathEdge@@V?$allocator@VPathEdge@@@std@@@std@@XZ DD 019930522H
	DD	01H
	DD	FLAT:__unwindtable$?GetPathAsPathEdges@?$Graph_SearchDijkstras_TS@V?$SparseGraph@V?$NavGraphNode@PAV?$Trigger@VRaven_Bot@@@@@@VNavGraphEdge@@@@V?$FindActiveTrigger@V?$Trigger@VRaven_Bot@@@@@@@@UBE?AV?$list@VPathEdge@@V?$allocator@VPathEdge@@@std@@@std@@XZ
	DD	2 DUP(00H)
	DD	2 DUP(00H)
	DD	00H
	DD	01H
xdata$x	ENDS
;	COMDAT voltbl
voltbl	SEGMENT
_volmd	DB	016H
voltbl	ENDS
;	COMDAT xdata$x
xdata$x	SEGMENT
__unwindtable$?GetPathToTarget@?$Graph_SearchDijkstras_TS@V?$SparseGraph@V?$NavGraphNode@PAV?$Trigger@VRaven_Bot@@@@@@VNavGraphEdge@@@@V?$FindActiveTrigger@V?$Trigger@VRaven_Bot@@@@@@@@UBE?AV?$list@HV?$allocator@H@std@@@std@@XZ DD 0ffffffffH
	DD	FLAT:__unwindfunclet$?GetPathToTarget@?$Graph_SearchDijkstras_TS@V?$SparseGraph@V?$NavGraphNode@PAV?$Trigger@VRaven_Bot@@@@@@VNavGraphEdge@@@@V?$FindActiveTrigger@V?$Trigger@VRaven_Bot@@@@@@@@UBE?AV?$list@HV?$allocator@H@std@@@std@@XZ$0
__ehfuncinfo$?GetPathToTarget@?$Graph_SearchDijkstras_TS@V?$SparseGraph@V?$NavGraphNode@PAV?$Trigger@VRaven_Bot@@@@@@VNavGraphEdge@@@@V?$FindActiveTrigger@V?$Trigger@VRaven_Bot@@@@@@@@UBE?AV?$list@HV?$allocator@H@std@@@std@@XZ DD 019930522H
	DD	01H
	DD	FLAT:__unwindtable$?GetPathToTarget@?$Graph_SearchDijkstras_TS@V?$SparseGraph@V?$NavGraphNode@PAV?$Trigger@VRaven_Bot@@@@@@VNavGraphEdge@@@@V?$FindActiveTrigger@V?$Trigger@VRaven_Bot@@@@@@@@UBE?AV?$list@HV?$allocator@H@std@@@std@@XZ
	DD	2 DUP(00H)
	DD	2 DUP(00H)
	DD	00H
	DD	01H
xdata$x	ENDS
;	COMDAT voltbl
voltbl	SEGMENT
_volmd	DB	016H
voltbl	ENDS
;	COMDAT xdata$x
xdata$x	SEGMENT
__unwindtable$?CycleOnce@?$Graph_SearchDijkstras_TS@V?$SparseGraph@V?$NavGraphNode@PAV?$Trigger@VRaven_Bot@@@@@@VNavGraphEdge@@@@V?$FindActiveTrigger@V?$Trigger@VRaven_Bot@@@@@@@@UAEHXZ DD 0ffffffffH
	DD	FLAT:__unwindfunclet$?CycleOnce@?$Graph_SearchDijkstras_TS@V?$SparseGraph@V?$NavGraphNode@PAV?$Trigger@VRaven_Bot@@@@@@VNavGraphEdge@@@@V?$FindActiveTrigger@V?$Trigger@VRaven_Bot@@@@@@@@UAEHXZ$0
__ehfuncinfo$?CycleOnce@?$Graph_SearchDijkstras_TS@V?$SparseGraph@V?$NavGraphNode@PAV?$Trigger@VRaven_Bot@@@@@@VNavGraphEdge@@@@V?$FindActiveTrigger@V?$Trigger@VRaven_Bot@@@@@@@@UAEHXZ DD 019930522H
	DD	01H
	DD	FLAT:__unwindtable$?CycleOnce@?$Graph_SearchDijkstras_TS@V?$SparseGraph@V?$NavGraphNode@PAV?$Trigger@VRaven_Bot@@@@@@VNavGraphEdge@@@@V?$FindActiveTrigger@V?$Trigger@VRaven_Bot@@@@@@@@UAEHXZ
	DD	2 DUP(00H)
	DD	2 DUP(00H)
	DD	00H
	DD	01H
xdata$x	ENDS
;	COMDAT voltbl
voltbl	SEGMENT
_volmd	DB	046H
voltbl	ENDS
;	COMDAT xdata$x
xdata$x	SEGMENT
__ehfuncinfo$??0?$Graph_SearchDijkstras_TS@V?$SparseGraph@V?$NavGraphNode@PAV?$Trigger@VRaven_Bot@@@@@@VNavGraphEdge@@@@V?$FindActiveTrigger@V?$Trigger@VRaven_Bot@@@@@@@@QAE@ABV?$SparseGraph@V?$NavGraphNode@PAV?$Trigger@VRaven_Bot@@@@@@VNavGraphEdge@@@@HH@Z DD 019930522H
	DD	05H
	DD	FLAT:__unwindtable$??0?$Graph_SearchDijkstras_TS@V?$SparseGraph@V?$NavGraphNode@PAV?$Trigger@VRaven_Bot@@@@@@VNavGraphEdge@@@@V?$FindActiveTrigger@V?$Trigger@VRaven_Bot@@@@@@@@QAE@ABV?$SparseGraph@V?$NavGraphNode@PAV?$Trigger@VRaven_Bot@@@@@@VNavGraphEdge@@@@HH@Z
	DD	2 DUP(00H)
	DD	2 DUP(00H)
	DD	00H
	DD	01H
__unwindtable$??0?$Graph_SearchDijkstras_TS@V?$SparseGraph@V?$NavGraphNode@PAV?$Trigger@VRaven_Bot@@@@@@VNavGraphEdge@@@@V?$FindActiveTrigger@V?$Trigger@VRaven_Bot@@@@@@@@QAE@ABV?$SparseGraph@V?$NavGraphNode@PAV?$Trigger@VRaven_Bot@@@@@@VNavGraphEdge@@@@HH@Z DD 0ffffffffH
	DD	FLAT:__unwindfunclet$??0?$Graph_SearchDijkstras_TS@V?$SparseGraph@V?$NavGraphNode@PAV?$Trigger@VRaven_Bot@@@@@@VNavGraphEdge@@@@V?$FindActiveTrigger@V?$Trigger@VRaven_Bot@@@@@@@@QAE@ABV?$SparseGraph@V?$NavGraphNode@PAV?$Trigger@VRaven_Bot@@@@@@VNavGraphEdge@@@@HH@Z$0
	DD	00H
	DD	FLAT:__unwindfunclet$??0?$Graph_SearchDijkstras_TS@V?$SparseGraph@V?$NavGraphNode@PAV?$Trigger@VRaven_Bot@@@@@@VNavGraphEdge@@@@V?$FindActiveTrigger@V?$Trigger@VRaven_Bot@@@@@@@@QAE@ABV?$SparseGraph@V?$NavGraphNode@PAV?$Trigger@VRaven_Bot@@@@@@VNavGraphEdge@@@@HH@Z$1
	DD	01H
	DD	FLAT:__unwindfunclet$??0?$Graph_SearchDijkstras_TS@V?$SparseGraph@V?$NavGraphNode@PAV?$Trigger@VRaven_Bot@@@@@@VNavGraphEdge@@@@V?$FindActiveTrigger@V?$Trigger@VRaven_Bot@@@@@@@@QAE@ABV?$SparseGraph@V?$NavGraphNode@PAV?$Trigger@VRaven_Bot@@@@@@VNavGraphEdge@@@@HH@Z$2
	DD	02H
	DD	FLAT:__unwindfunclet$??0?$Graph_SearchDijkstras_TS@V?$SparseGraph@V?$NavGraphNode@PAV?$Trigger@VRaven_Bot@@@@@@VNavGraphEdge@@@@V?$FindActiveTrigger@V?$Trigger@VRaven_Bot@@@@@@@@QAE@ABV?$SparseGraph@V?$NavGraphNode@PAV?$Trigger@VRaven_Bot@@@@@@VNavGraphEdge@@@@HH@Z$3
	DD	03H
	DD	FLAT:__unwindfunclet$??0?$Graph_SearchDijkstras_TS@V?$SparseGraph@V?$NavGraphNode@PAV?$Trigger@VRaven_Bot@@@@@@VNavGraphEdge@@@@V?$FindActiveTrigger@V?$Trigger@VRaven_Bot@@@@@@@@QAE@ABV?$SparseGraph@V?$NavGraphNode@PAV?$Trigger@VRaven_Bot@@@@@@VNavGraphEdge@@@@HH@Z$4
xdata$x	ENDS
;	COMDAT voltbl
voltbl	SEGMENT
_volmd	DB	016H
voltbl	ENDS
;	COMDAT xdata$x
xdata$x	SEGMENT
__unwindtable$?GetPathAsPathEdges@?$Graph_SearchAStar_TS@V?$SparseGraph@V?$NavGraphNode@PAV?$Trigger@VRaven_Bot@@@@@@VNavGraphEdge@@@@VHeuristic_Euclid@@@@UBE?AV?$list@VPathEdge@@V?$allocator@VPathEdge@@@std@@@std@@XZ DD 0ffffffffH
	DD	FLAT:__unwindfunclet$?GetPathAsPathEdges@?$Graph_SearchAStar_TS@V?$SparseGraph@V?$NavGraphNode@PAV?$Trigger@VRaven_Bot@@@@@@VNavGraphEdge@@@@VHeuristic_Euclid@@@@UBE?AV?$list@VPathEdge@@V?$allocator@VPathEdge@@@std@@@std@@XZ$0
__ehfuncinfo$?GetPathAsPathEdges@?$Graph_SearchAStar_TS@V?$SparseGraph@V?$NavGraphNode@PAV?$Trigger@VRaven_Bot@@@@@@VNavGraphEdge@@@@VHeuristic_Euclid@@@@UBE?AV?$list@VPathEdge@@V?$allocator@VPathEdge@@@std@@@std@@XZ DD 019930522H
	DD	01H
	DD	FLAT:__unwindtable$?GetPathAsPathEdges@?$Graph_SearchAStar_TS@V?$SparseGraph@V?$NavGraphNode@PAV?$Trigger@VRaven_Bot@@@@@@VNavGraphEdge@@@@VHeuristic_Euclid@@@@UBE?AV?$list@VPathEdge@@V?$allocator@VPathEdge@@@std@@@std@@XZ
	DD	2 DUP(00H)
	DD	2 DUP(00H)
	DD	00H
	DD	01H
xdata$x	ENDS
;	COMDAT voltbl
voltbl	SEGMENT
_volmd	DB	016H
voltbl	ENDS
;	COMDAT xdata$x
xdata$x	SEGMENT
__unwindtable$?GetPathToTarget@?$Graph_SearchAStar_TS@V?$SparseGraph@V?$NavGraphNode@PAV?$Trigger@VRaven_Bot@@@@@@VNavGraphEdge@@@@VHeuristic_Euclid@@@@UBE?AV?$list@HV?$allocator@H@std@@@std@@XZ DD 0ffffffffH
	DD	FLAT:__unwindfunclet$?GetPathToTarget@?$Graph_SearchAStar_TS@V?$SparseGraph@V?$NavGraphNode@PAV?$Trigger@VRaven_Bot@@@@@@VNavGraphEdge@@@@VHeuristic_Euclid@@@@UBE?AV?$list@HV?$allocator@H@std@@@std@@XZ$0
__ehfuncinfo$?GetPathToTarget@?$Graph_SearchAStar_TS@V?$SparseGraph@V?$NavGraphNode@PAV?$Trigger@VRaven_Bot@@@@@@VNavGraphEdge@@@@VHeuristic_Euclid@@@@UBE?AV?$list@HV?$allocator@H@std@@@std@@XZ DD 019930522H
	DD	01H
	DD	FLAT:__unwindtable$?GetPathToTarget@?$Graph_SearchAStar_TS@V?$SparseGraph@V?$NavGraphNode@PAV?$Trigger@VRaven_Bot@@@@@@VNavGraphEdge@@@@VHeuristic_Euclid@@@@UBE?AV?$list@HV?$allocator@H@std@@@std@@XZ
	DD	2 DUP(00H)
	DD	2 DUP(00H)
	DD	00H
	DD	01H
xdata$x	ENDS
;	COMDAT voltbl
voltbl	SEGMENT
_volmd	DB	016H
voltbl	ENDS
;	COMDAT xdata$x
xdata$x	SEGMENT
__unwindtable$?CycleOnce@?$Graph_SearchAStar_TS@V?$SparseGraph@V?$NavGraphNode@PAV?$Trigger@VRaven_Bot@@@@@@VNavGraphEdge@@@@VHeuristic_Euclid@@@@UAEHXZ DD 0ffffffffH
	DD	FLAT:__unwindfunclet$?CycleOnce@?$Graph_SearchAStar_TS@V?$SparseGraph@V?$NavGraphNode@PAV?$Trigger@VRaven_Bot@@@@@@VNavGraphEdge@@@@VHeuristic_Euclid@@@@UAEHXZ$0
__ehfuncinfo$?CycleOnce@?$Graph_SearchAStar_TS@V?$SparseGraph@V?$NavGraphNode@PAV?$Trigger@VRaven_Bot@@@@@@VNavGraphEdge@@@@VHeuristic_Euclid@@@@UAEHXZ DD 019930522H
	DD	01H
	DD	FLAT:__unwindtable$?CycleOnce@?$Graph_SearchAStar_TS@V?$SparseGraph@V?$NavGraphNode@PAV?$Trigger@VRaven_Bot@@@@@@VNavGraphEdge@@@@VHeuristic_Euclid@@@@UAEHXZ
	DD	2 DUP(00H)
	DD	2 DUP(00H)
	DD	00H
	DD	01H
xdata$x	ENDS
;	COMDAT voltbl
voltbl	SEGMENT
_volmd	DB	051H
voltbl	ENDS
;	COMDAT xdata$x
xdata$x	SEGMENT
__ehfuncinfo$??0?$Graph_SearchAStar_TS@V?$SparseGraph@V?$NavGraphNode@PAV?$Trigger@VRaven_Bot@@@@@@VNavGraphEdge@@@@VHeuristic_Euclid@@@@QAE@ABV?$SparseGraph@V?$NavGraphNode@PAV?$Trigger@VRaven_Bot@@@@@@VNavGraphEdge@@@@HH@Z DD 019930522H
	DD	06H
	DD	FLAT:__unwindtable$??0?$Graph_SearchAStar_TS@V?$SparseGraph@V?$NavGraphNode@PAV?$Trigger@VRaven_Bot@@@@@@VNavGraphEdge@@@@VHeuristic_Euclid@@@@QAE@ABV?$SparseGraph@V?$NavGraphNode@PAV?$Trigger@VRaven_Bot@@@@@@VNavGraphEdge@@@@HH@Z
	DD	2 DUP(00H)
	DD	2 DUP(00H)
	DD	00H
	DD	01H
__unwindtable$??0?$Graph_SearchAStar_TS@V?$SparseGraph@V?$NavGraphNode@PAV?$Trigger@VRaven_Bot@@@@@@VNavGraphEdge@@@@VHeuristic_Euclid@@@@QAE@ABV?$SparseGraph@V?$NavGraphNode@PAV?$Trigger@VRaven_Bot@@@@@@VNavGraphEdge@@@@HH@Z DD 0ffffffffH
	DD	FLAT:__unwindfunclet$??0?$Graph_SearchAStar_TS@V?$SparseGraph@V?$NavGraphNode@PAV?$Trigger@VRaven_Bot@@@@@@VNavGraphEdge@@@@VHeuristic_Euclid@@@@QAE@ABV?$SparseGraph@V?$NavGraphNode@PAV?$Trigger@VRaven_Bot@@@@@@VNavGraphEdge@@@@HH@Z$0
	DD	00H
	DD	FLAT:__unwindfunclet$??0?$Graph_SearchAStar_TS@V?$SparseGraph@V?$NavGraphNode@PAV?$Trigger@VRaven_Bot@@@@@@VNavGraphEdge@@@@VHeuristic_Euclid@@@@QAE@ABV?$SparseGraph@V?$NavGraphNode@PAV?$Trigger@VRaven_Bot@@@@@@VNavGraphEdge@@@@HH@Z$1
	DD	01H
	DD	FLAT:__unwindfunclet$??0?$Graph_SearchAStar_TS@V?$SparseGraph@V?$NavGraphNode@PAV?$Trigger@VRaven_Bot@@@@@@VNavGraphEdge@@@@VHeuristic_Euclid@@@@QAE@ABV?$SparseGraph@V?$NavGraphNode@PAV?$Trigger@VRaven_Bot@@@@@@VNavGraphEdge@@@@HH@Z$2
	DD	02H
	DD	FLAT:__unwindfunclet$??0?$Graph_SearchAStar_TS@V?$SparseGraph@V?$NavGraphNode@PAV?$Trigger@VRaven_Bot@@@@@@VNavGraphEdge@@@@VHeuristic_Euclid@@@@QAE@ABV?$SparseGraph@V?$NavGraphNode@PAV?$Trigger@VRaven_Bot@@@@@@VNavGraphEdge@@@@HH@Z$3
	DD	03H
	DD	FLAT:__unwindfunclet$??0?$Graph_SearchAStar_TS@V?$SparseGraph@V?$NavGraphNode@PAV?$Trigger@VRaven_Bot@@@@@@VNavGraphEdge@@@@VHeuristic_Euclid@@@@QAE@ABV?$SparseGraph@V?$NavGraphNode@PAV?$Trigger@VRaven_Bot@@@@@@VNavGraphEdge@@@@HH@Z$4
	DD	04H
	DD	FLAT:__unwindfunclet$??0?$Graph_SearchAStar_TS@V?$SparseGraph@V?$NavGraphNode@PAV?$Trigger@VRaven_Bot@@@@@@VNavGraphEdge@@@@VHeuristic_Euclid@@@@QAE@ABV?$SparseGraph@V?$NavGraphNode@PAV?$Trigger@VRaven_Bot@@@@@@VNavGraphEdge@@@@HH@Z$5
xdata$x	ENDS
;	COMDAT voltbl
voltbl	SEGMENT
_volmd	DB	09H
voltbl	ENDS
;	COMDAT xdata$x
xdata$x	SEGMENT
__ehfuncinfo$?_Tidy@?$vector@PBVNavGraphEdge@@V?$allocator@PBVNavGraphEdge@@@std@@@std@@AAEXXZ DD 019930522H
	DD	00H
	DD	00H
	DD	2 DUP(00H)
	DD	2 DUP(00H)
	DD	00H
	DD	05H
xdata$x	ENDS
;	COMDAT voltbl
voltbl	SEGMENT
_volmd	DB	026H
voltbl	ENDS
;	COMDAT xdata$x
xdata$x	SEGMENT
__unwindtable$?CalculateNeighbors@?$CellSpacePartition@PAV?$NavGraphNode@PAV?$Trigger@VRaven_Bot@@@@@@@@QAEXUVector2D@@N@Z DD 0ffffffffH
	DD	FLAT:__unwindfunclet$?CalculateNeighbors@?$CellSpacePartition@PAV?$NavGraphNode@PAV?$Trigger@VRaven_Bot@@@@@@@@QAEXUVector2D@@N@Z$0
	DD	00H
	DD	FLAT:__unwindfunclet$?CalculateNeighbors@?$CellSpacePartition@PAV?$NavGraphNode@PAV?$Trigger@VRaven_Bot@@@@@@@@QAEXUVector2D@@N@Z$1
	DD	01H
	DD	FLAT:__unwindfunclet$?CalculateNeighbors@?$CellSpacePartition@PAV?$NavGraphNode@PAV?$Trigger@VRaven_Bot@@@@@@@@QAEXUVector2D@@N@Z$4
__ehfuncinfo$?CalculateNeighbors@?$CellSpacePartition@PAV?$NavGraphNode@PAV?$Trigger@VRaven_Bot@@@@@@@@QAEXUVector2D@@N@Z DD 019930522H
	DD	03H
	DD	FLAT:__unwindtable$?CalculateNeighbors@?$CellSpacePartition@PAV?$NavGraphNode@PAV?$Trigger@VRaven_Bot@@@@@@@@QAEXUVector2D@@N@Z
	DD	2 DUP(00H)
	DD	2 DUP(00H)
	DD	00H
	DD	01H
xdata$x	ENDS
;	COMDAT voltbl
voltbl	SEGMENT
_volmd	DB	016H
voltbl	ENDS
;	COMDAT xdata$x
xdata$x	SEGMENT
__unwindtable$?_Alloc_sentinel_and_proxy@?$list@HV?$allocator@H@std@@@std@@AAEXXZ DD 0ffffffffH
	DD	FLAT:__unwindfunclet$?_Alloc_sentinel_and_proxy@?$list@HV?$allocator@H@std@@@std@@AAEXXZ$0
__ehfuncinfo$?_Alloc_sentinel_and_proxy@?$list@HV?$allocator@H@std@@@std@@AAEXXZ DD 019930522H
	DD	01H
	DD	FLAT:__unwindtable$?_Alloc_sentinel_and_proxy@?$list@HV?$allocator@H@std@@@std@@AAEXXZ
	DD	2 DUP(00H)
	DD	2 DUP(00H)
	DD	00H
	DD	01H
xdata$x	ENDS
;	COMDAT voltbl
voltbl	SEGMENT
_volmd	DB	016H
voltbl	ENDS
;	COMDAT xdata$x
xdata$x	SEGMENT
__unwindtable$?_Alloc_sentinel_and_proxy@?$list@VPathEdge@@V?$allocator@VPathEdge@@@std@@@std@@AAEXXZ DD 0ffffffffH
	DD	FLAT:__unwindfunclet$?_Alloc_sentinel_and_proxy@?$list@VPathEdge@@V?$allocator@VPathEdge@@@std@@@std@@AAEXXZ$0
__ehfuncinfo$?_Alloc_sentinel_and_proxy@?$list@VPathEdge@@V?$allocator@VPathEdge@@@std@@@std@@AAEXXZ DD 019930522H
	DD	01H
	DD	FLAT:__unwindtable$?_Alloc_sentinel_and_proxy@?$list@VPathEdge@@V?$allocator@VPathEdge@@@std@@@std@@AAEXXZ
	DD	2 DUP(00H)
	DD	2 DUP(00H)
	DD	00H
	DD	01H
xdata$x	ENDS
;	COMDAT voltbl
voltbl	SEGMENT
_volmd	DB	09H
voltbl	ENDS
;	COMDAT xdata$x
xdata$x	SEGMENT
__ehfuncinfo$?erase@?$list@VPathEdge@@V?$allocator@VPathEdge@@@std@@@std@@QAE?AV?$_List_iterator@V?$_List_val@U?$_List_simple_types@VPathEdge@@@std@@@std@@@2@V?$_List_const_iterator@V?$_List_val@U?$_List_simple_types@VPathEdge@@@std@@@std@@@2@0@Z DD 019930522H
	DD	00H
	DD	00H
	DD	2 DUP(00H)
	DD	2 DUP(00H)
	DD	00H
	DD	05H
xdata$x	ENDS
;	COMDAT voltbl
voltbl	SEGMENT
_volmd	DB	016H
voltbl	ENDS
;	COMDAT xdata$x
xdata$x	SEGMENT
__unwindtable$?Register@?$PathManager@VRaven_PathPlanner@@@@QAEXPAVRaven_PathPlanner@@@Z DD 0ffffffffH
	DD	FLAT:__unwindfunclet$?Register@?$PathManager@VRaven_PathPlanner@@@@QAEXPAVRaven_PathPlanner@@@Z$0
__ehfuncinfo$?Register@?$PathManager@VRaven_PathPlanner@@@@QAEXPAVRaven_PathPlanner@@@Z DD 019930522H
	DD	01H
	DD	FLAT:__unwindtable$?Register@?$PathManager@VRaven_PathPlanner@@@@QAEXPAVRaven_PathPlanner@@@Z
	DD	2 DUP(00H)
	DD	2 DUP(00H)
	DD	00H
	DD	01H
xdata$x	ENDS
voltbl	SEGMENT
_volmd	DD	0ffffffffH
	DDSymXIndex: 	FLAT:__unwindfunclet$?CycleOnce@Raven_PathPlanner@@QBEHXZ$0
	DD	016H
_volmd	DD	0ffffffffH
	DDSymXIndex: 	FLAT:__unwindfunclet$?GetCostToClosestItem@Raven_PathPlanner@@QBENI@Z$0
	DD	016H
_volmd	DD	0ffffffffH
	DDSymXIndex: 	FLAT:__unwindfunclet$?GetPath@Raven_PathPlanner@@QAE?AV?$list@VPathEdge@@V?$allocator@VPathEdge@@@std@@@std@@XZ$0
	DD	016H
_volmd	DD	0ffffffffH
	DDSymXIndex: 	FLAT:__unwindfunclet$?RequestPathToPosition@Raven_PathPlanner@@QAE_NUVector2D@@@Z$0
	DD	01dH
_volmd	DD	0ffffffffH
	DDSymXIndex: 	FLAT:__unwindfunclet$?RequestPathToItem@Raven_PathPlanner@@QAE_NI@Z$0
	DD	01dH
_volmd	DD	0ffffffffH
	DDSymXIndex: 	FLAT:__ehhandler$??1Raven_PathPlanner@@QAE@XZ
	DD	09H
_volmd	DD	0ffffffffH
	DDSymXIndex: 	FLAT:__unwindfunclet$?SmoothPathEdgesPrecise@Raven_PathPlanner@@AAEXAAV?$list@VPathEdge@@V?$allocator@VPathEdge@@@std@@@std@@@Z$0
	DD	01eH
_volmd	DD	0ffffffffH
	DDSymXIndex: 	FLAT:__unwindfunclet$?SmoothPathEdgesQuick@Raven_PathPlanner@@AAEXAAV?$list@VPathEdge@@V?$allocator@VPathEdge@@@std@@@std@@@Z$0
	DD	01eH
voltbl	ENDS
xdata$x	SEGMENT
__unwindtable$?CycleOnce@Raven_PathPlanner@@QBEHXZ DD 0ffffffffH
	DD	FLAT:__unwindfunclet$?CycleOnce@Raven_PathPlanner@@QBEHXZ$0
__unwindtable$?GetCostToClosestItem@Raven_PathPlanner@@QBENI@Z DD 0ffffffffH
	DD	FLAT:__unwindfunclet$?GetCostToClosestItem@Raven_PathPlanner@@QBENI@Z$0
__unwindtable$?GetPath@Raven_PathPlanner@@QAE?AV?$list@VPathEdge@@V?$allocator@VPathEdge@@@std@@@std@@XZ DD 0ffffffffH
	DD	FLAT:__unwindfunclet$?GetPath@Raven_PathPlanner@@QAE?AV?$list@VPathEdge@@V?$allocator@VPathEdge@@@std@@@std@@XZ$0
__unwindtable$?RequestPathToPosition@Raven_PathPlanner@@QAE_NUVector2D@@@Z DD 0ffffffffH
	DD	FLAT:__unwindfunclet$?RequestPathToPosition@Raven_PathPlanner@@QAE_NUVector2D@@@Z$0
__unwindtable$?RequestPathToItem@Raven_PathPlanner@@QAE_NI@Z DD 0ffffffffH
	DD	FLAT:__unwindfunclet$?RequestPathToItem@Raven_PathPlanner@@QAE_NI@Z$0
__unwindtable$?SmoothPathEdgesPrecise@Raven_PathPlanner@@AAEXAAV?$list@VPathEdge@@V?$allocator@VPathEdge@@@std@@@std@@@Z DD 0ffffffffH
	DD	FLAT:__unwindfunclet$?SmoothPathEdgesPrecise@Raven_PathPlanner@@AAEXAAV?$list@VPathEdge@@V?$allocator@VPathEdge@@@std@@@std@@@Z$0
	DD	00H
	DD	FLAT:__unwindfunclet$?SmoothPathEdgesPrecise@Raven_PathPlanner@@AAEXAAV?$list@VPathEdge@@V?$allocator@VPathEdge@@@std@@@std@@@Z$1
__unwindtable$?SmoothPathEdgesQuick@Raven_PathPlanner@@AAEXAAV?$list@VPathEdge@@V?$allocator@VPathEdge@@@std@@@std@@@Z DD 0ffffffffH
	DD	FLAT:__unwindfunclet$?SmoothPathEdgesQuick@Raven_PathPlanner@@AAEXAAV?$list@VPathEdge@@V?$allocator@VPathEdge@@@std@@@std@@@Z$0
	DD	00H
	DD	FLAT:__unwindfunclet$?SmoothPathEdgesQuick@Raven_PathPlanner@@AAEXAAV?$list@VPathEdge@@V?$allocator@VPathEdge@@@std@@@std@@@Z$1
__ehfuncinfo$?CycleOnce@Raven_PathPlanner@@QBEHXZ DD 019930522H
	DD	01H
	DD	FLAT:__unwindtable$?CycleOnce@Raven_PathPlanner@@QBEHXZ
	DD	2 DUP(00H)
	DD	2 DUP(00H)
	DD	00H
	DD	01H
__ehfuncinfo$?GetCostToClosestItem@Raven_PathPlanner@@QBENI@Z DD 019930522H
	DD	01H
	DD	FLAT:__unwindtable$?GetCostToClosestItem@Raven_PathPlanner@@QBENI@Z
	DD	2 DUP(00H)
	DD	2 DUP(00H)
	DD	00H
	DD	01H
__ehfuncinfo$?GetPath@Raven_PathPlanner@@QAE?AV?$list@VPathEdge@@V?$allocator@VPathEdge@@@std@@@std@@XZ DD 019930522H
	DD	01H
	DD	FLAT:__unwindtable$?GetPath@Raven_PathPlanner@@QAE?AV?$list@VPathEdge@@V?$allocator@VPathEdge@@@std@@@std@@XZ
	DD	2 DUP(00H)
	DD	2 DUP(00H)
	DD	00H
	DD	01H
__ehfuncinfo$?RequestPathToPosition@Raven_PathPlanner@@QAE_NUVector2D@@@Z DD 019930522H
	DD	01H
	DD	FLAT:__unwindtable$?RequestPathToPosition@Raven_PathPlanner@@QAE_NUVector2D@@@Z
	DD	2 DUP(00H)
	DD	2 DUP(00H)
	DD	00H
	DD	01H
__ehfuncinfo$?RequestPathToItem@Raven_PathPlanner@@QAE_NI@Z DD 019930522H
	DD	01H
	DD	FLAT:__unwindtable$?RequestPathToItem@Raven_PathPlanner@@QAE_NI@Z
	DD	2 DUP(00H)
	DD	2 DUP(00H)
	DD	00H
	DD	01H
__ehfuncinfo$??1Raven_PathPlanner@@QAE@XZ DD 019930522H
	DD	00H
	DD	00H
	DD	2 DUP(00H)
	DD	2 DUP(00H)
	DD	00H
	DD	05H
__ehfuncinfo$?SmoothPathEdgesPrecise@Raven_PathPlanner@@AAEXAAV?$list@VPathEdge@@V?$allocator@VPathEdge@@@std@@@std@@@Z DD 019930522H
	DD	02H
	DD	FLAT:__unwindtable$?SmoothPathEdgesPrecise@Raven_PathPlanner@@AAEXAAV?$list@VPathEdge@@V?$allocator@VPathEdge@@@std@@@std@@@Z
	DD	2 DUP(00H)
	DD	2 DUP(00H)
	DD	00H
	DD	01H
__ehfuncinfo$?SmoothPathEdgesQuick@Raven_PathPlanner@@AAEXAAV?$list@VPathEdge@@V?$allocator@VPathEdge@@@std@@@std@@@Z DD 019930522H
	DD	02H
	DD	FLAT:__unwindtable$?SmoothPathEdgesQuick@Raven_PathPlanner@@AAEXAAV?$list@VPathEdge@@V?$allocator@VPathEdge@@@std@@@std@@@Z
	DD	2 DUP(00H)
	DD	2 DUP(00H)
	DD	00H
	DD	01H
xdata$x	ENDS
;	COMDAT voltbl
voltbl	SEGMENT
_volmd	DB	09H
voltbl	ENDS
;	COMDAT xdata$x
xdata$x	SEGMENT
__ehfuncinfo$?_Tidy@?$vector@HV?$allocator@H@std@@@std@@AAEXXZ DD 019930522H
	DD	00H
	DD	00H
	DD	2 DUP(00H)
	DD	2 DUP(00H)
	DD	00H
	DD	05H
xdata$x	ENDS
;	COMDAT voltbl
voltbl	SEGMENT
_volmd	DB	09H
voltbl	ENDS
;	COMDAT xdata$x
xdata$x	SEGMENT
__ehfuncinfo$??0?$vector@HV?$allocator@H@std@@@std@@QAE@XZ DD 019930522H
	DD	00H
	DD	00H
	DD	2 DUP(00H)
	DD	2 DUP(00H)
	DD	00H
	DD	05H
xdata$x	ENDS
;	COMDAT voltbl
voltbl	SEGMENT
_volmd	DB	09H
voltbl	ENDS
;	COMDAT xdata$x
xdata$x	SEGMENT
__ehfuncinfo$?_Tidy@?$vector@NV?$allocator@N@std@@@std@@AAEXXZ DD 019930522H
	DD	00H
	DD	00H
	DD	2 DUP(00H)
	DD	2 DUP(00H)
	DD	00H
	DD	05H
xdata$x	ENDS
;	COMDAT CRT$XCU
CRT$XCU	SEGMENT
??id$initializer$@?$codecvt@DDU_Mbstatet@@@std@@2P6AXXZA@@3P6AXXZA DD FLAT:??__E?id@?$codecvt@DDU_Mbstatet@@@std@@2V0locale@2@A@@YAXXZ ; ??id$initializer$@?$codecvt@DDU_Mbstatet@@@std@@2P6AXXZA@@3P6AXXZA
CRT$XCU	ENDS
;	COMDAT CRT$XCU
CRT$XCU	SEGMENT
??id$initializer$@?$numpunct@D@std@@2P6AXXZA@@3P6AXXZA DD FLAT:??__E?id@?$numpunct@D@std@@2V0locale@2@A@@YAXXZ ; ??id$initializer$@?$numpunct@D@std@@2P6AXXZA@@3P6AXXZA
CRT$XCU	ENDS
;	COMDAT CRT$XCU
CRT$XCU	SEGMENT
??id$initializer$@?$num_get@DV?$istreambuf_iterator@DU?$char_traits@D@std@@@std@@@std@@2P6AXXZA@@3P6AXXZA DD FLAT:??__E?id@?$num_get@DV?$istreambuf_iterator@DU?$char_traits@D@std@@@std@@@std@@2V0locale@2@A@@YAXXZ ; ??id$initializer$@?$num_get@DV?$istreambuf_iterator@DU?$char_traits@D@std@@@std@@@std@@2P6AXXZA@@3P6AXXZA
CRT$XCU	ENDS
; Function compile flags: /Odtp /RTCsu
; File C:\Program Files\Microsoft Visual Studio\2022\Community\VC\Tools\MSVC\14.32.31326\include\xutility
;	COMDAT ??$_Voidify_iter@PAPAVRaven_PathPlanner@@@std@@YAPAXPAPAVRaven_PathPlanner@@@Z
_TEXT	SEGMENT
__It$ = 8						; size = 4
??$_Voidify_iter@PAPAVRaven_PathPlanner@@@std@@YAPAXPAPAVRaven_PathPlanner@@@Z PROC ; std::_Voidify_iter<Raven_PathPlanner * *>, COMDAT

; 123  : _NODISCARD constexpr void* _Voidify_iter(_Iter _It) noexcept {

	push	ebp
	mov	ebp, esp

; 124  :     if constexpr (is_pointer_v<_Iter>) {
; 125  :         return const_cast<void*>(static_cast<const volatile void*>(_It));

	mov	eax, DWORD PTR __It$[ebp]

; 126  :     } else {
; 127  :         return const_cast<void*>(static_cast<const volatile void*>(_STD addressof(*_It)));
; 128  :     }
; 129  : }

	pop	ebp
	ret	0
??$_Voidify_iter@PAPAVRaven_PathPlanner@@@std@@YAPAXPAPAVRaven_PathPlanner@@@Z ENDP ; std::_Voidify_iter<Raven_PathPlanner * *>
_TEXT	ENDS
; Function compile flags: /Odtp /RTCsu
; File C:\Program Files\Microsoft Visual Studio\2022\Community\VC\Tools\MSVC\14.32.31326\include\xutility
;	COMDAT ??$_Voidify_iter@PAN@std@@YAPAXPAN@Z
_TEXT	SEGMENT
__It$ = 8						; size = 4
??$_Voidify_iter@PAN@std@@YAPAXPAN@Z PROC		; std::_Voidify_iter<double *>, COMDAT

; 123  : _NODISCARD constexpr void* _Voidify_iter(_Iter _It) noexcept {

	push	ebp
	mov	ebp, esp

; 124  :     if constexpr (is_pointer_v<_Iter>) {
; 125  :         return const_cast<void*>(static_cast<const volatile void*>(_It));

	mov	eax, DWORD PTR __It$[ebp]

; 126  :     } else {
; 127  :         return const_cast<void*>(static_cast<const volatile void*>(_STD addressof(*_It)));
; 128  :     }
; 129  : }

	pop	ebp
	ret	0
??$_Voidify_iter@PAN@std@@YAPAXPAN@Z ENDP		; std::_Voidify_iter<double *>
_TEXT	ENDS
; Function compile flags: /Odtp /RTCsu
; File C:\Program Files\Microsoft Visual Studio\2022\Community\VC\Tools\MSVC\14.32.31326\include\xutility
;	COMDAT ??$_Voidify_iter@PAPBVNavGraphEdge@@@std@@YAPAXPAPBVNavGraphEdge@@@Z
_TEXT	SEGMENT
__It$ = 8						; size = 4
??$_Voidify_iter@PAPBVNavGraphEdge@@@std@@YAPAXPAPBVNavGraphEdge@@@Z PROC ; std::_Voidify_iter<NavGraphEdge const * *>, COMDAT

; 123  : _NODISCARD constexpr void* _Voidify_iter(_Iter _It) noexcept {

	push	ebp
	mov	ebp, esp

; 124  :     if constexpr (is_pointer_v<_Iter>) {
; 125  :         return const_cast<void*>(static_cast<const volatile void*>(_It));

	mov	eax, DWORD PTR __It$[ebp]

; 126  :     } else {
; 127  :         return const_cast<void*>(static_cast<const volatile void*>(_STD addressof(*_It)));
; 128  :     }
; 129  : }

	pop	ebp
	ret	0
??$_Voidify_iter@PAPBVNavGraphEdge@@@std@@YAPAXPAPBVNavGraphEdge@@@Z ENDP ; std::_Voidify_iter<NavGraphEdge const * *>
_TEXT	ENDS
; Function compile flags: /Odtp /RTCsu
; File C:\Program Files\Microsoft Visual Studio\2022\Community\VC\Tools\MSVC\14.32.31326\include\type_traits
;	COMDAT ??$forward@ABQAU?$_List_node@HPAX@std@@@std@@YAABQAU?$_List_node@HPAX@0@ABQAU10@@Z
_TEXT	SEGMENT
__Arg$ = 8						; size = 4
??$forward@ABQAU?$_List_node@HPAX@std@@@std@@YAABQAU?$_List_node@HPAX@0@ABQAU10@@Z PROC ; std::forward<std::_List_node<int,void *> * const &>, COMDAT

; 1341 :     remove_reference_t<_Ty>& _Arg) noexcept { // forward an lvalue as either an lvalue or an rvalue

	push	ebp
	mov	ebp, esp

; 1342 :     return static_cast<_Ty&&>(_Arg);

	mov	eax, DWORD PTR __Arg$[ebp]

; 1343 : }

	pop	ebp
	ret	0
??$forward@ABQAU?$_List_node@HPAX@std@@@std@@YAABQAU?$_List_node@HPAX@0@ABQAU10@@Z ENDP ; std::forward<std::_List_node<int,void *> * const &>
_TEXT	ENDS
; Function compile flags: /Odtp /RTCsu
; File C:\Program Files\Microsoft Visual Studio\2022\Community\VC\Tools\MSVC\14.32.31326\include\type_traits
;	COMDAT ??$forward@ABQAU?$_List_node@PAVRaven_PathPlanner@@PAX@std@@@std@@YAABQAU?$_List_node@PAVRaven_PathPlanner@@PAX@0@ABQAU10@@Z
_TEXT	SEGMENT
__Arg$ = 8						; size = 4
??$forward@ABQAU?$_List_node@PAVRaven_PathPlanner@@PAX@std@@@std@@YAABQAU?$_List_node@PAVRaven_PathPlanner@@PAX@0@ABQAU10@@Z PROC ; std::forward<std::_List_node<Raven_PathPlanner *,void *> * const &>, COMDAT

; 1341 :     remove_reference_t<_Ty>& _Arg) noexcept { // forward an lvalue as either an lvalue or an rvalue

	push	ebp
	mov	ebp, esp

; 1342 :     return static_cast<_Ty&&>(_Arg);

	mov	eax, DWORD PTR __Arg$[ebp]

; 1343 : }

	pop	ebp
	ret	0
??$forward@ABQAU?$_List_node@PAVRaven_PathPlanner@@PAX@std@@@std@@YAABQAU?$_List_node@PAVRaven_PathPlanner@@PAX@0@ABQAU10@@Z ENDP ; std::forward<std::_List_node<Raven_PathPlanner *,void *> * const &>
_TEXT	ENDS
; Function compile flags: /Odtp /RTCsu
; File C:\Program Files\Microsoft Visual Studio\2022\Community\VC\Tools\MSVC\14.32.31326\include\xutility
;	COMDAT ??$_Voidify_iter@PAPAU?$_List_node@PAVRaven_PathPlanner@@PAX@std@@@std@@YAPAXPAPAU?$_List_node@PAVRaven_PathPlanner@@PAX@0@@Z
_TEXT	SEGMENT
__It$ = 8						; size = 4
??$_Voidify_iter@PAPAU?$_List_node@PAVRaven_PathPlanner@@PAX@std@@@std@@YAPAXPAPAU?$_List_node@PAVRaven_PathPlanner@@PAX@0@@Z PROC ; std::_Voidify_iter<std::_List_node<Raven_PathPlanner *,void *> * *>, COMDAT

; 123  : _NODISCARD constexpr void* _Voidify_iter(_Iter _It) noexcept {

	push	ebp
	mov	ebp, esp

; 124  :     if constexpr (is_pointer_v<_Iter>) {
; 125  :         return const_cast<void*>(static_cast<const volatile void*>(_It));

	mov	eax, DWORD PTR __It$[ebp]

; 126  :     } else {
; 127  :         return const_cast<void*>(static_cast<const volatile void*>(_STD addressof(*_It)));
; 128  :     }
; 129  : }

	pop	ebp
	ret	0
??$_Voidify_iter@PAPAU?$_List_node@PAVRaven_PathPlanner@@PAX@std@@@std@@YAPAXPAPAU?$_List_node@PAVRaven_PathPlanner@@PAX@0@@Z ENDP ; std::_Voidify_iter<std::_List_node<Raven_PathPlanner *,void *> * *>
_TEXT	ENDS
; Function compile flags: /Odtp /RTCsu
; File C:\Program Files\Microsoft Visual Studio\2022\Community\VC\Tools\MSVC\14.32.31326\include\xmemory
;	COMDAT ??$construct@PAVRaven_PathPlanner@@ABQAV1@@?$_Default_allocator_traits@V?$allocator@U?$_List_node@PAVRaven_PathPlanner@@PAX@std@@@std@@@std@@SAXAAV?$allocator@U?$_List_node@PAVRaven_PathPlanner@@PAX@std@@@1@QAPAVRaven_PathPlanner@@ABQAV3@@Z
_TEXT	SEGMENT
$T1 = -4						; size = 4
___formal$ = 8						; size = 4
__Ptr$ = 12						; size = 4
_<_Args_0>$ = 16					; size = 4
??$construct@PAVRaven_PathPlanner@@ABQAV1@@?$_Default_allocator_traits@V?$allocator@U?$_List_node@PAVRaven_PathPlanner@@PAX@std@@@std@@@std@@SAXAAV?$allocator@U?$_List_node@PAVRaven_PathPlanner@@PAX@std@@@1@QAPAVRaven_PathPlanner@@ABQAV3@@Z PROC ; std::_Default_allocator_traits<std::allocator<std::_List_node<Raven_PathPlanner *,void *> > >::construct<Raven_PathPlanner *,Raven_PathPlanner * const &>, COMDAT

; 673  :     static _CONSTEXPR20 void construct(_Alloc&, _Objty* const _Ptr, _Types&&... _Args) {

	push	ebp
	mov	ebp, esp
	push	ecx
	mov	DWORD PTR [ebp-4], -858993460		; ccccccccH

; 674  : #if _HAS_CXX20
; 675  :         if (_STD is_constant_evaluated()) {
; 676  :             _STD construct_at(_Ptr, _STD forward<_Types>(_Args)...);
; 677  :         } else
; 678  : #endif // _HAS_CXX20
; 679  :         {
; 680  :             ::new (_Voidify_iter(_Ptr)) _Objty(_STD forward<_Types>(_Args)...);

	mov	eax, DWORD PTR __Ptr$[ebp]
	push	eax
	call	??$_Voidify_iter@PAPAVRaven_PathPlanner@@@std@@YAPAXPAPAVRaven_PathPlanner@@@Z ; std::_Voidify_iter<Raven_PathPlanner * *>
	add	esp, 4
	push	eax
	push	4
	call	??2@YAPAXIPAX@Z				; operator new
	add	esp, 8
	mov	DWORD PTR $T1[ebp], eax
	mov	ecx, DWORD PTR _<_Args_0>$[ebp]
	push	ecx
	call	??$forward@ABQAVRaven_PathPlanner@@@std@@YAABQAVRaven_PathPlanner@@ABQAV1@@Z ; std::forward<Raven_PathPlanner * const &>
	add	esp, 4
	mov	edx, DWORD PTR $T1[ebp]
	mov	eax, DWORD PTR [eax]
	mov	DWORD PTR [edx], eax

; 681  :         }
; 682  :     }

	add	esp, 4
	cmp	ebp, esp
	call	__RTC_CheckEsp
	mov	esp, ebp
	pop	ebp
	ret	0
??$construct@PAVRaven_PathPlanner@@ABQAV1@@?$_Default_allocator_traits@V?$allocator@U?$_List_node@PAVRaven_PathPlanner@@PAX@std@@@std@@@std@@SAXAAV?$allocator@U?$_List_node@PAVRaven_PathPlanner@@PAX@std@@@1@QAPAVRaven_PathPlanner@@ABQAV3@@Z ENDP ; std::_Default_allocator_traits<std::allocator<std::_List_node<Raven_PathPlanner *,void *> > >::construct<Raven_PathPlanner *,Raven_PathPlanner * const &>
_TEXT	ENDS
; Function compile flags: /Odtp /RTCsu
; File C:\Program Files\Microsoft Visual Studio\2022\Community\VC\Tools\MSVC\14.32.31326\include\xmemory
;	COMDAT ??$construct@HABH@?$_Default_allocator_traits@V?$allocator@U?$_List_node@HPAX@std@@@std@@@std@@SAXAAV?$allocator@U?$_List_node@HPAX@std@@@1@QAHABH@Z
_TEXT	SEGMENT
$T1 = -4						; size = 4
___formal$ = 8						; size = 4
__Ptr$ = 12						; size = 4
_<_Args_0>$ = 16					; size = 4
??$construct@HABH@?$_Default_allocator_traits@V?$allocator@U?$_List_node@HPAX@std@@@std@@@std@@SAXAAV?$allocator@U?$_List_node@HPAX@std@@@1@QAHABH@Z PROC ; std::_Default_allocator_traits<std::allocator<std::_List_node<int,void *> > >::construct<int,int const &>, COMDAT

; 673  :     static _CONSTEXPR20 void construct(_Alloc&, _Objty* const _Ptr, _Types&&... _Args) {

	push	ebp
	mov	ebp, esp
	push	ecx
	mov	DWORD PTR [ebp-4], -858993460		; ccccccccH

; 674  : #if _HAS_CXX20
; 675  :         if (_STD is_constant_evaluated()) {
; 676  :             _STD construct_at(_Ptr, _STD forward<_Types>(_Args)...);
; 677  :         } else
; 678  : #endif // _HAS_CXX20
; 679  :         {
; 680  :             ::new (_Voidify_iter(_Ptr)) _Objty(_STD forward<_Types>(_Args)...);

	mov	eax, DWORD PTR __Ptr$[ebp]
	push	eax
	call	??$_Voidify_iter@PAH@std@@YAPAXPAH@Z	; std::_Voidify_iter<int *>
	add	esp, 4
	push	eax
	push	4
	call	??2@YAPAXIPAX@Z				; operator new
	add	esp, 8
	mov	DWORD PTR $T1[ebp], eax
	mov	ecx, DWORD PTR _<_Args_0>$[ebp]
	push	ecx
	call	??$forward@ABH@std@@YAABHABH@Z		; std::forward<int const &>
	add	esp, 4
	mov	edx, DWORD PTR $T1[ebp]
	mov	eax, DWORD PTR [eax]
	mov	DWORD PTR [edx], eax

; 681  :         }
; 682  :     }

	add	esp, 4
	cmp	ebp, esp
	call	__RTC_CheckEsp
	mov	esp, ebp
	pop	ebp
	ret	0
??$construct@HABH@?$_Default_allocator_traits@V?$allocator@U?$_List_node@HPAX@std@@@std@@@std@@SAXAAV?$allocator@U?$_List_node@HPAX@std@@@1@QAHABH@Z ENDP ; std::_Default_allocator_traits<std::allocator<std::_List_node<int,void *> > >::construct<int,int const &>
_TEXT	ENDS
; Function compile flags: /Odtp /RTCsu
; File C:\Program Files\Microsoft Visual Studio\2022\Community\VC\Tools\MSVC\14.32.31326\include\xutility
;	COMDAT ??$_Voidify_iter@PAH@std@@YAPAXPAH@Z
_TEXT	SEGMENT
__It$ = 8						; size = 4
??$_Voidify_iter@PAH@std@@YAPAXPAH@Z PROC		; std::_Voidify_iter<int *>, COMDAT

; 123  : _NODISCARD constexpr void* _Voidify_iter(_Iter _It) noexcept {

	push	ebp
	mov	ebp, esp

; 124  :     if constexpr (is_pointer_v<_Iter>) {
; 125  :         return const_cast<void*>(static_cast<const volatile void*>(_It));

	mov	eax, DWORD PTR __It$[ebp]

; 126  :     } else {
; 127  :         return const_cast<void*>(static_cast<const volatile void*>(_STD addressof(*_It)));
; 128  :     }
; 129  : }

	pop	ebp
	ret	0
??$_Voidify_iter@PAH@std@@YAPAXPAH@Z ENDP		; std::_Voidify_iter<int *>
_TEXT	ENDS
; Function compile flags: /Odtp /RTCsu
; File C:\Program Files\Microsoft Visual Studio\2022\Community\VC\Tools\MSVC\14.32.31326\include\xmemory
;	COMDAT ??$construct@NABN@?$_Default_allocator_traits@V?$allocator@N@std@@@std@@SAXAAV?$allocator@N@1@QANABN@Z
_TEXT	SEGMENT
$T1 = -4						; size = 4
___formal$ = 8						; size = 4
__Ptr$ = 12						; size = 4
_<_Args_0>$ = 16					; size = 4
??$construct@NABN@?$_Default_allocator_traits@V?$allocator@N@std@@@std@@SAXAAV?$allocator@N@1@QANABN@Z PROC ; std::_Default_allocator_traits<std::allocator<double> >::construct<double,double const &>, COMDAT

; 673  :     static _CONSTEXPR20 void construct(_Alloc&, _Objty* const _Ptr, _Types&&... _Args) {

	push	ebp
	mov	ebp, esp
	push	ecx
	mov	DWORD PTR [ebp-4], -858993460		; ccccccccH

; 674  : #if _HAS_CXX20
; 675  :         if (_STD is_constant_evaluated()) {
; 676  :             _STD construct_at(_Ptr, _STD forward<_Types>(_Args)...);
; 677  :         } else
; 678  : #endif // _HAS_CXX20
; 679  :         {
; 680  :             ::new (_Voidify_iter(_Ptr)) _Objty(_STD forward<_Types>(_Args)...);

	mov	eax, DWORD PTR __Ptr$[ebp]
	push	eax
	call	??$_Voidify_iter@PAN@std@@YAPAXPAN@Z	; std::_Voidify_iter<double *>
	add	esp, 4
	push	eax
	push	8
	call	??2@YAPAXIPAX@Z				; operator new
	add	esp, 8
	mov	DWORD PTR $T1[ebp], eax
	mov	ecx, DWORD PTR _<_Args_0>$[ebp]
	push	ecx
	call	??$forward@ABN@std@@YAABNABN@Z		; std::forward<double const &>
	add	esp, 4
	mov	edx, DWORD PTR $T1[ebp]
	movsd	xmm0, QWORD PTR [eax]
	movsd	QWORD PTR [edx], xmm0

; 681  :         }
; 682  :     }

	add	esp, 4
	cmp	ebp, esp
	call	__RTC_CheckEsp
	mov	esp, ebp
	pop	ebp
	ret	0
??$construct@NABN@?$_Default_allocator_traits@V?$allocator@N@std@@@std@@SAXAAV?$allocator@N@1@QANABN@Z ENDP ; std::_Default_allocator_traits<std::allocator<double> >::construct<double,double const &>
_TEXT	ENDS
; Function compile flags: /Odtp /RTCsu
; File C:\Program Files\Microsoft Visual Studio\2022\Community\VC\Tools\MSVC\14.32.31326\include\type_traits
;	COMDAT ??$forward@ABN@std@@YAABNABN@Z
_TEXT	SEGMENT
__Arg$ = 8						; size = 4
??$forward@ABN@std@@YAABNABN@Z PROC			; std::forward<double const &>, COMDAT

; 1341 :     remove_reference_t<_Ty>& _Arg) noexcept { // forward an lvalue as either an lvalue or an rvalue

	push	ebp
	mov	ebp, esp

; 1342 :     return static_cast<_Ty&&>(_Arg);

	mov	eax, DWORD PTR __Arg$[ebp]

; 1343 : }

	pop	ebp
	ret	0
??$forward@ABN@std@@YAABNABN@Z ENDP			; std::forward<double const &>
_TEXT	ENDS
; Function compile flags: /Odtp /RTCsu
; File C:\Program Files\Microsoft Visual Studio\2022\Community\VC\Tools\MSVC\14.32.31326\include\xutility
;	COMDAT ??$_To_address@PAN@std@@YA?A_PABQAN@Z
_TEXT	SEGMENT
__Val$ = 8						; size = 4
??$_To_address@PAN@std@@YA?A_PABQAN@Z PROC		; std::_To_address<double *>, COMDAT

; 3946 : _NODISCARD constexpr auto _To_address(const _Iter& _Val) noexcept {

	push	ebp
	mov	ebp, esp

; 3947 :     _STL_INTERNAL_STATIC_ASSERT(is_pointer_v<_Iter>);
; 3948 :     return _Val;

	mov	eax, DWORD PTR __Val$[ebp]
	mov	eax, DWORD PTR [eax]

; 3949 : }

	pop	ebp
	ret	0
??$_To_address@PAN@std@@YA?A_PABQAN@Z ENDP		; std::_To_address<double *>
_TEXT	ENDS
; Function compile flags: /Odtp /RTCsu
; File C:\Program Files\Microsoft Visual Studio\2022\Community\VC\Tools\MSVC\14.32.31326\include\xmemory
;	COMDAT ??$construct@PBVNavGraphEdge@@$$V@?$_Default_allocator_traits@V?$allocator@PBVNavGraphEdge@@@std@@@std@@SAXAAV?$allocator@PBVNavGraphEdge@@@1@QAPBVNavGraphEdge@@@Z
_TEXT	SEGMENT
$T1 = -8						; size = 4
$T2 = -4						; size = 4
___formal$ = 8						; size = 4
__Ptr$ = 12						; size = 4
??$construct@PBVNavGraphEdge@@$$V@?$_Default_allocator_traits@V?$allocator@PBVNavGraphEdge@@@std@@@std@@SAXAAV?$allocator@PBVNavGraphEdge@@@1@QAPBVNavGraphEdge@@@Z PROC ; std::_Default_allocator_traits<std::allocator<NavGraphEdge const *> >::construct<NavGraphEdge const *>, COMDAT

; 673  :     static _CONSTEXPR20 void construct(_Alloc&, _Objty* const _Ptr, _Types&&... _Args) {

	push	ebp
	mov	ebp, esp
	sub	esp, 8
	mov	DWORD PTR [ebp-8], -858993460		; ccccccccH
	mov	DWORD PTR [ebp-4], -858993460		; ccccccccH

; 674  : #if _HAS_CXX20
; 675  :         if (_STD is_constant_evaluated()) {
; 676  :             _STD construct_at(_Ptr, _STD forward<_Types>(_Args)...);
; 677  :         } else
; 678  : #endif // _HAS_CXX20
; 679  :         {
; 680  :             ::new (_Voidify_iter(_Ptr)) _Objty(_STD forward<_Types>(_Args)...);

	mov	DWORD PTR $T2[ebp], 4
	mov	eax, DWORD PTR __Ptr$[ebp]
	push	eax
	call	??$_Voidify_iter@PAPBVNavGraphEdge@@@std@@YAPAXPAPBVNavGraphEdge@@@Z ; std::_Voidify_iter<NavGraphEdge const * *>
	add	esp, 4
	push	eax
	mov	ecx, DWORD PTR $T2[ebp]
	push	ecx
	call	??2@YAPAXIPAX@Z				; operator new
	add	esp, 8
	mov	DWORD PTR $T1[ebp], eax
	mov	edx, DWORD PTR $T2[ebp]
	push	edx
	push	0
	mov	eax, DWORD PTR $T1[ebp]
	push	eax
	call	_memset
	add	esp, 12					; 0000000cH

; 681  :         }
; 682  :     }

	add	esp, 8
	cmp	ebp, esp
	call	__RTC_CheckEsp
	mov	esp, ebp
	pop	ebp
	ret	0
??$construct@PBVNavGraphEdge@@$$V@?$_Default_allocator_traits@V?$allocator@PBVNavGraphEdge@@@std@@@std@@SAXAAV?$allocator@PBVNavGraphEdge@@@1@QAPBVNavGraphEdge@@@Z ENDP ; std::_Default_allocator_traits<std::allocator<NavGraphEdge const *> >::construct<NavGraphEdge const *>
_TEXT	ENDS
; Function compile flags: /Odtp /RTCsu
; File C:\Program Files\Microsoft Visual Studio\2022\Community\VC\Tools\MSVC\14.32.31326\include\xmemory
;	COMDAT ??$construct@PBVNavGraphEdge@@AAPBV1@@?$_Default_allocator_traits@V?$allocator@PBVNavGraphEdge@@@std@@@std@@SAXAAV?$allocator@PBVNavGraphEdge@@@1@QAPBVNavGraphEdge@@AAPBV3@@Z
_TEXT	SEGMENT
$T1 = -4						; size = 4
___formal$ = 8						; size = 4
__Ptr$ = 12						; size = 4
_<_Args_0>$ = 16					; size = 4
??$construct@PBVNavGraphEdge@@AAPBV1@@?$_Default_allocator_traits@V?$allocator@PBVNavGraphEdge@@@std@@@std@@SAXAAV?$allocator@PBVNavGraphEdge@@@1@QAPBVNavGraphEdge@@AAPBV3@@Z PROC ; std::_Default_allocator_traits<std::allocator<NavGraphEdge const *> >::construct<NavGraphEdge const *,NavGraphEdge const * &>, COMDAT

; 673  :     static _CONSTEXPR20 void construct(_Alloc&, _Objty* const _Ptr, _Types&&... _Args) {

	push	ebp
	mov	ebp, esp
	push	ecx
	mov	DWORD PTR [ebp-4], -858993460		; ccccccccH

; 674  : #if _HAS_CXX20
; 675  :         if (_STD is_constant_evaluated()) {
; 676  :             _STD construct_at(_Ptr, _STD forward<_Types>(_Args)...);
; 677  :         } else
; 678  : #endif // _HAS_CXX20
; 679  :         {
; 680  :             ::new (_Voidify_iter(_Ptr)) _Objty(_STD forward<_Types>(_Args)...);

	mov	eax, DWORD PTR __Ptr$[ebp]
	push	eax
	call	??$_Voidify_iter@PAPBVNavGraphEdge@@@std@@YAPAXPAPBVNavGraphEdge@@@Z ; std::_Voidify_iter<NavGraphEdge const * *>
	add	esp, 4
	push	eax
	push	4
	call	??2@YAPAXIPAX@Z				; operator new
	add	esp, 8
	mov	DWORD PTR $T1[ebp], eax
	mov	ecx, DWORD PTR _<_Args_0>$[ebp]
	push	ecx
	call	??$forward@AAPBVNavGraphEdge@@@std@@YAAAPBVNavGraphEdge@@AAPBV1@@Z ; std::forward<NavGraphEdge const * &>
	add	esp, 4
	mov	edx, DWORD PTR $T1[ebp]
	mov	eax, DWORD PTR [eax]
	mov	DWORD PTR [edx], eax

; 681  :         }
; 682  :     }

	add	esp, 4
	cmp	ebp, esp
	call	__RTC_CheckEsp
	mov	esp, ebp
	pop	ebp
	ret	0
??$construct@PBVNavGraphEdge@@AAPBV1@@?$_Default_allocator_traits@V?$allocator@PBVNavGraphEdge@@@std@@@std@@SAXAAV?$allocator@PBVNavGraphEdge@@@1@QAPBVNavGraphEdge@@AAPBV3@@Z ENDP ; std::_Default_allocator_traits<std::allocator<NavGraphEdge const *> >::construct<NavGraphEdge const *,NavGraphEdge const * &>
_TEXT	ENDS
; Function compile flags: /Odtp /RTCsu
; File C:\Program Files\Microsoft Visual Studio\2022\Community\VC\Tools\MSVC\14.32.31326\include\type_traits
;	COMDAT ??$forward@AAPBVNavGraphEdge@@@std@@YAAAPBVNavGraphEdge@@AAPBV1@@Z
_TEXT	SEGMENT
__Arg$ = 8						; size = 4
??$forward@AAPBVNavGraphEdge@@@std@@YAAAPBVNavGraphEdge@@AAPBV1@@Z PROC ; std::forward<NavGraphEdge const * &>, COMDAT

; 1341 :     remove_reference_t<_Ty>& _Arg) noexcept { // forward an lvalue as either an lvalue or an rvalue

	push	ebp
	mov	ebp, esp

; 1342 :     return static_cast<_Ty&&>(_Arg);

	mov	eax, DWORD PTR __Arg$[ebp]

; 1343 : }

	pop	ebp
	ret	0
??$forward@AAPBVNavGraphEdge@@@std@@YAAAPBVNavGraphEdge@@AAPBV1@@Z ENDP ; std::forward<NavGraphEdge const * &>
_TEXT	ENDS
; Function compile flags: /Odtp /RTCsu
; File C:\Program Files\Microsoft Visual Studio\2022\Community\VC\Tools\MSVC\14.32.31326\include\xutility
;	COMDAT ??$_To_address@PAPBVNavGraphEdge@@@std@@YA?A_PABQAPBVNavGraphEdge@@@Z
_TEXT	SEGMENT
__Val$ = 8						; size = 4
??$_To_address@PAPBVNavGraphEdge@@@std@@YA?A_PABQAPBVNavGraphEdge@@@Z PROC ; std::_To_address<NavGraphEdge const * *>, COMDAT

; 3946 : _NODISCARD constexpr auto _To_address(const _Iter& _Val) noexcept {

	push	ebp
	mov	ebp, esp

; 3947 :     _STL_INTERNAL_STATIC_ASSERT(is_pointer_v<_Iter>);
; 3948 :     return _Val;

	mov	eax, DWORD PTR __Val$[ebp]
	mov	eax, DWORD PTR [eax]

; 3949 : }

	pop	ebp
	ret	0
??$_To_address@PAPBVNavGraphEdge@@@std@@YA?A_PABQAPBVNavGraphEdge@@@Z ENDP ; std::_To_address<NavGraphEdge const * *>
_TEXT	ENDS
; Function compile flags: /Odtp /RTCsu
; File C:\Program Files\Microsoft Visual Studio\2022\Community\VC\Tools\MSVC\14.32.31326\include\xutility
;	COMDAT ??$_Voidify_iter@PAVPathEdge@@@std@@YAPAXPAVPathEdge@@@Z
_TEXT	SEGMENT
__It$ = 8						; size = 4
??$_Voidify_iter@PAVPathEdge@@@std@@YAPAXPAVPathEdge@@@Z PROC ; std::_Voidify_iter<PathEdge *>, COMDAT

; 123  : _NODISCARD constexpr void* _Voidify_iter(_Iter _It) noexcept {

	push	ebp
	mov	ebp, esp

; 124  :     if constexpr (is_pointer_v<_Iter>) {
; 125  :         return const_cast<void*>(static_cast<const volatile void*>(_It));

	mov	eax, DWORD PTR __It$[ebp]

; 126  :     } else {
; 127  :         return const_cast<void*>(static_cast<const volatile void*>(_STD addressof(*_It)));
; 128  :     }
; 129  : }

	pop	ebp
	ret	0
??$_Voidify_iter@PAVPathEdge@@@std@@YAPAXPAVPathEdge@@@Z ENDP ; std::_Voidify_iter<PathEdge *>
_TEXT	ENDS
; Function compile flags: /Odtp /RTCsu
; File C:\Program Files\Microsoft Visual Studio\2022\Community\VC\Tools\MSVC\14.32.31326\include\type_traits
;	COMDAT ??$forward@V?$_List_unchecked_iterator@V?$_List_val@U?$_List_simple_types@PAVRaven_PathPlanner@@@std@@@std@@@std@@@std@@YA$$QAV?$_List_unchecked_iterator@V?$_List_val@U?$_List_simple_types@PAVRaven_PathPlanner@@@std@@@std@@@0@AAV10@@Z
_TEXT	SEGMENT
__Arg$ = 8						; size = 4
??$forward@V?$_List_unchecked_iterator@V?$_List_val@U?$_List_simple_types@PAVRaven_PathPlanner@@@std@@@std@@@std@@@std@@YA$$QAV?$_List_unchecked_iterator@V?$_List_val@U?$_List_simple_types@PAVRaven_PathPlanner@@@std@@@std@@@0@AAV10@@Z PROC ; std::forward<std::_List_unchecked_iterator<std::_List_val<std::_List_simple_types<Raven_PathPlanner *> > > >, COMDAT

; 1341 :     remove_reference_t<_Ty>& _Arg) noexcept { // forward an lvalue as either an lvalue or an rvalue

	push	ebp
	mov	ebp, esp

; 1342 :     return static_cast<_Ty&&>(_Arg);

	mov	eax, DWORD PTR __Arg$[ebp]

; 1343 : }

	pop	ebp
	ret	0
??$forward@V?$_List_unchecked_iterator@V?$_List_val@U?$_List_simple_types@PAVRaven_PathPlanner@@@std@@@std@@@std@@@std@@YA$$QAV?$_List_unchecked_iterator@V?$_List_val@U?$_List_simple_types@PAVRaven_PathPlanner@@@std@@@std@@@0@AAV10@@Z ENDP ; std::forward<std::_List_unchecked_iterator<std::_List_val<std::_List_simple_types<Raven_PathPlanner *> > > >
_TEXT	ENDS
; Function compile flags: /Odtp /RTCsu
; File C:\Program Files\Microsoft Visual Studio\2022\Community\VC\Tools\MSVC\14.32.31326\include\type_traits
;	COMDAT ??$move@AAPAU?$_List_node@HPAX@std@@@std@@YA$$QAPAU?$_List_node@HPAX@0@AAPAU10@@Z
_TEXT	SEGMENT
__Arg$ = 8						; size = 4
??$move@AAPAU?$_List_node@HPAX@std@@@std@@YA$$QAPAU?$_List_node@HPAX@0@AAPAU10@@Z PROC ; std::move<std::_List_node<int,void *> * &>, COMDAT

; 1352 : _NODISCARD constexpr remove_reference_t<_Ty>&& move(_Ty&& _Arg) noexcept { // forward _Arg as movable

	push	ebp
	mov	ebp, esp

; 1353 :     return static_cast<remove_reference_t<_Ty>&&>(_Arg);

	mov	eax, DWORD PTR __Arg$[ebp]

; 1354 : }

	pop	ebp
	ret	0
??$move@AAPAU?$_List_node@HPAX@std@@@std@@YA$$QAPAU?$_List_node@HPAX@0@AAPAU10@@Z ENDP ; std::move<std::_List_node<int,void *> * &>
_TEXT	ENDS
; Function compile flags: /Odtp /RTCsu
; File C:\Program Files\Microsoft Visual Studio\2022\Community\VC\Tools\MSVC\14.32.31326\include\xlocnum
;	COMDAT ??__E?id@?$num_get@DV?$istreambuf_iterator@DU?$char_traits@D@std@@@std@@@std@@2V0locale@2@A@@YAXXZ
text$di	SEGMENT
??__E?id@?$num_get@DV?$istreambuf_iterator@DU?$char_traits@D@std@@@std@@@std@@2V0locale@2@A@@YAXXZ PROC ; `dynamic initializer for 'std::num_get<char,std::istreambuf_iterator<char,std::char_traits<char> > >::id'', COMDAT

; 1133 : __PURE_APPDOMAIN_GLOBAL locale::id num_get<_Elem, _InIt>::id;

	push	ebp
	mov	ebp, esp
	push	0
	mov	ecx, OFFSET ?id@?$num_get@DV?$istreambuf_iterator@DU?$char_traits@D@std@@@std@@@std@@2V0locale@2@A ; std::num_get<char,std::istreambuf_iterator<char,std::char_traits<char> > >::id
	call	??0id@locale@std@@QAE@I@Z		; std::locale::id::id
	cmp	ebp, esp
	call	__RTC_CheckEsp
	pop	ebp
	ret	0
??__E?id@?$num_get@DV?$istreambuf_iterator@DU?$char_traits@D@std@@@std@@@std@@2V0locale@2@A@@YAXXZ ENDP ; `dynamic initializer for 'std::num_get<char,std::istreambuf_iterator<char,std::char_traits<char> > >::id''
text$di	ENDS
; Function compile flags: /Odtp /RTCsu
; File C:\Program Files\Microsoft Visual Studio\2022\Community\VC\Tools\MSVC\14.32.31326\include\xutility
;	COMDAT ??$_Construct_in_place@PAU?$_List_node@HPAX@std@@ABQAU12@@std@@YAXAAPAU?$_List_node@HPAX@0@ABQAU10@@Z
_TEXT	SEGMENT
$T1 = -4						; size = 4
__Obj$ = 8						; size = 4
_<_Args_0>$ = 12					; size = 4
??$_Construct_in_place@PAU?$_List_node@HPAX@std@@ABQAU12@@std@@YAXAAPAU?$_List_node@HPAX@0@ABQAU10@@Z PROC ; std::_Construct_in_place<std::_List_node<int,void *> *,std::_List_node<int,void *> * const &>, COMDAT

; 142  :     is_nothrow_constructible_v<_Ty, _Types...>) {

	push	ebp
	mov	ebp, esp
	push	ecx
	mov	DWORD PTR [ebp-4], -858993460		; ccccccccH

; 143  : #if _HAS_CXX20
; 144  :     if (_STD is_constant_evaluated()) {
; 145  :         _STD construct_at(_STD addressof(_Obj), _STD forward<_Types>(_Args)...);
; 146  :     } else
