; Listing generated by Microsoft (R) Optimizing Compiler Version 19.32.31329.0 

	TITLE	C:\Users\lsy01\OneDrive\바탕 화면\3-2_Study\인공지능\Source\VS2010\Buckland_Chapter7 to 10_Raven\Debug\Raven_Game.obj
	.686P
	.XMM
	include listing.inc
	.model	flat

INCLUDELIB LIBCMTD
INCLUDELIB OLDNAMES

CONST	SEGMENT
$SG198023 DB	'invalid argument', 00H
	ORG $+3
$SG198024 DB	'%s', 00H
	ORG $+1
$SG198025 DB	'C:\Program Files\Microsoft Visual Studio\2022\Community\'
	DB	'VC\Tools\MSVC\14.32.31326\include\xmemory', 00H
	ORG $+2
$SG198027 DB	00H, 00H
	ORG $+2
$SG198026 DB	'C', 00H, ':', 00H, '\', 00H, 'P', 00H, 'r', 00H, 'o', 00H
	DB	'g', 00H, 'r', 00H, 'a', 00H, 'm', 00H, ' ', 00H, 'F', 00H, 'i'
	DB	00H, 'l', 00H, 'e', 00H, 's', 00H, '\', 00H, 'M', 00H, 'i', 00H
	DB	'c', 00H, 'r', 00H, 'o', 00H, 's', 00H, 'o', 00H, 'f', 00H, 't'
	DB	00H, ' ', 00H, 'V', 00H, 'i', 00H, 's', 00H, 'u', 00H, 'a', 00H
	DB	'l', 00H, ' ', 00H, 'S', 00H, 't', 00H, 'u', 00H, 'd', 00H, 'i'
	DB	00H, 'o', 00H, '\', 00H, '2', 00H, '0', 00H, '2', 00H, '2', 00H
	DB	'\', 00H, 'C', 00H, 'o', 00H, 'm', 00H, 'm', 00H, 'u', 00H, 'n'
	DB	00H, 'i', 00H, 't', 00H, 'y', 00H, '\', 00H, 'V', 00H, 'C', 00H
	DB	'\', 00H, 'T', 00H, 'o', 00H, 'o', 00H, 'l', 00H, 's', 00H, '\'
	DB	00H, 'M', 00H, 'S', 00H, 'V', 00H, 'C', 00H, '\', 00H, '1', 00H
	DB	'4', 00H, '.', 00H, '3', 00H, '2', 00H, '.', 00H, '3', 00H, '1'
	DB	00H, '3', 00H, '2', 00H, '6', 00H, '\', 00H, 'i', 00H, 'n', 00H
	DB	'c', 00H, 'l', 00H, 'u', 00H, 'd', 00H, 'e', 00H, '\', 00H, 'x'
	DB	00H, 'm', 00H, 'e', 00H, 'm', 00H, 'o', 00H, 'r', 00H, 'y', 00H
	DB	00H, 00H
$SG198028 DB	'"', 00H, 'i', 00H, 'n', 00H, 'v', 00H, 'a', 00H, 'l', 00H
	DB	'i', 00H, 'd', 00H, ' ', 00H, 'a', 00H, 'r', 00H, 'g', 00H, 'u'
	DB	00H, 'm', 00H, 'e', 00H, 'n', 00H, 't', 00H, '"', 00H, 00H, 00H
	ORG $+2
$SG182233 DB	'StartMap', 00H
	ORG $+3
$SG198317 DB	'C:\Program Files\Microsoft Visual Studio\2022\Community\'
	DB	'VC\Tools\MSVC\14.32.31326\include\xlocale', 00H
	ORG $+2
?colors@@3QBKB DD 0ffH					; colors
	DD	0ff0000H
	DD	0ff00H
	DD	00H
	DD	0c8c8ffH
	DD	0c8c8c8H
	DD	0ffffH
	DD	0aaffH
	DD	0aa00ffH
	DD	05a85H
	DD	0ffffffH
	DD	06400H
	DD	0ffff00H
	DD	0c8c8c8H
	DD	0e6e6ffH
$SG183838 DB	'Map has no spawn points!', 00H
	ORG $+3
$SG183954 DB	'GraveLifetime', 00H
	ORG $+2
$SG183956 DB	'MaxSearchCyclesPerUpdateStep', 00H
	ORG $+3
$SG183959 DB	'NumBots', 00H
$SG184949 DB	'Queuing', 00H
CONST	ENDS
PUBLIC	?__empty_global_delete@@YAXPAX@Z		; __empty_global_delete
PUBLIC	?__empty_global_delete@@YAXPAXI@Z		; __empty_global_delete
PUBLIC	?max@?$numeric_limits@H@std@@SAHXZ		; std::numeric_limits<int>::max
PUBLIC	?epsilon@?$numeric_limits@N@std@@SANXZ		; std::numeric_limits<double>::epsilon
PUBLIC	??2@YAPAXIPAX@Z					; operator new
PUBLIC	??0exception@std@@QAE@QBD@Z			; std::exception::exception
PUBLIC	??0exception@std@@QAE@QBDH@Z			; std::exception::exception
PUBLIC	??0exception@std@@QAE@ABV01@@Z			; std::exception::exception
PUBLIC	??1exception@std@@UAE@XZ			; std::exception::~exception
PUBLIC	?what@exception@std@@UBEPBDXZ			; std::exception::what
PUBLIC	??_Gexception@std@@UAEPAXI@Z			; std::exception::`scalar deleting destructor'
PUBLIC	??0bad_alloc@std@@AAE@QBD@Z			; std::bad_alloc::bad_alloc
PUBLIC	??1bad_alloc@std@@UAE@XZ			; std::bad_alloc::~bad_alloc
PUBLIC	??0bad_alloc@std@@QAE@ABV01@@Z			; std::bad_alloc::bad_alloc
PUBLIC	??_Gbad_alloc@std@@UAEPAXI@Z			; std::bad_alloc::`scalar deleting destructor'
PUBLIC	??0bad_array_new_length@std@@QAE@XZ		; std::bad_array_new_length::bad_array_new_length
PUBLIC	??1bad_array_new_length@std@@UAE@XZ		; std::bad_array_new_length::~bad_array_new_length
PUBLIC	??0bad_array_new_length@std@@QAE@ABV01@@Z	; std::bad_array_new_length::bad_array_new_length
PUBLIC	??_Gbad_array_new_length@std@@UAEPAXI@Z		; std::bad_array_new_length::`scalar deleting destructor'
PUBLIC	?_Throw_bad_array_new_length@std@@YAXXZ		; std::_Throw_bad_array_new_length
PUBLIC	?_Allocate@_Default_allocate_traits@std@@SAPAXI@Z ; std::_Default_allocate_traits::_Allocate
PUBLIC	?_Adjust_manually_vector_aligned@std@@YAXAAPAXAAI@Z ; std::_Adjust_manually_vector_aligned
PUBLIC	??0_Container_proxy@std@@QAE@PAU_Container_base12@1@@Z ; std::_Container_proxy::_Container_proxy
PUBLIC	??0_Container_base12@std@@QAE@XZ		; std::_Container_base12::_Container_base12
PUBLIC	?_Orphan_all@_Container_base12@std@@QAEXXZ	; std::_Container_base12::_Orphan_all
PUBLIC	?_Swap_proxy_and_iterators@_Container_base12@std@@QAEXAAU12@@Z ; std::_Container_base12::_Swap_proxy_and_iterators
PUBLIC	?_Orphan_all_unlocked_v3@_Container_base12@std@@AAEXXZ ; std::_Container_base12::_Orphan_all_unlocked_v3
PUBLIC	?_Swap_proxy_and_iterators_unlocked@_Container_base12@std@@AAEXAAU12@@Z ; std::_Container_base12::_Swap_proxy_and_iterators_unlocked
PUBLIC	?_Orphan_all_locked_v3@_Container_base12@std@@AAEXXZ ; std::_Container_base12::_Orphan_all_locked_v3
PUBLIC	?_Swap_proxy_and_iterators_locked@_Container_base12@std@@AAEXAAU12@@Z ; std::_Container_base12::_Swap_proxy_and_iterators_locked
PUBLIC	??0_Iterator_base12@std@@QAE@XZ			; std::_Iterator_base12::_Iterator_base12
PUBLIC	??0_Iterator_base12@std@@QAE@ABU01@@Z		; std::_Iterator_base12::_Iterator_base12
PUBLIC	??4_Iterator_base12@std@@QAEAAU01@ABU01@@Z	; std::_Iterator_base12::operator=
PUBLIC	??1_Iterator_base12@std@@QAE@XZ			; std::_Iterator_base12::~_Iterator_base12
PUBLIC	?_Adopt@_Iterator_base12@std@@QAEXPBU_Container_base12@2@@Z ; std::_Iterator_base12::_Adopt
PUBLIC	?_Getcont@_Iterator_base12@std@@QBEPBU_Container_base12@2@XZ ; std::_Iterator_base12::_Getcont
PUBLIC	?_Assign_unlocked@_Iterator_base12@std@@AAEXABU12@@Z ; std::_Iterator_base12::_Assign_unlocked
PUBLIC	?_Assign_locked@_Iterator_base12@std@@AAEXABU12@@Z ; std::_Iterator_base12::_Assign_locked
PUBLIC	?_Adopt_unlocked@_Iterator_base12@std@@AAEXPBU_Container_base12@2@@Z ; std::_Iterator_base12::_Adopt_unlocked
PUBLIC	?_Adopt_locked@_Iterator_base12@std@@AAEXPBU_Container_base12@2@@Z ; std::_Iterator_base12::_Adopt_locked
PUBLIC	?_Orphan_me_unlocked_v3@_Iterator_base12@std@@AAEXXZ ; std::_Iterator_base12::_Orphan_me_unlocked_v3
PUBLIC	?_Orphan_me_locked_v3@_Iterator_base12@std@@AAEXXZ ; std::_Iterator_base12::_Orphan_me_locked_v3
PUBLIC	?_Release@_Basic_container_proxy_ptr12@std@@QAEXXZ ; std::_Basic_container_proxy_ptr12::_Release
PUBLIC	??0_Basic_container_proxy_ptr12@std@@IAE@XZ	; std::_Basic_container_proxy_ptr12::_Basic_container_proxy_ptr12
PUBLIC	?copy@?$_Char_traits@DH@std@@SAPADQADQBDI@Z	; std::_Char_traits<char,int>::copy
PUBLIC	?move@?$_Char_traits@DH@std@@SAPADQADQBDI@Z	; std::_Char_traits<char,int>::move
PUBLIC	?length@?$_Narrow_char_traits@DH@std@@SAIQBD@Z	; std::_Narrow_char_traits<char,int>::length
PUBLIC	?assign@?$_Narrow_char_traits@DH@std@@SAXAADABD@Z ; std::_Narrow_char_traits<char,int>::assign
PUBLIC	?_Xlen_string@std@@YAXXZ			; std::_Xlen_string
PUBLIC	??0?$allocator@D@std@@QAE@XZ			; std::allocator<char>::allocator<char>
PUBLIC	?deallocate@?$allocator@D@std@@QAEXQADI@Z	; std::allocator<char>::deallocate
PUBLIC	?allocate@?$allocator@D@std@@QAEPADI@Z		; std::allocator<char>::allocate
PUBLIC	?max_size@?$_Default_allocator_traits@V?$allocator@D@std@@@std@@SAIABV?$allocator@D@2@@Z ; std::_Default_allocator_traits<std::allocator<char> >::max_size
PUBLIC	?select_on_container_copy_construction@?$_Default_allocator_traits@V?$allocator@D@std@@@std@@SA?AV?$allocator@D@2@ABV32@@Z ; std::_Default_allocator_traits<std::allocator<char> >::select_on_container_copy_construction
PUBLIC	??0?$_String_val@U?$_Simple_types@D@std@@@std@@QAE@XZ ; std::_String_val<std::_Simple_types<char> >::_String_val<std::_Simple_types<char> >
PUBLIC	?_Myptr@?$_String_val@U?$_Simple_types@D@std@@@std@@QAEPADXZ ; std::_String_val<std::_Simple_types<char> >::_Myptr
PUBLIC	?_Myptr@?$_String_val@U?$_Simple_types@D@std@@@std@@QBEPBDXZ ; std::_String_val<std::_Simple_types<char> >::_Myptr
PUBLIC	?_Large_string_engaged@?$_String_val@U?$_Simple_types@D@std@@@std@@QBE_NXZ ; std::_String_val<std::_Simple_types<char> >::_Large_string_engaged
PUBLIC	??0_Bxty@?$_String_val@U?$_Simple_types@D@std@@@std@@QAE@XZ ; std::_String_val<std::_Simple_types<char> >::_Bxty::_Bxty
PUBLIC	??1_Bxty@?$_String_val@U?$_Simple_types@D@std@@@std@@QAE@XZ ; std::_String_val<std::_Simple_types<char> >::_Bxty::~_Bxty
PUBLIC	??1?$_String_val@U?$_Simple_types@D@std@@@std@@QAE@XZ ; std::_String_val<std::_Simple_types<char> >::~_String_val<std::_Simple_types<char> >
PUBLIC	??0?$basic_string@DU?$char_traits@D@std@@V?$allocator@D@2@@std@@QAE@QBD@Z ; std::basic_string<char,std::char_traits<char>,std::allocator<char> >::basic_string<char,std::char_traits<char>,std::allocator<char> >
PUBLIC	??0?$basic_string@DU?$char_traits@D@std@@V?$allocator@D@2@@std@@QAE@$$QAV01@@Z ; std::basic_string<char,std::char_traits<char>,std::allocator<char> >::basic_string<char,std::char_traits<char>,std::allocator<char> >
PUBLIC	??0?$basic_string@DU?$char_traits@D@std@@V?$allocator@D@2@@std@@QAE@U_String_constructor_concat_tag@1@ABV01@QBDI2I@Z ; std::basic_string<char,std::char_traits<char>,std::allocator<char> >::basic_string<char,std::char_traits<char>,std::allocator<char> >
PUBLIC	?_Memcpy_val_from@?$basic_string@DU?$char_traits@D@std@@V?$allocator@D@2@@std@@AAEXABV12@@Z ; std::basic_string<char,std::char_traits<char>,std::allocator<char> >::_Memcpy_val_from
PUBLIC	?_Take_contents@?$basic_string@DU?$char_traits@D@std@@V?$allocator@D@2@@std@@AAEXAAV12@@Z ; std::basic_string<char,std::char_traits<char>,std::allocator<char> >::_Take_contents
PUBLIC	??1?$basic_string@DU?$char_traits@D@std@@V?$allocator@D@2@@std@@QAE@XZ ; std::basic_string<char,std::char_traits<char>,std::allocator<char> >::~basic_string<char,std::char_traits<char>,std::allocator<char> >
PUBLIC	?assign@?$basic_string@DU?$char_traits@D@std@@V?$allocator@D@2@@std@@QAEAAV12@QBDI@Z ; std::basic_string<char,std::char_traits<char>,std::allocator<char> >::assign
PUBLIC	?assign@?$basic_string@DU?$char_traits@D@std@@V?$allocator@D@2@@std@@QAEAAV12@QBD@Z ; std::basic_string<char,std::char_traits<char>,std::allocator<char> >::assign
PUBLIC	?c_str@?$basic_string@DU?$char_traits@D@std@@V?$allocator@D@2@@std@@QBEPBDXZ ; std::basic_string<char,std::char_traits<char>,std::allocator<char> >::c_str
PUBLIC	?size@?$basic_string@DU?$char_traits@D@std@@V?$allocator@D@2@@std@@QBEIXZ ; std::basic_string<char,std::char_traits<char>,std::allocator<char> >::size
PUBLIC	?max_size@?$basic_string@DU?$char_traits@D@std@@V?$allocator@D@2@@std@@QBEIXZ ; std::basic_string<char,std::char_traits<char>,std::allocator<char> >::max_size
PUBLIC	?_Calculate_growth@?$basic_string@DU?$char_traits@D@std@@V?$allocator@D@2@@std@@CAIIII@Z ; std::basic_string<char,std::char_traits<char>,std::allocator<char> >::_Calculate_growth
PUBLIC	?_Calculate_growth@?$basic_string@DU?$char_traits@D@std@@V?$allocator@D@2@@std@@ABEII@Z ; std::basic_string<char,std::char_traits<char>,std::allocator<char> >::_Calculate_growth
PUBLIC	?_Tidy_init@?$basic_string@DU?$char_traits@D@std@@V?$allocator@D@2@@std@@AAEXXZ ; std::basic_string<char,std::char_traits<char>,std::allocator<char> >::_Tidy_init
PUBLIC	?_Tidy_deallocate@?$basic_string@DU?$char_traits@D@std@@V?$allocator@D@2@@std@@AAEXXZ ; std::basic_string<char,std::char_traits<char>,std::allocator<char> >::_Tidy_deallocate
PUBLIC	?_Swap_proxy_and_iterators@?$basic_string@DU?$char_traits@D@std@@V?$allocator@D@2@@std@@AAEXAAV12@@Z ; std::basic_string<char,std::char_traits<char>,std::allocator<char> >::_Swap_proxy_and_iterators
PUBLIC	?_Getal@?$basic_string@DU?$char_traits@D@std@@V?$allocator@D@2@@std@@AAEAAV?$allocator@D@2@XZ ; std::basic_string<char,std::char_traits<char>,std::allocator<char> >::_Getal
PUBLIC	?_Getal@?$basic_string@DU?$char_traits@D@std@@V?$allocator@D@2@@std@@ABEABV?$allocator@D@2@XZ ; std::basic_string<char,std::char_traits<char>,std::allocator<char> >::_Getal
PUBLIC	?_Get_first@?$_Compressed_pair@V?$allocator@D@std@@V?$_String_val@U?$_Simple_types@D@std@@@2@$00@std@@QAEAAV?$allocator@D@2@XZ ; std::_Compressed_pair<std::allocator<char>,std::_String_val<std::_Simple_types<char> >,1>::_Get_first
PUBLIC	?_Get_first@?$_Compressed_pair@V?$allocator@D@std@@V?$_String_val@U?$_Simple_types@D@std@@@2@$00@std@@QBEABV?$allocator@D@2@XZ ; std::_Compressed_pair<std::allocator<char>,std::_String_val<std::_Simple_types<char> >,1>::_Get_first
PUBLIC	??1?$_Compressed_pair@V?$allocator@D@std@@V?$_String_val@U?$_Simple_types@D@std@@@2@$00@std@@QAE@XZ ; std::_Compressed_pair<std::allocator<char>,std::_String_val<std::_Simple_types<char> >,1>::~_Compressed_pair<std::allocator<char>,std::_String_val<std::_Simple_types<char> >,1>
PUBLIC	??0runtime_error@std@@QAE@ABV?$basic_string@DU?$char_traits@D@std@@V?$allocator@D@2@@1@@Z ; std::runtime_error::runtime_error
PUBLIC	??1runtime_error@std@@UAE@XZ			; std::runtime_error::~runtime_error
PUBLIC	??0runtime_error@std@@QAE@ABV01@@Z		; std::runtime_error::runtime_error
PUBLIC	??_Gruntime_error@std@@UAEPAXI@Z		; std::runtime_error::`scalar deleting destructor'
PUBLIC	??0id@locale@std@@QAE@I@Z			; std::locale::id::id
PUBLIC	?RandInt@@YAHHH@Z				; RandInt
PUBLIC	??0Vector2D@@QAE@XZ				; Vector2D::Vector2D
PUBLIC	??0Vector2D@@QAE@NN@Z				; Vector2D::Vector2D
PUBLIC	?Length@Vector2D@@QBENXZ			; Vector2D::Length
PUBLIC	?Dot@Vector2D@@QBENABU1@@Z			; Vector2D::Dot
PUBLIC	??YVector2D@@QAEABU0@ABU0@@Z			; Vector2D::operator+=
PUBLIC	??XVector2D@@QAEABU0@ABN@Z			; Vector2D::operator*=
PUBLIC	??D@YA?AUVector2D@@ABU0@N@Z			; operator*
PUBLIC	??G@YA?AUVector2D@@ABU0@0@Z			; operator-
PUBLIC	??H@YA?AUVector2D@@ABU0@0@Z			; operator+
PUBLIC	??K@YA?AUVector2D@@ABU0@N@Z			; operator/
PUBLIC	?Vec2DNormalize@@YA?AUVector2D@@ABU1@@Z		; Vec2DNormalize
PUBLIC	?Vec2DDistance@@YANABUVector2D@@0@Z		; Vec2DDistance
PUBLIC	?Vec2DDistanceSq@@YANABUVector2D@@0@Z		; Vec2DDistanceSq
PUBLIC	?POINTStoVector@@YA?AUVector2D@@ABUtagPOINTS@@@Z ; POINTStoVector
PUBLIC	?isSecondInFOVOfFirst@@YA_NUVector2D@@00N@Z	; isSecondInFOVOfFirst
PUBLIC	?RedPen@Cgdi@@QAEXXZ				; Cgdi::RedPen
PUBLIC	?BluePen@Cgdi@@QAEXXZ				; Cgdi::BluePen
PUBLIC	?ThickRedPen@Cgdi@@QAEXXZ			; Cgdi::ThickRedPen
PUBLIC	?HollowBrush@Cgdi@@QAEXXZ			; Cgdi::HollowBrush
PUBLIC	?TextAtPos@Cgdi@@QAEXUVector2D@@ABV?$basic_string@DU?$char_traits@D@std@@V?$allocator@D@2@@std@@@Z ; Cgdi::TextAtPos
PUBLIC	?TextColor@Cgdi@@QAEXHHH@Z			; Cgdi::TextColor
PUBLIC	?Line@Cgdi@@QAEXNNNN@Z				; Cgdi::Line
PUBLIC	?Circle@Cgdi@@QAEXUVector2D@@N@Z		; Cgdi::Circle
PUBLIC	?deallocate@?$allocator@UVector2D@@@std@@QAEXQAUVector2D@@I@Z ; std::allocator<Vector2D>::deallocate
PUBLIC	??1?$vector@UVector2D@@V?$allocator@UVector2D@@@std@@@std@@QAE@XZ ; std::vector<Vector2D,std::allocator<Vector2D> >::~vector<Vector2D,std::allocator<Vector2D> >
PUBLIC	?size@?$vector@UVector2D@@V?$allocator@UVector2D@@@std@@@std@@QBEIXZ ; std::vector<Vector2D,std::allocator<Vector2D> >::size
PUBLIC	??A?$vector@UVector2D@@V?$allocator@UVector2D@@@std@@@std@@QAEAAUVector2D@@I@Z ; std::vector<Vector2D,std::allocator<Vector2D> >::operator[]
PUBLIC	?_Tidy@?$vector@UVector2D@@V?$allocator@UVector2D@@@std@@@std@@AAEXXZ ; std::vector<Vector2D,std::allocator<Vector2D> >::_Tidy
PUBLIC	?_Getal@?$vector@UVector2D@@V?$allocator@UVector2D@@@std@@@std@@AAEAAV?$allocator@UVector2D@@@2@XZ ; std::vector<Vector2D,std::allocator<Vector2D> >::_Getal
PUBLIC	?_Get_first@?$_Compressed_pair@V?$allocator@UVector2D@@@std@@V?$_Vector_val@U?$_Simple_types@UVector2D@@@std@@@2@$00@std@@QAEAAV?$allocator@UVector2D@@@2@XZ ; std::_Compressed_pair<std::allocator<Vector2D>,std::_Vector_val<std::_Simple_types<Vector2D> >,1>::_Get_first
PUBLIC	?From@Wall2D@@QBE?AUVector2D@@XZ		; Wall2D::From
PUBLIC	?To@Wall2D@@QBE?AUVector2D@@XZ			; Wall2D::To
PUBLIC	?DistToLineSegmentSq@@YANUVector2D@@00@Z	; DistToLineSegmentSq
PUBLIC	?LineIntersection2D@@YA_NUVector2D@@000@Z	; LineIntersection2D
PUBLIC	?LineSegmentCircleIntersection@@YA_NUVector2D@@00N@Z ; LineSegmentCircleIntersection
PUBLIC	?Pos@BaseGameEntity@@QBE?AUVector2D@@XZ		; BaseGameEntity::Pos
PUBLIC	?BRadius@BaseGameEntity@@QBENXZ			; BaseGameEntity::BRadius
PUBLIC	?ID@BaseGameEntity@@QBEHXZ			; BaseGameEntity::ID
PUBLIC	?GetTarget@Raven_TargetingSystem@@QBEPAVRaven_Bot@@XZ ; Raven_TargetingSystem::GetTarget
PUBLIC	?Facing@Raven_Bot@@QBE?AUVector2D@@XZ		; Raven_Bot::Facing
PUBLIC	?FieldOfView@Raven_Bot@@QBENXZ			; Raven_Bot::FieldOfView
PUBLIC	?isPossessed@Raven_Bot@@QBE_NXZ			; Raven_Bot::isPossessed
PUBLIC	?isDead@Raven_Bot@@QBE_NXZ			; Raven_Bot::isDead
PUBLIC	?isAlive@Raven_Bot@@QBE_NXZ			; Raven_Bot::isAlive
PUBLIC	?isSpawning@Raven_Bot@@QBE_NXZ			; Raven_Bot::isSpawning
PUBLIC	?SetSpawning@Raven_Bot@@QAEXXZ			; Raven_Bot::SetSpawning
PUBLIC	?GetSteering@Raven_Bot@@QAEQAVRaven_Steering@@XZ ; Raven_Bot::GetSteering
PUBLIC	?GetBrain@Raven_Bot@@QAEQAVGoal_Think@@XZ	; Raven_Bot::GetBrain
PUBLIC	?GetTargetBot@Raven_Bot@@QBEQAV1@XZ		; Raven_Bot::GetTargetBot
PUBLIC	?GetWeaponSys@Raven_Bot@@QBEQAVRaven_WeaponSystem@@XZ ; Raven_Bot::GetWeaponSys
PUBLIC	?GetSensoryMem@Raven_Bot@@QBEQAVRaven_SensoryMemory@@XZ ; Raven_Bot::GetSensoryMem
PUBLIC	??0?$allocator@PAVRaven_Bot@@@std@@QAE@XZ	; std::allocator<Raven_Bot *>::allocator<Raven_Bot *>
PUBLIC	?deallocate@?$allocator@PAVRaven_Bot@@@std@@QAEXQAPAVRaven_Bot@@I@Z ; std::allocator<Raven_Bot *>::deallocate
PUBLIC	?allocate@?$allocator@PAVRaven_Bot@@@std@@QAEPAPAVRaven_Bot@@I@Z ; std::allocator<Raven_Bot *>::allocate
PUBLIC	?max_size@?$_Default_allocator_traits@V?$allocator@PAVRaven_Bot@@@std@@@std@@SAIABV?$allocator@PAVRaven_Bot@@@2@@Z ; std::_Default_allocator_traits<std::allocator<Raven_Bot *> >::max_size
PUBLIC	??0?$allocator@U?$_List_node@PAVRaven_Bot@@PAX@std@@@std@@QAE@XZ ; std::allocator<std::_List_node<Raven_Bot *,void *> >::allocator<std::_List_node<Raven_Bot *,void *> >
PUBLIC	?deallocate@?$allocator@U?$_List_node@PAVRaven_Bot@@PAX@std@@@std@@QAEXQAU?$_List_node@PAVRaven_Bot@@PAX@2@I@Z ; std::allocator<std::_List_node<Raven_Bot *,void *> >::deallocate
PUBLIC	?allocate@?$allocator@U?$_List_node@PAVRaven_Bot@@PAX@std@@@std@@QAEPAU?$_List_node@PAVRaven_Bot@@PAX@2@I@Z ; std::allocator<std::_List_node<Raven_Bot *,void *> >::allocate
PUBLIC	?deallocate@?$_Default_allocator_traits@V?$allocator@U?$_List_node@PAVRaven_Bot@@PAX@std@@@std@@@std@@SAXAAV?$allocator@U?$_List_node@PAVRaven_Bot@@PAX@std@@@2@QAU?$_List_node@PAVRaven_Bot@@PAX@2@I@Z ; std::_Default_allocator_traits<std::allocator<std::_List_node<Raven_Bot *,void *> > >::deallocate
PUBLIC	?max_size@?$_Default_allocator_traits@V?$allocator@U?$_List_node@PAVRaven_Bot@@PAX@std@@@std@@@std@@SAIABV?$allocator@U?$_List_node@PAVRaven_Bot@@PAX@std@@@2@@Z ; std::_Default_allocator_traits<std::allocator<std::_List_node<Raven_Bot *,void *> > >::max_size
PUBLIC	??0?$list@PAVRaven_Bot@@V?$allocator@PAVRaven_Bot@@@std@@@std@@QAE@XZ ; std::list<Raven_Bot *,std::allocator<Raven_Bot *> >::list<Raven_Bot *,std::allocator<Raven_Bot *> >
PUBLIC	??1?$list@PAVRaven_Bot@@V?$allocator@PAVRaven_Bot@@@std@@@std@@QAE@XZ ; std::list<Raven_Bot *,std::allocator<Raven_Bot *> >::~list<Raven_Bot *,std::allocator<Raven_Bot *> >
PUBLIC	?begin@?$list@PAVRaven_Bot@@V?$allocator@PAVRaven_Bot@@@std@@@std@@QAE?AV?$_List_iterator@V?$_List_val@U?$_List_simple_types@PAVRaven_Bot@@@std@@@std@@@2@XZ ; std::list<Raven_Bot *,std::allocator<Raven_Bot *> >::begin
PUBLIC	?begin@?$list@PAVRaven_Bot@@V?$allocator@PAVRaven_Bot@@@std@@@std@@QBE?AV?$_List_const_iterator@V?$_List_val@U?$_List_simple_types@PAVRaven_Bot@@@std@@@std@@@2@XZ ; std::list<Raven_Bot *,std::allocator<Raven_Bot *> >::begin
PUBLIC	?end@?$list@PAVRaven_Bot@@V?$allocator@PAVRaven_Bot@@@std@@@std@@QAE?AV?$_List_iterator@V?$_List_val@U?$_List_simple_types@PAVRaven_Bot@@@std@@@std@@@2@XZ ; std::list<Raven_Bot *,std::allocator<Raven_Bot *> >::end
PUBLIC	?end@?$list@PAVRaven_Bot@@V?$allocator@PAVRaven_Bot@@@std@@@std@@QBE?AV?$_List_const_iterator@V?$_List_val@U?$_List_simple_types@PAVRaven_Bot@@@std@@@std@@@2@XZ ; std::list<Raven_Bot *,std::allocator<Raven_Bot *> >::end
PUBLIC	?max_size@?$list@PAVRaven_Bot@@V?$allocator@PAVRaven_Bot@@@std@@@std@@QBEIXZ ; std::list<Raven_Bot *,std::allocator<Raven_Bot *> >::max_size
PUBLIC	?empty@?$list@PAVRaven_Bot@@V?$allocator@PAVRaven_Bot@@@std@@@std@@QBE_NXZ ; std::list<Raven_Bot *,std::allocator<Raven_Bot *> >::empty
PUBLIC	?back@?$list@PAVRaven_Bot@@V?$allocator@PAVRaven_Bot@@@std@@@std@@QAEAAPAVRaven_Bot@@XZ ; std::list<Raven_Bot *,std::allocator<Raven_Bot *> >::back
PUBLIC	?push_back@?$list@PAVRaven_Bot@@V?$allocator@PAVRaven_Bot@@@std@@@std@@QAEXABQAVRaven_Bot@@@Z ; std::list<Raven_Bot *,std::allocator<Raven_Bot *> >::push_back
PUBLIC	?clear@?$list@PAVRaven_Bot@@V?$allocator@PAVRaven_Bot@@@std@@@std@@QAEXXZ ; std::list<Raven_Bot *,std::allocator<Raven_Bot *> >::clear
PUBLIC	?_Tidy@?$list@PAVRaven_Bot@@V?$allocator@PAVRaven_Bot@@@std@@@std@@AAEXXZ ; std::list<Raven_Bot *,std::allocator<Raven_Bot *> >::_Tidy
PUBLIC	?remove@?$list@PAVRaven_Bot@@V?$allocator@PAVRaven_Bot@@@std@@@std@@QAE@ABQAVRaven_Bot@@@Z ; std::list<Raven_Bot *,std::allocator<Raven_Bot *> >::remove
PUBLIC	?_Alloc_sentinel_and_proxy@?$list@PAVRaven_Bot@@V?$allocator@PAVRaven_Bot@@@std@@@std@@AAEXXZ ; std::list<Raven_Bot *,std::allocator<Raven_Bot *> >::_Alloc_sentinel_and_proxy
PUBLIC	?_Getal@?$list@PAVRaven_Bot@@V?$allocator@PAVRaven_Bot@@@std@@@std@@AAEAAV?$allocator@U?$_List_node@PAVRaven_Bot@@PAX@std@@@2@XZ ; std::list<Raven_Bot *,std::allocator<Raven_Bot *> >::_Getal
PUBLIC	?_Getal@?$list@PAVRaven_Bot@@V?$allocator@PAVRaven_Bot@@@std@@@std@@ABEABV?$allocator@U?$_List_node@PAVRaven_Bot@@PAX@std@@@2@XZ ; std::list<Raven_Bot *,std::allocator<Raven_Bot *> >::_Getal
PUBLIC	??0?$_List_val@U?$_List_simple_types@PAVRaven_Bot@@@std@@@std@@QAE@XZ ; std::_List_val<std::_List_simple_types<Raven_Bot *> >::_List_val<std::_List_simple_types<Raven_Bot *> >
PUBLIC	?_Orphan_ptr2@?$_List_val@U?$_List_simple_types@PAVRaven_Bot@@@std@@@std@@QAEXPAU?$_List_node@PAVRaven_Bot@@PAX@2@@Z ; std::_List_val<std::_List_simple_types<Raven_Bot *> >::_Orphan_ptr2
PUBLIC	?_Orphan_non_end@?$_List_val@U?$_List_simple_types@PAVRaven_Bot@@@std@@@std@@QAEXXZ ; std::_List_val<std::_List_simple_types<Raven_Bot *> >::_Orphan_non_end
PUBLIC	?_Get_first@?$_Compressed_pair@V?$allocator@U?$_List_node@PAVRaven_Bot@@PAX@std@@@std@@V?$_List_val@U?$_List_simple_types@PAVRaven_Bot@@@std@@@2@$00@std@@QAEAAV?$allocator@U?$_List_node@PAVRaven_Bot@@PAX@std@@@2@XZ ; std::_Compressed_pair<std::allocator<std::_List_node<Raven_Bot *,void *> >,std::_List_val<std::_List_simple_types<Raven_Bot *> >,1>::_Get_first
PUBLIC	?_Get_first@?$_Compressed_pair@V?$allocator@U?$_List_node@PAVRaven_Bot@@PAX@std@@@std@@V?$_List_val@U?$_List_simple_types@PAVRaven_Bot@@@std@@@2@$00@std@@QBEABV?$allocator@U?$_List_node@PAVRaven_Bot@@PAX@std@@@2@XZ ; std::_Compressed_pair<std::allocator<std::_List_node<Raven_Bot *,void *> >,std::_List_val<std::_List_simple_types<Raven_Bot *> >,1>::_Get_first
PUBLIC	??0?$allocator@U?$_List_node@PAVRaven_Projectile@@PAX@std@@@std@@QAE@XZ ; std::allocator<std::_List_node<Raven_Projectile *,void *> >::allocator<std::_List_node<Raven_Projectile *,void *> >
PUBLIC	?deallocate@?$allocator@U?$_List_node@PAVRaven_Projectile@@PAX@std@@@std@@QAEXQAU?$_List_node@PAVRaven_Projectile@@PAX@2@I@Z ; std::allocator<std::_List_node<Raven_Projectile *,void *> >::deallocate
PUBLIC	?allocate@?$allocator@U?$_List_node@PAVRaven_Projectile@@PAX@std@@@std@@QAEPAU?$_List_node@PAVRaven_Projectile@@PAX@2@I@Z ; std::allocator<std::_List_node<Raven_Projectile *,void *> >::allocate
PUBLIC	?deallocate@?$_Default_allocator_traits@V?$allocator@U?$_List_node@PAVRaven_Projectile@@PAX@std@@@std@@@std@@SAXAAV?$allocator@U?$_List_node@PAVRaven_Projectile@@PAX@std@@@2@QAU?$_List_node@PAVRaven_Projectile@@PAX@2@I@Z ; std::_Default_allocator_traits<std::allocator<std::_List_node<Raven_Projectile *,void *> > >::deallocate
PUBLIC	?max_size@?$_Default_allocator_traits@V?$allocator@U?$_List_node@PAVRaven_Projectile@@PAX@std@@@std@@@std@@SAIABV?$allocator@U?$_List_node@PAVRaven_Projectile@@PAX@std@@@2@@Z ; std::_Default_allocator_traits<std::allocator<std::_List_node<Raven_Projectile *,void *> > >::max_size
PUBLIC	??0?$list@PAVRaven_Projectile@@V?$allocator@PAVRaven_Projectile@@@std@@@std@@QAE@XZ ; std::list<Raven_Projectile *,std::allocator<Raven_Projectile *> >::list<Raven_Projectile *,std::allocator<Raven_Projectile *> >
PUBLIC	??1?$list@PAVRaven_Projectile@@V?$allocator@PAVRaven_Projectile@@@std@@@std@@QAE@XZ ; std::list<Raven_Projectile *,std::allocator<Raven_Projectile *> >::~list<Raven_Projectile *,std::allocator<Raven_Projectile *> >
PUBLIC	?begin@?$list@PAVRaven_Projectile@@V?$allocator@PAVRaven_Projectile@@@std@@@std@@QAE?AV?$_List_iterator@V?$_List_val@U?$_List_simple_types@PAVRaven_Projectile@@@std@@@std@@@2@XZ ; std::list<Raven_Projectile *,std::allocator<Raven_Projectile *> >::begin
PUBLIC	?end@?$list@PAVRaven_Projectile@@V?$allocator@PAVRaven_Projectile@@@std@@@std@@QAE?AV?$_List_iterator@V?$_List_val@U?$_List_simple_types@PAVRaven_Projectile@@@std@@@std@@@2@XZ ; std::list<Raven_Projectile *,std::allocator<Raven_Projectile *> >::end
PUBLIC	?_Make_iter@?$list@PAVRaven_Projectile@@V?$allocator@PAVRaven_Projectile@@@std@@@std@@QBE?AV?$_List_iterator@V?$_List_val@U?$_List_simple_types@PAVRaven_Projectile@@@std@@@std@@@2@PAU?$_List_node@PAVRaven_Projectile@@PAX@2@@Z ; std::list<Raven_Projectile *,std::allocator<Raven_Projectile *> >::_Make_iter
PUBLIC	?max_size@?$list@PAVRaven_Projectile@@V?$allocator@PAVRaven_Projectile@@@std@@@std@@QBEIXZ ; std::list<Raven_Projectile *,std::allocator<Raven_Projectile *> >::max_size
PUBLIC	?push_back@?$list@PAVRaven_Projectile@@V?$allocator@PAVRaven_Projectile@@@std@@@std@@QAEXABQAVRaven_Projectile@@@Z ; std::list<Raven_Projectile *,std::allocator<Raven_Projectile *> >::push_back
PUBLIC	?erase@?$list@PAVRaven_Projectile@@V?$allocator@PAVRaven_Projectile@@@std@@@std@@QAE?AV?$_List_iterator@V?$_List_val@U?$_List_simple_types@PAVRaven_Projectile@@@std@@@std@@@2@V?$_List_const_iterator@V?$_List_val@U?$_List_simple_types@PAVRaven_Projectile@@@std@@@std@@@2@@Z ; std::list<Raven_Projectile *,std::allocator<Raven_Projectile *> >::erase
PUBLIC	?clear@?$list@PAVRaven_Projectile@@V?$allocator@PAVRaven_Projectile@@@std@@@std@@QAEXXZ ; std::list<Raven_Projectile *,std::allocator<Raven_Projectile *> >::clear
PUBLIC	?_Tidy@?$list@PAVRaven_Projectile@@V?$allocator@PAVRaven_Projectile@@@std@@@std@@AAEXXZ ; std::list<Raven_Projectile *,std::allocator<Raven_Projectile *> >::_Tidy
PUBLIC	?_Alloc_sentinel_and_proxy@?$list@PAVRaven_Projectile@@V?$allocator@PAVRaven_Projectile@@@std@@@std@@AAEXXZ ; std::list<Raven_Projectile *,std::allocator<Raven_Projectile *> >::_Alloc_sentinel_and_proxy
PUBLIC	?_Getal@?$list@PAVRaven_Projectile@@V?$allocator@PAVRaven_Projectile@@@std@@@std@@AAEAAV?$allocator@U?$_List_node@PAVRaven_Projectile@@PAX@std@@@2@XZ ; std::list<Raven_Projectile *,std::allocator<Raven_Projectile *> >::_Getal
PUBLIC	?_Getal@?$list@PAVRaven_Projectile@@V?$allocator@PAVRaven_Projectile@@@std@@@std@@ABEABV?$allocator@U?$_List_node@PAVRaven_Projectile@@PAX@std@@@2@XZ ; std::list<Raven_Projectile *,std::allocator<Raven_Projectile *> >::_Getal
PUBLIC	??0?$_List_val@U?$_List_simple_types@PAVRaven_Projectile@@@std@@@std@@QAE@XZ ; std::_List_val<std::_List_simple_types<Raven_Projectile *> >::_List_val<std::_List_simple_types<Raven_Projectile *> >
PUBLIC	?_Orphan_ptr2@?$_List_val@U?$_List_simple_types@PAVRaven_Projectile@@@std@@@std@@QAEXPAU?$_List_node@PAVRaven_Projectile@@PAX@2@@Z ; std::_List_val<std::_List_simple_types<Raven_Projectile *> >::_Orphan_ptr2
PUBLIC	?_Orphan_non_end@?$_List_val@U?$_List_simple_types@PAVRaven_Projectile@@@std@@@std@@QAEXXZ ; std::_List_val<std::_List_simple_types<Raven_Projectile *> >::_Orphan_non_end
PUBLIC	?_Unlinknode@?$_List_val@U?$_List_simple_types@PAVRaven_Projectile@@@std@@@std@@QAEPAU?$_List_node@PAVRaven_Projectile@@PAX@2@PAU32@@Z ; std::_List_val<std::_List_simple_types<Raven_Projectile *> >::_Unlinknode
PUBLIC	?_Get_first@?$_Compressed_pair@V?$allocator@U?$_List_node@PAVRaven_Projectile@@PAX@std@@@std@@V?$_List_val@U?$_List_simple_types@PAVRaven_Projectile@@@std@@@2@$00@std@@QAEAAV?$allocator@U?$_List_node@PAVRaven_Projectile@@PAX@std@@@2@XZ ; std::_Compressed_pair<std::allocator<std::_List_node<Raven_Projectile *,void *> >,std::_List_val<std::_List_simple_types<Raven_Projectile *> >,1>::_Get_first
PUBLIC	?_Get_first@?$_Compressed_pair@V?$allocator@U?$_List_node@PAVRaven_Projectile@@PAX@std@@@std@@V?$_List_val@U?$_List_simple_types@PAVRaven_Projectile@@@std@@@2@$00@std@@QBEABV?$allocator@U?$_List_node@PAVRaven_Projectile@@PAX@std@@@2@XZ ; std::_Compressed_pair<std::allocator<std::_List_node<Raven_Projectile *,void *> >,std::_List_val<std::_List_simple_types<Raven_Projectile *> >,1>::_Get_first
PUBLIC	?Clear@Raven_Game@@AAEXXZ			; Raven_Game::Clear
PUBLIC	?AttemptToAddBot@Raven_Game@@AAE_NPAVRaven_Bot@@@Z ; Raven_Game::AttemptToAddBot
PUBLIC	?NotifyAllBotsOfRemoval@Raven_Game@@ABEXPAVRaven_Bot@@@Z ; Raven_Game::NotifyAllBotsOfRemoval
PUBLIC	??0Raven_Game@@QAE@XZ				; Raven_Game::Raven_Game
PUBLIC	??1Raven_Game@@QAE@XZ				; Raven_Game::~Raven_Game
PUBLIC	?Render@Raven_Game@@QAEXXZ			; Raven_Game::Render
PUBLIC	?Update@Raven_Game@@QAEXXZ			; Raven_Game::Update
PUBLIC	?LoadMap@Raven_Game@@QAE_NABV?$basic_string@DU?$char_traits@D@std@@V?$allocator@D@2@@std@@@Z ; Raven_Game::LoadMap
PUBLIC	?AddBots@Raven_Game@@QAEXI@Z			; Raven_Game::AddBots
PUBLIC	?AddRocket@Raven_Game@@QAEXPAVRaven_Bot@@UVector2D@@@Z ; Raven_Game::AddRocket
PUBLIC	?AddRailGunSlug@Raven_Game@@QAEXPAVRaven_Bot@@UVector2D@@@Z ; Raven_Game::AddRailGunSlug
PUBLIC	?AddShotGunPellet@Raven_Game@@QAEXPAVRaven_Bot@@UVector2D@@@Z ; Raven_Game::AddShotGunPellet
PUBLIC	?AddBolt@Raven_Game@@QAEXPAVRaven_Bot@@UVector2D@@@Z ; Raven_Game::AddBolt
PUBLIC	?RemoveBot@Raven_Game@@QAEXXZ			; Raven_Game::RemoveBot
PUBLIC	?isPathObstructed@Raven_Game@@QBE_NUVector2D@@0N@Z ; Raven_Game::isPathObstructed
PUBLIC	?GetAllBotsInFOV@Raven_Game@@QBE?AV?$vector@PAVRaven_Bot@@V?$allocator@PAVRaven_Bot@@@std@@@std@@PBVRaven_Bot@@@Z ; Raven_Game::GetAllBotsInFOV
PUBLIC	?isSecondVisibleToFirst@Raven_Game@@QBE_NPBVRaven_Bot@@0@Z ; Raven_Game::isSecondVisibleToFirst
PUBLIC	?isLOSOkay@Raven_Game@@QBE_NUVector2D@@0@Z	; Raven_Game::isLOSOkay
PUBLIC	?GetPosOfClosestSwitch@Raven_Game@@QBE?AUVector2D@@U2@I@Z ; Raven_Game::GetPosOfClosestSwitch
PUBLIC	?GetBotAtPosition@Raven_Game@@QBEPAVRaven_Bot@@UVector2D@@@Z ; Raven_Game::GetBotAtPosition
PUBLIC	?ClickRightMouseButton@Raven_Game@@QAEXUtagPOINTS@@@Z ; Raven_Game::ClickRightMouseButton
PUBLIC	?ClickLeftMouseButton@Raven_Game@@QAEXUtagPOINTS@@@Z ; Raven_Game::ClickLeftMouseButton
PUBLIC	?ExorciseAnyPossessedBot@Raven_Game@@QAEXXZ	; Raven_Game::ExorciseAnyPossessedBot
PUBLIC	?GetPlayerInput@Raven_Game@@QBEXXZ		; Raven_Game::GetPlayerInput
PUBLIC	?PossessedBot@Raven_Game@@QBEPAVRaven_Bot@@XZ	; Raven_Game::PossessedBot
PUBLIC	?ChangeWeaponOfPossessedBot@Raven_Game@@QBEXI@Z	; Raven_Game::ChangeWeaponOfPossessedBot
PUBLIC	?SeparationOn@Raven_Steering@@QAEXXZ		; Raven_Steering::SeparationOn
PUBLIC	?WallAvoidanceOn@Raven_Steering@@QAEXXZ		; Raven_Steering::WallAvoidanceOn
PUBLIC	??$?HDU?$char_traits@D@std@@V?$allocator@D@1@@std@@YA?AV?$basic_string@DU?$char_traits@D@std@@V?$allocator@D@2@@0@ABV10@QBD@Z ; std::operator+<char,std::char_traits<char>,std::allocator<char> >
PUBLIC	?PopLuaString@@YA?AV?$basic_string@DU?$char_traits@D@std@@V?$allocator@D@2@@std@@PAUlua_State@@PBD@Z ; PopLuaString
PUBLIC	?GetInt@Scriptor@@QAEHPAD@Z			; Scriptor::GetInt
PUBLIC	?GetDouble@Scriptor@@QAENPAD@Z			; Scriptor::GetDouble
PUBLIC	?GetString@Scriptor@@QAE?AV?$basic_string@DU?$char_traits@D@std@@V?$allocator@D@2@@std@@PAD@Z ; Scriptor::GetString
PUBLIC	??$PopLuaNumber@H@@YAHPAUlua_State@@PBD@Z	; PopLuaNumber<int>
PUBLIC	??$PopLuaNumber@N@@YANPAUlua_State@@PBD@Z	; PopLuaNumber<double>
PUBLIC	?begin@?$vector@PAVWall2D@@V?$allocator@PAVWall2D@@@std@@@std@@QBE?AV?$_Vector_const_iterator@V?$_Vector_val@U?$_Simple_types@PAVWall2D@@@std@@@std@@@2@XZ ; std::vector<Wall2D *,std::allocator<Wall2D *> >::begin
PUBLIC	?end@?$vector@PAVWall2D@@V?$allocator@PAVWall2D@@@std@@@std@@QBE?AV?$_Vector_const_iterator@V?$_Vector_val@U?$_Simple_types@PAVWall2D@@@std@@@std@@@2@XZ ; std::vector<Wall2D *,std::allocator<Wall2D *> >::end
PUBLIC	?begin@?$vector@PAVRaven_Door@@V?$allocator@PAVRaven_Door@@@std@@@std@@QAE?AV?$_Vector_iterator@V?$_Vector_val@U?$_Simple_types@PAVRaven_Door@@@std@@@std@@@2@XZ ; std::vector<Raven_Door *,std::allocator<Raven_Door *> >::begin
PUBLIC	?end@?$vector@PAVRaven_Door@@V?$allocator@PAVRaven_Door@@@std@@@std@@QAE?AV?$_Vector_iterator@V?$_Vector_val@U?$_Simple_types@PAVRaven_Door@@@std@@@std@@@2@XZ ; std::vector<Raven_Door *,std::allocator<Raven_Door *> >::end
PUBLIC	?GetWalls@Raven_Map@@QBEABV?$vector@PAVWall2D@@V?$allocator@PAVWall2D@@@std@@@std@@XZ ; Raven_Map::GetWalls
PUBLIC	?GetDoors@Raven_Map@@QAEAAV?$vector@PAVRaven_Door@@V?$allocator@PAVRaven_Door@@@std@@@std@@XZ ; Raven_Map::GetDoors
PUBLIC	?GetSpawnPoints@Raven_Map@@QBEABV?$vector@UVector2D@@V?$allocator@UVector2D@@@std@@@std@@XZ ; Raven_Map::GetSpawnPoints
PUBLIC	?GetRandomSpawnPoint@Raven_Map@@QAE?AUVector2D@@XZ ; Raven_Map::GetRandomSpawnPoint
PUBLIC	??_GRaven_Map@@QAEPAXI@Z			; Raven_Map::`scalar deleting destructor'
PUBLIC	?deallocate@?$_Default_allocator_traits@V?$allocator@U?$_Tree_node@U?$pair@$$CBHPAVBaseGameEntity@@@std@@PAX@std@@@std@@@std@@SAXAAV?$allocator@U?$_Tree_node@U?$pair@$$CBHPAVBaseGameEntity@@@std@@PAX@std@@@2@QAU?$_Tree_node@U?$pair@$$CBHPAVBaseGameEntity@@@std@@PAX@2@I@Z ; std::_Default_allocator_traits<std::allocator<std::_Tree_node<std::pair<int const ,BaseGameEntity *>,void *> > >::deallocate
PUBLIC	?clear@?$_Tree@V?$_Tmap_traits@HPAVBaseGameEntity@@U?$less@H@std@@V?$allocator@U?$pair@$$CBHPAVBaseGameEntity@@@std@@@3@$0A@@std@@@std@@QAEXXZ ; std::_Tree<std::_Tmap_traits<int,BaseGameEntity *,std::less<int>,std::allocator<std::pair<int const ,BaseGameEntity *> >,0> >::clear
PUBLIC	?_Getal@?$_Tree@V?$_Tmap_traits@HPAVBaseGameEntity@@U?$less@H@std@@V?$allocator@U?$pair@$$CBHPAVBaseGameEntity@@@std@@@3@$0A@@std@@@std@@IAEAAV?$allocator@U?$_Tree_node@U?$pair@$$CBHPAVBaseGameEntity@@@std@@PAX@std@@@2@XZ ; std::_Tree<std::_Tmap_traits<int,BaseGameEntity *,std::less<int>,std::allocator<std::pair<int const ,BaseGameEntity *> >,0> >::_Getal
PUBLIC	?_Get_scary@?$_Tree@V?$_Tmap_traits@HPAVBaseGameEntity@@U?$less@H@std@@V?$allocator@U?$pair@$$CBHPAVBaseGameEntity@@@std@@@3@$0A@@std@@@std@@IAEPAV?$_Tree_val@U?$_Tree_simple_types@U?$pair@$$CBHPAVBaseGameEntity@@@std@@@std@@@2@XZ ; std::_Tree<std::_Tmap_traits<int,BaseGameEntity *,std::less<int>,std::allocator<std::pair<int const ,BaseGameEntity *> >,0> >::_Get_scary
PUBLIC	?_Orphan_ptr@?$_Tree_val@U?$_Tree_simple_types@U?$pair@$$CBHPAVBaseGameEntity@@@std@@@std@@@std@@QAEXQAU?$_Tree_node@U?$pair@$$CBHPAVBaseGameEntity@@@std@@PAX@2@@Z ; std::_Tree_val<std::_Tree_simple_types<std::pair<int const ,BaseGameEntity *> > >::_Orphan_ptr
PUBLIC	?_Get_first@?$_Compressed_pair@V?$allocator@U?$_Tree_node@U?$pair@$$CBHPAVBaseGameEntity@@@std@@PAX@std@@@std@@V?$_Tree_val@U?$_Tree_simple_types@U?$pair@$$CBHPAVBaseGameEntity@@@std@@@std@@@2@$00@std@@QAEAAV?$allocator@U?$_Tree_node@U?$pair@$$CBHPAVBaseGameEntity@@@std@@PAX@std@@@2@XZ ; std::_Compressed_pair<std::allocator<std::_Tree_node<std::pair<int const ,BaseGameEntity *>,void *> >,std::_Tree_val<std::_Tree_simple_types<std::pair<int const ,BaseGameEntity *> > >,1>::_Get_first
PUBLIC	?Reset@EntityManager@@QAEXXZ			; EntityManager::Reset
PUBLIC	??0?$allocator@I@std@@QAE@XZ			; std::allocator<unsigned int>::allocator<unsigned int>
PUBLIC	?deallocate@?$allocator@I@std@@QAEXQAII@Z	; std::allocator<unsigned int>::deallocate
PUBLIC	?allocate@?$allocator@I@std@@QAEPAII@Z		; std::allocator<unsigned int>::allocate
PUBLIC	?max_size@?$_Default_allocator_traits@V?$allocator@I@std@@@std@@SAIABV?$allocator@I@2@@Z ; std::_Default_allocator_traits<std::allocator<unsigned int> >::max_size
PUBLIC	?select_on_container_copy_construction@?$_Default_allocator_traits@V?$allocator@I@std@@@std@@SA?AV?$allocator@I@2@ABV32@@Z ; std::_Default_allocator_traits<std::allocator<unsigned int> >::select_on_container_copy_construction
PUBLIC	??0?$vector@IV?$allocator@I@std@@@std@@QAE@XZ	; std::vector<unsigned int,std::allocator<unsigned int> >::vector<unsigned int,std::allocator<unsigned int> >
PUBLIC	??0?$vector@IV?$allocator@I@std@@@std@@QAE@ABV01@@Z ; std::vector<unsigned int,std::allocator<unsigned int> >::vector<unsigned int,std::allocator<unsigned int> >
PUBLIC	??4?$vector@IV?$allocator@I@std@@@std@@QAEAAV01@$$QAV01@@Z ; std::vector<unsigned int,std::allocator<unsigned int> >::operator=
PUBLIC	??1?$vector@IV?$allocator@I@std@@@std@@QAE@XZ	; std::vector<unsigned int,std::allocator<unsigned int> >::~vector<unsigned int,std::allocator<unsigned int> >
PUBLIC	?begin@?$vector@IV?$allocator@I@std@@@std@@QAE?AV?$_Vector_iterator@V?$_Vector_val@U?$_Simple_types@I@std@@@std@@@2@XZ ; std::vector<unsigned int,std::allocator<unsigned int> >::begin
PUBLIC	?end@?$vector@IV?$allocator@I@std@@@std@@QAE?AV?$_Vector_iterator@V?$_Vector_val@U?$_Simple_types@I@std@@@std@@@2@XZ ; std::vector<unsigned int,std::allocator<unsigned int> >::end
PUBLIC	?max_size@?$vector@IV?$allocator@I@std@@@std@@QBEIXZ ; std::vector<unsigned int,std::allocator<unsigned int> >::max_size
PUBLIC	?_Buy_raw@?$vector@IV?$allocator@I@std@@@std@@AAEXI@Z ; std::vector<unsigned int,std::allocator<unsigned int> >::_Buy_raw
PUBLIC	?_Buy_nonzero@?$vector@IV?$allocator@I@std@@@std@@AAEXI@Z ; std::vector<unsigned int,std::allocator<unsigned int> >::_Buy_nonzero
PUBLIC	?_Tidy@?$vector@IV?$allocator@I@std@@@std@@AAEXXZ ; std::vector<unsigned int,std::allocator<unsigned int> >::_Tidy
PUBLIC	?_Xlength@?$vector@IV?$allocator@I@std@@@std@@CAXXZ ; std::vector<unsigned int,std::allocator<unsigned int> >::_Xlength
PUBLIC	?_Getal@?$vector@IV?$allocator@I@std@@@std@@AAEAAV?$allocator@I@2@XZ ; std::vector<unsigned int,std::allocator<unsigned int> >::_Getal
PUBLIC	?_Getal@?$vector@IV?$allocator@I@std@@@std@@ABEABV?$allocator@I@2@XZ ; std::vector<unsigned int,std::allocator<unsigned int> >::_Getal
PUBLIC	??0?$_Vector_val@U?$_Simple_types@I@std@@@std@@QAE@XZ ; std::_Vector_val<std::_Simple_types<unsigned int> >::_Vector_val<std::_Simple_types<unsigned int> >
PUBLIC	?_Take_contents@?$_Vector_val@U?$_Simple_types@I@std@@@std@@QAEXAAV12@@Z ; std::_Vector_val<std::_Simple_types<unsigned int> >::_Take_contents
PUBLIC	?_Get_first@?$_Compressed_pair@V?$allocator@I@std@@V?$_Vector_val@U?$_Simple_types@I@std@@@2@$00@std@@QAEAAV?$allocator@I@2@XZ ; std::_Compressed_pair<std::allocator<unsigned int>,std::_Vector_val<std::_Simple_types<unsigned int> >,1>::_Get_first
PUBLIC	?_Get_first@?$_Compressed_pair@V?$allocator@I@std@@V?$_Vector_val@U?$_Simple_types@I@std@@@2@$00@std@@QBEABV?$allocator@I@2@XZ ; std::_Compressed_pair<std::allocator<unsigned int>,std::_Vector_val<std::_Simple_types<unsigned int> >,1>::_Get_first
PUBLIC	?GetSwitchIDs@Raven_Door@@QBE?AV?$vector@IV?$allocator@I@std@@@std@@XZ ; Raven_Door::GetSwitchIDs
PUBLIC	?deallocate@?$_Default_allocator_traits@V?$allocator@U?$_List_node@UGraveRecord@GraveMarkers@@PAX@std@@@std@@@std@@SAXAAV?$allocator@U?$_List_node@UGraveRecord@GraveMarkers@@PAX@std@@@2@QAU?$_List_node@UGraveRecord@GraveMarkers@@PAX@2@I@Z ; std::_Default_allocator_traits<std::allocator<std::_List_node<GraveMarkers::GraveRecord,void *> > >::deallocate
PUBLIC	??1?$list@UGraveRecord@GraveMarkers@@V?$allocator@UGraveRecord@GraveMarkers@@@std@@@std@@QAE@XZ ; std::list<GraveMarkers::GraveRecord,std::allocator<GraveMarkers::GraveRecord> >::~list<GraveMarkers::GraveRecord,std::allocator<GraveMarkers::GraveRecord> >
PUBLIC	?_Tidy@?$list@UGraveRecord@GraveMarkers@@V?$allocator@UGraveRecord@GraveMarkers@@@std@@@std@@AAEXXZ ; std::list<GraveMarkers::GraveRecord,std::allocator<GraveMarkers::GraveRecord> >::_Tidy
PUBLIC	?_Getal@?$list@UGraveRecord@GraveMarkers@@V?$allocator@UGraveRecord@GraveMarkers@@@std@@@std@@AAEAAV?$allocator@U?$_List_node@UGraveRecord@GraveMarkers@@PAX@std@@@2@XZ ; std::list<GraveMarkers::GraveRecord,std::allocator<GraveMarkers::GraveRecord> >::_Getal
PUBLIC	?_Get_first@?$_Compressed_pair@V?$allocator@U?$_List_node@UGraveRecord@GraveMarkers@@PAX@std@@@std@@V?$_List_val@U?$_List_simple_types@UGraveRecord@GraveMarkers@@@std@@@2@$00@std@@QAEAAV?$allocator@U?$_List_node@UGraveRecord@GraveMarkers@@PAX@std@@@2@XZ ; std::_Compressed_pair<std::allocator<std::_List_node<GraveMarkers::GraveRecord,void *> >,std::_List_val<std::_List_simple_types<GraveMarkers::GraveRecord> >,1>::_Get_first
PUBLIC	??1GraveMarkers@@QAE@XZ				; GraveMarkers::~GraveMarkers
PUBLIC	??_GGraveMarkers@@QAEPAXI@Z			; GraveMarkers::`scalar deleting destructor'
PUBLIC	?isDead@Raven_Projectile@@QBE_NXZ		; Raven_Projectile::isDead
PUBLIC	?deallocate@?$_Default_allocator_traits@V?$allocator@U?$_List_node@PAV?$Goal@VRaven_Bot@@@@PAX@std@@@std@@@std@@SAXAAV?$allocator@U?$_List_node@PAV?$Goal@VRaven_Bot@@@@PAX@std@@@2@QAU?$_List_node@PAV?$Goal@VRaven_Bot@@@@PAX@2@I@Z ; std::_Default_allocator_traits<std::allocator<std::_List_node<Goal<Raven_Bot> *,void *> > >::deallocate
PUBLIC	?begin@?$list@PAV?$Goal@VRaven_Bot@@@@V?$allocator@PAV?$Goal@VRaven_Bot@@@@@std@@@std@@QAE?AV?$_List_iterator@V?$_List_val@U?$_List_simple_types@PAV?$Goal@VRaven_Bot@@@@@std@@@std@@@2@XZ ; std::list<Goal<Raven_Bot> *,std::allocator<Goal<Raven_Bot> *> >::begin
PUBLIC	?end@?$list@PAV?$Goal@VRaven_Bot@@@@V?$allocator@PAV?$Goal@VRaven_Bot@@@@@std@@@std@@QAE?AV?$_List_iterator@V?$_List_val@U?$_List_simple_types@PAV?$Goal@VRaven_Bot@@@@@std@@@std@@@2@XZ ; std::list<Goal<Raven_Bot> *,std::allocator<Goal<Raven_Bot> *> >::end
PUBLIC	?clear@?$list@PAV?$Goal@VRaven_Bot@@@@V?$allocator@PAV?$Goal@VRaven_Bot@@@@@std@@@std@@QAEXXZ ; std::list<Goal<Raven_Bot> *,std::allocator<Goal<Raven_Bot> *> >::clear
PUBLIC	?_Getal@?$list@PAV?$Goal@VRaven_Bot@@@@V?$allocator@PAV?$Goal@VRaven_Bot@@@@@std@@@std@@AAEAAV?$allocator@U?$_List_node@PAV?$Goal@VRaven_Bot@@@@PAX@std@@@2@XZ ; std::list<Goal<Raven_Bot> *,std::allocator<Goal<Raven_Bot> *> >::_Getal
PUBLIC	?_Orphan_non_end@?$_List_val@U?$_List_simple_types@PAV?$Goal@VRaven_Bot@@@@@std@@@std@@QAEXXZ ; std::_List_val<std::_List_simple_types<Goal<Raven_Bot> *> >::_Orphan_non_end
PUBLIC	?_Get_first@?$_Compressed_pair@V?$allocator@U?$_List_node@PAV?$Goal@VRaven_Bot@@@@PAX@std@@@std@@V?$_List_val@U?$_List_simple_types@PAV?$Goal@VRaven_Bot@@@@@std@@@2@$00@std@@QAEAAV?$allocator@U?$_List_node@PAV?$Goal@VRaven_Bot@@@@PAX@std@@@2@XZ ; std::_Compressed_pair<std::allocator<std::_List_node<Goal<Raven_Bot> *,void *> >,std::_List_val<std::_List_simple_types<Goal<Raven_Bot> *> >,1>::_Get_first
PUBLIC	?RemoveAllSubgoals@?$Goal_Composite@VRaven_Bot@@@@QAEXXZ ; Goal_Composite<Raven_Bot>::RemoveAllSubgoals
PUBLIC	??0?$allocator@U?$_List_node@PAVRaven_PathPlanner@@PAX@std@@@std@@QAE@XZ ; std::allocator<std::_List_node<Raven_PathPlanner *,void *> >::allocator<std::_List_node<Raven_PathPlanner *,void *> >
PUBLIC	?allocate@?$allocator@U?$_List_node@PAVRaven_PathPlanner@@PAX@std@@@std@@QAEPAU?$_List_node@PAVRaven_PathPlanner@@PAX@2@I@Z ; std::allocator<std::_List_node<Raven_PathPlanner *,void *> >::allocate
PUBLIC	?deallocate@?$_Default_allocator_traits@V?$allocator@U?$_List_node@PAVRaven_PathPlanner@@PAX@std@@@std@@@std@@SAXAAV?$allocator@U?$_List_node@PAVRaven_PathPlanner@@PAX@std@@@2@QAU?$_List_node@PAVRaven_PathPlanner@@PAX@2@I@Z ; std::_Default_allocator_traits<std::allocator<std::_List_node<Raven_PathPlanner *,void *> > >::deallocate
PUBLIC	??0?$list@PAVRaven_PathPlanner@@V?$allocator@PAVRaven_PathPlanner@@@std@@@std@@QAE@XZ ; std::list<Raven_PathPlanner *,std::allocator<Raven_PathPlanner *> >::list<Raven_PathPlanner *,std::allocator<Raven_PathPlanner *> >
PUBLIC	??1?$list@PAVRaven_PathPlanner@@V?$allocator@PAVRaven_PathPlanner@@@std@@@std@@QAE@XZ ; std::list<Raven_PathPlanner *,std::allocator<Raven_PathPlanner *> >::~list<Raven_PathPlanner *,std::allocator<Raven_PathPlanner *> >
PUBLIC	?begin@?$list@PAVRaven_PathPlanner@@V?$allocator@PAVRaven_PathPlanner@@@std@@@std@@QAE?AV?$_List_iterator@V?$_List_val@U?$_List_simple_types@PAVRaven_PathPlanner@@@std@@@std@@@2@XZ ; std::list<Raven_PathPlanner *,std::allocator<Raven_PathPlanner *> >::begin
PUBLIC	?end@?$list@PAVRaven_PathPlanner@@V?$allocator@PAVRaven_PathPlanner@@@std@@@std@@QAE?AV?$_List_iterator@V?$_List_val@U?$_List_simple_types@PAVRaven_PathPlanner@@@std@@@std@@@2@XZ ; std::list<Raven_PathPlanner *,std::allocator<Raven_PathPlanner *> >::end
PUBLIC	?_Make_iter@?$list@PAVRaven_PathPlanner@@V?$allocator@PAVRaven_PathPlanner@@@std@@@std@@QBE?AV?$_List_iterator@V?$_List_val@U?$_List_simple_types@PAVRaven_PathPlanner@@@std@@@std@@@2@PAU?$_List_node@PAVRaven_PathPlanner@@PAX@2@@Z ; std::list<Raven_PathPlanner *,std::allocator<Raven_PathPlanner *> >::_Make_iter
PUBLIC	?empty@?$list@PAVRaven_PathPlanner@@V?$allocator@PAVRaven_PathPlanner@@@std@@@std@@QBE_NXZ ; std::list<Raven_PathPlanner *,std::allocator<Raven_PathPlanner *> >::empty
PUBLIC	?erase@?$list@PAVRaven_PathPlanner@@V?$allocator@PAVRaven_PathPlanner@@@std@@@std@@QAE?AV?$_List_iterator@V?$_List_val@U?$_List_simple_types@PAVRaven_PathPlanner@@@std@@@std@@@2@V?$_List_const_iterator@V?$_List_val@U?$_List_simple_types@PAVRaven_PathPlanner@@@std@@@std@@@2@@Z ; std::list<Raven_PathPlanner *,std::allocator<Raven_PathPlanner *> >::erase
PUBLIC	?_Tidy@?$list@PAVRaven_PathPlanner@@V?$allocator@PAVRaven_PathPlanner@@@std@@@std@@AAEXXZ ; std::list<Raven_PathPlanner *,std::allocator<Raven_PathPlanner *> >::_Tidy
PUBLIC	?_Alloc_sentinel_and_proxy@?$list@PAVRaven_PathPlanner@@V?$allocator@PAVRaven_PathPlanner@@@std@@@std@@AAEXXZ ; std::list<Raven_PathPlanner *,std::allocator<Raven_PathPlanner *> >::_Alloc_sentinel_and_proxy
PUBLIC	?_Getal@?$list@PAVRaven_PathPlanner@@V?$allocator@PAVRaven_PathPlanner@@@std@@@std@@AAEAAV?$allocator@U?$_List_node@PAVRaven_PathPlanner@@PAX@std@@@2@XZ ; std::list<Raven_PathPlanner *,std::allocator<Raven_PathPlanner *> >::_Getal
PUBLIC	??0?$_List_val@U?$_List_simple_types@PAVRaven_PathPlanner@@@std@@@std@@QAE@XZ ; std::_List_val<std::_List_simple_types<Raven_PathPlanner *> >::_List_val<std::_List_simple_types<Raven_PathPlanner *> >
PUBLIC	?_Orphan_ptr2@?$_List_val@U?$_List_simple_types@PAVRaven_PathPlanner@@@std@@@std@@QAEXPAU?$_List_node@PAVRaven_PathPlanner@@PAX@2@@Z ; std::_List_val<std::_List_simple_types<Raven_PathPlanner *> >::_Orphan_ptr2
PUBLIC	?_Unlinknode@?$_List_val@U?$_List_simple_types@PAVRaven_PathPlanner@@@std@@@std@@QAEPAU?$_List_node@PAVRaven_PathPlanner@@PAX@2@PAU32@@Z ; std::_List_val<std::_List_simple_types<Raven_PathPlanner *> >::_Unlinknode
PUBLIC	?_Get_first@?$_Compressed_pair@V?$allocator@U?$_List_node@PAVRaven_PathPlanner@@PAX@std@@@std@@V?$_List_val@U?$_List_simple_types@PAVRaven_PathPlanner@@@std@@@2@$00@std@@QAEAAV?$allocator@U?$_List_node@PAVRaven_PathPlanner@@PAX@std@@@2@XZ ; std::_Compressed_pair<std::allocator<std::_List_node<Raven_PathPlanner *,void *> >,std::_List_val<std::_List_simple_types<Raven_PathPlanner *> >,1>::_Get_first
PUBLIC	??0?$PathManager@VRaven_PathPlanner@@@@QAE@I@Z	; PathManager<Raven_PathPlanner>::PathManager<Raven_PathPlanner>
PUBLIC	?UpdateSearches@?$PathManager@VRaven_PathPlanner@@@@QAEXXZ ; PathManager<Raven_PathPlanner>::UpdateSearches
PUBLIC	??1?$PathManager@VRaven_PathPlanner@@@@QAE@XZ	; PathManager<Raven_PathPlanner>::~PathManager<Raven_PathPlanner>
PUBLIC	??_G?$PathManager@VRaven_PathPlanner@@@@QAEPAXI@Z ; PathManager<Raven_PathPlanner>::`scalar deleting destructor'
PUBLIC	??0?$_List_unchecked_const_iterator@V?$_List_val@U?$_List_simple_types@PAVRaven_Bot@@@std@@@std@@U_Iterator_base12@2@@std@@QAE@PAU?$_List_node@PAVRaven_Bot@@PAX@1@PBV?$_List_val@U?$_List_simple_types@PAVRaven_Bot@@@std@@@1@@Z ; std::_List_unchecked_const_iterator<std::_List_val<std::_List_simple_types<Raven_Bot *> >,std::_Iterator_base12>::_List_unchecked_const_iterator<std::_List_val<std::_List_simple_types<Raven_Bot *> >,std::_Iterator_base12>
PUBLIC	??1?$_List_unchecked_const_iterator@V?$_List_val@U?$_List_simple_types@PAVRaven_Bot@@@std@@@std@@U_Iterator_base12@2@@std@@QAE@XZ ; std::_List_unchecked_const_iterator<std::_List_val<std::_List_simple_types<Raven_Bot *> >,std::_Iterator_base12>::~_List_unchecked_const_iterator<std::_List_val<std::_List_simple_types<Raven_Bot *> >,std::_Iterator_base12>
PUBLIC	??0?$_List_unchecked_const_iterator@V?$_List_val@U?$_List_simple_types@PAVRaven_Bot@@@std@@@std@@U_Iterator_base12@2@@std@@QAE@$$QAV01@@Z ; std::_List_unchecked_const_iterator<std::_List_val<std::_List_simple_types<Raven_Bot *> >,std::_Iterator_base12>::_List_unchecked_const_iterator<std::_List_val<std::_List_simple_types<Raven_Bot *> >,std::_Iterator_base12>
PUBLIC	??D?$_List_const_iterator@V?$_List_val@U?$_List_simple_types@PAVRaven_Bot@@@std@@@std@@@std@@QBEABQAVRaven_Bot@@XZ ; std::_List_const_iterator<std::_List_val<std::_List_simple_types<Raven_Bot *> > >::operator*
PUBLIC	??E?$_List_const_iterator@V?$_List_val@U?$_List_simple_types@PAVRaven_Bot@@@std@@@std@@@std@@QAEAAV01@XZ ; std::_List_const_iterator<std::_List_val<std::_List_simple_types<Raven_Bot *> > >::operator++
PUBLIC	??8?$_List_const_iterator@V?$_List_val@U?$_List_simple_types@PAVRaven_Bot@@@std@@@std@@@std@@QBE_NABV01@@Z ; std::_List_const_iterator<std::_List_val<std::_List_simple_types<Raven_Bot *> > >::operator==
PUBLIC	??9?$_List_const_iterator@V?$_List_val@U?$_List_simple_types@PAVRaven_Bot@@@std@@@std@@@std@@QBE_NABV01@@Z ; std::_List_const_iterator<std::_List_val<std::_List_simple_types<Raven_Bot *> > >::operator!=
PUBLIC	??1?$_List_const_iterator@V?$_List_val@U?$_List_simple_types@PAVRaven_Bot@@@std@@@std@@@std@@QAE@XZ ; std::_List_const_iterator<std::_List_val<std::_List_simple_types<Raven_Bot *> > >::~_List_const_iterator<std::_List_val<std::_List_simple_types<Raven_Bot *> > >
PUBLIC	??0?$_List_const_iterator@V?$_List_val@U?$_List_simple_types@PAVRaven_Bot@@@std@@@std@@@std@@QAE@$$QAV01@@Z ; std::_List_const_iterator<std::_List_val<std::_List_simple_types<Raven_Bot *> > >::_List_const_iterator<std::_List_val<std::_List_simple_types<Raven_Bot *> > >
PUBLIC	??0?$_List_const_iterator@V?$_List_val@U?$_List_simple_types@PAVRaven_Bot@@@std@@@std@@@std@@QAE@PAU?$_List_node@PAVRaven_Bot@@PAX@1@PBV?$_List_val@U?$_List_simple_types@PAVRaven_Bot@@@std@@@1@@Z ; std::_List_const_iterator<std::_List_val<std::_List_simple_types<Raven_Bot *> > >::_List_const_iterator<std::_List_val<std::_List_simple_types<Raven_Bot *> > >
PUBLIC	??D?$_List_iterator@V?$_List_val@U?$_List_simple_types@PAVRaven_Bot@@@std@@@std@@@std@@QBEAAPAVRaven_Bot@@XZ ; std::_List_iterator<std::_List_val<std::_List_simple_types<Raven_Bot *> > >::operator*
PUBLIC	??E?$_List_iterator@V?$_List_val@U?$_List_simple_types@PAVRaven_Bot@@@std@@@std@@@std@@QAEAAV01@XZ ; std::_List_iterator<std::_List_val<std::_List_simple_types<Raven_Bot *> > >::operator++
PUBLIC	??1?$_List_iterator@V?$_List_val@U?$_List_simple_types@PAVRaven_Bot@@@std@@@std@@@std@@QAE@XZ ; std::_List_iterator<std::_List_val<std::_List_simple_types<Raven_Bot *> > >::~_List_iterator<std::_List_val<std::_List_simple_types<Raven_Bot *> > >
PUBLIC	??0?$_List_iterator@V?$_List_val@U?$_List_simple_types@PAVRaven_Bot@@@std@@@std@@@std@@QAE@PAU?$_List_node@PAVRaven_Bot@@PAX@1@PBV?$_List_val@U?$_List_simple_types@PAVRaven_Bot@@@std@@@1@@Z ; std::_List_iterator<std::_List_val<std::_List_simple_types<Raven_Bot *> > >::_List_iterator<std::_List_val<std::_List_simple_types<Raven_Bot *> > >
PUBLIC	??0?$_List_unchecked_const_iterator@V?$_List_val@U?$_List_simple_types@PAVRaven_Projectile@@@std@@@std@@U_Iterator_base12@2@@std@@QAE@PAU?$_List_node@PAVRaven_Projectile@@PAX@1@PBV?$_List_val@U?$_List_simple_types@PAVRaven_Projectile@@@std@@@1@@Z ; std::_List_unchecked_const_iterator<std::_List_val<std::_List_simple_types<Raven_Projectile *> >,std::_Iterator_base12>::_List_unchecked_const_iterator<std::_List_val<std::_List_simple_types<Raven_Projectile *> >,std::_Iterator_base12>
PUBLIC	??1?$_List_unchecked_const_iterator@V?$_List_val@U?$_List_simple_types@PAVRaven_Projectile@@@std@@@std@@U_Iterator_base12@2@@std@@QAE@XZ ; std::_List_unchecked_const_iterator<std::_List_val<std::_List_simple_types<Raven_Projectile *> >,std::_Iterator_base12>::~_List_unchecked_const_iterator<std::_List_val<std::_List_simple_types<Raven_Projectile *> >,std::_Iterator_base12>
PUBLIC	??0?$_List_unchecked_const_iterator@V?$_List_val@U?$_List_simple_types@PAVRaven_Projectile@@@std@@@std@@U_Iterator_base12@2@@std@@QAE@ABV01@@Z ; std::_List_unchecked_const_iterator<std::_List_val<std::_List_simple_types<Raven_Projectile *> >,std::_Iterator_base12>::_List_unchecked_const_iterator<std::_List_val<std::_List_simple_types<Raven_Projectile *> >,std::_Iterator_base12>
PUBLIC	??0?$_List_unchecked_const_iterator@V?$_List_val@U?$_List_simple_types@PAVRaven_Projectile@@@std@@@std@@U_Iterator_base12@2@@std@@QAE@$$QAV01@@Z ; std::_List_unchecked_const_iterator<std::_List_val<std::_List_simple_types<Raven_Projectile *> >,std::_Iterator_base12>::_List_unchecked_const_iterator<std::_List_val<std::_List_simple_types<Raven_Projectile *> >,std::_Iterator_base12>
PUBLIC	??4?$_List_unchecked_const_iterator@V?$_List_val@U?$_List_simple_types@PAVRaven_Projectile@@@std@@@std@@U_Iterator_base12@2@@std@@QAEAAV01@$$QAV01@@Z ; std::_List_unchecked_const_iterator<std::_List_val<std::_List_simple_types<Raven_Projectile *> >,std::_Iterator_base12>::operator=
PUBLIC	??D?$_List_const_iterator@V?$_List_val@U?$_List_simple_types@PAVRaven_Projectile@@@std@@@std@@@std@@QBEABQAVRaven_Projectile@@XZ ; std::_List_const_iterator<std::_List_val<std::_List_simple_types<Raven_Projectile *> > >::operator*
PUBLIC	??E?$_List_const_iterator@V?$_List_val@U?$_List_simple_types@PAVRaven_Projectile@@@std@@@std@@@std@@QAEAAV01@XZ ; std::_List_const_iterator<std::_List_val<std::_List_simple_types<Raven_Projectile *> > >::operator++
PUBLIC	??8?$_List_const_iterator@V?$_List_val@U?$_List_simple_types@PAVRaven_Projectile@@@std@@@std@@@std@@QBE_NABV01@@Z ; std::_List_const_iterator<std::_List_val<std::_List_simple_types<Raven_Projectile *> > >::operator==
PUBLIC	??9?$_List_const_iterator@V?$_List_val@U?$_List_simple_types@PAVRaven_Projectile@@@std@@@std@@@std@@QBE_NABV01@@Z ; std::_List_const_iterator<std::_List_val<std::_List_simple_types<Raven_Projectile *> > >::operator!=
PUBLIC	??1?$_List_const_iterator@V?$_List_val@U?$_List_simple_types@PAVRaven_Projectile@@@std@@@std@@@std@@QAE@XZ ; std::_List_const_iterator<std::_List_val<std::_List_simple_types<Raven_Projectile *> > >::~_List_const_iterator<std::_List_val<std::_List_simple_types<Raven_Projectile *> > >
PUBLIC	??0?$_List_const_iterator@V?$_List_val@U?$_List_simple_types@PAVRaven_Projectile@@@std@@@std@@@std@@QAE@ABV01@@Z ; std::_List_const_iterator<std::_List_val<std::_List_simple_types<Raven_Projectile *> > >::_List_const_iterator<std::_List_val<std::_List_simple_types<Raven_Projectile *> > >
PUBLIC	??0?$_List_const_iterator@V?$_List_val@U?$_List_simple_types@PAVRaven_Projectile@@@std@@@std@@@std@@QAE@$$QAV01@@Z ; std::_List_const_iterator<std::_List_val<std::_List_simple_types<Raven_Projectile *> > >::_List_const_iterator<std::_List_val<std::_List_simple_types<Raven_Projectile *> > >
PUBLIC	??4?$_List_const_iterator@V?$_List_val@U?$_List_simple_types@PAVRaven_Projectile@@@std@@@std@@@std@@QAEAAV01@$$QAV01@@Z ; std::_List_const_iterator<std::_List_val<std::_List_simple_types<Raven_Projectile *> > >::operator=
PUBLIC	??0?$_List_const_iterator@V?$_List_val@U?$_List_simple_types@PAVRaven_Projectile@@@std@@@std@@@std@@QAE@PAU?$_List_node@PAVRaven_Projectile@@PAX@1@PBV?$_List_val@U?$_List_simple_types@PAVRaven_Projectile@@@std@@@1@@Z ; std::_List_const_iterator<std::_List_val<std::_List_simple_types<Raven_Projectile *> > >::_List_const_iterator<std::_List_val<std::_List_simple_types<Raven_Projectile *> > >
PUBLIC	??D?$_List_iterator@V?$_List_val@U?$_List_simple_types@PAVRaven_Projectile@@@std@@@std@@@std@@QBEAAPAVRaven_Projectile@@XZ ; std::_List_iterator<std::_List_val<std::_List_simple_types<Raven_Projectile *> > >::operator*
PUBLIC	??E?$_List_iterator@V?$_List_val@U?$_List_simple_types@PAVRaven_Projectile@@@std@@@std@@@std@@QAEAAV01@XZ ; std::_List_iterator<std::_List_val<std::_List_simple_types<Raven_Projectile *> > >::operator++
PUBLIC	??1?$_List_iterator@V?$_List_val@U?$_List_simple_types@PAVRaven_Projectile@@@std@@@std@@@std@@QAE@XZ ; std::_List_iterator<std::_List_val<std::_List_simple_types<Raven_Projectile *> > >::~_List_iterator<std::_List_val<std::_List_simple_types<Raven_Projectile *> > >
PUBLIC	??4?$_List_iterator@V?$_List_val@U?$_List_simple_types@PAVRaven_Projectile@@@std@@@std@@@std@@QAEAAV01@$$QAV01@@Z ; std::_List_iterator<std::_List_val<std::_List_simple_types<Raven_Projectile *> > >::operator=
PUBLIC	??0?$_List_iterator@V?$_List_val@U?$_List_simple_types@PAVRaven_Projectile@@@std@@@std@@@std@@QAE@PAU?$_List_node@PAVRaven_Projectile@@PAX@1@PBV?$_List_val@U?$_List_simple_types@PAVRaven_Projectile@@@std@@@1@@Z ; std::_List_iterator<std::_List_val<std::_List_simple_types<Raven_Projectile *> > >::_List_iterator<std::_List_val<std::_List_simple_types<Raven_Projectile *> > >
PUBLIC	??0?$_Vector_const_iterator@V?$_Vector_val@U?$_Simple_types@PAVRaven_Door@@@std@@@std@@@std@@QAE@XZ ; std::_Vector_const_iterator<std::_Vector_val<std::_Simple_types<Raven_Door *> > >::_Vector_const_iterator<std::_Vector_val<std::_Simple_types<Raven_Door *> > >
PUBLIC	??0?$_Vector_const_iterator@V?$_Vector_val@U?$_Simple_types@PAVRaven_Door@@@std@@@std@@@std@@QAE@PAPAVRaven_Door@@PBU_Container_base12@1@@Z ; std::_Vector_const_iterator<std::_Vector_val<std::_Simple_types<Raven_Door *> > >::_Vector_const_iterator<std::_Vector_val<std::_Simple_types<Raven_Door *> > >
PUBLIC	??D?$_Vector_const_iterator@V?$_Vector_val@U?$_Simple_types@PAVRaven_Door@@@std@@@std@@@std@@QBEABQAVRaven_Door@@XZ ; std::_Vector_const_iterator<std::_Vector_val<std::_Simple_types<Raven_Door *> > >::operator*
PUBLIC	??E?$_Vector_const_iterator@V?$_Vector_val@U?$_Simple_types@PAVRaven_Door@@@std@@@std@@@std@@QAEAAV01@XZ ; std::_Vector_const_iterator<std::_Vector_val<std::_Simple_types<Raven_Door *> > >::operator++
PUBLIC	??8?$_Vector_const_iterator@V?$_Vector_val@U?$_Simple_types@PAVRaven_Door@@@std@@@std@@@std@@QBE_NABV01@@Z ; std::_Vector_const_iterator<std::_Vector_val<std::_Simple_types<Raven_Door *> > >::operator==
PUBLIC	??9?$_Vector_const_iterator@V?$_Vector_val@U?$_Simple_types@PAVRaven_Door@@@std@@@std@@@std@@QBE_NABV01@@Z ; std::_Vector_const_iterator<std::_Vector_val<std::_Simple_types<Raven_Door *> > >::operator!=
PUBLIC	?_Compat@?$_Vector_const_iterator@V?$_Vector_val@U?$_Simple_types@PAVRaven_Door@@@std@@@std@@@std@@QBEXABV12@@Z ; std::_Vector_const_iterator<std::_Vector_val<std::_Simple_types<Raven_Door *> > >::_Compat
PUBLIC	??1?$_Vector_const_iterator@V?$_Vector_val@U?$_Simple_types@PAVRaven_Door@@@std@@@std@@@std@@QAE@XZ ; std::_Vector_const_iterator<std::_Vector_val<std::_Simple_types<Raven_Door *> > >::~_Vector_const_iterator<std::_Vector_val<std::_Simple_types<Raven_Door *> > >
PUBLIC	??4?$_Vector_const_iterator@V?$_Vector_val@U?$_Simple_types@PAVRaven_Door@@@std@@@std@@@std@@QAEAAV01@$$QAV01@@Z ; std::_Vector_const_iterator<std::_Vector_val<std::_Simple_types<Raven_Door *> > >::operator=
PUBLIC	??D?$_Vector_iterator@V?$_Vector_val@U?$_Simple_types@PAVRaven_Door@@@std@@@std@@@std@@QBEAAPAVRaven_Door@@XZ ; std::_Vector_iterator<std::_Vector_val<std::_Simple_types<Raven_Door *> > >::operator*
PUBLIC	??E?$_Vector_iterator@V?$_Vector_val@U?$_Simple_types@PAVRaven_Door@@@std@@@std@@@std@@QAEAAV01@XZ ; std::_Vector_iterator<std::_Vector_val<std::_Simple_types<Raven_Door *> > >::operator++
PUBLIC	??1?$_Vector_iterator@V?$_Vector_val@U?$_Simple_types@PAVRaven_Door@@@std@@@std@@@std@@QAE@XZ ; std::_Vector_iterator<std::_Vector_val<std::_Simple_types<Raven_Door *> > >::~_Vector_iterator<std::_Vector_val<std::_Simple_types<Raven_Door *> > >
PUBLIC	??0?$_Vector_iterator@V?$_Vector_val@U?$_Simple_types@PAVRaven_Door@@@std@@@std@@@std@@QAE@PAPAVRaven_Door@@PBU_Container_base12@1@@Z ; std::_Vector_iterator<std::_Vector_val<std::_Simple_types<Raven_Door *> > >::_Vector_iterator<std::_Vector_val<std::_Simple_types<Raven_Door *> > >
PUBLIC	??R<lambda_6cf427b5d2fa492a5daa2394a94d9357>@@QBE@ABQAVRaven_Bot@@@Z ; <lambda_6cf427b5d2fa492a5daa2394a94d9357>::operator()
PUBLIC	??0<lambda_6cf427b5d2fa492a5daa2394a94d9357>@@QAE@ABQAVRaven_Bot@@@Z ; <lambda_6cf427b5d2fa492a5daa2394a94d9357>::<lambda_6cf427b5d2fa492a5daa2394a94d9357>
PUBLIC	??$remove_if@V<lambda_6cf427b5d2fa492a5daa2394a94d9357>@@@?$list@PAVRaven_Bot@@V?$allocator@PAVRaven_Bot@@@std@@@std@@QAE?A_PV<lambda_6cf427b5d2fa492a5daa2394a94d9357>@@@Z ; std::list<Raven_Bot *,std::allocator<Raven_Bot *> >::remove_if<<lambda_6cf427b5d2fa492a5daa2394a94d9357> >
PUBLIC	??0_List_node_remove_op@?$list@PAVRaven_Bot@@V?$allocator@PAVRaven_Bot@@@std@@@std@@QAE@AAV12@@Z ; std::list<Raven_Bot *,std::allocator<Raven_Bot *> >::_List_node_remove_op::_List_node_remove_op
PUBLIC	?_Transfer_back@_List_node_remove_op@?$list@PAVRaven_Bot@@V?$allocator@PAVRaven_Bot@@@std@@@std@@QAEPAU?$_List_node@PAVRaven_Bot@@PAX@3@QAU43@@Z ; std::list<Raven_Bot *,std::allocator<Raven_Bot *> >::_List_node_remove_op::_Transfer_back
PUBLIC	??1_List_node_remove_op@?$list@PAVRaven_Bot@@V?$allocator@PAVRaven_Bot@@@std@@@std@@QAE@XZ ; std::list<Raven_Bot *,std::allocator<Raven_Bot *> >::_List_node_remove_op::~_List_node_remove_op
PUBLIC	??$doWallsObstructLineSegment@V?$vector@PAVWall2D@@V?$allocator@PAVWall2D@@@std@@@std@@@@YA_NUVector2D@@0ABV?$vector@PAVWall2D@@V?$allocator@PAVWall2D@@@std@@@std@@@Z ; doWallsObstructLineSegment<std::vector<Wall2D *,std::allocator<Wall2D *> > >
PUBLIC	??$doWallsIntersectCircle@V?$vector@PAVWall2D@@V?$allocator@PAVWall2D@@@std@@@std@@@@YA_NABV?$vector@PAVWall2D@@V?$allocator@PAVWall2D@@@std@@@std@@UVector2D@@N@Z ; doWallsIntersectCircle<std::vector<Wall2D *,std::allocator<Wall2D *> > >
PUBLIC	??0?$vector@PAVRaven_Bot@@V?$allocator@PAVRaven_Bot@@@std@@@std@@QAE@XZ ; std::vector<Raven_Bot *,std::allocator<Raven_Bot *> >::vector<Raven_Bot *,std::allocator<Raven_Bot *> >
PUBLIC	??0?$vector@PAVRaven_Bot@@V?$allocator@PAVRaven_Bot@@@std@@@std@@QAE@$$QAV01@@Z ; std::vector<Raven_Bot *,std::allocator<Raven_Bot *> >::vector<Raven_Bot *,std::allocator<Raven_Bot *> >
PUBLIC	??1?$vector@PAVRaven_Bot@@V?$allocator@PAVRaven_Bot@@@std@@@std@@QAE@XZ ; std::vector<Raven_Bot *,std::allocator<Raven_Bot *> >::~vector<Raven_Bot *,std::allocator<Raven_Bot *> >
PUBLIC	?push_back@?$vector@PAVRaven_Bot@@V?$allocator@PAVRaven_Bot@@@std@@@std@@QAEXABQAVRaven_Bot@@@Z ; std::vector<Raven_Bot *,std::allocator<Raven_Bot *> >::push_back
PUBLIC	?begin@?$vector@PAVRaven_Bot@@V?$allocator@PAVRaven_Bot@@@std@@@std@@QAE?AV?$_Vector_iterator@V?$_Vector_val@U?$_Simple_types@PAVRaven_Bot@@@std@@@std@@@2@XZ ; std::vector<Raven_Bot *,std::allocator<Raven_Bot *> >::begin
PUBLIC	?end@?$vector@PAVRaven_Bot@@V?$allocator@PAVRaven_Bot@@@std@@@std@@QAE?AV?$_Vector_iterator@V?$_Vector_val@U?$_Simple_types@PAVRaven_Bot@@@std@@@std@@@2@XZ ; std::vector<Raven_Bot *,std::allocator<Raven_Bot *> >::end
PUBLIC	?max_size@?$vector@PAVRaven_Bot@@V?$allocator@PAVRaven_Bot@@@std@@@std@@QBEIXZ ; std::vector<Raven_Bot *,std::allocator<Raven_Bot *> >::max_size
PUBLIC	?capacity@?$vector@PAVRaven_Bot@@V?$allocator@PAVRaven_Bot@@@std@@@std@@QBEIXZ ; std::vector<Raven_Bot *,std::allocator<Raven_Bot *> >::capacity
PUBLIC	?_Calculate_growth@?$vector@PAVRaven_Bot@@V?$allocator@PAVRaven_Bot@@@std@@@std@@ABEII@Z ; std::vector<Raven_Bot *,std::allocator<Raven_Bot *> >::_Calculate_growth
PUBLIC	?_Change_array@?$vector@PAVRaven_Bot@@V?$allocator@PAVRaven_Bot@@@std@@@std@@AAEXQAPAVRaven_Bot@@II@Z ; std::vector<Raven_Bot *,std::allocator<Raven_Bot *> >::_Change_array
PUBLIC	?_Tidy@?$vector@PAVRaven_Bot@@V?$allocator@PAVRaven_Bot@@@std@@@std@@AAEXXZ ; std::vector<Raven_Bot *,std::allocator<Raven_Bot *> >::_Tidy
PUBLIC	?_Xlength@?$vector@PAVRaven_Bot@@V?$allocator@PAVRaven_Bot@@@std@@@std@@CAXXZ ; std::vector<Raven_Bot *,std::allocator<Raven_Bot *> >::_Xlength
PUBLIC	?_Orphan_range_unlocked@?$vector@PAVRaven_Bot@@V?$allocator@PAVRaven_Bot@@@std@@@std@@ABEXPAPAVRaven_Bot@@0@Z ; std::vector<Raven_Bot *,std::allocator<Raven_Bot *> >::_Orphan_range_unlocked
PUBLIC	?_Orphan_range_locked@?$vector@PAVRaven_Bot@@V?$allocator@PAVRaven_Bot@@@std@@@std@@ABEXPAPAVRaven_Bot@@0@Z ; std::vector<Raven_Bot *,std::allocator<Raven_Bot *> >::_Orphan_range_locked
PUBLIC	?_Orphan_range@?$vector@PAVRaven_Bot@@V?$allocator@PAVRaven_Bot@@@std@@@std@@ABEXPAPAVRaven_Bot@@0@Z ; std::vector<Raven_Bot *,std::allocator<Raven_Bot *> >::_Orphan_range
PUBLIC	?_Getal@?$vector@PAVRaven_Bot@@V?$allocator@PAVRaven_Bot@@@std@@@std@@AAEAAV?$allocator@PAVRaven_Bot@@@2@XZ ; std::vector<Raven_Bot *,std::allocator<Raven_Bot *> >::_Getal
PUBLIC	?_Getal@?$vector@PAVRaven_Bot@@V?$allocator@PAVRaven_Bot@@@std@@@std@@ABEABV?$allocator@PAVRaven_Bot@@@2@XZ ; std::vector<Raven_Bot *,std::allocator<Raven_Bot *> >::_Getal
PUBLIC	??0?$_Vector_val@U?$_Simple_types@PAVRaven_Bot@@@std@@@std@@QAE@XZ ; std::_Vector_val<std::_Simple_types<Raven_Bot *> >::_Vector_val<std::_Simple_types<Raven_Bot *> >
PUBLIC	??0?$_Vector_val@U?$_Simple_types@PAVRaven_Bot@@@std@@@std@@QAE@PAPAVRaven_Bot@@00@Z ; std::_Vector_val<std::_Simple_types<Raven_Bot *> >::_Vector_val<std::_Simple_types<Raven_Bot *> >
PUBLIC	?_Get_first@?$_Compressed_pair@V?$allocator@PAVRaven_Bot@@@std@@V?$_Vector_val@U?$_Simple_types@PAVRaven_Bot@@@std@@@2@$00@std@@QAEAAV?$allocator@PAVRaven_Bot@@@2@XZ ; std::_Compressed_pair<std::allocator<Raven_Bot *>,std::_Vector_val<std::_Simple_types<Raven_Bot *> >,1>::_Get_first
PUBLIC	?_Get_first@?$_Compressed_pair@V?$allocator@PAVRaven_Bot@@@std@@V?$_Vector_val@U?$_Simple_types@PAVRaven_Bot@@@std@@@2@$00@std@@QBEABV?$allocator@PAVRaven_Bot@@@2@XZ ; std::_Compressed_pair<std::allocator<Raven_Bot *>,std::_Vector_val<std::_Simple_types<Raven_Bot *> >,1>::_Get_first
PUBLIC	??0?$_Vector_const_iterator@V?$_Vector_val@U?$_Simple_types@I@std@@@std@@@std@@QAE@XZ ; std::_Vector_const_iterator<std::_Vector_val<std::_Simple_types<unsigned int> > >::_Vector_const_iterator<std::_Vector_val<std::_Simple_types<unsigned int> > >
PUBLIC	??0?$_Vector_const_iterator@V?$_Vector_val@U?$_Simple_types@I@std@@@std@@@std@@QAE@PAIPBU_Container_base12@1@@Z ; std::_Vector_const_iterator<std::_Vector_val<std::_Simple_types<unsigned int> > >::_Vector_const_iterator<std::_Vector_val<std::_Simple_types<unsigned int> > >
PUBLIC	??D?$_Vector_const_iterator@V?$_Vector_val@U?$_Simple_types@I@std@@@std@@@std@@QBEABIXZ ; std::_Vector_const_iterator<std::_Vector_val<std::_Simple_types<unsigned int> > >::operator*
PUBLIC	??E?$_Vector_const_iterator@V?$_Vector_val@U?$_Simple_types@I@std@@@std@@@std@@QAEAAV01@XZ ; std::_Vector_const_iterator<std::_Vector_val<std::_Simple_types<unsigned int> > >::operator++
PUBLIC	??8?$_Vector_const_iterator@V?$_Vector_val@U?$_Simple_types@I@std@@@std@@@std@@QBE_NABV01@@Z ; std::_Vector_const_iterator<std::_Vector_val<std::_Simple_types<unsigned int> > >::operator==
PUBLIC	??9?$_Vector_const_iterator@V?$_Vector_val@U?$_Simple_types@I@std@@@std@@@std@@QBE_NABV01@@Z ; std::_Vector_const_iterator<std::_Vector_val<std::_Simple_types<unsigned int> > >::operator!=
PUBLIC	?_Compat@?$_Vector_const_iterator@V?$_Vector_val@U?$_Simple_types@I@std@@@std@@@std@@QBEXABV12@@Z ; std::_Vector_const_iterator<std::_Vector_val<std::_Simple_types<unsigned int> > >::_Compat
PUBLIC	??1?$_Vector_const_iterator@V?$_Vector_val@U?$_Simple_types@I@std@@@std@@@std@@QAE@XZ ; std::_Vector_const_iterator<std::_Vector_val<std::_Simple_types<unsigned int> > >::~_Vector_const_iterator<std::_Vector_val<std::_Simple_types<unsigned int> > >
PUBLIC	??4?$_Vector_const_iterator@V?$_Vector_val@U?$_Simple_types@I@std@@@std@@@std@@QAEAAV01@$$QAV01@@Z ; std::_Vector_const_iterator<std::_Vector_val<std::_Simple_types<unsigned int> > >::operator=
PUBLIC	??D?$_Vector_iterator@V?$_Vector_val@U?$_Simple_types@I@std@@@std@@@std@@QBEAAIXZ ; std::_Vector_iterator<std::_Vector_val<std::_Simple_types<unsigned int> > >::operator*
PUBLIC	??E?$_Vector_iterator@V?$_Vector_val@U?$_Simple_types@I@std@@@std@@@std@@QAEAAV01@XZ ; std::_Vector_iterator<std::_Vector_val<std::_Simple_types<unsigned int> > >::operator++
PUBLIC	??0?$_Vector_iterator@V?$_Vector_val@U?$_Simple_types@I@std@@@std@@@std@@QAE@XZ ; std::_Vector_iterator<std::_Vector_val<std::_Simple_types<unsigned int> > >::_Vector_iterator<std::_Vector_val<std::_Simple_types<unsigned int> > >
PUBLIC	??1?$_Vector_iterator@V?$_Vector_val@U?$_Simple_types@I@std@@@std@@@std@@QAE@XZ ; std::_Vector_iterator<std::_Vector_val<std::_Simple_types<unsigned int> > >::~_Vector_iterator<std::_Vector_val<std::_Simple_types<unsigned int> > >
PUBLIC	??4?$_Vector_iterator@V?$_Vector_val@U?$_Simple_types@I@std@@@std@@@std@@QAEAAV01@$$QAV01@@Z ; std::_Vector_iterator<std::_Vector_val<std::_Simple_types<unsigned int> > >::operator=
PUBLIC	??0?$_Vector_iterator@V?$_Vector_val@U?$_Simple_types@I@std@@@std@@@std@@QAE@PAIPBU_Container_base12@1@@Z ; std::_Vector_iterator<std::_Vector_val<std::_Simple_types<unsigned int> > >::_Vector_iterator<std::_Vector_val<std::_Simple_types<unsigned int> > >
PUBLIC	??0?$_Vector_const_iterator@V?$_Vector_val@U?$_Simple_types@PAVRaven_Bot@@@std@@@std@@@std@@QAE@PAPAVRaven_Bot@@PBU_Container_base12@1@@Z ; std::_Vector_const_iterator<std::_Vector_val<std::_Simple_types<Raven_Bot *> > >::_Vector_const_iterator<std::_Vector_val<std::_Simple_types<Raven_Bot *> > >
PUBLIC	??D?$_Vector_const_iterator@V?$_Vector_val@U?$_Simple_types@PAVRaven_Bot@@@std@@@std@@@std@@QBEABQAVRaven_Bot@@XZ ; std::_Vector_const_iterator<std::_Vector_val<std::_Simple_types<Raven_Bot *> > >::operator*
PUBLIC	??E?$_Vector_const_iterator@V?$_Vector_val@U?$_Simple_types@PAVRaven_Bot@@@std@@@std@@@std@@QAEAAV01@XZ ; std::_Vector_const_iterator<std::_Vector_val<std::_Simple_types<Raven_Bot *> > >::operator++
PUBLIC	??8?$_Vector_const_iterator@V?$_Vector_val@U?$_Simple_types@PAVRaven_Bot@@@std@@@std@@@std@@QBE_NABV01@@Z ; std::_Vector_const_iterator<std::_Vector_val<std::_Simple_types<Raven_Bot *> > >::operator==
PUBLIC	??9?$_Vector_const_iterator@V?$_Vector_val@U?$_Simple_types@PAVRaven_Bot@@@std@@@std@@@std@@QBE_NABV01@@Z ; std::_Vector_const_iterator<std::_Vector_val<std::_Simple_types<Raven_Bot *> > >::operator!=
PUBLIC	?_Compat@?$_Vector_const_iterator@V?$_Vector_val@U?$_Simple_types@PAVRaven_Bot@@@std@@@std@@@std@@QBEXABV12@@Z ; std::_Vector_const_iterator<std::_Vector_val<std::_Simple_types<Raven_Bot *> > >::_Compat
PUBLIC	??1?$_Vector_const_iterator@V?$_Vector_val@U?$_Simple_types@PAVRaven_Bot@@@std@@@std@@@std@@QAE@XZ ; std::_Vector_const_iterator<std::_Vector_val<std::_Simple_types<Raven_Bot *> > >::~_Vector_const_iterator<std::_Vector_val<std::_Simple_types<Raven_Bot *> > >
PUBLIC	??0?$_Vector_const_iterator@V?$_Vector_val@U?$_Simple_types@PAVRaven_Bot@@@std@@@std@@@std@@QAE@$$QAV01@@Z ; std::_Vector_const_iterator<std::_Vector_val<std::_Simple_types<Raven_Bot *> > >::_Vector_const_iterator<std::_Vector_val<std::_Simple_types<Raven_Bot *> > >
PUBLIC	??1?$_Vector_iterator@V?$_Vector_val@U?$_Simple_types@PAVRaven_Bot@@@std@@@std@@@std@@QAE@XZ ; std::_Vector_iterator<std::_Vector_val<std::_Simple_types<Raven_Bot *> > >::~_Vector_iterator<std::_Vector_val<std::_Simple_types<Raven_Bot *> > >
PUBLIC	??0?$_Vector_iterator@V?$_Vector_val@U?$_Simple_types@PAVRaven_Bot@@@std@@@std@@@std@@QAE@PAPAVRaven_Bot@@PBU_Container_base12@1@@Z ; std::_Vector_iterator<std::_Vector_val<std::_Simple_types<Raven_Bot *> > >::_Vector_iterator<std::_Vector_val<std::_Simple_types<Raven_Bot *> > >
PUBLIC	??$addressof@V?$_Vector_val@U?$_Simple_types@PAVRaven_Bot@@@std@@@std@@@std@@YAPAV?$_Vector_val@U?$_Simple_types@PAVRaven_Bot@@@std@@@0@AAV10@@Z ; std::addressof<std::_Vector_val<std::_Simple_types<Raven_Bot *> > >
PUBLIC	??$emplace_back@ABQAVRaven_Bot@@@?$vector@PAVRaven_Bot@@V?$allocator@PAVRaven_Bot@@@std@@@std@@QAE?A_TABQAVRaven_Bot@@@Z ; std::vector<Raven_Bot *,std::allocator<Raven_Bot *> >::emplace_back<Raven_Bot * const &>
PUBLIC	??$forward@ABQAVRaven_Bot@@@std@@YAABQAVRaven_Bot@@ABQAV1@@Z ; std::forward<Raven_Bot * const &>
PUBLIC	??$_Emplace_one_at_back@ABQAVRaven_Bot@@@?$vector@PAVRaven_Bot@@V?$allocator@PAVRaven_Bot@@@std@@@std@@AAEAAPAVRaven_Bot@@ABQAV2@@Z ; std::vector<Raven_Bot *,std::allocator<Raven_Bot *> >::_Emplace_one_at_back<Raven_Bot * const &>
PUBLIC	?allocate@?$allocator@U_Container_proxy@std@@@std@@QAEPAU_Container_proxy@2@I@Z ; std::allocator<std::_Container_proxy>::allocate
PUBLIC	??$?0PAVRaven_Bot@@@?$allocator@U_Container_proxy@std@@@std@@QAE@ABV?$allocator@PAVRaven_Bot@@@1@@Z ; std::allocator<std::_Container_proxy>::allocator<std::_Container_proxy><Raven_Bot *>
PUBLIC	??$exchange@PAU_Container_proxy@std@@$$T@std@@YAPAU_Container_proxy@0@AAPAU10@$$QA$$T@Z ; std::exchange<std::_Container_proxy *,std::nullptr_t>
PUBLIC	??$_Delete_plain_internal@V?$allocator@U_Container_proxy@std@@@std@@@std@@YAXAAV?$allocator@U_Container_proxy@std@@@0@QAU_Container_proxy@0@@Z ; std::_Delete_plain_internal<std::allocator<std::_Container_proxy> >
PUBLIC	??$move@AAV?$allocator@PAVRaven_Bot@@@std@@@std@@YA$$QAV?$allocator@PAVRaven_Bot@@@0@AAV10@@Z ; std::move<std::allocator<Raven_Bot *> &>
PUBLIC	??$exchange@PAPAVRaven_Bot@@$$T@std@@YAPAPAVRaven_Bot@@AAPAPAV1@$$QA$$T@Z ; std::exchange<Raven_Bot * *,std::nullptr_t>
PUBLIC	??$?0V?$allocator@PAVRaven_Bot@@@std@@PAPAVRaven_Bot@@PAPAV2@PAPAV2@@?$_Compressed_pair@V?$allocator@PAVRaven_Bot@@@std@@V?$_Vector_val@U?$_Simple_types@PAVRaven_Bot@@@std@@@2@$00@std@@QAE@U_One_then_variadic_args_t@1@$$QAV?$allocator@PAVRaven_Bot@@@1@$$QAPAPAVRaven_Bot@@22@Z ; std::_Compressed_pair<std::allocator<Raven_Bot *>,std::_Vector_val<std::_Simple_types<Raven_Bot *> >,1>::_Compressed_pair<std::allocator<Raven_Bot *>,std::_Vector_val<std::_Simple_types<Raven_Bot *> >,1><std::allocator<Raven_Bot *>,Raven_Bot * *,Raven_Bot * *,Raven_Bot * *>
PUBLIC	??$_Alloc_proxy@V?$allocator@U_Container_proxy@std@@@std@@@_Container_base12@std@@QAEX$$QAV?$allocator@U_Container_proxy@std@@@1@@Z ; std::_Container_base12::_Alloc_proxy<std::allocator<std::_Container_proxy> >
PUBLIC	??$?0$$V@?$_Compressed_pair@V?$allocator@PAVRaven_Bot@@@std@@V?$_Vector_val@U?$_Simple_types@PAVRaven_Bot@@@std@@@2@$00@std@@QAE@U_Zero_then_variadic_args_t@1@@Z ; std::_Compressed_pair<std::allocator<Raven_Bot *>,std::_Vector_val<std::_Simple_types<Raven_Bot *> >,1>::_Compressed_pair<std::allocator<Raven_Bot *>,std::_Vector_val<std::_Simple_types<Raven_Bot *> >,1><>
PUBLIC	??$addressof@PAU?$_List_node@PAVRaven_Bot@@PAX@std@@@std@@YAPAPAU?$_List_node@PAVRaven_Bot@@PAX@0@AAPAU10@@Z ; std::addressof<std::_List_node<Raven_Bot *,void *> *>
PUBLIC	??$destroy@PAU?$_List_node@PAVRaven_Bot@@PAX@std@@@?$_Default_allocator_traits@V?$allocator@U?$_List_node@PAVRaven_Bot@@PAX@std@@@std@@@std@@SAXAAV?$allocator@U?$_List_node@PAVRaven_Bot@@PAX@std@@@1@QAPAU?$_List_node@PAVRaven_Bot@@PAX@1@@Z ; std::_Default_allocator_traits<std::allocator<std::_List_node<Raven_Bot *,void *> > >::destroy<std::_List_node<Raven_Bot *,void *> *>
PUBLIC	??$addressof@PAVRaven_Bot@@@std@@YAPAPAVRaven_Bot@@AAPAV1@@Z ; std::addressof<Raven_Bot *>
PUBLIC	??$destroy@PAVRaven_Bot@@@?$_Default_allocator_traits@V?$allocator@U?$_List_node@PAVRaven_Bot@@PAX@std@@@std@@@std@@SAXAAV?$allocator@U?$_List_node@PAVRaven_Bot@@PAX@std@@@1@QAPAVRaven_Bot@@@Z ; std::_Default_allocator_traits<std::allocator<std::_List_node<Raven_Bot *,void *> > >::destroy<Raven_Bot *>
PUBLIC	??$exchange@PAU?$_List_node@PAVRaven_Bot@@PAX@std@@PAU12@@std@@YAPAU?$_List_node@PAVRaven_Bot@@PAX@0@AAPAU10@$$QAPAU10@@Z ; std::exchange<std::_List_node<Raven_Bot *,void *> *,std::_List_node<Raven_Bot *,void *> *>
PUBLIC	??$?0U?$_List_node@PAVRaven_PathPlanner@@PAX@std@@@?$allocator@U_Container_proxy@std@@@std@@QAE@ABV?$allocator@U?$_List_node@PAVRaven_PathPlanner@@PAX@std@@@1@@Z ; std::allocator<std::_Container_proxy>::allocator<std::_Container_proxy><std::_List_node<Raven_PathPlanner *,void *> >
PUBLIC	??$?0U?$_List_node@UGraveRecord@GraveMarkers@@PAX@std@@@?$allocator@U_Container_proxy@std@@@std@@QAE@ABV?$allocator@U?$_List_node@UGraveRecord@GraveMarkers@@PAX@std@@@1@@Z ; std::allocator<std::_Container_proxy>::allocator<std::_Container_proxy><std::_List_node<GraveMarkers::GraveRecord,void *> >
PUBLIC	??$addressof@V?$_Vector_val@U?$_Simple_types@I@std@@@std@@@std@@YAPAV?$_Vector_val@U?$_Simple_types@I@std@@@0@AAV10@@Z ; std::addressof<std::_Vector_val<std::_Simple_types<unsigned int> > >
PUBLIC	??$?0I@?$allocator@U_Container_proxy@std@@@std@@QAE@ABV?$allocator@I@1@@Z ; std::allocator<std::_Container_proxy>::allocator<std::_Container_proxy><unsigned int>
PUBLIC	??$addressof@V?$vector@IV?$allocator@I@std@@@std@@@std@@YAPAV?$vector@IV?$allocator@I@std@@@0@AAV10@@Z ; std::addressof<std::vector<unsigned int,std::allocator<unsigned int> > >
PUBLIC	??$_Pocma@V?$allocator@I@std@@@std@@YAXAAV?$allocator@I@0@0@Z ; std::_Pocma<std::allocator<unsigned int> >
PUBLIC	??$?0V?$allocator@I@std@@$$V@?$_Compressed_pair@V?$allocator@I@std@@V?$_Vector_val@U?$_Simple_types@I@std@@@2@$00@std@@QAE@U_One_then_variadic_args_t@1@$$QAV?$allocator@I@1@@Z ; std::_Compressed_pair<std::allocator<unsigned int>,std::_Vector_val<std::_Simple_types<unsigned int> >,1>::_Compressed_pair<std::allocator<unsigned int>,std::_Vector_val<std::_Simple_types<unsigned int> >,1><std::allocator<unsigned int> >
PUBLIC	??$_Construct_n@ABQAIABQAI@?$vector@IV?$allocator@I@std@@@std@@AAEXIABQAI0@Z ; std::vector<unsigned int,std::allocator<unsigned int> >::_Construct_n<unsigned int * const &,unsigned int * const &>
PUBLIC	??$?0$$V@?$_Compressed_pair@V?$allocator@I@std@@V?$_Vector_val@U?$_Simple_types@I@std@@@2@$00@std@@QAE@U_Zero_then_variadic_args_t@1@@Z ; std::_Compressed_pair<std::allocator<unsigned int>,std::_Vector_val<std::_Simple_types<unsigned int> >,1>::_Compressed_pair<std::allocator<unsigned int>,std::_Vector_val<std::_Simple_types<unsigned int> >,1><>
PUBLIC	??$_Erase_tree@V?$allocator@U?$_Tree_node@U?$pair@$$CBHPAVBaseGameEntity@@@std@@PAX@std@@@std@@@?$_Tree_val@U?$_Tree_simple_types@U?$pair@$$CBHPAVBaseGameEntity@@@std@@@std@@@std@@QAEXAAV?$allocator@U?$_Tree_node@U?$pair@$$CBHPAVBaseGameEntity@@@std@@PAX@std@@@1@PAU?$_Tree_node@U?$pair@$$CBHPAVBaseGameEntity@@@std@@PAX@1@@Z ; std::_Tree_val<std::_Tree_simple_types<std::pair<int const ,BaseGameEntity *> > >::_Erase_tree<std::allocator<std::_Tree_node<std::pair<int const ,BaseGameEntity *>,void *> > >
PUBLIC	??$addressof@V?$_Vector_val@U?$_Simple_types@PAVRaven_Door@@@std@@@std@@@std@@YAPAV?$_Vector_val@U?$_Simple_types@PAVRaven_Door@@@std@@@0@AAV10@@Z ; std::addressof<std::_Vector_val<std::_Simple_types<Raven_Door *> > >
PUBLIC	??$_Free_non_head@V?$allocator@U?$_List_node@PAVRaven_Projectile@@PAX@std@@@std@@@?$_List_node@PAVRaven_Projectile@@PAX@std@@SAXAAV?$allocator@U?$_List_node@PAVRaven_Projectile@@PAX@std@@@1@PAU01@@Z ; std::_List_node<Raven_Projectile *,void *>::_Free_non_head<std::allocator<std::_List_node<Raven_Projectile *,void *> > >
PUBLIC	??$addressof@V?$_List_val@U?$_List_simple_types@PAVRaven_Projectile@@@std@@@std@@@std@@YAPAV?$_List_val@U?$_List_simple_types@PAVRaven_Projectile@@@std@@@0@AAV10@@Z ; std::addressof<std::_List_val<std::_List_simple_types<Raven_Projectile *> > >
PUBLIC	??$_Freenode@V?$allocator@U?$_List_node@PAVRaven_Projectile@@PAX@std@@@std@@@?$_List_node@PAVRaven_Projectile@@PAX@std@@SAXAAV?$allocator@U?$_List_node@PAVRaven_Projectile@@PAX@std@@@1@PAU01@@Z ; std::_List_node<Raven_Projectile *,void *>::_Freenode<std::allocator<std::_List_node<Raven_Projectile *,void *> > >
PUBLIC	??$_Emplace@ABQAVRaven_Projectile@@@?$list@PAVRaven_Projectile@@V?$allocator@PAVRaven_Projectile@@@std@@@std@@QAEPAU?$_List_node@PAVRaven_Projectile@@PAX@1@QAU21@ABQAVRaven_Projectile@@@Z ; std::list<Raven_Projectile *,std::allocator<Raven_Projectile *> >::_Emplace<Raven_Projectile * const &>
PUBLIC	??$?0U?$_List_node@PAVRaven_Projectile@@PAX@std@@@?$allocator@U_Container_proxy@std@@@std@@QAE@ABV?$allocator@U?$_List_node@PAVRaven_Projectile@@PAX@std@@@1@@Z ; std::allocator<std::_Container_proxy>::allocator<std::_Container_proxy><std::_List_node<Raven_Projectile *,void *> >
PUBLIC	??$?0$$V@?$_Compressed_pair@V?$allocator@U?$_List_node@PAVRaven_Projectile@@PAX@std@@@std@@V?$_List_val@U?$_List_simple_types@PAVRaven_Projectile@@@std@@@2@$00@std@@QAE@U_Zero_then_variadic_args_t@1@@Z ; std::_Compressed_pair<std::allocator<std::_List_node<Raven_Projectile *,void *> >,std::_List_val<std::_List_simple_types<Raven_Projectile *> >,1>::_Compressed_pair<std::allocator<std::_List_node<Raven_Projectile *,void *> >,std::_List_val<std::_List_simple_types<Raven_Projectile *> >,1><>
PUBLIC	??$_Free_non_head@V?$allocator@U?$_List_node@PAVRaven_Bot@@PAX@std@@@std@@@?$_List_node@PAVRaven_Bot@@PAX@std@@SAXAAV?$allocator@U?$_List_node@PAVRaven_Bot@@PAX@std@@@1@PAU01@@Z ; std::_List_node<Raven_Bot *,void *>::_Free_non_head<std::allocator<std::_List_node<Raven_Bot *,void *> > >
PUBLIC	??$_Emplace@ABQAVRaven_Bot@@@?$list@PAVRaven_Bot@@V?$allocator@PAVRaven_Bot@@@std@@@std@@QAEPAU?$_List_node@PAVRaven_Bot@@PAX@1@QAU21@ABQAVRaven_Bot@@@Z ; std::list<Raven_Bot *,std::allocator<Raven_Bot *> >::_Emplace<Raven_Bot * const &>
PUBLIC	??$addressof@$$CBV?$_List_val@U?$_List_simple_types@PAVRaven_Bot@@@std@@@std@@@std@@YAPBV?$_List_val@U?$_List_simple_types@PAVRaven_Bot@@@std@@@0@ABV10@@Z ; std::addressof<std::_List_val<std::_List_simple_types<Raven_Bot *> > const >
PUBLIC	??$addressof@V?$_List_val@U?$_List_simple_types@PAVRaven_Bot@@@std@@@std@@@std@@YAPAV?$_List_val@U?$_List_simple_types@PAVRaven_Bot@@@std@@@0@AAV10@@Z ; std::addressof<std::_List_val<std::_List_simple_types<Raven_Bot *> > >
PUBLIC	??$?0U?$_List_node@PAVRaven_Bot@@PAX@std@@@?$allocator@U_Container_proxy@std@@@std@@QAE@ABV?$allocator@U?$_List_node@PAVRaven_Bot@@PAX@std@@@1@@Z ; std::allocator<std::_Container_proxy>::allocator<std::_Container_proxy><std::_List_node<Raven_Bot *,void *> >
PUBLIC	??$?0$$V@?$_Compressed_pair@V?$allocator@U?$_List_node@PAVRaven_Bot@@PAX@std@@@std@@V?$_List_val@U?$_List_simple_types@PAVRaven_Bot@@@std@@@2@$00@std@@QAE@U_Zero_then_variadic_args_t@1@@Z ; std::_Compressed_pair<std::allocator<std::_List_node<Raven_Bot *,void *> >,std::_List_val<std::_List_simple_types<Raven_Bot *> >,1>::_Compressed_pair<std::allocator<std::_List_node<Raven_Bot *,void *> >,std::_List_val<std::_List_simple_types<Raven_Bot *> >,1><>
PUBLIC	??$min@I@std@@YAABIABI0@Z			; std::min<unsigned int>
PUBLIC	??$?0UVector2D@@@?$allocator@U_Container_proxy@std@@@std@@QAE@ABV?$allocator@UVector2D@@@1@@Z ; std::allocator<std::_Container_proxy>::allocator<std::_Container_proxy><Vector2D>
PUBLIC	??0?$_Container_proxy_ptr12@V?$allocator@U_Container_proxy@std@@@std@@@std@@QAE@AAV?$allocator@U_Container_proxy@std@@@1@AAU_Container_base12@1@@Z ; std::_Container_proxy_ptr12<std::allocator<std::_Container_proxy> >::_Container_proxy_ptr12<std::allocator<std::_Container_proxy> >
PUBLIC	??1?$_Container_proxy_ptr12@V?$allocator@U_Container_proxy@std@@@std@@@std@@QAE@XZ ; std::_Container_proxy_ptr12<std::allocator<std::_Container_proxy> >::~_Container_proxy_ptr12<std::allocator<std::_Container_proxy> >
PUBLIC	??$_Convert_size@I@std@@YAII@Z			; std::_Convert_size<unsigned int>
PUBLIC	??$?0D@?$allocator@U_Container_proxy@std@@@std@@QAE@ABV?$allocator@D@1@@Z ; std::allocator<std::_Container_proxy>::allocator<std::_Container_proxy><char>
PUBLIC	??$move@AAV?$allocator@D@std@@@std@@YA$$QAV?$allocator@D@0@AAV10@@Z ; std::move<std::allocator<char> &>
PUBLIC	??$?0V?$allocator@D@std@@$$V@?$_Compressed_pair@V?$allocator@D@std@@V?$_String_val@U?$_Simple_types@D@std@@@2@$00@std@@QAE@U_One_then_variadic_args_t@1@$$QAV?$allocator@D@1@@Z ; std::_Compressed_pair<std::allocator<char>,std::_String_val<std::_Simple_types<char> >,1>::_Compressed_pair<std::allocator<char>,std::_String_val<std::_Simple_types<char> >,1><std::allocator<char> >
PUBLIC	??$?0$$V@?$_Compressed_pair@V?$allocator@D@std@@V?$_String_val@U?$_Simple_types@D@std@@@2@$00@std@@QAE@U_Zero_then_variadic_args_t@1@@Z ; std::_Compressed_pair<std::allocator<char>,std::_String_val<std::_Simple_types<char> >,1>::_Compressed_pair<std::allocator<char>,std::_String_val<std::_Simple_types<char> >,1><>
PUBLIC	??$_Unfancy@U_Container_proxy@std@@@std@@YAPAU_Container_proxy@0@PAU10@@Z ; std::_Unfancy<std::_Container_proxy>
PUBLIC	??$addressof@U_Container_base12@std@@@std@@YAPAU_Container_base12@0@AAU10@@Z ; std::addressof<std::_Container_base12>
PUBLIC	??$_Construct_in_place@U_Container_proxy@std@@PAU_Container_base12@2@@std@@YAXAAU_Container_proxy@0@$$QAPAU_Container_base12@0@@Z ; std::_Construct_in_place<std::_Container_proxy,std::_Container_base12 *>
PUBLIC	??$_Destroy_range@V?$allocator@PAVRaven_Bot@@@std@@@std@@YAXPAPAVRaven_Bot@@QAPAV1@AAV?$allocator@PAVRaven_Bot@@@0@@Z ; std::_Destroy_range<std::allocator<Raven_Bot *> >
PUBLIC	??$_Free_non_head@V?$allocator@U?$_List_node@PAVRaven_PathPlanner@@PAX@std@@@std@@@?$_List_node@PAVRaven_PathPlanner@@PAX@std@@SAXAAV?$allocator@U?$_List_node@PAVRaven_PathPlanner@@PAX@std@@@1@PAU01@@Z ; std::_List_node<Raven_PathPlanner *,void *>::_Free_non_head<std::allocator<std::_List_node<Raven_PathPlanner *,void *> > >
PUBLIC	??$_Freenode0@V?$allocator@U?$_List_node@PAVRaven_PathPlanner@@PAX@std@@@std@@@?$_List_node@PAVRaven_PathPlanner@@PAX@std@@SAXAAV?$allocator@U?$_List_node@PAVRaven_PathPlanner@@PAX@std@@@1@PAU01@@Z ; std::_List_node<Raven_PathPlanner *,void *>::_Freenode0<std::allocator<std::_List_node<Raven_PathPlanner *,void *> > >
PUBLIC	??$?0$$V@?$_Compressed_pair@V?$allocator@U?$_List_node@PAVRaven_PathPlanner@@PAX@std@@@std@@V?$_List_val@U?$_List_simple_types@PAVRaven_PathPlanner@@@std@@@2@$00@std@@QAE@U_Zero_then_variadic_args_t@1@@Z ; std::_Compressed_pair<std::allocator<std::_List_node<Raven_PathPlanner *,void *> >,std::_List_val<std::_List_simple_types<Raven_PathPlanner *> >,1>::_Compressed_pair<std::allocator<std::_List_node<Raven_PathPlanner *,void *> >,std::_List_val<std::_List_simple_types<Raven_PathPlanner *> >,1><>
PUBLIC	??$_Free_non_head@V?$allocator@U?$_List_node@UGraveRecord@GraveMarkers@@PAX@std@@@std@@@?$_List_node@UGraveRecord@GraveMarkers@@PAX@std@@SAXAAV?$allocator@U?$_List_node@UGraveRecord@GraveMarkers@@PAX@std@@@1@PAU01@@Z ; std::_List_node<GraveMarkers::GraveRecord,void *>::_Free_non_head<std::allocator<std::_List_node<GraveMarkers::GraveRecord,void *> > >
PUBLIC	??$_Freenode0@V?$allocator@U?$_List_node@UGraveRecord@GraveMarkers@@PAX@std@@@std@@@?$_List_node@UGraveRecord@GraveMarkers@@PAX@std@@SAXAAV?$allocator@U?$_List_node@UGraveRecord@GraveMarkers@@PAX@std@@@1@PAU01@@Z ; std::_List_node<GraveMarkers::GraveRecord,void *>::_Freenode0<std::allocator<std::_List_node<GraveMarkers::GraveRecord,void *> > >
PUBLIC	??$_Destroy_range@V?$allocator@I@std@@@std@@YAXPAIQAIAAV?$allocator@I@0@@Z ; std::_Destroy_range<std::allocator<unsigned int> >
PUBLIC	??$addressof@V?$_Tree_val@U?$_Tree_simple_types@U?$pair@$$CBHPAVBaseGameEntity@@@std@@@std@@@std@@@std@@YAPAV?$_Tree_val@U?$_Tree_simple_types@U?$pair@$$CBHPAVBaseGameEntity@@@std@@@std@@@0@AAV10@@Z ; std::addressof<std::_Tree_val<std::_Tree_simple_types<std::pair<int const ,BaseGameEntity *> > > >
PUBLIC	??$_Construct_in_place@PAU?$_List_node@PAVRaven_Projectile@@PAX@std@@AAPAU12@@std@@YAXAAPAU?$_List_node@PAVRaven_Projectile@@PAX@0@0@Z ; std::_Construct_in_place<std::_List_node<Raven_Projectile *,void *> *,std::_List_node<Raven_Projectile *,void *> * &>
PUBLIC	??$_Freenode0@V?$allocator@U?$_List_node@PAVRaven_Projectile@@PAX@std@@@std@@@?$_List_node@PAVRaven_Projectile@@PAX@std@@SAXAAV?$allocator@U?$_List_node@PAVRaven_Projectile@@PAX@std@@@1@PAU01@@Z ; std::_List_node<Raven_Projectile *,void *>::_Freenode0<std::allocator<std::_List_node<Raven_Projectile *,void *> > >
PUBLIC	??$addressof@$$CBV?$_List_val@U?$_List_simple_types@PAVRaven_Projectile@@@std@@@std@@@std@@YAPBV?$_List_val@U?$_List_simple_types@PAVRaven_Projectile@@@std@@@0@ABV10@@Z ; std::addressof<std::_List_val<std::_List_simple_types<Raven_Projectile *> > const >
PUBLIC	??$_Construct_in_place@PAU?$_List_node@PAVRaven_Bot@@PAX@std@@AAPAU12@@std@@YAXAAPAU?$_List_node@PAVRaven_Bot@@PAX@0@0@Z ; std::_Construct_in_place<std::_List_node<Raven_Bot *,void *> *,std::_List_node<Raven_Bot *,void *> * &>
PUBLIC	??$_Freenode0@V?$allocator@U?$_List_node@PAVRaven_Bot@@PAX@std@@@std@@@?$_List_node@PAVRaven_Bot@@PAX@std@@SAXAAV?$allocator@U?$_List_node@PAVRaven_Bot@@PAX@std@@@1@PAU01@@Z ; std::_List_node<Raven_Bot *,void *>::_Freenode0<std::allocator<std::_List_node<Raven_Bot *,void *> > >
PUBLIC	??$max@I@std@@YAABIABI0@Z			; std::max<unsigned int>
PUBLIC	??$_Deallocate@$07$0A@@std@@YAXPAXI@Z		; std::_Deallocate<8,0>
PUBLIC	??$_Destroy_range@V?$allocator@UVector2D@@@std@@@std@@YAXPAUVector2D@@QAU1@AAV?$allocator@UVector2D@@@0@@Z ; std::_Destroy_range<std::allocator<Vector2D> >
PUBLIC	??$_Destroy_in_place@PAD@std@@YAXAAPAD@Z	; std::_Destroy_in_place<char *>
PUBLIC	??R<lambda_9366063389c5f42a00a5088cf24e69de>@@QBE@QADIQBD@Z ; <lambda_9366063389c5f42a00a5088cf24e69de>::operator()
PUBLIC	??$_Reallocate_for@V<lambda_9366063389c5f42a00a5088cf24e69de>@@PBD@?$basic_string@DU?$char_traits@D@std@@V?$allocator@D@2@@std@@AAEAAV01@IV<lambda_9366063389c5f42a00a5088cf24e69de>@@PBD@Z ; std::basic_string<char,std::char_traits<char>,std::allocator<char> >::_Reallocate_for<<lambda_9366063389c5f42a00a5088cf24e69de>,char const *>
PUBLIC	??$_Construct_in_place@PADABQAD@std@@YAXAAPADABQAD@Z ; std::_Construct_in_place<char *,char * const &>
PUBLIC	??$_Unfancy@D@std@@YAPADPAD@Z			; std::_Unfancy<char>
PUBLIC	??$_Construct_in_place@PADAAPAD@std@@YAXAAPAD0@Z ; std::_Construct_in_place<char *,char * &>
PUBLIC	??$_Get_size_of_n@$07@std@@YAII@Z		; std::_Get_size_of_n<8>
PUBLIC	??$_Allocate@$07U_Default_allocate_traits@std@@$0A@@std@@YAPAXI@Z ; std::_Allocate<8,std::_Default_allocate_traits,0>
PUBLIC	??$_Construct_in_place@PAU?$_List_node@PAVRaven_PathPlanner@@PAX@std@@AAPAU12@@std@@YAXAAPAU?$_List_node@PAVRaven_PathPlanner@@PAX@0@0@Z ; std::_Construct_in_place<std::_List_node<Raven_PathPlanner *,void *> *,std::_List_node<Raven_PathPlanner *,void *> * &>
PUBLIC	??$_Free_non_head@V?$allocator@U?$_List_node@PAV?$Goal@VRaven_Bot@@@@PAX@std@@@std@@@?$_List_node@PAV?$Goal@VRaven_Bot@@@@PAX@std@@SAXAAV?$allocator@U?$_List_node@PAV?$Goal@VRaven_Bot@@@@PAX@std@@@1@PAU01@@Z ; std::_List_node<Goal<Raven_Bot> *,void *>::_Free_non_head<std::allocator<std::_List_node<Goal<Raven_Bot> *,void *> > >
PUBLIC	??$_Freenode0@V?$allocator@U?$_List_node@PAV?$Goal@VRaven_Bot@@@@PAX@std@@@std@@@?$_List_node@PAV?$Goal@VRaven_Bot@@@@PAX@std@@SAXAAV?$allocator@U?$_List_node@PAV?$Goal@VRaven_Bot@@@@PAX@std@@@1@PAU01@@Z ; std::_List_node<Goal<Raven_Bot> *,void *>::_Freenode0<std::allocator<std::_List_node<Goal<Raven_Bot> *,void *> > >
PUBLIC	??$_Get_size_of_n@$0M@@std@@YAII@Z		; std::_Get_size_of_n<12>
PUBLIC	??$addressof@V?$_String_val@U?$_Simple_types@D@std@@@std@@@std@@YAPAV?$_String_val@U?$_Simple_types@D@std@@@0@AAV10@@Z ; std::addressof<std::_String_val<std::_Simple_types<char> > >
PUBLIC	??$addressof@$$CBV?$_String_val@U?$_Simple_types@D@std@@@std@@@std@@YAPBV?$_String_val@U?$_Simple_types@D@std@@@0@ABV10@@Z ; std::addressof<std::_String_val<std::_Simple_types<char> > const >
PUBLIC	??$_Get_size_of_n@$00@std@@YAII@Z		; std::_Get_size_of_n<1>
PUBLIC	??0?$_List_unchecked_const_iterator@V?$_List_val@U?$_List_simple_types@PAVRaven_PathPlanner@@@std@@@std@@U_Iterator_base12@2@@std@@QAE@PAU?$_List_node@PAVRaven_PathPlanner@@PAX@1@PBV?$_List_val@U?$_List_simple_types@PAVRaven_PathPlanner@@@std@@@1@@Z ; std::_List_unchecked_const_iterator<std::_List_val<std::_List_simple_types<Raven_PathPlanner *> >,std::_Iterator_base12>::_List_unchecked_const_iterator<std::_List_val<std::_List_simple_types<Raven_PathPlanner *> >,std::_Iterator_base12>
PUBLIC	??1?$_List_unchecked_const_iterator@V?$_List_val@U?$_List_simple_types@PAVRaven_PathPlanner@@@std@@@std@@U_Iterator_base12@2@@std@@QAE@XZ ; std::_List_unchecked_const_iterator<std::_List_val<std::_List_simple_types<Raven_PathPlanner *> >,std::_Iterator_base12>::~_List_unchecked_const_iterator<std::_List_val<std::_List_simple_types<Raven_PathPlanner *> >,std::_Iterator_base12>
PUBLIC	??0?$_List_unchecked_const_iterator@V?$_List_val@U?$_List_simple_types@PAVRaven_PathPlanner@@@std@@@std@@U_Iterator_base12@2@@std@@QAE@ABV01@@Z ; std::_List_unchecked_const_iterator<std::_List_val<std::_List_simple_types<Raven_PathPlanner *> >,std::_Iterator_base12>::_List_unchecked_const_iterator<std::_List_val<std::_List_simple_types<Raven_PathPlanner *> >,std::_Iterator_base12>
PUBLIC	??4?$_List_unchecked_const_iterator@V?$_List_val@U?$_List_simple_types@PAVRaven_PathPlanner@@@std@@@std@@U_Iterator_base12@2@@std@@QAEAAV01@$$QAV01@@Z ; std::_List_unchecked_const_iterator<std::_List_val<std::_List_simple_types<Raven_PathPlanner *> >,std::_Iterator_base12>::operator=
PUBLIC	??D?$_List_const_iterator@V?$_List_val@U?$_List_simple_types@PAVRaven_PathPlanner@@@std@@@std@@@std@@QBEABQAVRaven_PathPlanner@@XZ ; std::_List_const_iterator<std::_List_val<std::_List_simple_types<Raven_PathPlanner *> > >::operator*
PUBLIC	??E?$_List_const_iterator@V?$_List_val@U?$_List_simple_types@PAVRaven_PathPlanner@@@std@@@std@@@std@@QAEAAV01@XZ ; std::_List_const_iterator<std::_List_val<std::_List_simple_types<Raven_PathPlanner *> > >::operator++
PUBLIC	??8?$_List_const_iterator@V?$_List_val@U?$_List_simple_types@PAVRaven_PathPlanner@@@std@@@std@@@std@@QBE_NABV01@@Z ; std::_List_const_iterator<std::_List_val<std::_List_simple_types<Raven_PathPlanner *> > >::operator==
PUBLIC	??1?$_List_const_iterator@V?$_List_val@U?$_List_simple_types@PAVRaven_PathPlanner@@@std@@@std@@@std@@QAE@XZ ; std::_List_const_iterator<std::_List_val<std::_List_simple_types<Raven_PathPlanner *> > >::~_List_const_iterator<std::_List_val<std::_List_simple_types<Raven_PathPlanner *> > >
PUBLIC	??0?$_List_const_iterator@V?$_List_val@U?$_List_simple_types@PAVRaven_PathPlanner@@@std@@@std@@@std@@QAE@ABV01@@Z ; std::_List_const_iterator<std::_List_val<std::_List_simple_types<Raven_PathPlanner *> > >::_List_const_iterator<std::_List_val<std::_List_simple_types<Raven_PathPlanner *> > >
PUBLIC	??4?$_List_const_iterator@V?$_List_val@U?$_List_simple_types@PAVRaven_PathPlanner@@@std@@@std@@@std@@QAEAAV01@$$QAV01@@Z ; std::_List_const_iterator<std::_List_val<std::_List_simple_types<Raven_PathPlanner *> > >::operator=
PUBLIC	??0?$_List_const_iterator@V?$_List_val@U?$_List_simple_types@PAVRaven_PathPlanner@@@std@@@std@@@std@@QAE@PAU?$_List_node@PAVRaven_PathPlanner@@PAX@1@PBV?$_List_val@U?$_List_simple_types@PAVRaven_PathPlanner@@@std@@@1@@Z ; std::_List_const_iterator<std::_List_val<std::_List_simple_types<Raven_PathPlanner *> > >::_List_const_iterator<std::_List_val<std::_List_simple_types<Raven_PathPlanner *> > >
PUBLIC	??D?$_List_iterator@V?$_List_val@U?$_List_simple_types@PAVRaven_PathPlanner@@@std@@@std@@@std@@QBEAAPAVRaven_PathPlanner@@XZ ; std::_List_iterator<std::_List_val<std::_List_simple_types<Raven_PathPlanner *> > >::operator*
PUBLIC	??E?$_List_iterator@V?$_List_val@U?$_List_simple_types@PAVRaven_PathPlanner@@@std@@@std@@@std@@QAEAAV01@XZ ; std::_List_iterator<std::_List_val<std::_List_simple_types<Raven_PathPlanner *> > >::operator++
PUBLIC	??1?$_List_iterator@V?$_List_val@U?$_List_simple_types@PAVRaven_PathPlanner@@@std@@@std@@@std@@QAE@XZ ; std::_List_iterator<std::_List_val<std::_List_simple_types<Raven_PathPlanner *> > >::~_List_iterator<std::_List_val<std::_List_simple_types<Raven_PathPlanner *> > >
PUBLIC	??4?$_List_iterator@V?$_List_val@U?$_List_simple_types@PAVRaven_PathPlanner@@@std@@@std@@@std@@QAEAAV01@$$QAV01@@Z ; std::_List_iterator<std::_List_val<std::_List_simple_types<Raven_PathPlanner *> > >::operator=
PUBLIC	??0?$_List_iterator@V?$_List_val@U?$_List_simple_types@PAVRaven_PathPlanner@@@std@@@std@@@std@@QAE@PAU?$_List_node@PAVRaven_PathPlanner@@PAX@1@PBV?$_List_val@U?$_List_simple_types@PAVRaven_PathPlanner@@@std@@@1@@Z ; std::_List_iterator<std::_List_val<std::_List_simple_types<Raven_PathPlanner *> > >::_List_iterator<std::_List_val<std::_List_simple_types<Raven_PathPlanner *> > >
PUBLIC	??0?$_List_unchecked_const_iterator@V?$_List_val@U?$_List_simple_types@PAV?$Goal@VRaven_Bot@@@@@std@@@std@@U_Iterator_base12@2@@std@@QAE@PAU?$_List_node@PAV?$Goal@VRaven_Bot@@@@PAX@1@PBV?$_List_val@U?$_List_simple_types@PAV?$Goal@VRaven_Bot@@@@@std@@@1@@Z ; std::_List_unchecked_const_iterator<std::_List_val<std::_List_simple_types<Goal<Raven_Bot> *> >,std::_Iterator_base12>::_List_unchecked_const_iterator<std::_List_val<std::_List_simple_types<Goal<Raven_Bot> *> >,std::_Iterator_base12>
PUBLIC	??1?$_List_unchecked_const_iterator@V?$_List_val@U?$_List_simple_types@PAV?$Goal@VRaven_Bot@@@@@std@@@std@@U_Iterator_base12@2@@std@@QAE@XZ ; std::_List_unchecked_const_iterator<std::_List_val<std::_List_simple_types<Goal<Raven_Bot> *> >,std::_Iterator_base12>::~_List_unchecked_const_iterator<std::_List_val<std::_List_simple_types<Goal<Raven_Bot> *> >,std::_Iterator_base12>
PUBLIC	??D?$_List_const_iterator@V?$_List_val@U?$_List_simple_types@PAV?$Goal@VRaven_Bot@@@@@std@@@std@@@std@@QBEABQAV?$Goal@VRaven_Bot@@@@XZ ; std::_List_const_iterator<std::_List_val<std::_List_simple_types<Goal<Raven_Bot> *> > >::operator*
PUBLIC	??E?$_List_const_iterator@V?$_List_val@U?$_List_simple_types@PAV?$Goal@VRaven_Bot@@@@@std@@@std@@@std@@QAEAAV01@XZ ; std::_List_const_iterator<std::_List_val<std::_List_simple_types<Goal<Raven_Bot> *> > >::operator++
PUBLIC	??8?$_List_const_iterator@V?$_List_val@U?$_List_simple_types@PAV?$Goal@VRaven_Bot@@@@@std@@@std@@@std@@QBE_NABV01@@Z ; std::_List_const_iterator<std::_List_val<std::_List_simple_types<Goal<Raven_Bot> *> > >::operator==
PUBLIC	??9?$_List_const_iterator@V?$_List_val@U?$_List_simple_types@PAV?$Goal@VRaven_Bot@@@@@std@@@std@@@std@@QBE_NABV01@@Z ; std::_List_const_iterator<std::_List_val<std::_List_simple_types<Goal<Raven_Bot> *> > >::operator!=
PUBLIC	??1?$_List_const_iterator@V?$_List_val@U?$_List_simple_types@PAV?$Goal@VRaven_Bot@@@@@std@@@std@@@std@@QAE@XZ ; std::_List_const_iterator<std::_List_val<std::_List_simple_types<Goal<Raven_Bot> *> > >::~_List_const_iterator<std::_List_val<std::_List_simple_types<Goal<Raven_Bot> *> > >
PUBLIC	??0?$_List_const_iterator@V?$_List_val@U?$_List_simple_types@PAV?$Goal@VRaven_Bot@@@@@std@@@std@@@std@@QAE@PAU?$_List_node@PAV?$Goal@VRaven_Bot@@@@PAX@1@PBV?$_List_val@U?$_List_simple_types@PAV?$Goal@VRaven_Bot@@@@@std@@@1@@Z ; std::_List_const_iterator<std::_List_val<std::_List_simple_types<Goal<Raven_Bot> *> > >::_List_const_iterator<std::_List_val<std::_List_simple_types<Goal<Raven_Bot> *> > >
PUBLIC	??D?$_List_iterator@V?$_List_val@U?$_List_simple_types@PAV?$Goal@VRaven_Bot@@@@@std@@@std@@@std@@QBEAAPAV?$Goal@VRaven_Bot@@@@XZ ; std::_List_iterator<std::_List_val<std::_List_simple_types<Goal<Raven_Bot> *> > >::operator*
PUBLIC	??E?$_List_iterator@V?$_List_val@U?$_List_simple_types@PAV?$Goal@VRaven_Bot@@@@@std@@@std@@@std@@QAEAAV01@XZ ; std::_List_iterator<std::_List_val<std::_List_simple_types<Goal<Raven_Bot> *> > >::operator++
PUBLIC	??1?$_List_iterator@V?$_List_val@U?$_List_simple_types@PAV?$Goal@VRaven_Bot@@@@@std@@@std@@@std@@QAE@XZ ; std::_List_iterator<std::_List_val<std::_List_simple_types<Goal<Raven_Bot> *> > >::~_List_iterator<std::_List_val<std::_List_simple_types<Goal<Raven_Bot> *> > >
PUBLIC	??0?$_List_iterator@V?$_List_val@U?$_List_simple_types@PAV?$Goal@VRaven_Bot@@@@@std@@@std@@@std@@QAE@PAU?$_List_node@PAV?$Goal@VRaven_Bot@@@@PAX@1@PBV?$_List_val@U?$_List_simple_types@PAV?$Goal@VRaven_Bot@@@@@std@@@1@@Z ; std::_List_iterator<std::_List_val<std::_List_simple_types<Goal<Raven_Bot> *> > >::_List_iterator<std::_List_val<std::_List_simple_types<Goal<Raven_Bot> *> > >
PUBLIC	??0?$_Vector_const_iterator@V?$_Vector_val@U?$_Simple_types@PAVWall2D@@@std@@@std@@@std@@QAE@PAPAVWall2D@@PBU_Container_base12@1@@Z ; std::_Vector_const_iterator<std::_Vector_val<std::_Simple_types<Wall2D *> > >::_Vector_const_iterator<std::_Vector_val<std::_Simple_types<Wall2D *> > >
PUBLIC	??D?$_Vector_const_iterator@V?$_Vector_val@U?$_Simple_types@PAVWall2D@@@std@@@std@@@std@@QBEABQAVWall2D@@XZ ; std::_Vector_const_iterator<std::_Vector_val<std::_Simple_types<Wall2D *> > >::operator*
PUBLIC	??E?$_Vector_const_iterator@V?$_Vector_val@U?$_Simple_types@PAVWall2D@@@std@@@std@@@std@@QAEAAV01@XZ ; std::_Vector_const_iterator<std::_Vector_val<std::_Simple_types<Wall2D *> > >::operator++
PUBLIC	??8?$_Vector_const_iterator@V?$_Vector_val@U?$_Simple_types@PAVWall2D@@@std@@@std@@@std@@QBE_NABV01@@Z ; std::_Vector_const_iterator<std::_Vector_val<std::_Simple_types<Wall2D *> > >::operator==
PUBLIC	??9?$_Vector_const_iterator@V?$_Vector_val@U?$_Simple_types@PAVWall2D@@@std@@@std@@@std@@QBE_NABV01@@Z ; std::_Vector_const_iterator<std::_Vector_val<std::_Simple_types<Wall2D *> > >::operator!=
PUBLIC	?_Compat@?$_Vector_const_iterator@V?$_Vector_val@U?$_Simple_types@PAVWall2D@@@std@@@std@@@std@@QBEXABV12@@Z ; std::_Vector_const_iterator<std::_Vector_val<std::_Simple_types<Wall2D *> > >::_Compat
PUBLIC	??1?$_Vector_const_iterator@V?$_Vector_val@U?$_Simple_types@PAVWall2D@@@std@@@std@@@std@@QAE@XZ ; std::_Vector_const_iterator<std::_Vector_val<std::_Simple_types<Wall2D *> > >::~_Vector_const_iterator<std::_Vector_val<std::_Simple_types<Wall2D *> > >
PUBLIC	??$_Emplace_back_with_unused_capacity@ABQAVRaven_Bot@@@?$vector@PAVRaven_Bot@@V?$allocator@PAVRaven_Bot@@@std@@@std@@AAEAAPAVRaven_Bot@@ABQAV2@@Z ; std::vector<Raven_Bot *,std::allocator<Raven_Bot *> >::_Emplace_back_with_unused_capacity<Raven_Bot * const &>
PUBLIC	??$_Emplace_reallocate@ABQAVRaven_Bot@@@?$vector@PAVRaven_Bot@@V?$allocator@PAVRaven_Bot@@@std@@@std@@AAEPAPAVRaven_Bot@@QAPAV2@ABQAV2@@Z ; std::vector<Raven_Bot *,std::allocator<Raven_Bot *> >::_Emplace_reallocate<Raven_Bot * const &>
PUBLIC	??$_Deallocate_plain@V?$allocator@U_Container_proxy@std@@@std@@@std@@YAXAAV?$allocator@U_Container_proxy@std@@@0@QAU_Container_proxy@0@@Z ; std::_Deallocate_plain<std::allocator<std::_Container_proxy> >
PUBLIC	??$forward@V?$allocator@PAVRaven_Bot@@@std@@@std@@YA$$QAV?$allocator@PAVRaven_Bot@@@0@AAV10@@Z ; std::forward<std::allocator<Raven_Bot *> >
PUBLIC	??$forward@PAPAVRaven_Bot@@@std@@YA$$QAPAPAVRaven_Bot@@AAPAPAV1@@Z ; std::forward<Raven_Bot * *>
PUBLIC	??$move@AAV?$allocator@I@std@@@std@@YA$$QAV?$allocator@I@0@AAV10@@Z ; std::move<std::allocator<unsigned int> &>
PUBLIC	??$forward@V?$allocator@I@std@@@std@@YA$$QAV?$allocator@I@0@AAV10@@Z ; std::forward<std::allocator<unsigned int> >
PUBLIC	??1?$_Tidy_guard@V?$vector@IV?$allocator@I@std@@@std@@@std@@QAE@XZ ; std::_Tidy_guard<std::vector<unsigned int,std::allocator<unsigned int> > >::~_Tidy_guard<std::vector<unsigned int,std::allocator<unsigned int> > >
PUBLIC	??$forward@ABQAI@std@@YAABQAIABQAI@Z		; std::forward<unsigned int * const &>
PUBLIC	??$_Uninitialized_copy@PAIV?$allocator@I@std@@@std@@YAPAIQAI0PAIAAV?$allocator@I@0@@Z ; std::_Uninitialized_copy<unsigned int *,std::allocator<unsigned int> >
PUBLIC	??$exchange@PAU?$_Tree_node@U?$pair@$$CBHPAVBaseGameEntity@@@std@@PAX@std@@AAPAU12@@std@@YAPAU?$_Tree_node@U?$pair@$$CBHPAVBaseGameEntity@@@std@@PAX@0@AAPAU10@0@Z ; std::exchange<std::_Tree_node<std::pair<int const ,BaseGameEntity *>,void *> *,std::_Tree_node<std::pair<int const ,BaseGameEntity *>,void *> * &>
PUBLIC	??$_Freenode@V?$allocator@U?$_Tree_node@U?$pair@$$CBHPAVBaseGameEntity@@@std@@PAX@std@@@std@@@?$_Tree_node@U?$pair@$$CBHPAVBaseGameEntity@@@std@@PAX@std@@SAXAAV?$allocator@U?$_Tree_node@U?$pair@$$CBHPAVBaseGameEntity@@@std@@PAX@std@@@1@PAU01@@Z ; std::_Tree_node<std::pair<int const ,BaseGameEntity *>,void *>::_Freenode<std::allocator<std::_Tree_node<std::pair<int const ,BaseGameEntity *>,void *> > >
PUBLIC	??$_Freenode0@V?$allocator@U?$_Tree_node@U?$pair@$$CBHPAVBaseGameEntity@@@std@@PAX@std@@@std@@@?$_Tree_node@U?$pair@$$CBHPAVBaseGameEntity@@@std@@PAX@std@@SAXAAV?$allocator@U?$_Tree_node@U?$pair@$$CBHPAVBaseGameEntity@@@std@@PAX@std@@@1@PAU01@@Z ; std::_Tree_node<std::pair<int const ,BaseGameEntity *>,void *>::_Freenode0<std::allocator<std::_Tree_node<std::pair<int const ,BaseGameEntity *>,void *> > >
PUBLIC	??$addressof@PAVRaven_Projectile@@@std@@YAPAPAVRaven_Projectile@@AAPAV1@@Z ; std::addressof<Raven_Projectile *>
PUBLIC	??$destroy@PAVRaven_Projectile@@@?$_Default_allocator_traits@V?$allocator@U?$_List_node@PAVRaven_Projectile@@PAX@std@@@std@@@std@@SAXAAV?$allocator@U?$_List_node@PAVRaven_Projectile@@PAX@std@@@1@QAPAVRaven_Projectile@@@Z ; std::_Default_allocator_traits<std::allocator<std::_List_node<Raven_Projectile *,void *> > >::destroy<Raven_Projectile *>
PUBLIC	??0?$_Alloc_construct_ptr@V?$allocator@U?$_List_node@PAVRaven_Projectile@@PAX@std@@@std@@@std@@QAE@AAV?$allocator@U?$_List_node@PAVRaven_Projectile@@PAX@std@@@1@@Z ; std::_Alloc_construct_ptr<std::allocator<std::_List_node<Raven_Projectile *,void *> > >::_Alloc_construct_ptr<std::allocator<std::_List_node<Raven_Projectile *,void *> > >
PUBLIC	?_Allocate@?$_Alloc_construct_ptr@V?$allocator@U?$_List_node@PAVRaven_Projectile@@PAX@std@@@std@@@std@@QAEXXZ ; std::_Alloc_construct_ptr<std::allocator<std::_List_node<Raven_Projectile *,void *> > >::_Allocate
PUBLIC	??1?$_Alloc_construct_ptr@V?$allocator@U?$_List_node@PAVRaven_Projectile@@PAX@std@@@std@@@std@@QAE@XZ ; std::_Alloc_construct_ptr<std::allocator<std::_List_node<Raven_Projectile *,void *> > >::~_Alloc_construct_ptr<std::allocator<std::_List_node<Raven_Projectile *,void *> > >
PUBLIC	??1?$_List_node_emplace_op2@V?$allocator@U?$_List_node@PAVRaven_Projectile@@PAX@std@@@std@@@std@@QAE@XZ ; std::_List_node_emplace_op2<std::allocator<std::_List_node<Raven_Projectile *,void *> > >::~_List_node_emplace_op2<std::allocator<std::_List_node<Raven_Projectile *,void *> > >
PUBLIC	?_Transfer_before@?$_List_node_emplace_op2@V?$allocator@U?$_List_node@PAVRaven_Projectile@@PAX@std@@@std@@@std@@QAEPAU?$_List_node@PAVRaven_Projectile@@PAX@2@QAU32@@Z ; std::_List_node_emplace_op2<std::allocator<std::_List_node<Raven_Projectile *,void *> > >::_Transfer_before
PUBLIC	??$forward@ABQAVRaven_Projectile@@@std@@YAABQAVRaven_Projectile@@ABQAV1@@Z ; std::forward<Raven_Projectile * const &>
PUBLIC	??$?0ABQAVRaven_Projectile@@@?$_List_node_emplace_op2@V?$allocator@U?$_List_node@PAVRaven_Projectile@@PAX@std@@@std@@@std@@QAE@AAV?$allocator@U?$_List_node@PAVRaven_Projectile@@PAX@std@@@1@ABQAVRaven_Projectile@@@Z ; std::_List_node_emplace_op2<std::allocator<std::_List_node<Raven_Projectile *,void *> > >::_List_node_emplace_op2<std::allocator<std::_List_node<Raven_Projectile *,void *> > ><Raven_Projectile * const &>
PUBLIC	??$_Freenode@V?$allocator@U?$_List_node@PAVRaven_Bot@@PAX@std@@@std@@@?$_List_node@PAVRaven_Bot@@PAX@std@@SAXAAV?$allocator@U?$_List_node@PAVRaven_Bot@@PAX@std@@@1@PAU01@@Z ; std::_List_node<Raven_Bot *,void *>::_Freenode<std::allocator<std::_List_node<Raven_Bot *,void *> > >
PUBLIC	??0?$_Alloc_construct_ptr@V?$allocator@U?$_List_node@PAVRaven_Bot@@PAX@std@@@std@@@std@@QAE@AAV?$allocator@U?$_List_node@PAVRaven_Bot@@PAX@std@@@1@@Z ; std::_Alloc_construct_ptr<std::allocator<std::_List_node<Raven_Bot *,void *> > >::_Alloc_construct_ptr<std::allocator<std::_List_node<Raven_Bot *,void *> > >
PUBLIC	?_Allocate@?$_Alloc_construct_ptr@V?$allocator@U?$_List_node@PAVRaven_Bot@@PAX@std@@@std@@@std@@QAEXXZ ; std::_Alloc_construct_ptr<std::allocator<std::_List_node<Raven_Bot *,void *> > >::_Allocate
PUBLIC	??1?$_Alloc_construct_ptr@V?$allocator@U?$_List_node@PAVRaven_Bot@@PAX@std@@@std@@@std@@QAE@XZ ; std::_Alloc_construct_ptr<std::allocator<std::_List_node<Raven_Bot *,void *> > >::~_Alloc_construct_ptr<std::allocator<std::_List_node<Raven_Bot *,void *> > >
PUBLIC	??1?$_List_node_emplace_op2@V?$allocator@U?$_List_node@PAVRaven_Bot@@PAX@std@@@std@@@std@@QAE@XZ ; std::_List_node_emplace_op2<std::allocator<std::_List_node<Raven_Bot *,void *> > >::~_List_node_emplace_op2<std::allocator<std::_List_node<Raven_Bot *,void *> > >
PUBLIC	?_Transfer_before@?$_List_node_emplace_op2@V?$allocator@U?$_List_node@PAVRaven_Bot@@PAX@std@@@std@@@std@@QAEPAU?$_List_node@PAVRaven_Bot@@PAX@2@QAU32@@Z ; std::_List_node_emplace_op2<std::allocator<std::_List_node<Raven_Bot *,void *> > >::_Transfer_before
PUBLIC	??$?0ABQAVRaven_Bot@@@?$_List_node_emplace_op2@V?$allocator@U?$_List_node@PAVRaven_Bot@@PAX@std@@@std@@@std@@QAE@AAV?$allocator@U?$_List_node@PAVRaven_Bot@@PAX@std@@@1@ABQAVRaven_Bot@@@Z ; std::_List_node_emplace_op2<std::allocator<std::_List_node<Raven_Bot *,void *> > >::_List_node_emplace_op2<std::allocator<std::_List_node<Raven_Bot *,void *> > ><Raven_Bot * const &>
PUBLIC	??$forward@V?$allocator@D@std@@@std@@YA$$QAV?$allocator@D@0@AAV10@@Z ; std::forward<std::allocator<char> >
PUBLIC	??$addressof@U_Container_proxy@std@@@std@@YAPAU_Container_proxy@0@AAU10@@Z ; std::addressof<std::_Container_proxy>
PUBLIC	??$_Voidify_iter@PAU_Container_proxy@std@@@std@@YAPAXPAU_Container_proxy@0@@Z ; std::_Voidify_iter<std::_Container_proxy *>
PUBLIC	??$forward@PAU_Container_base12@std@@@std@@YA$$QAPAU_Container_base12@0@AAPAU10@@Z ; std::forward<std::_Container_base12 *>
PUBLIC	??$_Freenode@V?$allocator@U?$_List_node@PAVRaven_PathPlanner@@PAX@std@@@std@@@?$_List_node@PAVRaven_PathPlanner@@PAX@std@@SAXAAV?$allocator@U?$_List_node@PAVRaven_PathPlanner@@PAX@std@@@1@PAU01@@Z ; std::_List_node<Raven_PathPlanner *,void *>::_Freenode<std::allocator<std::_List_node<Raven_PathPlanner *,void *> > >
PUBLIC	??$_Destroy_in_place@PAU?$_List_node@PAVRaven_PathPlanner@@PAX@std@@@std@@YAXAAPAU?$_List_node@PAVRaven_PathPlanner@@PAX@0@@Z ; std::_Destroy_in_place<std::_List_node<Raven_PathPlanner *,void *> *>
PUBLIC	??$_Freenode@V?$allocator@U?$_List_node@UGraveRecord@GraveMarkers@@PAX@std@@@std@@@?$_List_node@UGraveRecord@GraveMarkers@@PAX@std@@SAXAAV?$allocator@U?$_List_node@UGraveRecord@GraveMarkers@@PAX@std@@@1@PAU01@@Z ; std::_List_node<GraveMarkers::GraveRecord,void *>::_Freenode<std::allocator<std::_List_node<GraveMarkers::GraveRecord,void *> > >
PUBLIC	??$_Destroy_in_place@PAU?$_List_node@UGraveRecord@GraveMarkers@@PAX@std@@@std@@YAXAAPAU?$_List_node@UGraveRecord@GraveMarkers@@PAX@0@@Z ; std::_Destroy_in_place<std::_List_node<GraveMarkers::GraveRecord,void *> *>
PUBLIC	??$addressof@PAU?$_List_node@PAVRaven_Projectile@@PAX@std@@@std@@YAPAPAU?$_List_node@PAVRaven_Projectile@@PAX@0@AAPAU10@@Z ; std::addressof<std::_List_node<Raven_Projectile *,void *> *>
PUBLIC	??$_Voidify_iter@PAPAU?$_List_node@PAVRaven_Projectile@@PAX@std@@@std@@YAPAXPAPAU?$_List_node@PAVRaven_Projectile@@PAX@0@@Z ; std::_Voidify_iter<std::_List_node<Raven_Projectile *,void *> * *>
PUBLIC	??$forward@AAPAU?$_List_node@PAVRaven_Projectile@@PAX@std@@@std@@YAAAPAU?$_List_node@PAVRaven_Projectile@@PAX@0@AAPAU10@@Z ; std::forward<std::_List_node<Raven_Projectile *,void *> * &>
PUBLIC	??$_Destroy_in_place@PAU?$_List_node@PAVRaven_Projectile@@PAX@std@@@std@@YAXAAPAU?$_List_node@PAVRaven_Projectile@@PAX@0@@Z ; std::_Destroy_in_place<std::_List_node<Raven_Projectile *,void *> *>
PUBLIC	??$_Voidify_iter@PAPAU?$_List_node@PAVRaven_Bot@@PAX@std@@@std@@YAPAXPAPAU?$_List_node@PAVRaven_Bot@@PAX@0@@Z ; std::_Voidify_iter<std::_List_node<Raven_Bot *,void *> * *>
PUBLIC	??$forward@AAPAU?$_List_node@PAVRaven_Bot@@PAX@std@@@std@@YAAAPAU?$_List_node@PAVRaven_Bot@@PAX@0@AAPAU10@@Z ; std::forward<std::_List_node<Raven_Bot *,void *> * &>
PUBLIC	??$_Destroy_in_place@PAU?$_List_node@PAVRaven_Bot@@PAX@std@@@std@@YAXAAPAU?$_List_node@PAVRaven_Bot@@PAX@0@@Z ; std::_Destroy_in_place<std::_List_node<Raven_Bot *,void *> *>
PUBLIC	??$addressof@PAD@std@@YAPAPADAAPAD@Z		; std::addressof<char *>
PUBLIC	??$_Voidify_iter@PAPAD@std@@YAPAXPAPAD@Z	; std::_Voidify_iter<char * *>
PUBLIC	??$forward@ABQAD@std@@YAABQADABQAD@Z		; std::forward<char * const &>
PUBLIC	??$forward@AAPAD@std@@YAAAPADAAPAD@Z		; std::forward<char * &>
PUBLIC	??$_Allocate_manually_vector_aligned@U_Default_allocate_traits@std@@@std@@YAPAXI@Z ; std::_Allocate_manually_vector_aligned<std::_Default_allocate_traits>
PUBLIC	??$addressof@PAU?$_List_node@PAVRaven_PathPlanner@@PAX@std@@@std@@YAPAPAU?$_List_node@PAVRaven_PathPlanner@@PAX@0@AAPAU10@@Z ; std::addressof<std::_List_node<Raven_PathPlanner *,void *> *>
PUBLIC	??$_Voidify_iter@PAPAU?$_List_node@PAVRaven_PathPlanner@@PAX@std@@@std@@YAPAXPAPAU?$_List_node@PAVRaven_PathPlanner@@PAX@0@@Z ; std::_Voidify_iter<std::_List_node<Raven_PathPlanner *,void *> * *>
PUBLIC	??$forward@AAPAU?$_List_node@PAVRaven_PathPlanner@@PAX@std@@@std@@YAAAPAU?$_List_node@PAVRaven_PathPlanner@@PAX@0@AAPAU10@@Z ; std::forward<std::_List_node<Raven_PathPlanner *,void *> * &>
PUBLIC	??$_Freenode@V?$allocator@U?$_List_node@PAV?$Goal@VRaven_Bot@@@@PAX@std@@@std@@@?$_List_node@PAV?$Goal@VRaven_Bot@@@@PAX@std@@SAXAAV?$allocator@U?$_List_node@PAV?$Goal@VRaven_Bot@@@@PAX@std@@@1@PAU01@@Z ; std::_List_node<Goal<Raven_Bot> *,void *>::_Freenode<std::allocator<std::_List_node<Goal<Raven_Bot> *,void *> > >
PUBLIC	??$_Destroy_in_place@PAU?$_List_node@PAV?$Goal@VRaven_Bot@@@@PAX@std@@@std@@YAXAAPAU?$_List_node@PAV?$Goal@VRaven_Bot@@@@PAX@0@@Z ; std::_Destroy_in_place<std::_List_node<Goal<Raven_Bot> *,void *> *>
PUBLIC	??$_Construct_in_place@PAU?$_List_node@PAVRaven_Bot@@PAX@std@@ABQAU12@@std@@YAXAAPAU?$_List_node@PAVRaven_Bot@@PAX@0@ABQAU10@@Z ; std::_Construct_in_place<std::_List_node<Raven_Bot *,void *> *,std::_List_node<Raven_Bot *,void *> * const &>
PUBLIC	??$_Construct_in_place@PAU?$_List_node@PAVRaven_Projectile@@PAX@std@@ABQAU12@@std@@YAXAAPAU?$_List_node@PAVRaven_Projectile@@PAX@0@ABQAU10@@Z ; std::_Construct_in_place<std::_List_node<Raven_Projectile *,void *> *,std::_List_node<Raven_Projectile *,void *> * const &>
PUBLIC	??$addressof@V?$_List_val@U?$_List_simple_types@PAVRaven_PathPlanner@@@std@@@std@@@std@@YAPAV?$_List_val@U?$_List_simple_types@PAVRaven_PathPlanner@@@std@@@0@AAV10@@Z ; std::addressof<std::_List_val<std::_List_simple_types<Raven_PathPlanner *> > >
PUBLIC	??$addressof@V?$_List_val@U?$_List_simple_types@PAV?$Goal@VRaven_Bot@@@@@std@@@std@@@std@@YAPAV?$_List_val@U?$_List_simple_types@PAV?$Goal@VRaven_Bot@@@@@std@@@0@AAV10@@Z ; std::addressof<std::_List_val<std::_List_simple_types<Goal<Raven_Bot> *> > >
PUBLIC	??$addressof@$$CBV?$_Vector_val@U?$_Simple_types@PAVWall2D@@@std@@@std@@@std@@YAPBV?$_Vector_val@U?$_Simple_types@PAVWall2D@@@std@@@0@ABV10@@Z ; std::addressof<std::_Vector_val<std::_Simple_types<Wall2D *> > const >
PUBLIC	??$_Get_size_of_n@$03@std@@YAII@Z		; std::_Get_size_of_n<4>
PUBLIC	??$addressof@$$CBV?$_List_val@U?$_List_simple_types@PAVRaven_PathPlanner@@@std@@@std@@@std@@YAPBV?$_List_val@U?$_List_simple_types@PAVRaven_PathPlanner@@@std@@@0@ABV10@@Z ; std::addressof<std::_List_val<std::_List_simple_types<Raven_PathPlanner *> > const >
PUBLIC	??$_Construct_in_place@PAVRaven_Bot@@ABQAV1@@std@@YAXAAPAVRaven_Bot@@ABQAV1@@Z ; std::_Construct_in_place<Raven_Bot *,Raven_Bot * const &>
PUBLIC	??$_Unfancy@PAVRaven_Bot@@@std@@YAPAPAVRaven_Bot@@PAPAV1@@Z ; std::_Unfancy<Raven_Bot *>
PUBLIC	??$construct@PAVRaven_Bot@@ABQAV1@@?$_Default_allocator_traits@V?$allocator@PAVRaven_Bot@@@std@@@std@@SAXAAV?$allocator@PAVRaven_Bot@@@1@QAPAVRaven_Bot@@ABQAV3@@Z ; std::_Default_allocator_traits<std::allocator<Raven_Bot *> >::construct<Raven_Bot *,Raven_Bot * const &>
PUBLIC	??$_Uninitialized_move@PAPAVRaven_Bot@@V?$allocator@PAVRaven_Bot@@@std@@@std@@YAPAPAVRaven_Bot@@QAPAV1@0PAPAV1@AAV?$allocator@PAVRaven_Bot@@@0@@Z ; std::_Uninitialized_move<Raven_Bot * *,std::allocator<Raven_Bot *> >
PUBLIC	?deallocate@?$_Default_allocator_traits@V?$allocator@U_Container_proxy@std@@@std@@@std@@SAXAAV?$allocator@U_Container_proxy@std@@@2@QAU_Container_proxy@2@I@Z ; std::_Default_allocator_traits<std::allocator<std::_Container_proxy> >::deallocate
PUBLIC	??$_Get_unwrapped@ABQAI@std@@YA?A_TABQAI@Z	; std::_Get_unwrapped<unsigned int * const &>
PUBLIC	??$_Unfancy@I@std@@YAPAIPAI@Z			; std::_Unfancy<unsigned int>
PUBLIC	??$_Copy_memmove@PAIPAI@std@@YAPAIPAI00@Z	; std::_Copy_memmove<unsigned int *,unsigned int *>
PUBLIC	??0?$_Uninitialized_backout_al@V?$allocator@I@std@@@std@@QAE@PAIAAV?$allocator@I@1@@Z ; std::_Uninitialized_backout_al<std::allocator<unsigned int> >::_Uninitialized_backout_al<std::allocator<unsigned int> >
PUBLIC	??1?$_Uninitialized_backout_al@V?$allocator@I@std@@@std@@QAE@XZ ; std::_Uninitialized_backout_al<std::allocator<unsigned int> >::~_Uninitialized_backout_al<std::allocator<unsigned int> >
PUBLIC	?_Release@?$_Uninitialized_backout_al@V?$allocator@I@std@@@std@@QAEPAIXZ ; std::_Uninitialized_backout_al<std::allocator<unsigned int> >::_Release
PUBLIC	??$_Emplace_back@AAI@?$_Uninitialized_backout_al@V?$allocator@I@std@@@std@@QAEXAAI@Z ; std::_Uninitialized_backout_al<std::allocator<unsigned int> >::_Emplace_back<unsigned int &>
PUBLIC	??$addressof@U?$pair@$$CBHPAVBaseGameEntity@@@std@@@std@@YAPAU?$pair@$$CBHPAVBaseGameEntity@@@0@AAU10@@Z ; std::addressof<std::pair<int const ,BaseGameEntity *> >
PUBLIC	??$destroy@U?$pair@$$CBHPAVBaseGameEntity@@@std@@@?$_Default_allocator_traits@V?$allocator@U?$_Tree_node@U?$pair@$$CBHPAVBaseGameEntity@@@std@@PAX@std@@@std@@@std@@SAXAAV?$allocator@U?$_Tree_node@U?$pair@$$CBHPAVBaseGameEntity@@@std@@PAX@std@@@1@QAU?$pair@$$CBHPAVBaseGameEntity@@@1@@Z ; std::_Default_allocator_traits<std::allocator<std::_Tree_node<std::pair<int const ,BaseGameEntity *>,void *> > >::destroy<std::pair<int const ,BaseGameEntity *> >
PUBLIC	??$_Destroy_in_place@PAU?$_Tree_node@U?$pair@$$CBHPAVBaseGameEntity@@@std@@PAX@std@@@std@@YAXAAPAU?$_Tree_node@U?$pair@$$CBHPAVBaseGameEntity@@@std@@PAX@0@@Z ; std::_Destroy_in_place<std::_Tree_node<std::pair<int const ,BaseGameEntity *>,void *> *>
PUBLIC	??$construct@PAVRaven_Projectile@@ABQAV1@@?$_Default_allocator_traits@V?$allocator@U?$_List_node@PAVRaven_Projectile@@PAX@std@@@std@@@std@@SAXAAV?$allocator@U?$_List_node@PAVRaven_Projectile@@PAX@std@@@1@QAPAVRaven_Projectile@@ABQAV3@@Z ; std::_Default_allocator_traits<std::allocator<std::_List_node<Raven_Projectile *,void *> > >::construct<Raven_Projectile *,Raven_Projectile * const &>
PUBLIC	??$construct@PAVRaven_Bot@@ABQAV1@@?$_Default_allocator_traits@V?$allocator@U?$_List_node@PAVRaven_Bot@@PAX@std@@@std@@@std@@SAXAAV?$allocator@U?$_List_node@PAVRaven_Bot@@PAX@std@@@1@QAPAVRaven_Bot@@ABQAV3@@Z ; std::_Default_allocator_traits<std::allocator<std::_List_node<Raven_Bot *,void *> > >::construct<Raven_Bot *,Raven_Bot * const &>
PUBLIC	??$addressof@PAVRaven_PathPlanner@@@std@@YAPAPAVRaven_PathPlanner@@AAPAV1@@Z ; std::addressof<Raven_PathPlanner *>
PUBLIC	??$destroy@PAVRaven_PathPlanner@@@?$_Default_allocator_traits@V?$allocator@U?$_List_node@PAVRaven_PathPlanner@@PAX@std@@@std@@@std@@SAXAAV?$allocator@U?$_List_node@PAVRaven_PathPlanner@@PAX@std@@@1@QAPAVRaven_PathPlanner@@@Z ; std::_Default_allocator_traits<std::allocator<std::_List_node<Raven_PathPlanner *,void *> > >::destroy<Raven_PathPlanner *>
PUBLIC	??$addressof@UGraveRecord@GraveMarkers@@@std@@YAPAUGraveRecord@GraveMarkers@@AAU12@@Z ; std::addressof<GraveMarkers::GraveRecord>
PUBLIC	??$destroy@UGraveRecord@GraveMarkers@@@?$_Default_allocator_traits@V?$allocator@U?$_List_node@UGraveRecord@GraveMarkers@@PAX@std@@@std@@@std@@SAXAAV?$allocator@U?$_List_node@UGraveRecord@GraveMarkers@@PAX@std@@@1@QAUGraveRecord@GraveMarkers@@@Z ; std::_Default_allocator_traits<std::allocator<std::_List_node<GraveMarkers::GraveRecord,void *> > >::destroy<GraveMarkers::GraveRecord>
PUBLIC	??$addressof@PAV?$Goal@VRaven_Bot@@@@@std@@YAPAPAV?$Goal@VRaven_Bot@@@@AAPAV1@@Z ; std::addressof<Goal<Raven_Bot> *>
PUBLIC	??$destroy@PAV?$Goal@VRaven_Bot@@@@@?$_Default_allocator_traits@V?$allocator@U?$_List_node@PAV?$Goal@VRaven_Bot@@@@PAX@std@@@std@@@std@@SAXAAV?$allocator@U?$_List_node@PAV?$Goal@VRaven_Bot@@@@PAX@std@@@1@QAPAV?$Goal@VRaven_Bot@@@@@Z ; std::_Default_allocator_traits<std::allocator<std::_List_node<Goal<Raven_Bot> *,void *> > >::destroy<Goal<Raven_Bot> *>
PUBLIC	??$forward@ABQAU?$_List_node@PAVRaven_Bot@@PAX@std@@@std@@YAABQAU?$_List_node@PAVRaven_Bot@@PAX@0@ABQAU10@@Z ; std::forward<std::_List_node<Raven_Bot *,void *> * const &>
PUBLIC	??$forward@ABQAU?$_List_node@PAVRaven_Projectile@@PAX@std@@@std@@YAABQAU?$_List_node@PAVRaven_Projectile@@PAX@0@ABQAU10@@Z ; std::forward<std::_List_node<Raven_Projectile *,void *> * const &>
PUBLIC	??$_Voidify_iter@PAPAVRaven_Bot@@@std@@YAPAXPAPAVRaven_Bot@@@Z ; std::_Voidify_iter<Raven_Bot * *>
PUBLIC	??$_Get_unwrapped@ABQAPAVRaven_Bot@@@std@@YA?A_TABQAPAVRaven_Bot@@@Z ; std::_Get_unwrapped<Raven_Bot * * const &>
PUBLIC	??$move@AAPAVRaven_Bot@@@std@@YA$$QAPAVRaven_Bot@@AAPAV1@@Z ; std::move<Raven_Bot * &>
PUBLIC	??$_Copy_memmove@PAPAVRaven_Bot@@PAPAV1@@std@@YAPAPAVRaven_Bot@@PAPAV1@00@Z ; std::_Copy_memmove<Raven_Bot * *,Raven_Bot * *>
PUBLIC	??0?$_Uninitialized_backout_al@V?$allocator@PAVRaven_Bot@@@std@@@std@@QAE@PAPAVRaven_Bot@@AAV?$allocator@PAVRaven_Bot@@@1@@Z ; std::_Uninitialized_backout_al<std::allocator<Raven_Bot *> >::_Uninitialized_backout_al<std::allocator<Raven_Bot *> >
PUBLIC	??1?$_Uninitialized_backout_al@V?$allocator@PAVRaven_Bot@@@std@@@std@@QAE@XZ ; std::_Uninitialized_backout_al<std::allocator<Raven_Bot *> >::~_Uninitialized_backout_al<std::allocator<Raven_Bot *> >
PUBLIC	?_Release@?$_Uninitialized_backout_al@V?$allocator@PAVRaven_Bot@@@std@@@std@@QAEPAPAVRaven_Bot@@XZ ; std::_Uninitialized_backout_al<std::allocator<Raven_Bot *> >::_Release
PUBLIC	??$_Emplace_back@PAVRaven_Bot@@@?$_Uninitialized_backout_al@V?$allocator@PAVRaven_Bot@@@std@@@std@@QAEX$$QAPAVRaven_Bot@@@Z ; std::_Uninitialized_backout_al<std::allocator<Raven_Bot *> >::_Emplace_back<Raven_Bot *>
PUBLIC	??$_To_address@PAI@std@@YA?A_PABQAI@Z		; std::_To_address<unsigned int *>
PUBLIC	??$forward@AAI@std@@YAAAIAAI@Z			; std::forward<unsigned int &>
PUBLIC	??$construct@IAAI@?$_Default_allocator_traits@V?$allocator@I@std@@@std@@SAXAAV?$allocator@I@1@QAIAAI@Z ; std::_Default_allocator_traits<std::allocator<unsigned int> >::construct<unsigned int,unsigned int &>
PUBLIC	??$_Voidify_iter@PAPAVRaven_Projectile@@@std@@YAPAXPAPAVRaven_Projectile@@@Z ; std::_Voidify_iter<Raven_Projectile * *>
PUBLIC	??$_To_address@PAPAVRaven_Bot@@@std@@YA?A_PABQAPAVRaven_Bot@@@Z ; std::_To_address<Raven_Bot * *>
PUBLIC	??$forward@PAVRaven_Bot@@@std@@YA$$QAPAVRaven_Bot@@AAPAV1@@Z ; std::forward<Raven_Bot *>
PUBLIC	??$construct@PAVRaven_Bot@@PAV1@@?$_Default_allocator_traits@V?$allocator@PAVRaven_Bot@@@std@@@std@@SAXAAV?$allocator@PAVRaven_Bot@@@1@QAPAVRaven_Bot@@$$QAPAV3@@Z ; std::_Default_allocator_traits<std::allocator<Raven_Bot *> >::construct<Raven_Bot *,Raven_Bot *>
PUBLIC	??$_Voidify_iter@PAI@std@@YAPAXPAI@Z		; std::_Voidify_iter<unsigned int *>
PUBLIC	??_7exception@std@@6B@				; std::exception::`vftable'
PUBLIC	??_C@_0BC@EOODALEL@Unknown?5exception@		; `string'
PUBLIC	??_7bad_alloc@std@@6B@				; std::bad_alloc::`vftable'
PUBLIC	??_7bad_array_new_length@std@@6B@		; std::bad_array_new_length::`vftable'
PUBLIC	??_C@_0BF@KINCDENJ@bad?5array?5new?5length@	; `string'
PUBLIC	__TI3?AVbad_array_new_length@std@@
PUBLIC	__CTA3?AVbad_array_new_length@std@@
PUBLIC	??_R0?AVbad_array_new_length@std@@@8		; std::bad_array_new_length `RTTI Type Descriptor'
PUBLIC	__CT??_R0?AVbad_array_new_length@std@@@8??0bad_array_new_length@std@@QAE@ABV01@@Z12
PUBLIC	??_R0?AVbad_alloc@std@@@8			; std::bad_alloc `RTTI Type Descriptor'
PUBLIC	__CT??_R0?AVbad_alloc@std@@@8??0bad_alloc@std@@QAE@ABV01@@Z12
PUBLIC	??_R0?AVexception@std@@@8			; std::exception `RTTI Type Descriptor'
PUBLIC	__CT??_R0?AVexception@std@@@8??0exception@std@@QAE@ABV01@@Z12
PUBLIC	??_C@_0BB@FCMFBGOM@invalid?5argument@		; `string'
PUBLIC	??_C@_02DKCKIIND@?$CFs@				; `string'
PUBLIC	??_C@_0GC@DJFHHHKN@C?3?2Program?5Files?2Microsoft?5Visu@ ; `string'
PUBLIC	??_C@_1ME@GEFGDEOM@?$AAC?$AA?3?$AA?2?$AAP?$AAr?$AAo?$AAg?$AAr?$AAa?$AAm?$AA?5?$AAF?$AAi?$AAl?$AAe@ ; `string'
PUBLIC	??_C@_11LOCGONAA@@				; `string'
PUBLIC	??_C@_1CG@JNLFBNGN@?$AA?$CC?$AAi?$AAn?$AAv?$AAa?$AAl?$AAi?$AAd?$AA?5?$AAa?$AAr?$AAg?$AAu?$AAm?$AAe@ ; `string'
PUBLIC	??_C@_0BJ@LFDBABJJ@ITERATOR?5LIST?5CORRUPTED?$CB@ ; `string'
PUBLIC	??_C@_1DG@PLBPCAEM@?$AA?$CC?$AAI?$AAT?$AAE?$AAR?$AAA?$AAT?$AAO?$AAR?$AA?5?$AAL?$AAI?$AAS?$AAT?$AA?5@ ; `string'
PUBLIC	??_C@_0BA@JFNIOLAK@string?5too?5long@		; `string'
PUBLIC	?_BUF_SIZE@?$basic_string@DU?$char_traits@D@std@@V?$allocator@D@2@@std@@0IB ; std::basic_string<char,std::char_traits<char>,std::allocator<char> >::_BUF_SIZE
PUBLIC	??_7runtime_error@std@@6B@			; std::runtime_error::`vftable'
PUBLIC	??_R0?AVruntime_error@std@@@8			; std::runtime_error `RTTI Type Descriptor'
PUBLIC	__CT??_R0?AVruntime_error@std@@@8??0runtime_error@std@@QAE@ABV01@@Z12
PUBLIC	??_C@_0BM@IMGJFIHE@?$DMRandInt?$DO?3?5y?5is?5less?5than?5x@ ; `string'
PUBLIC	??_C@_1JO@MMDBPLLI@?$AAC?$AA?3?$AA?2?$AAU?$AAs?$AAe?$AAr?$AAs?$AA?2?$AAl?$AAs?$AAy?$AA0?$AA1?$AA?2@ ; `string'
PUBLIC	??_C@_1EM@JBDGIPGD@?$AAy?$AA?$DO?$AA?$DN?$AAx?$AA?5?$AA?$CG?$AA?$CG?$AA?5?$AA?$CC?$AA?$DM?$AAR?$AAa?$AAn?$AAd?$AAI@ ; `string'
PUBLIC	__TI2?AVruntime_error@std@@
PUBLIC	__CTA2?AVruntime_error@std@@
PUBLIC	??_C@_0CB@OFADFOGG@?$DMPopLuaString?$DO?5Cannot?5retrieve?3@ ; `string'
PUBLIC	??_C@_0DC@KEKNBAEB@can?8t?5increment?5value?9initializ@ ; `string'
PUBLIC	??_C@_0GB@GDCALCPO@C?3?2Program?5Files?2Microsoft?5Visu@ ; `string'
PUBLIC	??_C@_1MC@BJDJHFOD@?$AAC?$AA?3?$AA?2?$AAP?$AAr?$AAo?$AAg?$AAr?$AAa?$AAm?$AA?5?$AAF?$AAi?$AAl?$AAe@ ; `string'
PUBLIC	??_C@_1GI@EDCILPL@?$AA?$CC?$AAc?$AAa?$AAn?$AA?8?$AAt?$AA?5?$AAi?$AAn?$AAc?$AAr?$AAe?$AAm?$AAe?$AAn@ ; `string'
PUBLIC	??_C@_0CJ@OAAAAGPM@can?8t?5increment?5vector?5iterator@ ; `string'
PUBLIC	??_C@_1FG@LDPPKMGP@?$AA?$CC?$AAc?$AAa?$AAn?$AA?8?$AAt?$AA?5?$AAi?$AAn?$AAc?$AAr?$AAe?$AAm?$AAe?$AAn@ ; `string'
PUBLIC	??_C@_0DE@CHADHGFF@can?8t?5dereference?5value?9initial@ ; `string'
PUBLIC	??_C@_1GM@FNBFNBEL@?$AA?$CC?$AAc?$AAa?$AAn?$AA?8?$AAt?$AA?5?$AAd?$AAe?$AAr?$AAe?$AAf?$AAe?$AAr?$AAe@ ; `string'
PUBLIC	??_C@_0CP@MDHADBHN@can?8t?5dereference?5out?5of?5range?5@ ; `string'
PUBLIC	??_C@_1GC@JDCKOLAC@?$AA?$CC?$AAc?$AAa?$AAn?$AA?8?$AAt?$AA?5?$AAd?$AAe?$AAr?$AAe?$AAf?$AAe?$AAr?$AAe@ ; `string'
PUBLIC	??_C@_0DB@ENBCPNKO@cannot?5increment?5value?9initiali@ ; `string'
PUBLIC	??_C@_0FP@KGLKFOGA@C?3?2Program?5Files?2Microsoft?5Visu@ ; `string'
PUBLIC	??_C@_1LO@IMCCBHIA@?$AAC?$AA?3?$AA?2?$AAP?$AAr?$AAo?$AAg?$AAr?$AAa?$AAm?$AA?5?$AAF?$AAi?$AAl?$AAe@ ; `string'
PUBLIC	??_C@_1GG@JLMAGPNK@?$AA?$CC?$AAc?$AAa?$AAn?$AAn?$AAo?$AAt?$AA?5?$AAi?$AAn?$AAc?$AAr?$AAe?$AAm?$AAe@ ; `string'
PUBLIC	??_C@_0CD@PMFMCEG@cannot?5increment?5end?5list?5itera@ ; `string'
PUBLIC	??_C@_1EK@OKKCFDJN@?$AA?$CC?$AAc?$AAa?$AAn?$AAn?$AAo?$AAt?$AA?5?$AAi?$AAn?$AAc?$AAr?$AAe?$AAm?$AAe@ ; `string'
PUBLIC	??_C@_0DD@MBIHGLJE@cannot?5dereference?5value?9initia@ ; `string'
PUBLIC	??_C@_1GK@NKIMOCIG@?$AA?$CC?$AAc?$AAa?$AAn?$AAn?$AAo?$AAt?$AA?5?$AAd?$AAe?$AAr?$AAe?$AAf?$AAe?$AAr@ ; `string'
PUBLIC	??_C@_0CF@JCBFHMPL@cannot?5dereference?5end?5list?5ite@ ; `string'
PUBLIC	??_C@_1EO@CNEFBDCF@?$AA?$CC?$AAc?$AAa?$AAn?$AAn?$AAo?$AAt?$AA?5?$AAd?$AAe?$AAr?$AAe?$AAf?$AAe?$AAr@ ; `string'
PUBLIC	??_C@_0CC@KEJJOMBH@list?5erase?5iterator?5outside?5ran@ ; `string'
PUBLIC	??_C@_1EI@FHIDKIBN@?$AA?$CC?$AAl?$AAi?$AAs?$AAt?$AA?5?$AAe?$AAr?$AAa?$AAs?$AAe?$AA?5?$AAi?$AAt?$AAe@ ; `string'
PUBLIC	??_C@_0BM@JDPDBGEE@back?$CI?$CJ?5called?5on?5empty?5list@ ; `string'
PUBLIC	??_C@_1DM@EADKENAA@?$AA?$CC?$AAb?$AAa?$AAc?$AAk?$AA?$CI?$AA?$CJ?$AA?5?$AAc?$AAa?$AAl?$AAl?$AAe?$AAd?$AA?5@ ; `string'
PUBLIC	?id@?$codecvt@DDU_Mbstatet@@@std@@2V0locale@2@A	; std::codecvt<char,char,_Mbstatet>::id
PUBLIC	?id@?$num_put@DV?$ostreambuf_iterator@DU?$char_traits@D@std@@@std@@@std@@2V0locale@2@A ; std::num_put<char,std::ostreambuf_iterator<char,std::char_traits<char> > >::id
PUBLIC	??_C@_0BO@PFKOHNJC@vector?5subscript?5out?5of?5range@ ; `string'
PUBLIC	??_C@_1EA@LEKOKFNB@?$AA?$CC?$AAv?$AAe?$AAc?$AAt?$AAo?$AAr?$AA?5?$AAs?$AAu?$AAb?$AAs?$AAc?$AAr?$AAi@ ; `string'
PUBLIC	?id@?$numpunct@D@std@@2V0locale@2@A		; std::numpunct<char>::id
PUBLIC	??_C@_0BM@BALDKKHE@list?5iterators?5incompatible@ ; `string'
PUBLIC	??_C@_1DM@KDLJAKOP@?$AA?$CC?$AAl?$AAi?$AAs?$AAt?$AA?5?$AAi?$AAt?$AAe?$AAr?$AAa?$AAt?$AAo?$AAr?$AAs@ ; `string'
PUBLIC	??_C@_0DG@KGHKKGBC@null?5pointer?5cannot?5point?5to?5a?5@ ; `string'
PUBLIC	??_C@_1HA@FACCKGGH@?$AA?$CC?$AAn?$AAu?$AAl?$AAl?$AA?5?$AAp?$AAo?$AAi?$AAn?$AAt?$AAe?$AAr?$AA?5?$AAc@ ; `string'
PUBLIC	??_C@_0BO@CAOBBIOC@vector?5iterators?5incompatible@ ; `string'
PUBLIC	??_C@_1EA@DJDGNIII@?$AA?$CC?$AAv?$AAe?$AAc?$AAt?$AAo?$AAr?$AA?5?$AAi?$AAt?$AAe?$AAr?$AAa?$AAt?$AAo@ ; `string'
PUBLIC	??_C@_0CB@NOKEJIID@?$DMPopLuaNumber?$DO?5Cannot?5retrieve?3@ ; `string'
PUBLIC	??_C@_0O@NKNMEGII@list?5too?5long@		; `string'
PUBLIC	?id@?$num_get@DV?$istreambuf_iterator@DU?$char_traits@D@std@@@std@@@std@@2V0locale@2@A ; std::num_get<char,std::istreambuf_iterator<char,std::char_traits<char> > >::id
PUBLIC	??_C@_0BA@FOIKENOD@vector?5too?5long@		; `string'
PUBLIC	??_R4exception@std@@6B@				; std::exception::`RTTI Complete Object Locator'
PUBLIC	??_R3exception@std@@8				; std::exception::`RTTI Class Hierarchy Descriptor'
PUBLIC	??_R2exception@std@@8				; std::exception::`RTTI Base Class Array'
PUBLIC	??_R1A@?0A@EA@exception@std@@8			; std::exception::`RTTI Base Class Descriptor at (0,-1,0,64)'
PUBLIC	??_R4bad_alloc@std@@6B@				; std::bad_alloc::`RTTI Complete Object Locator'
PUBLIC	??_R3bad_alloc@std@@8				; std::bad_alloc::`RTTI Class Hierarchy Descriptor'
PUBLIC	??_R2bad_alloc@std@@8				; std::bad_alloc::`RTTI Base Class Array'
PUBLIC	??_R1A@?0A@EA@bad_alloc@std@@8			; std::bad_alloc::`RTTI Base Class Descriptor at (0,-1,0,64)'
PUBLIC	??_R4bad_array_new_length@std@@6B@		; std::bad_array_new_length::`RTTI Complete Object Locator'
PUBLIC	??_R3bad_array_new_length@std@@8		; std::bad_array_new_length::`RTTI Class Hierarchy Descriptor'
PUBLIC	??_R2bad_array_new_length@std@@8		; std::bad_array_new_length::`RTTI Base Class Array'
PUBLIC	??_R1A@?0A@EA@bad_array_new_length@std@@8	; std::bad_array_new_length::`RTTI Base Class Descriptor at (0,-1,0,64)'
PUBLIC	??_R4runtime_error@std@@6B@			; std::runtime_error::`RTTI Complete Object Locator'
PUBLIC	??_R3runtime_error@std@@8			; std::runtime_error::`RTTI Class Hierarchy Descriptor'
PUBLIC	??_R2runtime_error@std@@8			; std::runtime_error::`RTTI Base Class Array'
PUBLIC	??_R1A@?0A@EA@runtime_error@std@@8		; std::runtime_error::`RTTI Base Class Descriptor at (0,-1,0,64)'
PUBLIC	__real@0000000000000000
PUBLIC	__real@3cb0000000000000
PUBLIC	__real@3fe0000000000000
PUBLIC	__real@3ff0000000000000
PUBLIC	__real@4000000000000000
PUBLIC	__real@4049000000000000
PUBLIC	__real@7fefffffffffffff
EXTRN	??2@YAPAXI@Z:PROC				; operator new
EXTRN	??3@YAXPAXI@Z:PROC				; operator delete
EXTRN	__invalid_parameter:PROC
EXTRN	_cos:PROC
EXTRN	_sqrt:PROC
EXTRN	_rand:PROC
EXTRN	_memcpy:PROC
EXTRN	_memmove:PROC
EXTRN	__CrtDbgReport:PROC
EXTRN	??0_Lockit@std@@QAE@H@Z:PROC			; std::_Lockit::_Lockit
EXTRN	??1_Lockit@std@@QAE@XZ:PROC			; std::_Lockit::~_Lockit
EXTRN	___std_exception_copy:PROC
EXTRN	___std_exception_destroy:PROC
EXTRN	??_Eexception@std@@UAEPAXI@Z:PROC		; std::exception::`vector deleting destructor'
EXTRN	??_Ebad_alloc@std@@UAEPAXI@Z:PROC		; std::bad_alloc::`vector deleting destructor'
EXTRN	??_Ebad_array_new_length@std@@UAEPAXI@Z:PROC	; std::bad_array_new_length::`vector deleting destructor'
EXTRN	_strlen:PROC
EXTRN	?_Xlength_error@std@@YAXPBD@Z:PROC		; std::_Xlength_error
EXTRN	__wassert:PROC
EXTRN	??_Eruntime_error@std@@UAEPAXI@Z:PROC		; std::runtime_error::`vector deleting destructor'
EXTRN	__imp__Ellipse@20:PROC
EXTRN	__imp__GetStockObject@4:PROC
EXTRN	__imp__LineTo@12:PROC
EXTRN	__imp__SelectObject@8:PROC
EXTRN	__imp__SetTextColor@8:PROC
EXTRN	__imp__MoveToEx@16:PROC
EXTRN	__imp__TextOutA@20:PROC
EXTRN	__imp__GetAsyncKeyState@4:PROC
EXTRN	?Instance@Cgdi@@SAPAV1@XZ:PROC			; Cgdi::Instance
EXTRN	??0Raven_Bot@@QAE@PAVRaven_Game@@UVector2D@@@Z:PROC ; Raven_Bot::Raven_Bot
EXTRN	?RotateFacingTowardPosition@Raven_Bot@@QAE_NUVector2D@@@Z:PROC ; Raven_Bot::RotateFacingTowardPosition
EXTRN	?FireWeapon@Raven_Bot@@QAEXUVector2D@@@Z:PROC	; Raven_Bot::FireWeapon
EXTRN	?ChangeWeapon@Raven_Bot@@QAEXI@Z:PROC		; Raven_Bot::ChangeWeapon
EXTRN	?TakePossession@Raven_Bot@@QAEXXZ:PROC		; Raven_Bot::TakePossession
EXTRN	?Exorcise@Raven_Bot@@QAEXXZ:PROC		; Raven_Bot::Exorcise
EXTRN	?Spawn@Raven_Bot@@QAEXUVector2D@@@Z:PROC	; Raven_Bot::Spawn
EXTRN	?ErrorBox@@YAXPAD@Z:PROC			; ErrorBox
EXTRN	?GetClientCursorPosition@@YA?AUVector2D@@XZ:PROC ; GetClientCursorPosition
EXTRN	_lua_settop:PROC
EXTRN	_lua_isnumber:PROC
EXTRN	_lua_isstring:PROC
EXTRN	_lua_tonumberx:PROC
EXTRN	_lua_tolstring:PROC
EXTRN	_lua_getglobal:PROC
EXTRN	?Instance@Raven_Scriptor@@SAPAV1@XZ:PROC	; Raven_Scriptor::Instance
EXTRN	??0Raven_Map@@QAE@XZ:PROC			; Raven_Map::Raven_Map
EXTRN	??1Raven_Map@@QAE@XZ:PROC			; Raven_Map::~Raven_Map
EXTRN	?Render@Raven_Map@@QAEXXZ:PROC			; Raven_Map::Render
EXTRN	?LoadMap@Raven_Map@@QAE_NABV?$basic_string@DU?$char_traits@D@std@@V?$allocator@D@2@@std@@@Z:PROC ; Raven_Map::LoadMap
EXTRN	?UpdateTriggerSystem@Raven_Map@@QAEXAAV?$list@PAVRaven_Bot@@V?$allocator@PAVRaven_Bot@@@std@@@std@@@Z:PROC ; Raven_Map::UpdateTriggerSystem
EXTRN	?CycleOnce@Raven_PathPlanner@@QBEHXZ:PROC	; Raven_PathPlanner::CycleOnce
EXTRN	?Instance@EntityManager@@SAPAV1@XZ:PROC		; EntityManager::Instance
EXTRN	?RegisterEntity@EntityManager@@QAEXPAVBaseGameEntity@@@Z:PROC ; EntityManager::RegisterEntity
EXTRN	?GetEntityFromID@EntityManager@@QBEPAVBaseGameEntity@@H@Z:PROC ; EntityManager::GetEntityFromID
EXTRN	?Instance@Raven_UserOptions@@SAPAV1@XZ:PROC	; Raven_UserOptions::Instance
EXTRN	?RenderBoxesAroundRecentlySensed@Raven_SensoryMemory@@QBEXXZ:PROC ; Raven_SensoryMemory::RenderBoxesAroundRecentlySensed
EXTRN	?RenderDesirabilities@Raven_WeaponSystem@@QBEXXZ:PROC ; Raven_WeaponSystem::RenderDesirabilities
EXTRN	?Instance@MessageDispatcher@@SAPAV1@XZ:PROC	; MessageDispatcher::Instance
EXTRN	?DispatchMsg@MessageDispatcher@@QAEXNHHHPAX@Z:PROC ; MessageDispatcher::DispatchMsg
EXTRN	??0GraveMarkers@@QAE@N@Z:PROC			; GraveMarkers::GraveMarkers
EXTRN	?Update@GraveMarkers@@QAEXXZ:PROC		; GraveMarkers::Update
EXTRN	?Render@GraveMarkers@@QAEXXZ:PROC		; GraveMarkers::Render
EXTRN	?AddGrave@GraveMarkers@@QAEXUVector2D@@@Z:PROC	; GraveMarkers::AddGrave
EXTRN	??0Rocket@@QAE@PAVRaven_Bot@@UVector2D@@@Z:PROC	; Rocket::Rocket
EXTRN	??0Pellet@@QAE@PAVRaven_Bot@@UVector2D@@@Z:PROC	; Pellet::Pellet
EXTRN	??0Slug@@QAE@PAVRaven_Bot@@UVector2D@@@Z:PROC	; Slug::Slug
EXTRN	??0Bolt@@QAE@PAVRaven_Bot@@UVector2D@@@Z:PROC	; Bolt::Bolt
EXTRN	?AddGoal_MoveToPosition@Goal_Think@@QAEXUVector2D@@@Z:PROC ; Goal_Think::AddGoal_MoveToPosition
EXTRN	?QueueGoal_MoveToPosition@Goal_Think@@QAEXUVector2D@@@Z:PROC ; Goal_Think::QueueGoal_MoveToPosition
EXTRN	?RenderEvaluations@Goal_Think@@QBEXHH@Z:PROC	; Goal_Think::RenderEvaluations
EXTRN	?Instance@GoalTypeToString@@SAPAV1@XZ:PROC	; GoalTypeToString::Instance
EXTRN	@_RTC_CheckStackVars@8:PROC
EXTRN	@__security_check_cookie@4:PROC
EXTRN	__CxxThrowException@8:PROC
EXTRN	__RTC_CheckEsp:PROC
EXTRN	__RTC_InitBase:PROC
EXTRN	__RTC_Shutdown:PROC
EXTRN	___CxxFrameHandler3:PROC
EXTRN	__ftol2_sse:PROC
EXTRN	??_7type_info@@6B@:QWORD			; type_info::`vftable'
EXTRN	___security_cookie:DWORD
EXTRN	__fltused:DWORD
;	COMDAT ?id@?$codecvt@DDU_Mbstatet@@@std@@2V0locale@2@A
_BSS	SEGMENT
?id@?$codecvt@DDU_Mbstatet@@@std@@2V0locale@2@A DD 01H DUP (?) ; std::codecvt<char,char,_Mbstatet>::id
_BSS	ENDS
;	COMDAT ?id@?$num_put@DV?$ostreambuf_iterator@DU?$char_traits@D@std@@@std@@@std@@2V0locale@2@A
_BSS	SEGMENT
?id@?$num_put@DV?$ostreambuf_iterator@DU?$char_traits@D@std@@@std@@@std@@2V0locale@2@A DD 01H DUP (?) ; std::num_put<char,std::ostreambuf_iterator<char,std::char_traits<char> > >::id
_BSS	ENDS
;	COMDAT ?id@?$numpunct@D@std@@2V0locale@2@A
_BSS	SEGMENT
?id@?$numpunct@D@std@@2V0locale@2@A DD 01H DUP (?)	; std::numpunct<char>::id
_BSS	ENDS
;	COMDAT ?id@?$num_get@DV?$istreambuf_iterator@DU?$char_traits@D@std@@@std@@@std@@2V0locale@2@A
_BSS	SEGMENT
?id@?$num_get@DV?$istreambuf_iterator@DU?$char_traits@D@std@@@std@@@std@@2V0locale@2@A DD 01H DUP (?) ; std::num_get<char,std::istreambuf_iterator<char,std::char_traits<char> > >::id
_BSS	ENDS
;	COMDAT CRT$XCU
CRT$XCU	SEGMENT
??id$initializer$@?$num_put@DV?$ostreambuf_iterator@DU?$char_traits@D@std@@@std@@@std@@2P6AXXZA@@3P6AXXZA DD FLAT:??__E?id@?$num_put@DV?$ostreambuf_iterator@DU?$char_traits@D@std@@@std@@@std@@2V0locale@2@A@@YAXXZ ; ??id$initializer$@?$num_put@DV?$ostreambuf_iterator@DU?$char_traits@D@std@@@std@@@std@@2P6AXXZA@@3P6AXXZA
CRT$XCU	ENDS
;	COMDAT __real@7fefffffffffffff
CONST	SEGMENT
__real@7fefffffffffffff DQ 07fefffffffffffffr	; 1.79769e+308
CONST	ENDS
;	COMDAT __real@4049000000000000
CONST	SEGMENT
__real@4049000000000000 DQ 04049000000000000r	; 50
CONST	ENDS
;	COMDAT __real@4000000000000000
CONST	SEGMENT
__real@4000000000000000 DQ 04000000000000000r	; 2
CONST	ENDS
;	COMDAT __real@3ff0000000000000
CONST	SEGMENT
__real@3ff0000000000000 DQ 03ff0000000000000r	; 1
CONST	ENDS
;	COMDAT __real@3fe0000000000000
CONST	SEGMENT
__real@3fe0000000000000 DQ 03fe0000000000000r	; 0.5
CONST	ENDS
;	COMDAT __real@3cb0000000000000
CONST	SEGMENT
__real@3cb0000000000000 DQ 03cb0000000000000r	; 2.22045e-16
CONST	ENDS
;	COMDAT __real@0000000000000000
CONST	SEGMENT
__real@0000000000000000 DQ 00000000000000000r	; 0
CONST	ENDS
;	COMDAT rtc$TMZ
rtc$TMZ	SEGMENT
__RTC_Shutdown.rtc$TMZ DD FLAT:__RTC_Shutdown
rtc$TMZ	ENDS
;	COMDAT rtc$IMZ
rtc$IMZ	SEGMENT
__RTC_InitBase.rtc$IMZ DD FLAT:__RTC_InitBase
rtc$IMZ	ENDS
;	COMDAT ??_R1A@?0A@EA@runtime_error@std@@8
rdata$r	SEGMENT
??_R1A@?0A@EA@runtime_error@std@@8 DD FLAT:??_R0?AVruntime_error@std@@@8 ; std::runtime_error::`RTTI Base Class Descriptor at (0,-1,0,64)'
	DD	01H
	DD	00H
	DD	0ffffffffH
	DD	00H
	DD	040H
	DD	FLAT:??_R3runtime_error@std@@8
rdata$r	ENDS
;	COMDAT ??_R2runtime_error@std@@8
rdata$r	SEGMENT
??_R2runtime_error@std@@8 DD FLAT:??_R1A@?0A@EA@runtime_error@std@@8 ; std::runtime_error::`RTTI Base Class Array'
	DD	FLAT:??_R1A@?0A@EA@exception@std@@8
rdata$r	ENDS
;	COMDAT ??_R3runtime_error@std@@8
rdata$r	SEGMENT
??_R3runtime_error@std@@8 DD 00H			; std::runtime_error::`RTTI Class Hierarchy Descriptor'
	DD	00H
	DD	02H
	DD	FLAT:??_R2runtime_error@std@@8
rdata$r	ENDS
;	COMDAT ??_R4runtime_error@std@@6B@
rdata$r	SEGMENT
??_R4runtime_error@std@@6B@ DD 00H			; std::runtime_error::`RTTI Complete Object Locator'
	DD	00H
	DD	00H
	DD	FLAT:??_R0?AVruntime_error@std@@@8
	DD	FLAT:??_R3runtime_error@std@@8
rdata$r	ENDS
;	COMDAT ??_R1A@?0A@EA@bad_array_new_length@std@@8
rdata$r	SEGMENT
??_R1A@?0A@EA@bad_array_new_length@std@@8 DD FLAT:??_R0?AVbad_array_new_length@std@@@8 ; std::bad_array_new_length::`RTTI Base Class Descriptor at (0,-1,0,64)'
	DD	02H
	DD	00H
	DD	0ffffffffH
	DD	00H
	DD	040H
	DD	FLAT:??_R3bad_array_new_length@std@@8
rdata$r	ENDS
;	COMDAT ??_R2bad_array_new_length@std@@8
rdata$r	SEGMENT
??_R2bad_array_new_length@std@@8 DD FLAT:??_R1A@?0A@EA@bad_array_new_length@std@@8 ; std::bad_array_new_length::`RTTI Base Class Array'
	DD	FLAT:??_R1A@?0A@EA@bad_alloc@std@@8
	DD	FLAT:??_R1A@?0A@EA@exception@std@@8
rdata$r	ENDS
;	COMDAT ??_R3bad_array_new_length@std@@8
rdata$r	SEGMENT
??_R3bad_array_new_length@std@@8 DD 00H			; std::bad_array_new_length::`RTTI Class Hierarchy Descriptor'
	DD	00H
	DD	03H
	DD	FLAT:??_R2bad_array_new_length@std@@8
rdata$r	ENDS
;	COMDAT ??_R4bad_array_new_length@std@@6B@
rdata$r	SEGMENT
??_R4bad_array_new_length@std@@6B@ DD 00H		; std::bad_array_new_length::`RTTI Complete Object Locator'
	DD	00H
	DD	00H
	DD	FLAT:??_R0?AVbad_array_new_length@std@@@8
	DD	FLAT:??_R3bad_array_new_length@std@@8
rdata$r	ENDS
;	COMDAT ??_R1A@?0A@EA@bad_alloc@std@@8
rdata$r	SEGMENT
??_R1A@?0A@EA@bad_alloc@std@@8 DD FLAT:??_R0?AVbad_alloc@std@@@8 ; std::bad_alloc::`RTTI Base Class Descriptor at (0,-1,0,64)'
	DD	01H
	DD	00H
	DD	0ffffffffH
	DD	00H
	DD	040H
	DD	FLAT:??_R3bad_alloc@std@@8
rdata$r	ENDS
;	COMDAT ??_R2bad_alloc@std@@8
rdata$r	SEGMENT
??_R2bad_alloc@std@@8 DD FLAT:??_R1A@?0A@EA@bad_alloc@std@@8 ; std::bad_alloc::`RTTI Base Class Array'
	DD	FLAT:??_R1A@?0A@EA@exception@std@@8
rdata$r	ENDS
;	COMDAT ??_R3bad_alloc@std@@8
rdata$r	SEGMENT
??_R3bad_alloc@std@@8 DD 00H				; std::bad_alloc::`RTTI Class Hierarchy Descriptor'
	DD	00H
	DD	02H
	DD	FLAT:??_R2bad_alloc@std@@8
rdata$r	ENDS
;	COMDAT ??_R4bad_alloc@std@@6B@
rdata$r	SEGMENT
??_R4bad_alloc@std@@6B@ DD 00H				; std::bad_alloc::`RTTI Complete Object Locator'
	DD	00H
	DD	00H
	DD	FLAT:??_R0?AVbad_alloc@std@@@8
	DD	FLAT:??_R3bad_alloc@std@@8
rdata$r	ENDS
;	COMDAT ??_R1A@?0A@EA@exception@std@@8
rdata$r	SEGMENT
??_R1A@?0A@EA@exception@std@@8 DD FLAT:??_R0?AVexception@std@@@8 ; std::exception::`RTTI Base Class Descriptor at (0,-1,0,64)'
	DD	00H
	DD	00H
	DD	0ffffffffH
	DD	00H
	DD	040H
	DD	FLAT:??_R3exception@std@@8
rdata$r	ENDS
;	COMDAT ??_R2exception@std@@8
rdata$r	SEGMENT
??_R2exception@std@@8 DD FLAT:??_R1A@?0A@EA@exception@std@@8 ; std::exception::`RTTI Base Class Array'
rdata$r	ENDS
;	COMDAT ??_R3exception@std@@8
rdata$r	SEGMENT
??_R3exception@std@@8 DD 00H				; std::exception::`RTTI Class Hierarchy Descriptor'
	DD	00H
	DD	01H
	DD	FLAT:??_R2exception@std@@8
rdata$r	ENDS
;	COMDAT ??_R4exception@std@@6B@
rdata$r	SEGMENT
??_R4exception@std@@6B@ DD 00H				; std::exception::`RTTI Complete Object Locator'
	DD	00H
	DD	00H
	DD	FLAT:??_R0?AVexception@std@@@8
	DD	FLAT:??_R3exception@std@@8
rdata$r	ENDS
;	COMDAT ??_C@_0BA@FOIKENOD@vector?5too?5long@
CONST	SEGMENT
??_C@_0BA@FOIKENOD@vector?5too?5long@ DB 'vector too long', 00H ; `string'
CONST	ENDS
;	COMDAT ??_C@_0O@NKNMEGII@list?5too?5long@
CONST	SEGMENT
??_C@_0O@NKNMEGII@list?5too?5long@ DB 'list too long', 00H ; `string'
CONST	ENDS
;	COMDAT ??_C@_0CB@NOKEJIID@?$DMPopLuaNumber?$DO?5Cannot?5retrieve?3@
CONST	SEGMENT
??_C@_0CB@NOKEJIID@?$DMPopLuaNumber?$DO?5Cannot?5retrieve?3@ DB '<PopLuaN'
	DB	'umber> Cannot retrieve: ', 00H		; `string'
CONST	ENDS
;	COMDAT ??_C@_1EA@DJDGNIII@?$AA?$CC?$AAv?$AAe?$AAc?$AAt?$AAo?$AAr?$AA?5?$AAi?$AAt?$AAe?$AAr?$AAa?$AAt?$AAo@
CONST	SEGMENT
??_C@_1EA@DJDGNIII@?$AA?$CC?$AAv?$AAe?$AAc?$AAt?$AAo?$AAr?$AA?5?$AAi?$AAt?$AAe?$AAr?$AAa?$AAt?$AAo@ DB '"'
	DB	00H, 'v', 00H, 'e', 00H, 'c', 00H, 't', 00H, 'o', 00H, 'r', 00H
	DB	' ', 00H, 'i', 00H, 't', 00H, 'e', 00H, 'r', 00H, 'a', 00H, 't'
	DB	00H, 'o', 00H, 'r', 00H, 's', 00H, ' ', 00H, 'i', 00H, 'n', 00H
	DB	'c', 00H, 'o', 00H, 'm', 00H, 'p', 00H, 'a', 00H, 't', 00H, 'i'
	DB	00H, 'b', 00H, 'l', 00H, 'e', 00H, '"', 00H, 00H, 00H ; `string'
CONST	ENDS
;	COMDAT ??_C@_0BO@CAOBBIOC@vector?5iterators?5incompatible@
CONST	SEGMENT
??_C@_0BO@CAOBBIOC@vector?5iterators?5incompatible@ DB 'vector iterators '
	DB	'incompatible', 00H				; `string'
CONST	ENDS
;	COMDAT ??_C@_1HA@FACCKGGH@?$AA?$CC?$AAn?$AAu?$AAl?$AAl?$AA?5?$AAp?$AAo?$AAi?$AAn?$AAt?$AAe?$AAr?$AA?5?$AAc@
CONST	SEGMENT
??_C@_1HA@FACCKGGH@?$AA?$CC?$AAn?$AAu?$AAl?$AAl?$AA?5?$AAp?$AAo?$AAi?$AAn?$AAt?$AAe?$AAr?$AA?5?$AAc@ DB '"'
	DB	00H, 'n', 00H, 'u', 00H, 'l', 00H, 'l', 00H, ' ', 00H, 'p', 00H
	DB	'o', 00H, 'i', 00H, 'n', 00H, 't', 00H, 'e', 00H, 'r', 00H, ' '
	DB	00H, 'c', 00H, 'a', 00H, 'n', 00H, 'n', 00H, 'o', 00H, 't', 00H
	DB	' ', 00H, 'p', 00H, 'o', 00H, 'i', 00H, 'n', 00H, 't', 00H, ' '
	DB	00H, 't', 00H, 'o', 00H, ' ', 00H, 'a', 00H, ' ', 00H, 'b', 00H
	DB	'l', 00H, 'o', 00H, 'c', 00H, 'k', 00H, ' ', 00H, 'o', 00H, 'f'
	DB	00H, ' ', 00H, 'n', 00H, 'o', 00H, 'n', 00H, '-', 00H, 'z', 00H
	DB	'e', 00H, 'r', 00H, 'o', 00H, ' ', 00H, 's', 00H, 'i', 00H, 'z'
	DB	00H, 'e', 00H, '"', 00H, 00H, 00H		; `string'
CONST	ENDS
;	COMDAT ??_C@_0DG@KGHKKGBC@null?5pointer?5cannot?5point?5to?5a?5@
CONST	SEGMENT
??_C@_0DG@KGHKKGBC@null?5pointer?5cannot?5point?5to?5a?5@ DB 'null pointe'
	DB	'r cannot point to a block of non-zero size', 00H ; `string'
CONST	ENDS
;	COMDAT ??_C@_1DM@KDLJAKOP@?$AA?$CC?$AAl?$AAi?$AAs?$AAt?$AA?5?$AAi?$AAt?$AAe?$AAr?$AAa?$AAt?$AAo?$AAr?$AAs@
CONST	SEGMENT
??_C@_1DM@KDLJAKOP@?$AA?$CC?$AAl?$AAi?$AAs?$AAt?$AA?5?$AAi?$AAt?$AAe?$AAr?$AAa?$AAt?$AAo?$AAr?$AAs@ DB '"'
	DB	00H, 'l', 00H, 'i', 00H, 's', 00H, 't', 00H, ' ', 00H, 'i', 00H
	DB	't', 00H, 'e', 00H, 'r', 00H, 'a', 00H, 't', 00H, 'o', 00H, 'r'
	DB	00H, 's', 00H, ' ', 00H, 'i', 00H, 'n', 00H, 'c', 00H, 'o', 00H
	DB	'm', 00H, 'p', 00H, 'a', 00H, 't', 00H, 'i', 00H, 'b', 00H, 'l'
	DB	00H, 'e', 00H, '"', 00H, 00H, 00H		; `string'
CONST	ENDS
;	COMDAT ??_C@_0BM@BALDKKHE@list?5iterators?5incompatible@
CONST	SEGMENT
??_C@_0BM@BALDKKHE@list?5iterators?5incompatible@ DB 'list iterators inco'
	DB	'mpatible', 00H				; `string'
CONST	ENDS
;	COMDAT ??_C@_1EA@LEKOKFNB@?$AA?$CC?$AAv?$AAe?$AAc?$AAt?$AAo?$AAr?$AA?5?$AAs?$AAu?$AAb?$AAs?$AAc?$AAr?$AAi@
CONST	SEGMENT
??_C@_1EA@LEKOKFNB@?$AA?$CC?$AAv?$AAe?$AAc?$AAt?$AAo?$AAr?$AA?5?$AAs?$AAu?$AAb?$AAs?$AAc?$AAr?$AAi@ DB '"'
	DB	00H, 'v', 00H, 'e', 00H, 'c', 00H, 't', 00H, 'o', 00H, 'r', 00H
	DB	' ', 00H, 's', 00H, 'u', 00H, 'b', 00H, 's', 00H, 'c', 00H, 'r'
	DB	00H, 'i', 00H, 'p', 00H, 't', 00H, ' ', 00H, 'o', 00H, 'u', 00H
	DB	't', 00H, ' ', 00H, 'o', 00H, 'f', 00H, ' ', 00H, 'r', 00H, 'a'
	DB	00H, 'n', 00H, 'g', 00H, 'e', 00H, '"', 00H, 00H, 00H ; `string'
CONST	ENDS
;	COMDAT ??_C@_0BO@PFKOHNJC@vector?5subscript?5out?5of?5range@
CONST	SEGMENT
??_C@_0BO@PFKOHNJC@vector?5subscript?5out?5of?5range@ DB 'vector subscrip'
	DB	't out of range', 00H			; `string'
CONST	ENDS
;	COMDAT ??_C@_1DM@EADKENAA@?$AA?$CC?$AAb?$AAa?$AAc?$AAk?$AA?$CI?$AA?$CJ?$AA?5?$AAc?$AAa?$AAl?$AAl?$AAe?$AAd?$AA?5@
CONST	SEGMENT
??_C@_1DM@EADKENAA@?$AA?$CC?$AAb?$AAa?$AAc?$AAk?$AA?$CI?$AA?$CJ?$AA?5?$AAc?$AAa?$AAl?$AAl?$AAe?$AAd?$AA?5@ DB '"'
	DB	00H, 'b', 00H, 'a', 00H, 'c', 00H, 'k', 00H, '(', 00H, ')', 00H
	DB	' ', 00H, 'c', 00H, 'a', 00H, 'l', 00H, 'l', 00H, 'e', 00H, 'd'
	DB	00H, ' ', 00H, 'o', 00H, 'n', 00H, ' ', 00H, 'e', 00H, 'm', 00H
	DB	'p', 00H, 't', 00H, 'y', 00H, ' ', 00H, 'l', 00H, 'i', 00H, 's'
	DB	00H, 't', 00H, '"', 00H, 00H, 00H		; `string'
CONST	ENDS
;	COMDAT ??_C@_0BM@JDPDBGEE@back?$CI?$CJ?5called?5on?5empty?5list@
CONST	SEGMENT
??_C@_0BM@JDPDBGEE@back?$CI?$CJ?5called?5on?5empty?5list@ DB 'back() call'
	DB	'ed on empty list', 00H			; `string'
CONST	ENDS
;	COMDAT ??_C@_1EI@FHIDKIBN@?$AA?$CC?$AAl?$AAi?$AAs?$AAt?$AA?5?$AAe?$AAr?$AAa?$AAs?$AAe?$AA?5?$AAi?$AAt?$AAe@
CONST	SEGMENT
??_C@_1EI@FHIDKIBN@?$AA?$CC?$AAl?$AAi?$AAs?$AAt?$AA?5?$AAe?$AAr?$AAa?$AAs?$AAe?$AA?5?$AAi?$AAt?$AAe@ DB '"'
	DB	00H, 'l', 00H, 'i', 00H, 's', 00H, 't', 00H, ' ', 00H, 'e', 00H
	DB	'r', 00H, 'a', 00H, 's', 00H, 'e', 00H, ' ', 00H, 'i', 00H, 't'
	DB	00H, 'e', 00H, 'r', 00H, 'a', 00H, 't', 00H, 'o', 00H, 'r', 00H
	DB	' ', 00H, 'o', 00H, 'u', 00H, 't', 00H, 's', 00H, 'i', 00H, 'd'
	DB	00H, 'e', 00H, ' ', 00H, 'r', 00H, 'a', 00H, 'n', 00H, 'g', 00H
	DB	'e', 00H, '"', 00H, 00H, 00H			; `string'
CONST	ENDS
;	COMDAT ??_C@_0CC@KEJJOMBH@list?5erase?5iterator?5outside?5ran@
CONST	SEGMENT
??_C@_0CC@KEJJOMBH@list?5erase?5iterator?5outside?5ran@ DB 'list erase it'
	DB	'erator outside range', 00H			; `string'
CONST	ENDS
;	COMDAT ??_C@_1EO@CNEFBDCF@?$AA?$CC?$AAc?$AAa?$AAn?$AAn?$AAo?$AAt?$AA?5?$AAd?$AAe?$AAr?$AAe?$AAf?$AAe?$AAr@
CONST	SEGMENT
??_C@_1EO@CNEFBDCF@?$AA?$CC?$AAc?$AAa?$AAn?$AAn?$AAo?$AAt?$AA?5?$AAd?$AAe?$AAr?$AAe?$AAf?$AAe?$AAr@ DB '"'
	DB	00H, 'c', 00H, 'a', 00H, 'n', 00H, 'n', 00H, 'o', 00H, 't', 00H
	DB	' ', 00H, 'd', 00H, 'e', 00H, 'r', 00H, 'e', 00H, 'f', 00H, 'e'
	DB	00H, 'r', 00H, 'e', 00H, 'n', 00H, 'c', 00H, 'e', 00H, ' ', 00H
	DB	'e', 00H, 'n', 00H, 'd', 00H, ' ', 00H, 'l', 00H, 'i', 00H, 's'
	DB	00H, 't', 00H, ' ', 00H, 'i', 00H, 't', 00H, 'e', 00H, 'r', 00H
	DB	'a', 00H, 't', 00H, 'o', 00H, 'r', 00H, '"', 00H, 00H, 00H ; `string'
CONST	ENDS
;	COMDAT ??_C@_0CF@JCBFHMPL@cannot?5dereference?5end?5list?5ite@
CONST	SEGMENT
??_C@_0CF@JCBFHMPL@cannot?5dereference?5end?5list?5ite@ DB 'cannot derefe'
	DB	'rence end list iterator', 00H		; `string'
CONST	ENDS
;	COMDAT ??_C@_1GK@NKIMOCIG@?$AA?$CC?$AAc?$AAa?$AAn?$AAn?$AAo?$AAt?$AA?5?$AAd?$AAe?$AAr?$AAe?$AAf?$AAe?$AAr@
CONST	SEGMENT
??_C@_1GK@NKIMOCIG@?$AA?$CC?$AAc?$AAa?$AAn?$AAn?$AAo?$AAt?$AA?5?$AAd?$AAe?$AAr?$AAe?$AAf?$AAe?$AAr@ DB '"'
	DB	00H, 'c', 00H, 'a', 00H, 'n', 00H, 'n', 00H, 'o', 00H, 't', 00H
	DB	' ', 00H, 'd', 00H, 'e', 00H, 'r', 00H, 'e', 00H, 'f', 00H, 'e'
	DB	00H, 'r', 00H, 'e', 00H, 'n', 00H, 'c', 00H, 'e', 00H, ' ', 00H
	DB	'v', 00H, 'a', 00H, 'l', 00H, 'u', 00H, 'e', 00H, '-', 00H, 'i'
	DB	00H, 'n', 00H, 'i', 00H, 't', 00H, 'i', 00H, 'a', 00H, 'l', 00H
	DB	'i', 00H, 'z', 00H, 'e', 00H, 'd', 00H, ' ', 00H, 'l', 00H, 'i'
	DB	00H, 's', 00H, 't', 00H, ' ', 00H, 'i', 00H, 't', 00H, 'e', 00H
	DB	'r', 00H, 'a', 00H, 't', 00H, 'o', 00H, 'r', 00H, '"', 00H, 00H
	DB	00H						; `string'
CONST	ENDS
;	COMDAT ??_C@_0DD@MBIHGLJE@cannot?5dereference?5value?9initia@
CONST	SEGMENT
??_C@_0DD@MBIHGLJE@cannot?5dereference?5value?9initia@ DB 'cannot derefer'
	DB	'ence value-initialized list iterator', 00H	; `string'
CONST	ENDS
;	COMDAT ??_C@_1EK@OKKCFDJN@?$AA?$CC?$AAc?$AAa?$AAn?$AAn?$AAo?$AAt?$AA?5?$AAi?$AAn?$AAc?$AAr?$AAe?$AAm?$AAe@
CONST	SEGMENT
??_C@_1EK@OKKCFDJN@?$AA?$CC?$AAc?$AAa?$AAn?$AAn?$AAo?$AAt?$AA?5?$AAi?$AAn?$AAc?$AAr?$AAe?$AAm?$AAe@ DB '"'
	DB	00H, 'c', 00H, 'a', 00H, 'n', 00H, 'n', 00H, 'o', 00H, 't', 00H
	DB	' ', 00H, 'i', 00H, 'n', 00H, 'c', 00H, 'r', 00H, 'e', 00H, 'm'
	DB	00H, 'e', 00H, 'n', 00H, 't', 00H, ' ', 00H, 'e', 00H, 'n', 00H
	DB	'd', 00H, ' ', 00H, 'l', 00H, 'i', 00H, 's', 00H, 't', 00H, ' '
	DB	00H, 'i', 00H, 't', 00H, 'e', 00H, 'r', 00H, 'a', 00H, 't', 00H
	DB	'o', 00H, 'r', 00H, '"', 00H, 00H, 00H	; `string'
CONST	ENDS
;	COMDAT ??_C@_0CD@PMFMCEG@cannot?5increment?5end?5list?5itera@
CONST	SEGMENT
??_C@_0CD@PMFMCEG@cannot?5increment?5end?5list?5itera@ DB 'cannot increme'
	DB	'nt end list iterator', 00H			; `string'
CONST	ENDS
;	COMDAT ??_C@_1GG@JLMAGPNK@?$AA?$CC?$AAc?$AAa?$AAn?$AAn?$AAo?$AAt?$AA?5?$AAi?$AAn?$AAc?$AAr?$AAe?$AAm?$AAe@
CONST	SEGMENT
??_C@_1GG@JLMAGPNK@?$AA?$CC?$AAc?$AAa?$AAn?$AAn?$AAo?$AAt?$AA?5?$AAi?$AAn?$AAc?$AAr?$AAe?$AAm?$AAe@ DB '"'
	DB	00H, 'c', 00H, 'a', 00H, 'n', 00H, 'n', 00H, 'o', 00H, 't', 00H
	DB	' ', 00H, 'i', 00H, 'n', 00H, 'c', 00H, 'r', 00H, 'e', 00H, 'm'
	DB	00H, 'e', 00H, 'n', 00H, 't', 00H, ' ', 00H, 'v', 00H, 'a', 00H
	DB	'l', 00H, 'u', 00H, 'e', 00H, '-', 00H, 'i', 00H, 'n', 00H, 'i'
	DB	00H, 't', 00H, 'i', 00H, 'a', 00H, 'l', 00H, 'i', 00H, 'z', 00H
	DB	'e', 00H, 'd', 00H, ' ', 00H, 'l', 00H, 'i', 00H, 's', 00H, 't'
	DB	00H, ' ', 00H, 'i', 00H, 't', 00H, 'e', 00H, 'r', 00H, 'a', 00H
	DB	't', 00H, 'o', 00H, 'r', 00H, '"', 00H, 00H, 00H ; `string'
CONST	ENDS
;	COMDAT ??_C@_1LO@IMCCBHIA@?$AAC?$AA?3?$AA?2?$AAP?$AAr?$AAo?$AAg?$AAr?$AAa?$AAm?$AA?5?$AAF?$AAi?$AAl?$AAe@
CONST	SEGMENT
??_C@_1LO@IMCCBHIA@?$AAC?$AA?3?$AA?2?$AAP?$AAr?$AAo?$AAg?$AAr?$AAa?$AAm?$AA?5?$AAF?$AAi?$AAl?$AAe@ DB 'C'
	DB	00H, ':', 00H, '\', 00H, 'P', 00H, 'r', 00H, 'o', 00H, 'g', 00H
	DB	'r', 00H, 'a', 00H, 'm', 00H, ' ', 00H, 'F', 00H, 'i', 00H, 'l'
	DB	00H, 'e', 00H, 's', 00H, '\', 00H, 'M', 00H, 'i', 00H, 'c', 00H
	DB	'r', 00H, 'o', 00H, 's', 00H, 'o', 00H, 'f', 00H, 't', 00H, ' '
	DB	00H, 'V', 00H, 'i', 00H, 's', 00H, 'u', 00H, 'a', 00H, 'l', 00H
	DB	' ', 00H, 'S', 00H, 't', 00H, 'u', 00H, 'd', 00H, 'i', 00H, 'o'
	DB	00H, '\', 00H, '2', 00H, '0', 00H, '2', 00H, '2', 00H, '\', 00H
	DB	'C', 00H, 'o', 00H, 'm', 00H, 'm', 00H, 'u', 00H, 'n', 00H, 'i'
	DB	00H, 't', 00H, 'y', 00H, '\', 00H, 'V', 00H, 'C', 00H, '\', 00H
	DB	'T', 00H, 'o', 00H, 'o', 00H, 'l', 00H, 's', 00H, '\', 00H, 'M'
	DB	00H, 'S', 00H, 'V', 00H, 'C', 00H, '\', 00H, '1', 00H, '4', 00H
	DB	'.', 00H, '3', 00H, '2', 00H, '.', 00H, '3', 00H, '1', 00H, '3'
	DB	00H, '2', 00H, '6', 00H, '\', 00H, 'i', 00H, 'n', 00H, 'c', 00H
	DB	'l', 00H, 'u', 00H, 'd', 00H, 'e', 00H, '\', 00H, 'l', 00H, 'i'
	DB	00H, 's', 00H, 't', 00H, 00H, 00H		; `string'
CONST	ENDS
;	COMDAT ??_C@_0FP@KGLKFOGA@C?3?2Program?5Files?2Microsoft?5Visu@
CONST	SEGMENT
??_C@_0FP@KGLKFOGA@C?3?2Program?5Files?2Microsoft?5Visu@ DB 'C:\Program F'
	DB	'iles\Microsoft Visual Studio\2022\Community\VC\Tools\MSVC\14.'
	DB	'32.31326\include\list', 00H			; `string'
CONST	ENDS
;	COMDAT ??_C@_0DB@ENBCPNKO@cannot?5increment?5value?9initiali@
CONST	SEGMENT
??_C@_0DB@ENBCPNKO@cannot?5increment?5value?9initiali@ DB 'cannot increme'
	DB	'nt value-initialized list iterator', 00H	; `string'
CONST	ENDS
;	COMDAT ??_C@_1GC@JDCKOLAC@?$AA?$CC?$AAc?$AAa?$AAn?$AA?8?$AAt?$AA?5?$AAd?$AAe?$AAr?$AAe?$AAf?$AAe?$AAr?$AAe@
CONST	SEGMENT
??_C@_1GC@JDCKOLAC@?$AA?$CC?$AAc?$AAa?$AAn?$AA?8?$AAt?$AA?5?$AAd?$AAe?$AAr?$AAe?$AAf?$AAe?$AAr?$AAe@ DB '"'
	DB	00H, 'c', 00H, 'a', 00H, 'n', 00H, '''', 00H, 't', 00H, ' ', 00H
	DB	'd', 00H, 'e', 00H, 'r', 00H, 'e', 00H, 'f', 00H, 'e', 00H, 'r'
	DB	00H, 'e', 00H, 'n', 00H, 'c', 00H, 'e', 00H, ' ', 00H, 'o', 00H
	DB	'u', 00H, 't', 00H, ' ', 00H, 'o', 00H, 'f', 00H, ' ', 00H, 'r'
	DB	00H, 'a', 00H, 'n', 00H, 'g', 00H, 'e', 00H, ' ', 00H, 'v', 00H
	DB	'e', 00H, 'c', 00H, 't', 00H, 'o', 00H, 'r', 00H, ' ', 00H, 'i'
	DB	00H, 't', 00H, 'e', 00H, 'r', 00H, 'a', 00H, 't', 00H, 'o', 00H
	DB	'r', 00H, '"', 00H, 00H, 00H			; `string'
CONST	ENDS
;	COMDAT ??_C@_0CP@MDHADBHN@can?8t?5dereference?5out?5of?5range?5@
CONST	SEGMENT
??_C@_0CP@MDHADBHN@can?8t?5dereference?5out?5of?5range?5@ DB 'can''t dere'
	DB	'ference out of range vector iterator', 00H	; `string'
CONST	ENDS
;	COMDAT ??_C@_1GM@FNBFNBEL@?$AA?$CC?$AAc?$AAa?$AAn?$AA?8?$AAt?$AA?5?$AAd?$AAe?$AAr?$AAe?$AAf?$AAe?$AAr?$AAe@
CONST	SEGMENT
??_C@_1GM@FNBFNBEL@?$AA?$CC?$AAc?$AAa?$AAn?$AA?8?$AAt?$AA?5?$AAd?$AAe?$AAr?$AAe?$AAf?$AAe?$AAr?$AAe@ DB '"'
	DB	00H, 'c', 00H, 'a', 00H, 'n', 00H, '''', 00H, 't', 00H, ' ', 00H
	DB	'd', 00H, 'e', 00H, 'r', 00H, 'e', 00H, 'f', 00H, 'e', 00H, 'r'
	DB	00H, 'e', 00H, 'n', 00H, 'c', 00H, 'e', 00H, ' ', 00H, 'v', 00H
	DB	'a', 00H, 'l', 00H, 'u', 00H, 'e', 00H, '-', 00H, 'i', 00H, 'n'
	DB	00H, 'i', 00H, 't', 00H, 'i', 00H, 'a', 00H, 'l', 00H, 'i', 00H
	DB	'z', 00H, 'e', 00H, 'd', 00H, ' ', 00H, 'v', 00H, 'e', 00H, 'c'
	DB	00H, 't', 00H, 'o', 00H, 'r', 00H, ' ', 00H, 'i', 00H, 't', 00H
	DB	'e', 00H, 'r', 00H, 'a', 00H, 't', 00H, 'o', 00H, 'r', 00H, '"'
	DB	00H, 00H, 00H				; `string'
CONST	ENDS
;	COMDAT ??_C@_0DE@CHADHGFF@can?8t?5dereference?5value?9initial@
CONST	SEGMENT
??_C@_0DE@CHADHGFF@can?8t?5dereference?5value?9initial@ DB 'can''t derefe'
	DB	'rence value-initialized vector iterator', 00H ; `string'
CONST	ENDS
;	COMDAT ??_C@_1FG@LDPPKMGP@?$AA?$CC?$AAc?$AAa?$AAn?$AA?8?$AAt?$AA?5?$AAi?$AAn?$AAc?$AAr?$AAe?$AAm?$AAe?$AAn@
CONST	SEGMENT
??_C@_1FG@LDPPKMGP@?$AA?$CC?$AAc?$AAa?$AAn?$AA?8?$AAt?$AA?5?$AAi?$AAn?$AAc?$AAr?$AAe?$AAm?$AAe?$AAn@ DB '"'
	DB	00H, 'c', 00H, 'a', 00H, 'n', 00H, '''', 00H, 't', 00H, ' ', 00H
	DB	'i', 00H, 'n', 00H, 'c', 00H, 'r', 00H, 'e', 00H, 'm', 00H, 'e'
	DB	00H, 'n', 00H, 't', 00H, ' ', 00H, 'v', 00H, 'e', 00H, 'c', 00H
	DB	't', 00H, 'o', 00H, 'r', 00H, ' ', 00H, 'i', 00H, 't', 00H, 'e'
	DB	00H, 'r', 00H, 'a', 00H, 't', 00H, 'o', 00H, 'r', 00H, ' ', 00H
	DB	'p', 00H, 'a', 00H, 's', 00H, 't', 00H, ' ', 00H, 'e', 00H, 'n'
	DB	00H, 'd', 00H, '"', 00H, 00H, 00H		; `string'
CONST	ENDS
;	COMDAT ??_C@_0CJ@OAAAAGPM@can?8t?5increment?5vector?5iterator@
CONST	SEGMENT
??_C@_0CJ@OAAAAGPM@can?8t?5increment?5vector?5iterator@ DB 'can''t increm'
	DB	'ent vector iterator past end', 00H		; `string'
CONST	ENDS
;	COMDAT ??_C@_1GI@EDCILPL@?$AA?$CC?$AAc?$AAa?$AAn?$AA?8?$AAt?$AA?5?$AAi?$AAn?$AAc?$AAr?$AAe?$AAm?$AAe?$AAn@
CONST	SEGMENT
??_C@_1GI@EDCILPL@?$AA?$CC?$AAc?$AAa?$AAn?$AA?8?$AAt?$AA?5?$AAi?$AAn?$AAc?$AAr?$AAe?$AAm?$AAe?$AAn@ DB '"'
	DB	00H, 'c', 00H, 'a', 00H, 'n', 00H, '''', 00H, 't', 00H, ' ', 00H
	DB	'i', 00H, 'n', 00H, 'c', 00H, 'r', 00H, 'e', 00H, 'm', 00H, 'e'
	DB	00H, 'n', 00H, 't', 00H, ' ', 00H, 'v', 00H, 'a', 00H, 'l', 00H
	DB	'u', 00H, 'e', 00H, '-', 00H, 'i', 00H, 'n', 00H, 'i', 00H, 't'
	DB	00H, 'i', 00H, 'a', 00H, 'l', 00H, 'i', 00H, 'z', 00H, 'e', 00H
	DB	'd', 00H, ' ', 00H, 'v', 00H, 'e', 00H, 'c', 00H, 't', 00H, 'o'
	DB	00H, 'r', 00H, ' ', 00H, 'i', 00H, 't', 00H, 'e', 00H, 'r', 00H
	DB	'a', 00H, 't', 00H, 'o', 00H, 'r', 00H, '"', 00H, 00H, 00H ; `string'
CONST	ENDS
;	COMDAT ??_C@_1MC@BJDJHFOD@?$AAC?$AA?3?$AA?2?$AAP?$AAr?$AAo?$AAg?$AAr?$AAa?$AAm?$AA?5?$AAF?$AAi?$AAl?$AAe@
CONST	SEGMENT
??_C@_1MC@BJDJHFOD@?$AAC?$AA?3?$AA?2?$AAP?$AAr?$AAo?$AAg?$AAr?$AAa?$AAm?$AA?5?$AAF?$AAi?$AAl?$AAe@ DB 'C'
	DB	00H, ':', 00H, '\', 00H, 'P', 00H, 'r', 00H, 'o', 00H, 'g', 00H
	DB	'r', 00H, 'a', 00H, 'm', 00H, ' ', 00H, 'F', 00H, 'i', 00H, 'l'
	DB	00H, 'e', 00H, 's', 00H, '\', 00H, 'M', 00H, 'i', 00H, 'c', 00H
	DB	'r', 00H, 'o', 00H, 's', 00H, 'o', 00H, 'f', 00H, 't', 00H, ' '
	DB	00H, 'V', 00H, 'i', 00H, 's', 00H, 'u', 00H, 'a', 00H, 'l', 00H
	DB	' ', 00H, 'S', 00H, 't', 00H, 'u', 00H, 'd', 00H, 'i', 00H, 'o'
	DB	00H, '\', 00H, '2', 00H, '0', 00H, '2', 00H, '2', 00H, '\', 00H
	DB	'C', 00H, 'o', 00H, 'm', 00H, 'm', 00H, 'u', 00H, 'n', 00H, 'i'
	DB	00H, 't', 00H, 'y', 00H, '\', 00H, 'V', 00H, 'C', 00H, '\', 00H
	DB	'T', 00H, 'o', 00H, 'o', 00H, 'l', 00H, 's', 00H, '\', 00H, 'M'
	DB	00H, 'S', 00H, 'V', 00H, 'C', 00H, '\', 00H, '1', 00H, '4', 00H
	DB	'.', 00H, '3', 00H, '2', 00H, '.', 00H, '3', 00H, '1', 00H, '3'
	DB	00H, '2', 00H, '6', 00H, '\', 00H, 'i', 00H, 'n', 00H, 'c', 00H
	DB	'l', 00H, 'u', 00H, 'd', 00H, 'e', 00H, '\', 00H, 'v', 00H, 'e'
	DB	00H, 'c', 00H, 't', 00H, 'o', 00H, 'r', 00H, 00H, 00H ; `string'
CONST	ENDS
;	COMDAT ??_C@_0GB@GDCALCPO@C?3?2Program?5Files?2Microsoft?5Visu@
CONST	SEGMENT
??_C@_0GB@GDCALCPO@C?3?2Program?5Files?2Microsoft?5Visu@ DB 'C:\Program F'
	DB	'iles\Microsoft Visual Studio\2022\Community\VC\Tools\MSVC\14.'
	DB	'32.31326\include\vector', 00H		; `string'
CONST	ENDS
;	COMDAT ??_C@_0DC@KEKNBAEB@can?8t?5increment?5value?9initializ@
CONST	SEGMENT
??_C@_0DC@KEKNBAEB@can?8t?5increment?5value?9initializ@ DB 'can''t increm'
	DB	'ent value-initialized vector iterator', 00H	; `string'
CONST	ENDS
;	COMDAT ??_C@_0CB@OFADFOGG@?$DMPopLuaString?$DO?5Cannot?5retrieve?3@
CONST	SEGMENT
??_C@_0CB@OFADFOGG@?$DMPopLuaString?$DO?5Cannot?5retrieve?3@ DB '<PopLuaS'
	DB	'tring> Cannot retrieve: ', 00H		; `string'
CONST	ENDS
;	COMDAT __CTA2?AVruntime_error@std@@
xdata$x	SEGMENT
__CTA2?AVruntime_error@std@@ DD 02H
	DD	FLAT:__CT??_R0?AVruntime_error@std@@@8??0runtime_error@std@@QAE@ABV01@@Z12
	DD	FLAT:__CT??_R0?AVexception@std@@@8??0exception@std@@QAE@ABV01@@Z12
xdata$x	ENDS
;	COMDAT __TI2?AVruntime_error@std@@
xdata$x	SEGMENT
__TI2?AVruntime_error@std@@ DD 00H
	DD	FLAT:??1runtime_error@std@@UAE@XZ
	DD	00H
	DD	FLAT:__CTA2?AVruntime_error@std@@
xdata$x	ENDS
;	COMDAT ??_C@_1EM@JBDGIPGD@?$AAy?$AA?$DO?$AA?$DN?$AAx?$AA?5?$AA?$CG?$AA?$CG?$AA?5?$AA?$CC?$AA?$DM?$AAR?$AAa?$AAn?$AAd?$AAI@
CONST	SEGMENT
??_C@_1EM@JBDGIPGD@?$AAy?$AA?$DO?$AA?$DN?$AAx?$AA?5?$AA?$CG?$AA?$CG?$AA?5?$AA?$CC?$AA?$DM?$AAR?$AAa?$AAn?$AAd?$AAI@ DB 'y'
	DB	00H, '>', 00H, '=', 00H, 'x', 00H, ' ', 00H, '&', 00H, '&', 00H
	DB	' ', 00H, '"', 00H, '<', 00H, 'R', 00H, 'a', 00H, 'n', 00H, 'd'
	DB	00H, 'I', 00H, 'n', 00H, 't', 00H, '>', 00H, ':', 00H, ' ', 00H
	DB	'y', 00H, ' ', 00H, 'i', 00H, 's', 00H, ' ', 00H, 'l', 00H, 'e'
	DB	00H, 's', 00H, 's', 00H, ' ', 00H, 't', 00H, 'h', 00H, 'a', 00H
	DB	'n', 00H, ' ', 00H, 'x', 00H, '"', 00H, 00H, 00H ; `string'
CONST	ENDS
;	COMDAT ??_C@_1JO@MMDBPLLI@?$AAC?$AA?3?$AA?2?$AAU?$AAs?$AAe?$AAr?$AAs?$AA?2?$AAl?$AAs?$AAy?$AA0?$AA1?$AA?2@
CONST	SEGMENT
??_C@_1JO@MMDBPLLI@?$AAC?$AA?3?$AA?2?$AAU?$AAs?$AAe?$AAr?$AAs?$AA?2?$AAl?$AAs?$AAy?$AA0?$AA1?$AA?2@ DB 'C'
	DB	00H, ':', 00H, '\', 00H, 'U', 00H, 's', 00H, 'e', 00H, 'r', 00H
	DB	's', 00H, '\', 00H, 'l', 00H, 's', 00H, 'y', 00H, '0', 00H, '1'
	DB	00H, '\', 00H, 'O', 00H, 'n', 00H, 'e', 00H, 'D', 00H, 'r', 00H
	DB	'i', 00H, 'v', 00H, 'e', 00H, '\', 00H, 014H, 0bcH, 0d5H, 0d0H
	DB	' ', 00H, 'T', 0d6H, 't', 0baH, '\', 00H, '3', 00H, '-', 00H, '2'
	DB	00H, '_', 00H, 'S', 00H, 't', 00H, 'u', 00H, 'd', 00H, 'y', 00H
	DB	'\', 00H, 'x', 0c7H, 0f5H, 0acH, 0c0H, 0c9H, 0a5H, 0b2H, '\', 00H
	DB	'S', 00H, 'o', 00H, 'u', 00H, 'r', 00H, 'c', 00H, 'e', 00H, '\'
	DB	00H, 'V', 00H, 'S', 00H, '2', 00H, '0', 00H, '1', 00H, '0', 00H
	DB	'\', 00H, 'C', 00H, 'o', 00H, 'm', 00H, 'm', 00H, 'o', 00H, 'n'
	DB	00H, '\', 00H, 'm', 00H, 'i', 00H, 's', 00H, 'c', 00H, '\', 00H
	DB	'u', 00H, 't', 00H, 'i', 00H, 'l', 00H, 's', 00H, '.', 00H, 'h'
	DB	00H, 00H, 00H				; `string'
CONST	ENDS
;	COMDAT ??_C@_0BM@IMGJFIHE@?$DMRandInt?$DO?3?5y?5is?5less?5than?5x@
CONST	SEGMENT
??_C@_0BM@IMGJFIHE@?$DMRandInt?$DO?3?5y?5is?5less?5than?5x@ DB '<RandInt>'
	DB	': y is less than x', 00H			; `string'
CONST	ENDS
;	COMDAT __CT??_R0?AVruntime_error@std@@@8??0runtime_error@std@@QAE@ABV01@@Z12
xdata$x	SEGMENT
__CT??_R0?AVruntime_error@std@@@8??0runtime_error@std@@QAE@ABV01@@Z12 DD 00H
	DD	FLAT:??_R0?AVruntime_error@std@@@8
	DD	00H
	DD	0ffffffffH
	ORG $+4
	DD	0cH
	DD	FLAT:??0runtime_error@std@@QAE@ABV01@@Z
xdata$x	ENDS
;	COMDAT ??_R0?AVruntime_error@std@@@8
data$r	SEGMENT
??_R0?AVruntime_error@std@@@8 DD FLAT:??_7type_info@@6B@ ; std::runtime_error `RTTI Type Descriptor'
	DD	00H
	DB	'.?AVruntime_error@std@@', 00H
data$r	ENDS
;	COMDAT ??_7runtime_error@std@@6B@
CONST	SEGMENT
??_7runtime_error@std@@6B@ DD FLAT:??_R4runtime_error@std@@6B@ ; std::runtime_error::`vftable'
	DD	FLAT:??_Eruntime_error@std@@UAEPAXI@Z
	DD	FLAT:?what@exception@std@@UBEPBDXZ
CONST	ENDS
;	COMDAT ?_BUF_SIZE@?$basic_string@DU?$char_traits@D@std@@V?$allocator@D@2@@std@@0IB
CONST	SEGMENT
?_BUF_SIZE@?$basic_string@DU?$char_traits@D@std@@V?$allocator@D@2@@std@@0IB DD 010H ; std::basic_string<char,std::char_traits<char>,std::allocator<char> >::_BUF_SIZE
CONST	ENDS
;	COMDAT ??_C@_0BA@JFNIOLAK@string?5too?5long@
CONST	SEGMENT
??_C@_0BA@JFNIOLAK@string?5too?5long@ DB 'string too long', 00H ; `string'
CONST	ENDS
;	COMDAT ??_C@_1DG@PLBPCAEM@?$AA?$CC?$AAI?$AAT?$AAE?$AAR?$AAA?$AAT?$AAO?$AAR?$AA?5?$AAL?$AAI?$AAS?$AAT?$AA?5@
CONST	SEGMENT
??_C@_1DG@PLBPCAEM@?$AA?$CC?$AAI?$AAT?$AAE?$AAR?$AAA?$AAT?$AAO?$AAR?$AA?5?$AAL?$AAI?$AAS?$AAT?$AA?5@ DB '"'
	DB	00H, 'I', 00H, 'T', 00H, 'E', 00H, 'R', 00H, 'A', 00H, 'T', 00H
	DB	'O', 00H, 'R', 00H, ' ', 00H, 'L', 00H, 'I', 00H, 'S', 00H, 'T'
	DB	00H, ' ', 00H, 'C', 00H, 'O', 00H, 'R', 00H, 'R', 00H, 'U', 00H
	DB	'P', 00H, 'T', 00H, 'E', 00H, 'D', 00H, '!', 00H, '"', 00H, 00H
	DB	00H						; `string'
CONST	ENDS
;	COMDAT ??_C@_0BJ@LFDBABJJ@ITERATOR?5LIST?5CORRUPTED?$CB@
CONST	SEGMENT
??_C@_0BJ@LFDBABJJ@ITERATOR?5LIST?5CORRUPTED?$CB@ DB 'ITERATOR LIST CORRU'
	DB	'PTED!', 00H					; `string'
CONST	ENDS
;	COMDAT ??_C@_1CG@JNLFBNGN@?$AA?$CC?$AAi?$AAn?$AAv?$AAa?$AAl?$AAi?$AAd?$AA?5?$AAa?$AAr?$AAg?$AAu?$AAm?$AAe@
CONST	SEGMENT
??_C@_1CG@JNLFBNGN@?$AA?$CC?$AAi?$AAn?$AAv?$AAa?$AAl?$AAi?$AAd?$AA?5?$AAa?$AAr?$AAg?$AAu?$AAm?$AAe@ DB '"'
	DB	00H, 'i', 00H, 'n', 00H, 'v', 00H, 'a', 00H, 'l', 00H, 'i', 00H
	DB	'd', 00H, ' ', 00H, 'a', 00H, 'r', 00H, 'g', 00H, 'u', 00H, 'm'
	DB	00H, 'e', 00H, 'n', 00H, 't', 00H, '"', 00H, 00H, 00H ; `string'
CONST	ENDS
;	COMDAT ??_C@_11LOCGONAA@@
CONST	SEGMENT
??_C@_11LOCGONAA@@ DB 00H, 00H				; `string'
CONST	ENDS
;	COMDAT ??_C@_1ME@GEFGDEOM@?$AAC?$AA?3?$AA?2?$AAP?$AAr?$AAo?$AAg?$AAr?$AAa?$AAm?$AA?5?$AAF?$AAi?$AAl?$AAe@
CONST	SEGMENT
??_C@_1ME@GEFGDEOM@?$AAC?$AA?3?$AA?2?$AAP?$AAr?$AAo?$AAg?$AAr?$AAa?$AAm?$AA?5?$AAF?$AAi?$AAl?$AAe@ DB 'C'
	DB	00H, ':', 00H, '\', 00H, 'P', 00H, 'r', 00H, 'o', 00H, 'g', 00H
	DB	'r', 00H, 'a', 00H, 'm', 00H, ' ', 00H, 'F', 00H, 'i', 00H, 'l'
	DB	00H, 'e', 00H, 's', 00H, '\', 00H, 'M', 00H, 'i', 00H, 'c', 00H
	DB	'r', 00H, 'o', 00H, 's', 00H, 'o', 00H, 'f', 00H, 't', 00H, ' '
	DB	00H, 'V', 00H, 'i', 00H, 's', 00H, 'u', 00H, 'a', 00H, 'l', 00H
	DB	' ', 00H, 'S', 00H, 't', 00H, 'u', 00H, 'd', 00H, 'i', 00H, 'o'
	DB	00H, '\', 00H, '2', 00H, '0', 00H, '2', 00H, '2', 00H, '\', 00H
	DB	'C', 00H, 'o', 00H, 'm', 00H, 'm', 00H, 'u', 00H, 'n', 00H, 'i'
	DB	00H, 't', 00H, 'y', 00H, '\', 00H, 'V', 00H, 'C', 00H, '\', 00H
	DB	'T', 00H, 'o', 00H, 'o', 00H, 'l', 00H, 's', 00H, '\', 00H, 'M'
	DB	00H, 'S', 00H, 'V', 00H, 'C', 00H, '\', 00H, '1', 00H, '4', 00H
	DB	'.', 00H, '3', 00H, '2', 00H, '.', 00H, '3', 00H, '1', 00H, '3'
	DB	00H, '2', 00H, '6', 00H, '\', 00H, 'i', 00H, 'n', 00H, 'c', 00H
	DB	'l', 00H, 'u', 00H, 'd', 00H, 'e', 00H, '\', 00H, 'x', 00H, 'm'
	DB	00H, 'e', 00H, 'm', 00H, 'o', 00H, 'r', 00H, 'y', 00H, 00H, 00H ; `string'
CONST	ENDS
;	COMDAT ??_C@_0GC@DJFHHHKN@C?3?2Program?5Files?2Microsoft?5Visu@
CONST	SEGMENT
??_C@_0GC@DJFHHHKN@C?3?2Program?5Files?2Microsoft?5Visu@ DB 'C:\Program F'
	DB	'iles\Microsoft Visual Studio\2022\Community\VC\Tools\MSVC\14.'
	DB	'32.31326\include\xmemory', 00H		; `string'
CONST	ENDS
;	COMDAT ??_C@_02DKCKIIND@?$CFs@
CONST	SEGMENT
??_C@_02DKCKIIND@?$CFs@ DB '%s', 00H			; `string'
CONST	ENDS
;	COMDAT ??_C@_0BB@FCMFBGOM@invalid?5argument@
CONST	SEGMENT
??_C@_0BB@FCMFBGOM@invalid?5argument@ DB 'invalid argument', 00H ; `string'
CONST	ENDS
;	COMDAT __CT??_R0?AVexception@std@@@8??0exception@std@@QAE@ABV01@@Z12
xdata$x	SEGMENT
__CT??_R0?AVexception@std@@@8??0exception@std@@QAE@ABV01@@Z12 DD 00H
	DD	FLAT:??_R0?AVexception@std@@@8
	DD	00H
	DD	0ffffffffH
	ORG $+4
	DD	0cH
	DD	FLAT:??0exception@std@@QAE@ABV01@@Z
xdata$x	ENDS
;	COMDAT ??_R0?AVexception@std@@@8
data$r	SEGMENT
??_R0?AVexception@std@@@8 DD FLAT:??_7type_info@@6B@	; std::exception `RTTI Type Descriptor'
	DD	00H
	DB	'.?AVexception@std@@', 00H
data$r	ENDS
;	COMDAT __CT??_R0?AVbad_alloc@std@@@8??0bad_alloc@std@@QAE@ABV01@@Z12
xdata$x	SEGMENT
__CT??_R0?AVbad_alloc@std@@@8??0bad_alloc@std@@QAE@ABV01@@Z12 DD 010H
	DD	FLAT:??_R0?AVbad_alloc@std@@@8
	DD	00H
	DD	0ffffffffH
	ORG $+4
	DD	0cH
	DD	FLAT:??0bad_alloc@std@@QAE@ABV01@@Z
xdata$x	ENDS
;	COMDAT ??_R0?AVbad_alloc@std@@@8
data$r	SEGMENT
??_R0?AVbad_alloc@std@@@8 DD FLAT:??_7type_info@@6B@	; std::bad_alloc `RTTI Type Descriptor'
	DD	00H
	DB	'.?AVbad_alloc@std@@', 00H
data$r	ENDS
;	COMDAT __CT??_R0?AVbad_array_new_length@std@@@8??0bad_array_new_length@std@@QAE@ABV01@@Z12
xdata$x	SEGMENT
__CT??_R0?AVbad_array_new_length@std@@@8??0bad_array_new_length@std@@QAE@ABV01@@Z12 DD 00H
	DD	FLAT:??_R0?AVbad_array_new_length@std@@@8
	DD	00H
	DD	0ffffffffH
	ORG $+4
	DD	0cH
	DD	FLAT:??0bad_array_new_length@std@@QAE@ABV01@@Z
xdata$x	ENDS
;	COMDAT ??_R0?AVbad_array_new_length@std@@@8
data$r	SEGMENT
??_R0?AVbad_array_new_length@std@@@8 DD FLAT:??_7type_info@@6B@ ; std::bad_array_new_length `RTTI Type Descriptor'
	DD	00H
	DB	'.?AVbad_array_new_length@std@@', 00H
data$r	ENDS
;	COMDAT __CTA3?AVbad_array_new_length@std@@
xdata$x	SEGMENT
__CTA3?AVbad_array_new_length@std@@ DD 03H
	DD	FLAT:__CT??_R0?AVbad_array_new_length@std@@@8??0bad_array_new_length@std@@QAE@ABV01@@Z12
	DD	FLAT:__CT??_R0?AVbad_alloc@std@@@8??0bad_alloc@std@@QAE@ABV01@@Z12
	DD	FLAT:__CT??_R0?AVexception@std@@@8??0exception@std@@QAE@ABV01@@Z12
xdata$x	ENDS
;	COMDAT __TI3?AVbad_array_new_length@std@@
xdata$x	SEGMENT
__TI3?AVbad_array_new_length@std@@ DD 00H
	DD	FLAT:??1bad_array_new_length@std@@UAE@XZ
	DD	00H
	DD	FLAT:__CTA3?AVbad_array_new_length@std@@
xdata$x	ENDS
;	COMDAT ??_C@_0BF@KINCDENJ@bad?5array?5new?5length@
CONST	SEGMENT
??_C@_0BF@KINCDENJ@bad?5array?5new?5length@ DB 'bad array new length', 00H ; `string'
CONST	ENDS
;	COMDAT ??_7bad_array_new_length@std@@6B@
CONST	SEGMENT
??_7bad_array_new_length@std@@6B@ DD FLAT:??_R4bad_array_new_length@std@@6B@ ; std::bad_array_new_length::`vftable'
	DD	FLAT:??_Ebad_array_new_length@std@@UAEPAXI@Z
	DD	FLAT:?what@exception@std@@UBEPBDXZ
CONST	ENDS
;	COMDAT ??_7bad_alloc@std@@6B@
CONST	SEGMENT
??_7bad_alloc@std@@6B@ DD FLAT:??_R4bad_alloc@std@@6B@	; std::bad_alloc::`vftable'
	DD	FLAT:??_Ebad_alloc@std@@UAEPAXI@Z
	DD	FLAT:?what@exception@std@@UBEPBDXZ
CONST	ENDS
;	COMDAT ??_C@_0BC@EOODALEL@Unknown?5exception@
CONST	SEGMENT
??_C@_0BC@EOODALEL@Unknown?5exception@ DB 'Unknown exception', 00H ; `string'
CONST	ENDS
;	COMDAT ??_7exception@std@@6B@
CONST	SEGMENT
??_7exception@std@@6B@ DD FLAT:??_R4exception@std@@6B@	; std::exception::`vftable'
	DD	FLAT:??_Eexception@std@@UAEPAXI@Z
	DD	FLAT:?what@exception@std@@UBEPBDXZ
CONST	ENDS
;	COMDAT voltbl
voltbl	SEGMENT
_volmd	DB	016H
voltbl	ENDS
;	COMDAT xdata$x
xdata$x	SEGMENT
__unwindtable$??$_Uninitialized_move@PAPAVRaven_Bot@@V?$allocator@PAVRaven_Bot@@@std@@@std@@YAPAPAVRaven_Bot@@QAPAV1@0PAPAV1@AAV?$allocator@PAVRaven_Bot@@@0@@Z DD 0ffffffffH
	DD	FLAT:__unwindfunclet$??$_Uninitialized_move@PAPAVRaven_Bot@@V?$allocator@PAVRaven_Bot@@@std@@@std@@YAPAPAVRaven_Bot@@QAPAV1@0PAPAV1@AAV?$allocator@PAVRaven_Bot@@@0@@Z$0
__ehfuncinfo$??$_Uninitialized_move@PAPAVRaven_Bot@@V?$allocator@PAVRaven_Bot@@@std@@@std@@YAPAPAVRaven_Bot@@QAPAV1@0PAPAV1@AAV?$allocator@PAVRaven_Bot@@@0@@Z DD 019930522H
	DD	01H
	DD	FLAT:__unwindtable$??$_Uninitialized_move@PAPAVRaven_Bot@@V?$allocator@PAVRaven_Bot@@@std@@@std@@YAPAPAVRaven_Bot@@QAPAV1@0PAPAV1@AAV?$allocator@PAVRaven_Bot@@@0@@Z
	DD	2 DUP(00H)
	DD	2 DUP(00H)
	DD	00H
	DD	01H
xdata$x	ENDS
;	COMDAT voltbl
voltbl	SEGMENT
_volmd	DB	09H
voltbl	ENDS
;	COMDAT xdata$x
xdata$x	SEGMENT
__ehfuncinfo$??$_Freenode@V?$allocator@U?$_List_node@PAV?$Goal@VRaven_Bot@@@@PAX@std@@@std@@@?$_List_node@PAV?$Goal@VRaven_Bot@@@@PAX@std@@SAXAAV?$allocator@U?$_List_node@PAV?$Goal@VRaven_Bot@@@@PAX@std@@@1@PAU01@@Z DD 019930522H
	DD	00H
	DD	00H
	DD	2 DUP(00H)
	DD	2 DUP(00H)
	DD	00H
	DD	05H
xdata$x	ENDS
;	COMDAT voltbl
voltbl	SEGMENT
_volmd	DB	09H
voltbl	ENDS
;	COMDAT xdata$x
xdata$x	SEGMENT
__ehfuncinfo$??$_Freenode@V?$allocator@U?$_List_node@UGraveRecord@GraveMarkers@@PAX@std@@@std@@@?$_List_node@UGraveRecord@GraveMarkers@@PAX@std@@SAXAAV?$allocator@U?$_List_node@UGraveRecord@GraveMarkers@@PAX@std@@@1@PAU01@@Z DD 019930522H
	DD	00H
	DD	00H
	DD	2 DUP(00H)
	DD	2 DUP(00H)
	DD	00H
	DD	05H
xdata$x	ENDS
;	COMDAT voltbl
voltbl	SEGMENT
_volmd	DB	09H
voltbl	ENDS
;	COMDAT xdata$x
xdata$x	SEGMENT
__ehfuncinfo$??$_Freenode@V?$allocator@U?$_List_node@PAVRaven_PathPlanner@@PAX@std@@@std@@@?$_List_node@PAVRaven_PathPlanner@@PAX@std@@SAXAAV?$allocator@U?$_List_node@PAVRaven_PathPlanner@@PAX@std@@@1@PAU01@@Z DD 019930522H
	DD	00H
	DD	00H
	DD	2 DUP(00H)
	DD	2 DUP(00H)
	DD	00H
	DD	05H
xdata$x	ENDS
;	COMDAT voltbl
voltbl	SEGMENT
_volmd	DB	016H
voltbl	ENDS
;	COMDAT xdata$x
xdata$x	SEGMENT
__unwindtable$??$?0ABQAVRaven_Bot@@@?$_List_node_emplace_op2@V?$allocator@U?$_List_node@PAVRaven_Bot@@PAX@std@@@std@@@std@@QAE@AAV?$allocator@U?$_List_node@PAVRaven_Bot@@PAX@std@@@1@ABQAVRaven_Bot@@@Z DD 0ffffffffH
	DD	FLAT:__unwindfunclet$??$?0ABQAVRaven_Bot@@@?$_List_node_emplace_op2@V?$allocator@U?$_List_node@PAVRaven_Bot@@PAX@std@@@std@@@std@@QAE@AAV?$allocator@U?$_List_node@PAVRaven_Bot@@PAX@std@@@1@ABQAVRaven_Bot@@@Z$0
__ehfuncinfo$??$?0ABQAVRaven_Bot@@@?$_List_node_emplace_op2@V?$allocator@U?$_List_node@PAVRaven_Bot@@PAX@std@@@std@@@std@@QAE@AAV?$allocator@U?$_List_node@PAVRaven_Bot@@PAX@std@@@1@ABQAVRaven_Bot@@@Z DD 019930522H
	DD	01H
	DD	FLAT:__unwindtable$??$?0ABQAVRaven_Bot@@@?$_List_node_emplace_op2@V?$allocator@U?$_List_node@PAVRaven_Bot@@PAX@std@@@std@@@std@@QAE@AAV?$allocator@U?$_List_node@PAVRaven_Bot@@PAX@std@@@1@ABQAVRaven_Bot@@@Z
	DD	2 DUP(00H)
	DD	2 DUP(00H)
	DD	00H
	DD	01H
xdata$x	ENDS
;	COMDAT voltbl
voltbl	SEGMENT
_volmd	DB	09H
voltbl	ENDS
;	COMDAT xdata$x
xdata$x	SEGMENT
__ehfuncinfo$??1?$_List_node_emplace_op2@V?$allocator@U?$_List_node@PAVRaven_Bot@@PAX@std@@@std@@@std@@QAE@XZ DD 019930522H
	DD	00H
	DD	00H
	DD	2 DUP(00H)
	DD	2 DUP(00H)
	DD	00H
	DD	05H
xdata$x	ENDS
;	COMDAT voltbl
voltbl	SEGMENT
_volmd	DB	09H
voltbl	ENDS
;	COMDAT xdata$x
xdata$x	SEGMENT
__ehfuncinfo$??1?$_Alloc_construct_ptr@V?$allocator@U?$_List_node@PAVRaven_Bot@@PAX@std@@@std@@@std@@QAE@XZ DD 019930522H
	DD	00H
	DD	00H
	DD	2 DUP(00H)
	DD	2 DUP(00H)
	DD	00H
	DD	05H
xdata$x	ENDS
;	COMDAT voltbl
voltbl	SEGMENT
_volmd	DB	09H
voltbl	ENDS
;	COMDAT xdata$x
xdata$x	SEGMENT
__ehfuncinfo$??$_Freenode@V?$allocator@U?$_List_node@PAVRaven_Bot@@PAX@std@@@std@@@?$_List_node@PAVRaven_Bot@@PAX@std@@SAXAAV?$allocator@U?$_List_node@PAVRaven_Bot@@PAX@std@@@1@PAU01@@Z DD 019930522H
	DD	00H
	DD	00H
	DD	2 DUP(00H)
	DD	2 DUP(00H)
	DD	00H
	DD	05H
xdata$x	ENDS
;	COMDAT voltbl
voltbl	SEGMENT
_volmd	DB	016H
voltbl	ENDS
;	COMDAT xdata$x
xdata$x	SEGMENT
__unwindtable$??$?0ABQAVRaven_Projectile@@@?$_List_node_emplace_op2@V?$allocator@U?$_List_node@PAVRaven_Projectile@@PAX@std@@@std@@@std@@QAE@AAV?$allocator@U?$_List_node@PAVRaven_Projectile@@PAX@std@@@1@ABQAVRaven_Projectile@@@Z DD 0ffffffffH
	DD	FLAT:__unwindfunclet$??$?0ABQAVRaven_Projectile@@@?$_List_node_emplace_op2@V?$allocator@U?$_List_node@PAVRaven_Projectile@@PAX@std@@@std@@@std@@QAE@AAV?$allocator@U?$_List_node@PAVRaven_Projectile@@PAX@std@@@1@ABQAVRaven_Projectile@@@Z$0
__ehfuncinfo$??$?0ABQAVRaven_Projectile@@@?$_List_node_emplace_op2@V?$allocator@U?$_List_node@PAVRaven_Projectile@@PAX@std@@@std@@@std@@QAE@AAV?$allocator@U?$_List_node@PAVRaven_Projectile@@PAX@std@@@1@ABQAVRaven_Projectile@@@Z DD 019930522H
	DD	01H
	DD	FLAT:__unwindtable$??$?0ABQAVRaven_Projectile@@@?$_List_node_emplace_op2@V?$allocator@U?$_List_node@PAVRaven_Projectile@@PAX@std@@@std@@@std@@QAE@AAV?$allocator@U?$_List_node@PAVRaven_Projectile@@PAX@std@@@1@ABQAVRaven_Projectile@@@Z
	DD	2 DUP(00H)
	DD	2 DUP(00H)
	DD	00H
	DD	01H
xdata$x	ENDS
;	COMDAT voltbl
voltbl	SEGMENT
_volmd	DB	09H
voltbl	ENDS
;	COMDAT xdata$x
xdata$x	SEGMENT
__ehfuncinfo$??1?$_List_node_emplace_op2@V?$allocator@U?$_List_node@PAVRaven_Projectile@@PAX@std@@@std@@@std@@QAE@XZ DD 019930522H
	DD	00H
	DD	00H
	DD	2 DUP(00H)
	DD	2 DUP(00H)
	DD	00H
	DD	05H
xdata$x	ENDS
;	COMDAT voltbl
voltbl	SEGMENT
_volmd	DB	09H
voltbl	ENDS
;	COMDAT xdata$x
xdata$x	SEGMENT
__ehfuncinfo$??1?$_Alloc_construct_ptr@V?$allocator@U?$_List_node@PAVRaven_Projectile@@PAX@std@@@std@@@std@@QAE@XZ DD 019930522H
	DD	00H
	DD	00H
	DD	2 DUP(00H)
	DD	2 DUP(00H)
	DD	00H
	DD	05H
xdata$x	ENDS
;	COMDAT voltbl
voltbl	SEGMENT
_volmd	DB	09H
voltbl	ENDS
;	COMDAT xdata$x
xdata$x	SEGMENT
__ehfuncinfo$??$_Freenode0@V?$allocator@U?$_Tree_node@U?$pair@$$CBHPAVBaseGameEntity@@@std@@PAX@std@@@std@@@?$_Tree_node@U?$pair@$$CBHPAVBaseGameEntity@@@std@@PAX@std@@SAXAAV?$allocator@U?$_Tree_node@U?$pair@$$CBHPAVBaseGameEntity@@@std@@PAX@std@@@1@PAU01@@Z DD 019930522H
	DD	00H
	DD	00H
	DD	2 DUP(00H)
	DD	2 DUP(00H)
	DD	00H
	DD	05H
xdata$x	ENDS
;	COMDAT voltbl
voltbl	SEGMENT
_volmd	DB	09H
voltbl	ENDS
;	COMDAT xdata$x
xdata$x	SEGMENT
__ehfuncinfo$??$_Freenode@V?$allocator@U?$_Tree_node@U?$pair@$$CBHPAVBaseGameEntity@@@std@@PAX@std@@@std@@@?$_Tree_node@U?$pair@$$CBHPAVBaseGameEntity@@@std@@PAX@std@@SAXAAV?$allocator@U?$_Tree_node@U?$pair@$$CBHPAVBaseGameEntity@@@std@@PAX@std@@@1@PAU01@@Z DD 019930522H
	DD	00H
	DD	00H
	DD	2 DUP(00H)
	DD	2 DUP(00H)
	DD	00H
	DD	05H
xdata$x	ENDS
;	COMDAT voltbl
voltbl	SEGMENT
_volmd	DB	016H
voltbl	ENDS
;	COMDAT xdata$x
xdata$x	SEGMENT
__unwindtable$??$_Uninitialized_copy@PAIV?$allocator@I@std@@@std@@YAPAIQAI0PAIAAV?$allocator@I@0@@Z DD 0ffffffffH
	DD	FLAT:__unwindfunclet$??$_Uninitialized_copy@PAIV?$allocator@I@std@@@std@@YAPAIQAI0PAIAAV?$allocator@I@0@@Z$0
__ehfuncinfo$??$_Uninitialized_copy@PAIV?$allocator@I@std@@@std@@YAPAIQAI0PAIAAV?$allocator@I@0@@Z DD 019930522H
	DD	01H
	DD	FLAT:__unwindtable$??$_Uninitialized_copy@PAIV?$allocator@I@std@@@std@@YAPAIQAI0PAIAAV?$allocator@I@0@@Z
	DD	2 DUP(00H)
	DD	2 DUP(00H)
	DD	00H
	DD	01H
xdata$x	ENDS
;	COMDAT voltbl
voltbl	SEGMENT
_volmd	DB	09H
voltbl	ENDS
;	COMDAT xdata$x
xdata$x	SEGMENT
__ehfuncinfo$??$_Deallocate_plain@V?$allocator@U_Container_proxy@std@@@std@@@std@@YAXAAV?$allocator@U_Container_proxy@std@@@0@QAU_Container_proxy@0@@Z DD 019930522H
	DD	00H
	DD	00H
	DD	2 DUP(00H)
	DD	2 DUP(00H)
	DD	00H
	DD	05H
xdata$x	ENDS
;	COMDAT voltbl
voltbl	SEGMENT
_volmd	DB	09H
voltbl	ENDS
;	COMDAT xdata$x
xdata$x	SEGMENT
__catchsym$??$_Emplace_reallocate@ABQAVRaven_Bot@@@?$vector@PAVRaven_Bot@@V?$allocator@PAVRaven_Bot@@@std@@@std@@AAEPAPAVRaven_Bot@@QAPAV2@ABQAV2@@Z$2 DD 040H
	DD	00H
	DD	00H
	DD	FLAT:__catch$??$_Emplace_reallocate@ABQAVRaven_Bot@@@?$vector@PAVRaven_Bot@@V?$allocator@PAVRaven_Bot@@@std@@@std@@AAEPAPAVRaven_Bot@@QAPAV2@ABQAV2@@Z$0
__unwindtable$??$_Emplace_reallocate@ABQAVRaven_Bot@@@?$vector@PAVRaven_Bot@@V?$allocator@PAVRaven_Bot@@@std@@@std@@AAEPAPAVRaven_Bot@@QAPAV2@ABQAV2@@Z DD 0ffffffffH
	DD	00H
	DD	0ffffffffH
	DD	00H
__tryblocktable$??$_Emplace_reallocate@ABQAVRaven_Bot@@@?$vector@PAVRaven_Bot@@V?$allocator@PAVRaven_Bot@@@std@@@std@@AAEPAPAVRaven_Bot@@QAPAV2@ABQAV2@@Z DD 00H
	DD	00H
	DD	01H
	DD	01H
	DD	FLAT:__catchsym$??$_Emplace_reallocate@ABQAVRaven_Bot@@@?$vector@PAVRaven_Bot@@V?$allocator@PAVRaven_Bot@@@std@@@std@@AAEPAPAVRaven_Bot@@QAPAV2@ABQAV2@@Z$2
__ehfuncinfo$??$_Emplace_reallocate@ABQAVRaven_Bot@@@?$vector@PAVRaven_Bot@@V?$allocator@PAVRaven_Bot@@@std@@@std@@AAEPAPAVRaven_Bot@@QAPAV2@ABQAV2@@Z DD 019930522H
	DD	02H
	DD	FLAT:__unwindtable$??$_Emplace_reallocate@ABQAVRaven_Bot@@@?$vector@PAVRaven_Bot@@V?$allocator@PAVRaven_Bot@@@std@@@std@@AAEPAPAVRaven_Bot@@QAPAV2@ABQAV2@@Z
	DD	01H
	DD	FLAT:__tryblocktable$??$_Emplace_reallocate@ABQAVRaven_Bot@@@?$vector@PAVRaven_Bot@@V?$allocator@PAVRaven_Bot@@@std@@@std@@AAEPAPAVRaven_Bot@@QAPAV2@ABQAV2@@Z
	DD	2 DUP(00H)
	DD	00H
	DD	01H
xdata$x	ENDS
;	COMDAT voltbl
voltbl	SEGMENT
_volmd	DB	09H
voltbl	ENDS
;	COMDAT xdata$x
xdata$x	SEGMENT
__ehfuncinfo$??$_Freenode0@V?$allocator@U?$_List_node@PAV?$Goal@VRaven_Bot@@@@PAX@std@@@std@@@?$_List_node@PAV?$Goal@VRaven_Bot@@@@PAX@std@@SAXAAV?$allocator@U?$_List_node@PAV?$Goal@VRaven_Bot@@@@PAX@std@@@1@PAU01@@Z DD 019930522H
	DD	00H
	DD	00H
	DD	2 DUP(00H)
	DD	2 DUP(00H)
	DD	00H
	DD	05H
xdata$x	ENDS
;	COMDAT voltbl
voltbl	SEGMENT
_volmd	DB	09H
voltbl	ENDS
;	COMDAT xdata$x
xdata$x	SEGMENT
__ehfuncinfo$??$_Deallocate@$07$0A@@std@@YAXPAXI@Z DD 019930522H
	DD	00H
	DD	00H
	DD	2 DUP(00H)
	DD	2 DUP(00H)
	DD	00H
	DD	05H
xdata$x	ENDS
;	COMDAT voltbl
voltbl	SEGMENT
_volmd	DB	09H
voltbl	ENDS
;	COMDAT xdata$x
xdata$x	SEGMENT
__ehfuncinfo$??$_Freenode0@V?$allocator@U?$_List_node@PAVRaven_Bot@@PAX@std@@@std@@@?$_List_node@PAVRaven_Bot@@PAX@std@@SAXAAV?$allocator@U?$_List_node@PAVRaven_Bot@@PAX@std@@@1@PAU01@@Z DD 019930522H
	DD	00H
	DD	00H
	DD	2 DUP(00H)
	DD	2 DUP(00H)
	DD	00H
	DD	05H
xdata$x	ENDS
;	COMDAT voltbl
voltbl	SEGMENT
_volmd	DB	09H
voltbl	ENDS
;	COMDAT xdata$x
xdata$x	SEGMENT
__ehfuncinfo$??$_Freenode0@V?$allocator@U?$_List_node@PAVRaven_Projectile@@PAX@std@@@std@@@?$_List_node@PAVRaven_Projectile@@PAX@std@@SAXAAV?$allocator@U?$_List_node@PAVRaven_Projectile@@PAX@std@@@1@PAU01@@Z DD 019930522H
	DD	00H
	DD	00H
	DD	2 DUP(00H)
	DD	2 DUP(00H)
	DD	00H
	DD	05H
xdata$x	ENDS
;	COMDAT voltbl
voltbl	SEGMENT
_volmd	DB	09H
voltbl	ENDS
;	COMDAT xdata$x
xdata$x	SEGMENT
__ehfuncinfo$??$_Freenode0@V?$allocator@U?$_List_node@UGraveRecord@GraveMarkers@@PAX@std@@@std@@@?$_List_node@UGraveRecord@GraveMarkers@@PAX@std@@SAXAAV?$allocator@U?$_List_node@UGraveRecord@GraveMarkers@@PAX@std@@@1@PAU01@@Z DD 019930522H
	DD	00H
	DD	00H
	DD	2 DUP(00H)
	DD	2 DUP(00H)
	DD	00H
	DD	05H
xdata$x	ENDS
;	COMDAT voltbl
voltbl	SEGMENT
_volmd	DB	09H
voltbl	ENDS
;	COMDAT xdata$x
xdata$x	SEGMENT
__ehfuncinfo$??$_Freenode0@V?$allocator@U?$_List_node@PAVRaven_PathPlanner@@PAX@std@@@std@@@?$_List_node@PAVRaven_PathPlanner@@PAX@std@@SAXAAV?$allocator@U?$_List_node@PAVRaven_PathPlanner@@PAX@std@@@1@PAU01@@Z DD 019930522H
	DD	00H
	DD	00H
	DD	2 DUP(00H)
	DD	2 DUP(00H)
	DD	00H
	DD	05H
xdata$x	ENDS
;	COMDAT voltbl
voltbl	SEGMENT
_volmd	DB	09H
voltbl	ENDS
;	COMDAT xdata$x
xdata$x	SEGMENT
__ehfuncinfo$??$_Freenode@V?$allocator@U?$_List_node@PAVRaven_Projectile@@PAX@std@@@std@@@?$_List_node@PAVRaven_Projectile@@PAX@std@@SAXAAV?$allocator@U?$_List_node@PAVRaven_Projectile@@PAX@std@@@1@PAU01@@Z DD 019930522H
	DD	00H
	DD	00H
	DD	2 DUP(00H)
	DD	2 DUP(00H)
	DD	00H
	DD	05H
xdata$x	ENDS
;	COMDAT voltbl
voltbl	SEGMENT
_volmd	DB	01eH
voltbl	ENDS
;	COMDAT xdata$x
xdata$x	SEGMENT
__unwindtable$??$_Construct_n@ABQAIABQAI@?$vector@IV?$allocator@I@std@@@std@@AAEXIABQAI0@Z DD 0ffffffffH
	DD	FLAT:__unwindfunclet$??$_Construct_n@ABQAIABQAI@?$vector@IV?$allocator@I@std@@@std@@AAEXIABQAI0@Z$0
	DD	00H
	DD	FLAT:__unwindfunclet$??$_Construct_n@ABQAIABQAI@?$vector@IV?$allocator@I@std@@@std@@AAEXIABQAI0@Z$1
__ehfuncinfo$??$_Construct_n@ABQAIABQAI@?$vector@IV?$allocator@I@std@@@std@@AAEXIABQAI0@Z DD 019930522H
	DD	02H
	DD	FLAT:__unwindtable$??$_Construct_n@ABQAIABQAI@?$vector@IV?$allocator@I@std@@@std@@AAEXIABQAI0@Z
	DD	2 DUP(00H)
	DD	2 DUP(00H)
	DD	00H
	DD	01H
xdata$x	ENDS
;	COMDAT voltbl
voltbl	SEGMENT
_volmd	DB	016H
voltbl	ENDS
;	COMDAT xdata$x
xdata$x	SEGMENT
__unwindtable$?_Orphan_range_locked@?$vector@PAVRaven_Bot@@V?$allocator@PAVRaven_Bot@@@std@@@std@@ABEXPAPAVRaven_Bot@@0@Z DD 0ffffffffH
	DD	FLAT:__unwindfunclet$?_Orphan_range_locked@?$vector@PAVRaven_Bot@@V?$allocator@PAVRaven_Bot@@@std@@@std@@ABEXPAPAVRaven_Bot@@0@Z$0
__ehfuncinfo$?_Orphan_range_locked@?$vector@PAVRaven_Bot@@V?$allocator@PAVRaven_Bot@@@std@@@std@@ABEXPAPAVRaven_Bot@@0@Z DD 019930522H
	DD	01H
	DD	FLAT:__unwindtable$?_Orphan_range_locked@?$vector@PAVRaven_Bot@@V?$allocator@PAVRaven_Bot@@@std@@@std@@ABEXPAPAVRaven_Bot@@0@Z
	DD	2 DUP(00H)
	DD	2 DUP(00H)
	DD	00H
	DD	01H
xdata$x	ENDS
;	COMDAT voltbl
voltbl	SEGMENT
_volmd	DB	09H
voltbl	ENDS
;	COMDAT xdata$x
xdata$x	SEGMENT
__ehfuncinfo$?_Tidy@?$vector@PAVRaven_Bot@@V?$allocator@PAVRaven_Bot@@@std@@@std@@AAEXXZ DD 019930522H
	DD	00H
	DD	00H
	DD	2 DUP(00H)
	DD	2 DUP(00H)
	DD	00H
	DD	05H
xdata$x	ENDS
;	COMDAT voltbl
voltbl	SEGMENT
_volmd	DB	09H
voltbl	ENDS
;	COMDAT xdata$x
xdata$x	SEGMENT
__ehfuncinfo$??0?$vector@PAVRaven_Bot@@V?$allocator@PAVRaven_Bot@@@std@@@std@@QAE@$$QAV01@@Z DD 019930522H
	DD	00H
	DD	00H
	DD	2 DUP(00H)
	DD	2 DUP(00H)
	DD	00H
	DD	05H
xdata$x	ENDS
;	COMDAT voltbl
voltbl	SEGMENT
_volmd	DB	09H
voltbl	ENDS
;	COMDAT xdata$x
xdata$x	SEGMENT
__ehfuncinfo$??0?$vector@PAVRaven_Bot@@V?$allocator@PAVRaven_Bot@@@std@@@std@@QAE@XZ DD 019930522H
	DD	00H
	DD	00H
	DD	2 DUP(00H)
	DD	2 DUP(00H)
	DD	00H
	DD	05H
xdata$x	ENDS
;	COMDAT voltbl
voltbl	SEGMENT
_volmd	DB	016H
voltbl	ENDS
;	COMDAT xdata$x
xdata$x	SEGMENT
__unwindtable$??$doWallsIntersectCircle@V?$vector@PAVWall2D@@V?$allocator@PAVWall2D@@@std@@@std@@@@YA_NABV?$vector@PAVWall2D@@V?$allocator@PAVWall2D@@@std@@@std@@UVector2D@@N@Z DD 0ffffffffH
	DD	FLAT:__unwindfunclet$??$doWallsIntersectCircle@V?$vector@PAVWall2D@@V?$allocator@PAVWall2D@@@std@@@std@@@@YA_NABV?$vector@PAVWall2D@@V?$allocator@PAVWall2D@@@std@@@std@@UVector2D@@N@Z$0
__ehfuncinfo$??$doWallsIntersectCircle@V?$vector@PAVWall2D@@V?$allocator@PAVWall2D@@@std@@@std@@@@YA_NABV?$vector@PAVWall2D@@V?$allocator@PAVWall2D@@@std@@@std@@UVector2D@@N@Z DD 019930522H
	DD	01H
	DD	FLAT:__unwindtable$??$doWallsIntersectCircle@V?$vector@PAVWall2D@@V?$allocator@PAVWall2D@@@std@@@std@@@@YA_NABV?$vector@PAVWall2D@@V?$allocator@PAVWall2D@@@std@@@std@@UVector2D@@N@Z
	DD	2 DUP(00H)
	DD	2 DUP(00H)
	DD	00H
	DD	01H
xdata$x	ENDS
;	COMDAT voltbl
voltbl	SEGMENT
_volmd	DB	016H
voltbl	ENDS
;	COMDAT xdata$x
xdata$x	SEGMENT
__unwindtable$??$doWallsObstructLineSegment@V?$vector@PAVWall2D@@V?$allocator@PAVWall2D@@@std@@@std@@@@YA_NUVector2D@@0ABV?$vector@PAVWall2D@@V?$allocator@PAVWall2D@@@std@@@std@@@Z DD 0ffffffffH
	DD	FLAT:__unwindfunclet$??$doWallsObstructLineSegment@V?$vector@PAVWall2D@@V?$allocator@PAVWall2D@@@std@@@std@@@@YA_NUVector2D@@0ABV?$vector@PAVWall2D@@V?$allocator@PAVWall2D@@@std@@@std@@@Z$0
__ehfuncinfo$??$doWallsObstructLineSegment@V?$vector@PAVWall2D@@V?$allocator@PAVWall2D@@@std@@@std@@@@YA_NUVector2D@@0ABV?$vector@PAVWall2D@@V?$allocator@PAVWall2D@@@std@@@std@@@Z DD 019930522H
	DD	01H
	DD	FLAT:__unwindtable$??$doWallsObstructLineSegment@V?$vector@PAVWall2D@@V?$allocator@PAVWall2D@@@std@@@std@@@@YA_NUVector2D@@0ABV?$vector@PAVWall2D@@V?$allocator@PAVWall2D@@@std@@@std@@@Z
	DD	2 DUP(00H)
	DD	2 DUP(00H)
	DD	00H
	DD	01H
xdata$x	ENDS
;	COMDAT voltbl
voltbl	SEGMENT
_volmd	DB	09H
voltbl	ENDS
;	COMDAT xdata$x
xdata$x	SEGMENT
__ehfuncinfo$??1_List_node_remove_op@?$list@PAVRaven_Bot@@V?$allocator@PAVRaven_Bot@@@std@@@std@@QAE@XZ DD 019930522H
	DD	00H
	DD	00H
	DD	2 DUP(00H)
	DD	2 DUP(00H)
	DD	00H
	DD	05H
xdata$x	ENDS
;	COMDAT voltbl
voltbl	SEGMENT
_volmd	DB	016H
voltbl	ENDS
;	COMDAT xdata$x
xdata$x	SEGMENT
__unwindtable$??$remove_if@V<lambda_6cf427b5d2fa492a5daa2394a94d9357>@@@?$list@PAVRaven_Bot@@V?$allocator@PAVRaven_Bot@@@std@@@std@@QAE?A_PV<lambda_6cf427b5d2fa492a5daa2394a94d9357>@@@Z DD 0ffffffffH
	DD	FLAT:__unwindfunclet$??$remove_if@V<lambda_6cf427b5d2fa492a5daa2394a94d9357>@@@?$list@PAVRaven_Bot@@V?$allocator@PAVRaven_Bot@@@std@@@std@@QAE?A_PV<lambda_6cf427b5d2fa492a5daa2394a94d9357>@@@Z$0
__ehfuncinfo$??$remove_if@V<lambda_6cf427b5d2fa492a5daa2394a94d9357>@@@?$list@PAVRaven_Bot@@V?$allocator@PAVRaven_Bot@@@std@@@std@@QAE?A_PV<lambda_6cf427b5d2fa492a5daa2394a94d9357>@@@Z DD 019930522H
	DD	01H
	DD	FLAT:__unwindtable$??$remove_if@V<lambda_6cf427b5d2fa492a5daa2394a94d9357>@@@?$list@PAVRaven_Bot@@V?$allocator@PAVRaven_Bot@@@std@@@std@@QAE?A_PV<lambda_6cf427b5d2fa492a5daa2394a94d9357>@@@Z
	DD	2 DUP(00H)
	DD	2 DUP(00H)
	DD	00H
	DD	01H
xdata$x	ENDS
;	COMDAT voltbl
voltbl	SEGMENT
_volmd	DB	016H
voltbl	ENDS
;	COMDAT xdata$x
xdata$x	SEGMENT
__unwindtable$?UpdateSearches@?$PathManager@VRaven_PathPlanner@@@@QAEXXZ DD 0ffffffffH
	DD	FLAT:__unwindfunclet$?UpdateSearches@?$PathManager@VRaven_PathPlanner@@@@QAEXXZ$0
__ehfuncinfo$?UpdateSearches@?$PathManager@VRaven_PathPlanner@@@@QAEXXZ DD 019930522H
	DD	01H
	DD	FLAT:__unwindtable$?UpdateSearches@?$PathManager@VRaven_PathPlanner@@@@QAEXXZ
	DD	2 DUP(00H)
	DD	2 DUP(00H)
	DD	00H
	DD	01H
xdata$x	ENDS
;	COMDAT voltbl
voltbl	SEGMENT
_volmd	DB	016H
voltbl	ENDS
;	COMDAT xdata$x
xdata$x	SEGMENT
__unwindtable$?_Alloc_sentinel_and_proxy@?$list@PAVRaven_PathPlanner@@V?$allocator@PAVRaven_PathPlanner@@@std@@@std@@AAEXXZ DD 0ffffffffH
	DD	FLAT:__unwindfunclet$?_Alloc_sentinel_and_proxy@?$list@PAVRaven_PathPlanner@@V?$allocator@PAVRaven_PathPlanner@@@std@@@std@@AAEXXZ$0
__ehfuncinfo$?_Alloc_sentinel_and_proxy@?$list@PAVRaven_PathPlanner@@V?$allocator@PAVRaven_PathPlanner@@@std@@@std@@AAEXXZ DD 019930522H
	DD	01H
	DD	FLAT:__unwindtable$?_Alloc_sentinel_and_proxy@?$list@PAVRaven_PathPlanner@@V?$allocator@PAVRaven_PathPlanner@@@std@@@std@@AAEXXZ
	DD	2 DUP(00H)
	DD	2 DUP(00H)
	DD	00H
	DD	01H
xdata$x	ENDS
;	COMDAT voltbl
voltbl	SEGMENT
_volmd	DB	016H
voltbl	ENDS
;	COMDAT xdata$x
xdata$x	SEGMENT
__unwindtable$?RemoveAllSubgoals@?$Goal_Composite@VRaven_Bot@@@@QAEXXZ DD 0ffffffffH
	DD	FLAT:__unwindfunclet$?RemoveAllSubgoals@?$Goal_Composite@VRaven_Bot@@@@QAEXXZ$0
__ehfuncinfo$?RemoveAllSubgoals@?$Goal_Composite@VRaven_Bot@@@@QAEXXZ DD 019930522H
	DD	01H
	DD	FLAT:__unwindtable$?RemoveAllSubgoals@?$Goal_Composite@VRaven_Bot@@@@QAEXXZ
	DD	2 DUP(00H)
	DD	2 DUP(00H)
	DD	00H
	DD	01H
xdata$x	ENDS
;	COMDAT voltbl
voltbl	SEGMENT
_volmd	DB	09H
voltbl	ENDS
;	COMDAT xdata$x
xdata$x	SEGMENT
__ehfuncinfo$?_Tidy@?$vector@IV?$allocator@I@std@@@std@@AAEXXZ DD 019930522H
	DD	00H
	DD	00H
	DD	2 DUP(00H)
	DD	2 DUP(00H)
	DD	00H
	DD	05H
xdata$x	ENDS
;	COMDAT voltbl
voltbl	SEGMENT
_volmd	DB	09H
voltbl	ENDS
;	COMDAT xdata$x
xdata$x	SEGMENT
__ehfuncinfo$??0?$vector@IV?$allocator@I@std@@@std@@QAE@XZ DD 019930522H
	DD	00H
	DD	00H
	DD	2 DUP(00H)
	DD	2 DUP(00H)
	DD	00H
	DD	05H
xdata$x	ENDS
;	COMDAT voltbl
voltbl	SEGMENT
_volmd	DB	01eH
	DB	028H
voltbl	ENDS
;	COMDAT voltbl
voltbl	SEGMENT
_volmd	DW	02bH
	DW	0113H
voltbl	ENDS
;	COMDAT xdata$x
xdata$x	SEGMENT
__unwindtable$??$PopLuaNumber@N@@YANPAUlua_State@@PBD@Z DD 0ffffffffH
	DD	FLAT:__unwindfunclet$??$PopLuaNumber@N@@YANPAUlua_State@@PBD@Z$0
	DD	00H
	DD	FLAT:__unwindfunclet$??$PopLuaNumber@N@@YANPAUlua_State@@PBD@Z$1
__ehfuncinfo$??$PopLuaNumber@N@@YANPAUlua_State@@PBD@Z DD 019930522H
	DD	02H
	DD	FLAT:__unwindtable$??$PopLuaNumber@N@@YANPAUlua_State@@PBD@Z
	DD	2 DUP(00H)
	DD	2 DUP(00H)
	DD	00H
	DD	01H
xdata$x	ENDS
;	COMDAT voltbl
voltbl	SEGMENT
_volmd	DB	01eH
	DB	028H
voltbl	ENDS
;	COMDAT voltbl
voltbl	SEGMENT
_volmd	DW	02bH
	DW	0118H
voltbl	ENDS
;	COMDAT xdata$x
xdata$x	SEGMENT
__unwindtable$??$PopLuaNumber@H@@YAHPAUlua_State@@PBD@Z DD 0ffffffffH
	DD	FLAT:__unwindfunclet$??$PopLuaNumber@H@@YAHPAUlua_State@@PBD@Z$0
	DD	00H
	DD	FLAT:__unwindfunclet$??$PopLuaNumber@H@@YAHPAUlua_State@@PBD@Z$1
__ehfuncinfo$??$PopLuaNumber@H@@YAHPAUlua_State@@PBD@Z DD 019930522H
	DD	02H
	DD	FLAT:__unwindtable$??$PopLuaNumber@H@@YAHPAUlua_State@@PBD@Z
	DD	2 DUP(00H)
	DD	2 DUP(00H)
	DD	00H
	DD	01H
xdata$x	ENDS
;	COMDAT voltbl
voltbl	SEGMENT
_volmd	DB	01eH
	DB	02bH
voltbl	ENDS
;	COMDAT voltbl
voltbl	SEGMENT
_volmd	DW	031H
	DW	0158H
voltbl	ENDS
;	COMDAT xdata$x
xdata$x	SEGMENT
__unwindtable$?PopLuaString@@YA?AV?$basic_string@DU?$char_traits@D@std@@V?$allocator@D@2@@std@@PAUlua_State@@PBD@Z DD 0ffffffffH
	DD	FLAT:__unwindfunclet$?PopLuaString@@YA?AV?$basic_string@DU?$char_traits@D@std@@V?$allocator@D@2@@std@@PAUlua_State@@PBD@Z$0
	DD	00H
	DD	FLAT:__unwindfunclet$?PopLuaString@@YA?AV?$basic_string@DU?$char_traits@D@std@@V?$allocator@D@2@@std@@PAUlua_State@@PBD@Z$1
__ehfuncinfo$?PopLuaString@@YA?AV?$basic_string@DU?$char_traits@D@std@@V?$allocator@D@2@@std@@PAUlua_State@@PBD@Z DD 019930522H
	DD	02H
	DD	FLAT:__unwindtable$?PopLuaString@@YA?AV?$basic_string@DU?$char_traits@D@std@@V?$allocator@D@2@@std@@PAUlua_State@@PBD@Z
	DD	2 DUP(00H)
	DD	2 DUP(00H)
	DD	00H
	DD	01H
xdata$x	ENDS
voltbl	SEGMENT
_volmd	DD	0ffffffffH
	DDSymXIndex: 	FLAT:__unwindfunclet$?GetBotAtPosition@Raven_Game@@QBEPAVRaven_Bot@@UVector2D@@@Z$0
	DD	016H
_volmd	DD	0ffffffffH
	DDSymXIndex: 	FLAT:__unwindfunclet$?GetPosOfClosestSwitch@Raven_Game@@QBE?AUVector2D@@U2@I@Z$0
	DD	026H
_volmd	DD	0ffffffffH
	DDSymXIndex: 	FLAT:__unwindfunclet$?GetAllBotsInFOV@Raven_Game@@QBE?AV?$vector@PAVRaven_Bot@@V?$allocator@PAVRaven_Bot@@@std@@@std@@PBVRaven_Bot@@@Z$0
	DD	01eH
_volmd	DD	0ffffffffH
	DDSymXIndex: 	FLAT:__unwindfunclet$?AddBolt@Raven_Game@@QAEXPAVRaven_Bot@@UVector2D@@@Z$0
	DD	020H
_volmd	DD	0ffffffffH
	DDSymXIndex: 	FLAT:__unwindfunclet$?AddShotGunPellet@Raven_Game@@QAEXPAVRaven_Bot@@UVector2D@@@Z$0
	DD	020H
_volmd	DD	0ffffffffH
	DDSymXIndex: 	FLAT:__unwindfunclet$?AddRailGunSlug@Raven_Game@@QAEXPAVRaven_Bot@@UVector2D@@@Z$0
	DD	020H
_volmd	DD	0ffffffffH
	DDSymXIndex: 	FLAT:__unwindfunclet$?AddRocket@Raven_Game@@QAEXPAVRaven_Bot@@UVector2D@@@Z$0
	DD	020H
_volmd	DD	0ffffffffH
	DDSymXIndex: 	FLAT:__unwindfunclet$?AddBots@Raven_Game@@QAEXI@Z$0
	DD	020H
_volmd	DD	0ffffffffH
	DDSymXIndex: 	FLAT:__unwindfunclet$?LoadMap@Raven_Game@@QAE_NABV?$basic_string@DU?$char_traits@D@std@@V?$allocator@D@2@@std@@@Z$0
	DD	03bH
_volmd	DD	0ffffffffH
	DDSymXIndex: 	FLAT:__unwindfunclet$?Update@Raven_Game@@QAEXXZ$0
	DD	026H
_volmd	DD	0ffffffffH
	DDSymXIndex: 	FLAT:__ehhandler$??1Raven_Game@@QAE@XZ
	DD	09H
_volmd	DD	0ffffffffH
	DDSymXIndex: 	FLAT:__unwindfunclet$?NotifyAllBotsOfRemoval@Raven_Game@@ABEXPAVRaven_Bot@@@Z$0
	DD	016H
_volmd	DD	0ffffffffH
	DDSymXIndex: 	FLAT:__unwindfunclet$?AttemptToAddBot@Raven_Game@@AAE_NPAVRaven_Bot@@@Z$1
	DD	016H
_volmd	DD	0ffffffffH
	DDSymXIndex: 	FLAT:__unwindfunclet$?Render@Raven_Game@@QAEXXZ$0
	DD	039H
	DD	046H
_volmd	DD	0ffffffffH
	DDSymXIndex: 	FLAT:?Render@Raven_Game@@QAEXXZ
	DD	034H
	DD	080eH
_volmd	DD	0ffffffffH
	DDSymXIndex: 	FLAT:__unwindfunclet$??0Raven_Game@@QAE@XZ$0
	DD	02cH
	DD	036H
_volmd	DD	0ffffffffH
	DDSymXIndex: 	FLAT:??0Raven_Game@@QAE@XZ
	DD	02dH
	DD	0e3H
voltbl	ENDS
xdata$x	SEGMENT
__unwindtable$?GetBotAtPosition@Raven_Game@@QBEPAVRaven_Bot@@UVector2D@@@Z DD 0ffffffffH
	DD	FLAT:__unwindfunclet$?GetBotAtPosition@Raven_Game@@QBEPAVRaven_Bot@@UVector2D@@@Z$0
__unwindtable$?AddBolt@Raven_Game@@QAEXPAVRaven_Bot@@UVector2D@@@Z DD 0ffffffffH
	DD	FLAT:__unwindfunclet$?AddBolt@Raven_Game@@QAEXPAVRaven_Bot@@UVector2D@@@Z$0
__unwindtable$?AddShotGunPellet@Raven_Game@@QAEXPAVRaven_Bot@@UVector2D@@@Z DD 0ffffffffH
	DD	FLAT:__unwindfunclet$?AddShotGunPellet@Raven_Game@@QAEXPAVRaven_Bot@@UVector2D@@@Z$0
__unwindtable$?AddRailGunSlug@Raven_Game@@QAEXPAVRaven_Bot@@UVector2D@@@Z DD 0ffffffffH
	DD	FLAT:__unwindfunclet$?AddRailGunSlug@Raven_Game@@QAEXPAVRaven_Bot@@UVector2D@@@Z$0
__unwindtable$?AddRocket@Raven_Game@@QAEXPAVRaven_Bot@@UVector2D@@@Z DD 0ffffffffH
	DD	FLAT:__unwindfunclet$?AddRocket@Raven_Game@@QAEXPAVRaven_Bot@@UVector2D@@@Z$0
__unwindtable$?AddBots@Raven_Game@@QAEXI@Z DD 0ffffffffH
	DD	FLAT:__unwindfunclet$?AddBots@Raven_Game@@QAEXI@Z$0
__unwindtable$?NotifyAllBotsOfRemoval@Raven_Game@@ABEXPAVRaven_Bot@@@Z DD 0ffffffffH
	DD	FLAT:__unwindfunclet$?NotifyAllBotsOfRemoval@Raven_Game@@ABEXPAVRaven_Bot@@@Z$0
__unwindtable$?AttemptToAddBot@Raven_Game@@AAE_NPAVRaven_Bot@@@Z DD 0ffffffffH
	DD	FLAT:__unwindfunclet$?AttemptToAddBot@Raven_Game@@AAE_NPAVRaven_Bot@@@Z$1
__unwindtable$?GetAllBotsInFOV@Raven_Game@@QBE?AV?$vector@PAVRaven_Bot@@V?$allocator@PAVRaven_Bot@@@std@@@std@@PBVRaven_Bot@@@Z DD 0ffffffffH
	DD	FLAT:__unwindfunclet$?GetAllBotsInFOV@Raven_Game@@QBE?AV?$vector@PAVRaven_Bot@@V?$allocator@PAVRaven_Bot@@@std@@@std@@PBVRaven_Bot@@@Z$0
	DD	00H
	DD	FLAT:__unwindfunclet$?GetAllBotsInFOV@Raven_Game@@QBE?AV?$vector@PAVRaven_Bot@@V?$allocator@PAVRaven_Bot@@@std@@@std@@PBVRaven_Bot@@@Z$1
__unwindtable$?GetPosOfClosestSwitch@Raven_Game@@QBE?AUVector2D@@U2@I@Z DD 0ffffffffH
	DD	FLAT:__unwindfunclet$?GetPosOfClosestSwitch@Raven_Game@@QBE?AUVector2D@@U2@I@Z$0
	DD	00H
	DD	FLAT:__unwindfunclet$?GetPosOfClosestSwitch@Raven_Game@@QBE?AUVector2D@@U2@I@Z$1
	DD	01H
	DD	FLAT:__unwindfunclet$?GetPosOfClosestSwitch@Raven_Game@@QBE?AUVector2D@@U2@I@Z$5
__unwindtable$?LoadMap@Raven_Game@@QAE_NABV?$basic_string@DU?$char_traits@D@std@@V?$allocator@D@2@@std@@@Z DD 0ffffffffH
	DD	FLAT:__unwindfunclet$?LoadMap@Raven_Game@@QAE_NABV?$basic_string@DU?$char_traits@D@std@@V?$allocator@D@2@@std@@@Z$0
	DD	0ffffffffH
	DD	FLAT:__unwindfunclet$?LoadMap@Raven_Game@@QAE_NABV?$basic_string@DU?$char_traits@D@std@@V?$allocator@D@2@@std@@@Z$1
	DD	0ffffffffH
	DD	FLAT:__unwindfunclet$?LoadMap@Raven_Game@@QAE_NABV?$basic_string@DU?$char_traits@D@std@@V?$allocator@D@2@@std@@@Z$2
__unwindtable$?Update@Raven_Game@@QAEXXZ DD 0ffffffffH
	DD	FLAT:__unwindfunclet$?Update@Raven_Game@@QAEXXZ$0
	DD	00H
	DD	FLAT:__unwindfunclet$?Update@Raven_Game@@QAEXXZ$2
	DD	01H
	DD	FLAT:__unwindfunclet$?Update@Raven_Game@@QAEXXZ$6
__unwindtable$??0Raven_Game@@QAE@XZ DD 0ffffffffH
	DD	FLAT:__unwindfunclet$??0Raven_Game@@QAE@XZ$0
	DD	00H
	DD	FLAT:__unwindfunclet$??0Raven_Game@@QAE@XZ$1
	DD	01H
	DD	FLAT:__unwindfunclet$??0Raven_Game@@QAE@XZ$2
__ehfuncinfo$?GetBotAtPosition@Raven_Game@@QBEPAVRaven_Bot@@UVector2D@@@Z DD 019930522H
	DD	01H
	DD	FLAT:__unwindtable$?GetBotAtPosition@Raven_Game@@QBEPAVRaven_Bot@@UVector2D@@@Z
	DD	2 DUP(00H)
	DD	2 DUP(00H)
	DD	00H
	DD	01H
__ehfuncinfo$?GetPosOfClosestSwitch@Raven_Game@@QBE?AUVector2D@@U2@I@Z DD 019930522H
	DD	03H
	DD	FLAT:__unwindtable$?GetPosOfClosestSwitch@Raven_Game@@QBE?AUVector2D@@U2@I@Z
	DD	2 DUP(00H)
	DD	2 DUP(00H)
	DD	00H
	DD	01H
__ehfuncinfo$?GetAllBotsInFOV@Raven_Game@@QBE?AV?$vector@PAVRaven_Bot@@V?$allocator@PAVRaven_Bot@@@std@@@std@@PBVRaven_Bot@@@Z DD 019930522H
	DD	02H
	DD	FLAT:__unwindtable$?GetAllBotsInFOV@Raven_Game@@QBE?AV?$vector@PAVRaven_Bot@@V?$allocator@PAVRaven_Bot@@@std@@@std@@PBVRaven_Bot@@@Z
	DD	2 DUP(00H)
	DD	2 DUP(00H)
	DD	00H
	DD	01H
__ehfuncinfo$?AddBolt@Raven_Game@@QAEXPAVRaven_Bot@@UVector2D@@@Z DD 019930522H
	DD	01H
	DD	FLAT:__unwindtable$?AddBolt@Raven_Game@@QAEXPAVRaven_Bot@@UVector2D@@@Z
	DD	2 DUP(00H)
	DD	2 DUP(00H)
	DD	00H
	DD	01H
__ehfuncinfo$?AddShotGunPellet@Raven_Game@@QAEXPAVRaven_Bot@@UVector2D@@@Z DD 019930522H
	DD	01H
	DD	FLAT:__unwindtable$?AddShotGunPellet@Raven_Game@@QAEXPAVRaven_Bot@@UVector2D@@@Z
	DD	2 DUP(00H)
	DD	2 DUP(00H)
	DD	00H
	DD	01H
__ehfuncinfo$?AddRailGunSlug@Raven_Game@@QAEXPAVRaven_Bot@@UVector2D@@@Z DD 019930522H
	DD	01H
	DD	FLAT:__unwindtable$?AddRailGunSlug@Raven_Game@@QAEXPAVRaven_Bot@@UVector2D@@@Z
	DD	2 DUP(00H)
	DD	2 DUP(00H)
	DD	00H
	DD	01H
__ehfuncinfo$?AddRocket@Raven_Game@@QAEXPAVRaven_Bot@@UVector2D@@@Z DD 019930522H
	DD	01H
	DD	FLAT:__unwindtable$?AddRocket@Raven_Game@@QAEXPAVRaven_Bot@@UVector2D@@@Z
	DD	2 DUP(00H)
	DD	2 DUP(00H)
	DD	00H
	DD	01H
__ehfuncinfo$?AddBots@Raven_Game@@QAEXI@Z DD 019930522H
	DD	01H
	DD	FLAT:__unwindtable$?AddBots@Raven_Game@@QAEXI@Z
	DD	2 DUP(00H)
	DD	2 DUP(00H)
	DD	00H
	DD	01H
__ehfuncinfo$?LoadMap@Raven_Game@@QAE_NABV?$basic_string@DU?$char_traits@D@std@@V?$allocator@D@2@@std@@@Z DD 019930522H
	DD	03H
	DD	FLAT:__unwindtable$?LoadMap@Raven_Game@@QAE_NABV?$basic_string@DU?$char_traits@D@std@@V?$allocator@D@2@@std@@@Z
	DD	2 DUP(00H)
	DD	2 DUP(00H)
	DD	00H
	DD	01H
__ehfuncinfo$?Update@Raven_Game@@QAEXXZ DD 019930522H
	DD	03H
	DD	FLAT:__unwindtable$?Update@Raven_Game@@QAEXXZ
	DD	2 DUP(00H)
	DD	2 DUP(00H)
	DD	00H
	DD	01H
__ehfuncinfo$?Render@Raven_Game@@QAEXXZ DD 019930522H
	DD	05H
	DD	FLAT:__unwindtable$?Render@Raven_Game@@QAEXXZ
	DD	2 DUP(00H)
	DD	2 DUP(00H)
	DD	00H
	DD	01H
__ehfuncinfo$??1Raven_Game@@QAE@XZ DD 019930522H
	DD	00H
	DD	00H
	DD	2 DUP(00H)
	DD	2 DUP(00H)
	DD	00H
	DD	05H
__ehfuncinfo$??0Raven_Game@@QAE@XZ DD 019930522H
	DD	03H
	DD	FLAT:__unwindtable$??0Raven_Game@@QAE@XZ
	DD	2 DUP(00H)
	DD	2 DUP(00H)
	DD	00H
	DD	01H
__ehfuncinfo$?NotifyAllBotsOfRemoval@Raven_Game@@ABEXPAVRaven_Bot@@@Z DD 019930522H
	DD	01H
	DD	FLAT:__unwindtable$?NotifyAllBotsOfRemoval@Raven_Game@@ABEXPAVRaven_Bot@@@Z
	DD	2 DUP(00H)
	DD	2 DUP(00H)
	DD	00H
	DD	01H
__ehfuncinfo$?AttemptToAddBot@Raven_Game@@AAE_NPAVRaven_Bot@@@Z DD 019930522H
	DD	01H
	DD	FLAT:__unwindtable$?AttemptToAddBot@Raven_Game@@AAE_NPAVRaven_Bot@@@Z
	DD	2 DUP(00H)
	DD	2 DUP(00H)
	DD	00H
	DD	01H
__unwindtable$?Render@Raven_Game@@QAEXXZ DD 0ffffffffH
	DD	FLAT:__unwindfunclet$?Render@Raven_Game@@QAEXXZ$0
	DD	00H
	DD	FLAT:__unwindfunclet$?Render@Raven_Game@@QAEXXZ$2
	DD	0ffffffffH
	DD	FLAT:__unwindfunclet$?Render@Raven_Game@@QAEXXZ$5
	DD	0ffffffffH
	DD	FLAT:__unwindfunclet$?Render@Raven_Game@@QAEXXZ$8
	DD	03H
	DD	FLAT:__unwindfunclet$?Render@Raven_Game@@QAEXXZ$10
xdata$x	ENDS
;	COMDAT voltbl
voltbl	SEGMENT
_volmd	DB	016H
voltbl	ENDS
;	COMDAT xdata$x
xdata$x	SEGMENT
__unwindtable$?_Alloc_sentinel_and_proxy@?$list@PAVRaven_Projectile@@V?$allocator@PAVRaven_Projectile@@@std@@@std@@AAEXXZ DD 0ffffffffH
	DD	FLAT:__unwindfunclet$?_Alloc_sentinel_and_proxy@?$list@PAVRaven_Projectile@@V?$allocator@PAVRaven_Projectile@@@std@@@std@@AAEXXZ$0
__ehfuncinfo$?_Alloc_sentinel_and_proxy@?$list@PAVRaven_Projectile@@V?$allocator@PAVRaven_Projectile@@@std@@@std@@AAEXXZ DD 019930522H
	DD	01H
	DD	FLAT:__unwindtable$?_Alloc_sentinel_and_proxy@?$list@PAVRaven_Projectile@@V?$allocator@PAVRaven_Projectile@@@std@@@std@@AAEXXZ
	DD	2 DUP(00H)
	DD	2 DUP(00H)
	DD	00H
	DD	01H
xdata$x	ENDS
;	COMDAT voltbl
voltbl	SEGMENT
_volmd	DB	016H
voltbl	ENDS
;	COMDAT xdata$x
xdata$x	SEGMENT
__unwindtable$?_Alloc_sentinel_and_proxy@?$list@PAVRaven_Bot@@V?$allocator@PAVRaven_Bot@@@std@@@std@@AAEXXZ DD 0ffffffffH
	DD	FLAT:__unwindfunclet$?_Alloc_sentinel_and_proxy@?$list@PAVRaven_Bot@@V?$allocator@PAVRaven_Bot@@@std@@@std@@AAEXXZ$0
__ehfuncinfo$?_Alloc_sentinel_and_proxy@?$list@PAVRaven_Bot@@V?$allocator@PAVRaven_Bot@@@std@@@std@@AAEXXZ DD 019930522H
	DD	01H
	DD	FLAT:__unwindtable$?_Alloc_sentinel_and_proxy@?$list@PAVRaven_Bot@@V?$allocator@PAVRaven_Bot@@@std@@@std@@AAEXXZ
	DD	2 DUP(00H)
	DD	2 DUP(00H)
	DD	00H
	DD	01H
xdata$x	ENDS
;	COMDAT voltbl
voltbl	SEGMENT
_volmd	DB	09H
voltbl	ENDS
;	COMDAT xdata$x
xdata$x	SEGMENT
__ehfuncinfo$?_Tidy@?$vector@UVector2D@@V?$allocator@UVector2D@@@std@@@std@@AAEXXZ DD 019930522H
	DD	00H
	DD	00H
	DD	2 DUP(00H)
	DD	2 DUP(00H)
	DD	00H
	DD	05H
xdata$x	ENDS
;	COMDAT voltbl
voltbl	SEGMENT
_volmd	DB	09H
voltbl	ENDS
;	COMDAT xdata$x
xdata$x	SEGMENT
__ehfuncinfo$?_Tidy_deallocate@?$basic_string@DU?$char_traits@D@std@@V?$allocator@D@2@@std@@AAEXXZ DD 019930522H
	DD	00H
	DD	00H
	DD	2 DUP(00H)
	DD	2 DUP(00H)
	DD	00H
	DD	05H
xdata$x	ENDS
;	COMDAT voltbl
voltbl	SEGMENT
_volmd	DB	09H
voltbl	ENDS
;	COMDAT xdata$x
xdata$x	SEGMENT
__ehfuncinfo$?_Take_contents@?$basic_string@DU?$char_traits@D@std@@V?$allocator@D@2@@std@@AAEXAAV12@@Z DD 019930522H
	DD	00H
	DD	00H
	DD	2 DUP(00H)
	DD	2 DUP(00H)
	DD	00H
	DD	05H
xdata$x	ENDS
;	COMDAT voltbl
voltbl	SEGMENT
_volmd	DB	01eH
voltbl	ENDS
;	COMDAT xdata$x
xdata$x	SEGMENT
__unwindtable$??0?$basic_string@DU?$char_traits@D@std@@V?$allocator@D@2@@std@@QAE@U_String_constructor_concat_tag@1@ABV01@QBDI2I@Z DD 0ffffffffH
	DD	FLAT:__unwindfunclet$??0?$basic_string@DU?$char_traits@D@std@@V?$allocator@D@2@@std@@QAE@U_String_constructor_concat_tag@1@ABV01@QBDI2I@Z$0
	DD	00H
	DD	FLAT:__unwindfunclet$??0?$basic_string@DU?$char_traits@D@std@@V?$allocator@D@2@@std@@QAE@U_String_constructor_concat_tag@1@ABV01@QBDI2I@Z$1
__ehfuncinfo$??0?$basic_string@DU?$char_traits@D@std@@V?$allocator@D@2@@std@@QAE@U_String_constructor_concat_tag@1@ABV01@QBDI2I@Z DD 019930522H
	DD	02H
	DD	FLAT:__unwindtable$??0?$basic_string@DU?$char_traits@D@std@@V?$allocator@D@2@@std@@QAE@U_String_constructor_concat_tag@1@ABV01@QBDI2I@Z
	DD	2 DUP(00H)
	DD	2 DUP(00H)
	DD	00H
	DD	01H
xdata$x	ENDS
;	COMDAT voltbl
voltbl	SEGMENT
_volmd	DB	09H
voltbl	ENDS
;	COMDAT xdata$x
xdata$x	SEGMENT
__ehfuncinfo$??0?$basic_string@DU?$char_traits@D@std@@V?$allocator@D@2@@std@@QAE@$$QAV01@@Z DD 019930522H
	DD	00H
	DD	00H
	DD	2 DUP(00H)
	DD	2 DUP(00H)
	DD	00H
	DD	05H
xdata$x	ENDS
;	COMDAT voltbl
voltbl	SEGMENT
_volmd	DB	01eH
voltbl	ENDS
;	COMDAT xdata$x
xdata$x	SEGMENT
__unwindtable$??0?$basic_string@DU?$char_traits@D@std@@V?$allocator@D@2@@std@@QAE@QBD@Z DD 0ffffffffH
	DD	FLAT:__unwindfunclet$??0?$basic_string@DU?$char_traits@D@std@@V?$allocator@D@2@@std@@QAE@QBD@Z$0
	DD	00H
	DD	FLAT:__unwindfunclet$??0?$basic_string@DU?$char_traits@D@std@@V?$allocator@D@2@@std@@QAE@QBD@Z$1
__ehfuncinfo$??0?$basic_string@DU?$char_traits@D@std@@V?$allocator@D@2@@std@@QAE@QBD@Z DD 019930522H
	DD	02H
	DD	FLAT:__unwindtable$??0?$basic_string@DU?$char_traits@D@std@@V?$allocator@D@2@@std@@QAE@QBD@Z
	DD	2 DUP(00H)
	DD	2 DUP(00H)
	DD	00H
	DD	01H
xdata$x	ENDS
;	COMDAT CRT$XCU
CRT$XCU	SEGMENT
??id$initializer$@?$codecvt@DDU_Mbstatet@@@std@@2P6AXXZA@@3P6AXXZA DD FLAT:??__E?id@?$codecvt@DDU_Mbstatet@@@std@@2V0locale@2@A@@YAXXZ ; ??id$initializer$@?$codecvt@DDU_Mbstatet@@@std@@2P6AXXZA@@3P6AXXZA
CRT$XCU	ENDS
;	COMDAT CRT$XCU
CRT$XCU	SEGMENT
??id$initializer$@?$numpunct@D@std@@2P6AXXZA@@3P6AXXZA DD FLAT:??__E?id@?$numpunct@D@std@@2V0locale@2@A@@YAXXZ ; ??id$initializer$@?$numpunct@D@std@@2P6AXXZA@@3P6AXXZA
CRT$XCU	ENDS
;	COMDAT CRT$XCU
CRT$XCU	SEGMENT
??id$initializer$@?$num_get@DV?$istreambuf_iterator@DU?$char_traits@D@std@@@std@@@std@@2P6AXXZA@@3P6AXXZA DD FLAT:??__E?id@?$num_get@DV?$istreambuf_iterator@DU?$char_traits@D@std@@@std@@@std@@2V0locale@2@A@@YAXXZ ; ??id$initializer$@?$num_get@DV?$istreambuf_iterator@DU?$char_traits@D@std@@@std@@@std@@2P6AXXZA@@3P6AXXZA
CRT$XCU	ENDS
; Function compile flags: /Odtp /RTCsu
; File C:\Program Files\Microsoft Visual Studio\2022\Community\VC\Tools\MSVC\14.32.31326\include\xutility
;	COMDAT ??$_Voidify_iter@PAI@std@@YAPAXPAI@Z
_TEXT	SEGMENT
__It$ = 8						; size = 4
??$_Voidify_iter@PAI@std@@YAPAXPAI@Z PROC		; std::_Voidify_iter<unsigned int *>, COMDAT

; 123  : _NODISCARD constexpr void* _Voidify_iter(_Iter _It) noexcept {

	push	ebp
	mov	ebp, esp

; 124  :     if constexpr (is_pointer_v<_Iter>) {
; 125  :         return const_cast<void*>(static_cast<const volatile void*>(_It));

	mov	eax, DWORD PTR __It$[ebp]

; 126  :     } else {
; 127  :         return const_cast<void*>(static_cast<const volatile void*>(_STD addressof(*_It)));
; 128  :     }
; 129  : }

	pop	ebp
	ret	0
??$_Voidify_iter@PAI@std@@YAPAXPAI@Z ENDP		; std::_Voidify_iter<unsigned int *>
_TEXT	ENDS
; Function compile flags: /Odtp /RTCsu
; File C:\Program Files\Microsoft Visual Studio\2022\Community\VC\Tools\MSVC\14.32.31326\include\xmemory
;	COMDAT ??$construct@PAVRaven_Bot@@PAV1@@?$_Default_allocator_traits@V?$allocator@PAVRaven_Bot@@@std@@@std@@SAXAAV?$allocator@PAVRaven_Bot@@@1@QAPAVRaven_Bot@@$$QAPAV3@@Z
_TEXT	SEGMENT
$T1 = -4						; size = 4
___formal$ = 8						; size = 4
__Ptr$ = 12						; size = 4
_<_Args_0>$ = 16					; size = 4
??$construct@PAVRaven_Bot@@PAV1@@?$_Default_allocator_traits@V?$allocator@PAVRaven_Bot@@@std@@@std@@SAXAAV?$allocator@PAVRaven_Bot@@@1@QAPAVRaven_Bot@@$$QAPAV3@@Z PROC ; std::_Default_allocator_traits<std::allocator<Raven_Bot *> >::construct<Raven_Bot *,Raven_Bot *>, COMDAT

; 673  :     static _CONSTEXPR20 void construct(_Alloc&, _Objty* const _Ptr, _Types&&... _Args) {

	push	ebp
	mov	ebp, esp
	push	ecx
	mov	DWORD PTR [ebp-4], -858993460		; ccccccccH

; 674  : #if _HAS_CXX20
; 675  :         if (_STD is_constant_evaluated()) {
; 676  :             _STD construct_at(_Ptr, _STD forward<_Types>(_Args)...);
; 677  :         } else
; 678  : #endif // _HAS_CXX20
; 679  :         {
; 680  :             ::new (_Voidify_iter(_Ptr)) _Objty(_STD forward<_Types>(_Args)...);

	mov	eax, DWORD PTR __Ptr$[ebp]
	push	eax
	call	??$_Voidify_iter@PAPAVRaven_Bot@@@std@@YAPAXPAPAVRaven_Bot@@@Z ; std::_Voidify_iter<Raven_Bot * *>
	add	esp, 4
	push	eax
	push	4
	call	??2@YAPAXIPAX@Z				; operator new
	add	esp, 8
	mov	DWORD PTR $T1[ebp], eax
	mov	ecx, DWORD PTR _<_Args_0>$[ebp]
	push	ecx
	call	??$forward@PAVRaven_Bot@@@std@@YA$$QAPAVRaven_Bot@@AAPAV1@@Z ; std::forward<Raven_Bot *>
	add	esp, 4
	mov	edx, DWORD PTR $T1[ebp]
	mov	eax, DWORD PTR [eax]
	mov	DWORD PTR [edx], eax

; 681  :         }
; 682  :     }

	add	esp, 4
	cmp	ebp, esp
	call	__RTC_CheckEsp
	mov	esp, ebp
	pop	ebp
	ret	0
??$construct@PAVRaven_Bot@@PAV1@@?$_Default_allocator_traits@V?$allocator@PAVRaven_Bot@@@std@@@std@@SAXAAV?$allocator@PAVRaven_Bot@@@1@QAPAVRaven_Bot@@$$QAPAV3@@Z ENDP ; std::_Default_allocator_traits<std::allocator<Raven_Bot *> >::construct<Raven_Bot *,Raven_Bot *>
_TEXT	ENDS
; Function compile flags: /Odtp /RTCsu
; File C:\Program Files\Microsoft Visual Studio\2022\Community\VC\Tools\MSVC\14.32.31326\include\type_traits
;	COMDAT ??$forward@PAVRaven_Bot@@@std@@YA$$QAPAVRaven_Bot@@AAPAV1@@Z
_TEXT	SEGMENT
__Arg$ = 8						; size = 4
??$forward@PAVRaven_Bot@@@std@@YA$$QAPAVRaven_Bot@@AAPAV1@@Z PROC ; std::forward<Raven_Bot *>, COMDAT

; 1341 :     remove_reference_t<_Ty>& _Arg) noexcept { // forward an lvalue as either an lvalue or an rvalue

	push	ebp
	mov	ebp, esp

; 1342 :     return static_cast<_Ty&&>(_Arg);

	mov	eax, DWORD PTR __Arg$[ebp]

; 1343 : }

	pop	ebp
	ret	0
??$forward@PAVRaven_Bot@@@std@@YA$$QAPAVRaven_Bot@@AAPAV1@@Z ENDP ; std::forward<Raven_Bot *>
_TEXT	ENDS
; Function compile flags: /Odtp /RTCsu
; File C:\Program Files\Microsoft Visual Studio\2022\Community\VC\Tools\MSVC\14.32.31326\include\xutility
;	COMDAT ??$_To_address@PAPAVRaven_Bot@@@std@@YA?A_PABQAPAVRaven_Bot@@@Z
_TEXT	SEGMENT
__Val$ = 8						; size = 4
??$_To_address@PAPAVRaven_Bot@@@std@@YA?A_PABQAPAVRaven_Bot@@@Z PROC ; std::_To_address<Raven_Bot * *>, COMDAT

; 3946 : _NODISCARD constexpr auto _To_address(const _Iter& _Val) noexcept {

	push	ebp
	mov	ebp, esp

; 3947 :     _STL_INTERNAL_STATIC_ASSERT(is_pointer_v<_Iter>);
; 3948 :     return _Val;

	mov	eax, DWORD PTR __Val$[ebp]
	mov	eax, DWORD PTR [eax]

; 3949 : }

	pop	ebp
	ret	0
??$_To_address@PAPAVRaven_Bot@@@std@@YA?A_PABQAPAVRaven_Bot@@@Z ENDP ; std::_To_address<Raven_Bot * *>
_TEXT	ENDS
; Function compile flags: /Odtp /RTCsu
; File C:\Program Files\Microsoft Visual Studio\2022\Community\VC\Tools\MSVC\14.32.31326\include\xutility
;	COMDAT ??$_Voidify_iter@PAPAVRaven_Projectile@@@std@@YAPAXPAPAVRaven_Projectile@@@Z
_TEXT	SEGMENT
__It$ = 8						; size = 4
??$_Voidify_iter@PAPAVRaven_Projectile@@@std@@YAPAXPAPAVRaven_Projectile@@@Z PROC ; std::_Voidify_iter<Raven_Projectile * *>, COMDAT

; 123  : _NODISCARD constexpr void* _Voidify_iter(_Iter _It) noexcept {

	push	ebp
	mov	ebp, esp

; 124  :     if constexpr (is_pointer_v<_Iter>) {
; 125  :         return const_cast<void*>(static_cast<const volatile void*>(_It));

	mov	eax, DWORD PTR __It$[ebp]

; 126  :     } else {
; 127  :         return const_cast<void*>(static_cast<const volatile void*>(_STD addressof(*_It)));
; 128  :     }
; 129  : }

	pop	ebp
	ret	0
??$_Voidify_iter@PAPAVRaven_Projectile@@@std@@YAPAXPAPAVRaven_Projectile@@@Z ENDP ; std::_Voidify_iter<Raven_Projectile * *>
_TEXT	ENDS
; Function compile flags: /Odtp /RTCsu
; File C:\Program Files\Microsoft Visual Studio\2022\Community\VC\Tools\MSVC\14.32.31326\include\xmemory
;	COMDAT ??$construct@IAAI@?$_Default_allocator_traits@V?$allocator@I@std@@@std@@SAXAAV?$allocator@I@1@QAIAAI@Z
_TEXT	SEGMENT
$T1 = -4						; size = 4
___formal$ = 8						; size = 4
__Ptr$ = 12						; size = 4
_<_Args_0>$ = 16					; size = 4
??$construct@IAAI@?$_Default_allocator_traits@V?$allocator@I@std@@@std@@SAXAAV?$allocator@I@1@QAIAAI@Z PROC ; std::_Default_allocator_traits<std::allocator<unsigned int> >::construct<unsigned int,unsigned int &>, COMDAT

; 673  :     static _CONSTEXPR20 void construct(_Alloc&, _Objty* const _Ptr, _Types&&... _Args) {

	push	ebp
	mov	ebp, esp
	push	ecx
	mov	DWORD PTR [ebp-4], -858993460		; ccccccccH

; 674  : #if _HAS_CXX20
; 675  :         if (_STD is_constant_evaluated()) {
; 676  :             _STD construct_at(_Ptr, _STD forward<_Types>(_Args)...);
; 677  :         } else
; 678  : #endif // _HAS_CXX20
; 679  :         {
; 680  :             ::new (_Voidify_iter(_Ptr)) _Objty(_STD forward<_Types>(_Args)...);

	mov	eax, DWORD PTR __Ptr$[ebp]
	push	eax
	call	??$_Voidify_iter@PAI@std@@YAPAXPAI@Z	; std::_Voidify_iter<unsigned int *>
	add	esp, 4
	push	eax
	push	4
	call	??2@YAPAXIPAX@Z				; operator new
	add	esp, 8
	mov	DWORD PTR $T1[ebp], eax
	mov	ecx, DWORD PTR _<_Args_0>$[ebp]
	push	ecx
	call	??$forward@AAI@std@@YAAAIAAI@Z		; std::forward<unsigned int &>
	add	esp, 4
	mov	edx, DWORD PTR $T1[ebp]
	mov	eax, DWORD PTR [eax]
	mov	DWORD PTR [edx], eax

; 681  :         }
; 682  :     }

	add	esp, 4
	cmp	ebp, esp
	call	__RTC_CheckEsp
	mov	esp, ebp
	pop	ebp
	ret	0
??$construct@IAAI@?$_Default_allocator_traits@V?$allocator@I@std@@@std@@SAXAAV?$allocator@I@1@QAIAAI@Z ENDP ; std::_Default_allocator_traits<std::allocator<unsigned int> >::construct<unsigned int,unsigned int &>
_TEXT	ENDS
; Function compile flags: /Odtp /RTCsu
; File C:\Program Files\Microsoft Visual Studio\2022\Community\VC\Tools\MSVC\14.32.31326\include\type_traits
;	COMDAT ??$forward@AAI@std@@YAAAIAAI@Z
_TEXT	SEGMENT
__Arg$ = 8						; size = 4
??$forward@AAI@std@@YAAAIAAI@Z PROC			; std::forward<unsigned int &>, COMDAT

; 1341 :     remove_reference_t<_Ty>& _Arg) noexcept { // forward an lvalue as either an lvalue or an rvalue

	push	ebp
	mov	ebp, esp

; 1342 :     return static_cast<_Ty&&>(_Arg);

	mov	eax, DWORD PTR __Arg$[ebp]

; 1343 : }

	pop	ebp
	ret	0
??$forward@AAI@std@@YAAAIAAI@Z ENDP			; std::forward<unsigned int &>
_TEXT	ENDS
; Function compile flags: /Odtp /RTCsu
; File C:\Program Files\Microsoft Visual Studio\2022\Community\VC\Tools\MSVC\14.32.31326\include\xutility
;	COMDAT ??$_To_address@PAI@std@@YA?A_PABQAI@Z
_TEXT	SEGMENT
__Val$ = 8						; size = 4
??$_To_address@PAI@std@@YA?A_PABQAI@Z PROC		; std::_To_address<unsigned int *>, COMDAT

; 3946 : _NODISCARD constexpr auto _To_address(const _Iter& _Val) noexcept {

	push	ebp
	mov	ebp, esp

; 3947 :     _STL_INTERNAL_STATIC_ASSERT(is_pointer_v<_Iter>);
; 3948 :     return _Val;

	mov	eax, DWORD PTR __Val$[ebp]
	mov	eax, DWORD PTR [eax]

; 3949 : }

	pop	ebp
	ret	0
??$_To_address@PAI@std@@YA?A_PABQAI@Z ENDP		; std::_To_address<unsigned int *>
_TEXT	ENDS
; Function compile flags: /Odtp /RTCsu
; File C:\Program Files\Microsoft Visual Studio\2022\Community\VC\Tools\MSVC\14.32.31326\include\xmemory
;	COMDAT ??$_Emplace_back@PAVRaven_Bot@@@?$_Uninitialized_backout_al@V?$allocator@PAVRaven_Bot@@@std@@@std@@QAEX$$QAPAVRaven_Bot@@@Z
_TEXT	SEGMENT
_this$ = -4						; size = 4
_<_Vals_0>$ = 8						; size = 4
??$_Emplace_back@PAVRaven_Bot@@@?$_Uninitialized_backout_al@V?$allocator@PAVRaven_Bot@@@std@@@std@@QAEX$$QAPAVRaven_Bot@@@Z PROC ; std::_Uninitialized_backout_al<std::allocator<Raven_Bot *> >::_Emplace_back<Raven_Bot *>, COMDAT
; _this$ = ecx

; 1655 :     _CONSTEXPR20 void _Emplace_back(_Types&&... _Vals) { // construct a new element at *_Last and increment

	push	ebp
	mov	ebp, esp
	push	ecx
	mov	DWORD PTR [ebp-4], -858993460		; ccccccccH
	mov	DWORD PTR _this$[ebp], ecx

; 1656 :         allocator_traits<_Alloc>::construct(_Al, _Unfancy(_Last), _STD forward<_Types>(_Vals)...);

	mov	eax, DWORD PTR _<_Vals_0>$[ebp]
	push	eax
	call	??$forward@PAVRaven_Bot@@@std@@YA$$QAPAVRaven_Bot@@AAPAV1@@Z ; std::forward<Raven_Bot *>
	add	esp, 4
	push	eax
	mov	ecx, DWORD PTR _this$[ebp]
	mov	edx, DWORD PTR [ecx+4]
	push	edx
	call	??$_Unfancy@PAVRaven_Bot@@@std@@YAPAPAVRaven_Bot@@PAPAV1@@Z ; std::_Unfancy<Raven_Bot *>
	add	esp, 4
	push	eax
	mov	eax, DWORD PTR _this$[ebp]
	mov	ecx, DWORD PTR [eax+8]
	push	ecx
	call	??$construct@PAVRaven_Bot@@PAV1@@?$_Default_allocator_traits@V?$allocator@PAVRaven_Bot@@@std@@@std@@SAXAAV?$allocator@PAVRaven_Bot@@@1@QAPAVRaven_Bot@@$$QAPAV3@@Z ; std::_Default_allocator_traits<std::allocator<Raven_Bot *> >::construct<Raven_Bot *,Raven_Bot *>
	add	esp, 12					; 0000000cH

; 1657 :         ++_Last;

	mov	edx, DWORD PTR _this$[ebp]
	mov	eax, DWORD PTR [edx+4]
	add	eax, 4
	mov	ecx, DWORD PTR _this$[ebp]
	mov	DWORD PTR [ecx+4], eax

; 1658 :     }

	add	esp, 4
	cmp	ebp, esp
	call	__RTC_CheckEsp
	mov	esp, ebp
	pop	ebp
	ret	4
??$_Emplace_back@PAVRaven_Bot@@@?$_Uninitialized_backout_al@V?$allocator@PAVRaven_Bot@@@std@@@std@@QAEX$$QAPAVRaven_Bot@@@Z ENDP ; std::_Uninitialized_backout_al<std::allocator<Raven_Bot *> >::_Emplace_back<Raven_Bot *>
_TEXT	ENDS
; Function compile flags: /Odtp /RTCsu
; File C:\Program Files\Microsoft Visual Studio\2022\Community\VC\Tools\MSVC\14.32.31326\include\xmemory
;	COMDAT ?_Release@?$_Uninitialized_backout_al@V?$allocator@PAVRaven_Bot@@@std@@@std@@QAEPAPAVRaven_Bot@@XZ
_TEXT	SEGMENT
_this$ = -4						; size = 4
?_Release@?$_Uninitialized_backout_al@V?$allocator@PAVRaven_Bot@@@std@@@std@@QAEPAPAVRaven_Bot@@XZ PROC ; std::_Uninitialized_backout_al<std::allocator<Raven_Bot *> >::_Release, COMDAT
; _this$ = ecx

; 1660 :     constexpr pointer _Release() { // suppress any exception handling backout and return _Last

	push	ebp
	mov	ebp, esp
	push	ecx
	mov	DWORD PTR _this$[ebp], ecx

; 1661 :         _First = _Last;

	mov	eax, DWORD PTR _this$[ebp]
	mov	ecx, DWORD PTR _this$[ebp]
	mov	edx, DWORD PTR [ecx+4]
	mov	DWORD PTR [eax], edx

; 1662 :         return _Last;

	mov	eax, DWORD PTR _this$[ebp]
	mov	eax, DWORD PTR [eax+4]

; 1663 :     }

	mov	esp, ebp
	pop	ebp
	ret	0
?_Release@?$_Uninitialized_backout_al@V?$allocator@PAVRaven_Bot@@@std@@@std@@QAEPAPAVRaven_Bot@@XZ ENDP ; std::_Uninitialized_backout_al<std::allocator<Raven_Bot *> >::_Release
_TEXT	ENDS
; Function compile flags: /Odtp /RTCsu
; File C:\Program Files\Microsoft Visual Studio\2022\Community\VC\Tools\MSVC\14.32.31326\include\xmemory
;	COMDAT ??1?$_Uninitialized_backout_al@V?$allocator@PAVRaven_Bot@@@std@@@std@@QAE@XZ
_TEXT	SEGMENT
_this$ = -4						; size = 4
??1?$_Uninitialized_backout_al@V?$allocator@PAVRaven_Bot@@@std@@@std@@QAE@XZ PROC ; std::_Uninitialized_backout_al<std::allocator<Raven_Bot *> >::~_Uninitialized_backout_al<std::allocator<Raven_Bot *> >, COMDAT
; _this$ = ecx

; 1650 :     _CONSTEXPR20 ~_Uninitialized_backout_al() {

	push	ebp
	mov	ebp, esp
	push	ecx
	mov	DWORD PTR [ebp-4], -858993460		; ccccccccH
	mov	DWORD PTR _this$[ebp], ecx

; 1651 :         _Destroy_range(_First, _Last, _Al);

	mov	eax, DWORD PTR _this$[ebp]
	mov	ecx, DWORD PTR [eax+8]
	push	ecx
	mov	edx, DWORD PTR _this$[ebp]
	mov	eax, DWORD PTR [edx+4]
	push	eax
	mov	ecx, DWORD PTR _this$[ebp]
	mov	edx, DWORD PTR [ecx]
	push	edx
	call	??$_Destroy_range@V?$allocator@PAVRaven_Bot@@@std@@@std@@YAXPAPAVRaven_Bot@@QAPAV1@AAV?$allocator@PAVRaven_Bot@@@0@@Z ; std::_Destroy_range<std::allocator<Raven_Bot *> >
	add	esp, 12					; 0000000cH

; 1652 :     }

	add	esp, 4
	cmp	ebp, esp
	call	__RTC_CheckEsp
	mov	esp, ebp
	pop	ebp
	ret	0
??1?$_Uninitialized_backout_al@V?$allocator@PAVRaven_Bot@@@std@@@std@@QAE@XZ ENDP ; std::_Uninitialized_backout_al<std::allocator<Raven_Bot *> >::~_Uninitialized_backout_al<std::allocator<Raven_Bot *> >
_TEXT	ENDS
; Function compile flags: /Odtp /RTCsu
; File C:\Program Files\Microsoft Visual Studio\2022\Community\VC\Tools\MSVC\14.32.31326\include\xmemory
;	COMDAT ??0?$_Uninitialized_backout_al@V?$allocator@PAVRaven_Bot@@@std@@@std@@QAE@PAPAVRaven_Bot@@AAV?$allocator@PAVRaven_Bot@@@1@@Z
_TEXT	SEGMENT
_this$ = -4						; size = 4
__Dest$ = 8						; size = 4
__Al_$ = 12						; size = 4
??0?$_Uninitialized_backout_al@V?$allocator@PAVRaven_Bot@@@std@@@std@@QAE@PAPAVRaven_Bot@@AAV?$allocator@PAVRaven_Bot@@@1@@Z PROC ; std::_Uninitialized_backout_al<std::allocator<Raven_Bot *> >::_Uninitialized_backout_al<std::allocator<Raven_Bot *> >, COMDAT
; _this$ = ecx

; 1645 :     _CONSTEXPR20 _Uninitialized_backout_al(pointer _Dest, _Alloc& _Al_) : _First(_Dest), _Last(_Dest), _Al(_Al_) {}

	push	ebp
	mov	ebp, esp
	push	ecx
	mov	DWORD PTR _this$[ebp], ecx
	mov	eax, DWORD PTR _this$[ebp]
	mov	ecx, DWORD PTR __Dest$[ebp]
	mov	DWORD PTR [eax], ecx
	mov	edx, DWORD PTR _this$[ebp]
	mov	eax, DWORD PTR __Dest$[ebp]
	mov	DWORD PTR [edx+4], eax
	mov	ecx, DWORD PTR _this$[ebp]
	mov	edx, DWORD PTR __Al_$[ebp]
	mov	DWORD PTR [ecx+8], edx
	mov	eax, DWORD PTR _this$[ebp]
	mov	esp, ebp
	pop	ebp
	ret	8
??0?$_Uninitialized_backout_al@V?$allocator@PAVRaven_Bot@@@std@@@std@@QAE@PAPAVRaven_Bot@@AAV?$allocator@PAVRaven_Bot@@@1@@Z ENDP ; std::_Uninitialized_backout_al<std::allocator<Raven_Bot *> >::_Uninitialized_backout_al<std::allocator<Raven_Bot *> >
_TEXT	ENDS
; Function compile flags: /Odtp /RTCsu
; File C:\Program Files\Microsoft Visual Studio\2022\Community\VC\Tools\MSVC\14.32.31326\include\xutility
;	COMDAT ??$_Copy_memmove@PAPAVRaven_Bot@@PAPAV1@@std@@YAPAPAVRaven_Bot@@PAPAV1@00@Z
_TEXT	SEGMENT
__Count$ = -28						; size = 4
__Dest_ch$ = -24					; size = 4
__Last_ch$ = -20					; size = 4
__First_ch$ = -16					; size = 4
__DestPtr$ = -12					; size = 4
__LastPtr$ = -8						; size = 4
__FirstPtr$ = -4					; size = 4
__First$ = 8						; size = 4
__Last$ = 12						; size = 4
__Dest$ = 16						; size = 4
??$_Copy_memmove@PAPAVRaven_Bot@@PAPAV1@@std@@YAPAPAVRaven_Bot@@PAPAV1@00@Z PROC ; std::_Copy_memmove<Raven_Bot * *,Raven_Bot * *>, COMDAT

; 4035 : _OutCtgIt _Copy_memmove(_CtgIt _First, _CtgIt _Last, _OutCtgIt _Dest) {

	push	ebp
	mov	ebp, esp
	sub	esp, 28					; 0000001cH
	mov	eax, -858993460				; ccccccccH
	mov	DWORD PTR [ebp-28], eax
	mov	DWORD PTR [ebp-24], eax
	mov	DWORD PTR [ebp-20], eax
	mov	DWORD PTR [ebp-16], eax
	mov	DWORD PTR [ebp-12], eax
	mov	DWORD PTR [ebp-8], eax
	mov	DWORD PTR [ebp-4], eax

; 4036 :     auto _FirstPtr              = _To_address(_First);

	lea	eax, DWORD PTR __First$[ebp]
	push	eax
	call	??$_To_address@PAPAVRaven_Bot@@@std@@YA?A_PABQAPAVRaven_Bot@@@Z ; std::_To_address<Raven_Bot * *>
	add	esp, 4
	mov	DWORD PTR __FirstPtr$[ebp], eax

; 4037 :     auto _LastPtr               = _To_address(_Last);

	lea	ecx, DWORD PTR __Last$[ebp]
	push	ecx
	call	??$_To_address@PAPAVRaven_Bot@@@std@@YA?A_PABQAPAVRaven_Bot@@@Z ; std::_To_address<Raven_Bot * *>
	add	esp, 4
	mov	DWORD PTR __LastPtr$[ebp], eax

; 4038 :     auto _DestPtr               = _To_address(_Dest);

	lea	edx, DWORD PTR __Dest$[ebp]
	push	edx
	call	??$_To_address@PAPAVRaven_Bot@@@std@@YA?A_PABQAPAVRaven_Bot@@@Z ; std::_To_address<Raven_Bot * *>
	add	esp, 4
	mov	DWORD PTR __DestPtr$[ebp], eax

; 4039 :     const char* const _First_ch = const_cast<const char*>(reinterpret_cast<const volatile char*>(_FirstPtr));

	mov	eax, DWORD PTR __FirstPtr$[ebp]
	mov	DWORD PTR __First_ch$[ebp], eax

; 4040 :     const char* const _Last_ch  = const_cast<const char*>(reinterpret_cast<const volatile char*>(_LastPtr));

	mov	ecx, DWORD PTR __LastPtr$[ebp]
	mov	DWORD PTR __Last_ch$[ebp], ecx

; 4041 :     char* const _Dest_ch        = const_cast<char*>(reinterpret_cast<const volatile char*>(_DestPtr));

	mov	edx, DWORD PTR __DestPtr$[ebp]
	mov	DWORD PTR __Dest_ch$[ebp], edx

; 4042 :     const auto _Count           = static_cast<size_t>(_Last_ch - _First_ch);

	mov	eax, DWORD PTR __Last_ch$[ebp]
	sub	eax, DWORD PTR __First_ch$[ebp]
	mov	DWORD PTR __Count$[ebp], eax

; 4043 :     _CSTD memmove(_Dest_ch, _First_ch, _Count);

	mov	ecx, DWORD PTR __Count$[ebp]
	push	ecx
	mov	edx, DWORD PTR __First_ch$[ebp]
	push	edx
	mov	eax, DWORD PTR __Dest_ch$[ebp]
	push	eax
	call	_memmove
	add	esp, 12					; 0000000cH

; 4044 :     if constexpr (is_pointer_v<_OutCtgIt>) {
; 4045 :         return reinterpret_cast<_OutCtgIt>(_Dest_ch + _Count);

	mov	eax, DWORD PTR __Dest_ch$[ebp]
	add	eax, DWORD PTR __Count$[ebp]

; 4046 :     } else {
; 4047 :         return _Dest + (_LastPtr - _FirstPtr);
; 4048 :     }
; 4049 : }

	add	esp, 28					; 0000001cH
	cmp	ebp, esp
	call	__RTC_CheckEsp
	mov	esp, ebp
	pop	ebp
	ret	0
??$_Copy_memmove@PAPAVRaven_Bot@@PAPAV1@@std@@YAPAPAVRaven_Bot@@PAPAV1@00@Z ENDP ; std::_Copy_memmove<Raven_Bot * *,Raven_Bot * *>
_TEXT	ENDS
; Function compile flags: /Odtp /RTCsu
; File C:\Program Files\Microsoft Visual Studio\2022\Community\VC\Tools\MSVC\14.32.31326\include\type_traits
;	COMDAT ??$move@AAPAVRaven_Bot@@@std@@YA$$QAPAVRaven_Bot@@AAPAV1@@Z
_TEXT	SEGMENT
__Arg$ = 8						; size = 4
??$move@AAPAVRaven_Bot@@@std@@YA$$QAPAVRaven_Bot@@AAPAV1@@Z PROC ; std::move<Raven_Bot * &>, COMDAT

; 1352 : _NODISCARD constexpr remove_reference_t<_Ty>&& move(_Ty&& _Arg) noexcept { // forward _Arg as movable

	push	ebp
	mov	ebp, esp

; 1353 :     return static_cast<remove_reference_t<_Ty>&&>(_Arg);

	mov	eax, DWORD PTR __Arg$[ebp]

; 1354 : }

	pop	ebp
	ret	0
??$move@AAPAVRaven_Bot@@@std@@YA$$QAPAVRaven_Bot@@AAPAV1@@Z ENDP ; std::move<Raven_Bot * &>
_TEXT	ENDS
; Function compile flags: /Odtp /RTCsu
; File C:\Program Files\Microsoft Visual Studio\2022\Community\VC\Tools\MSVC\14.32.31326\include\xutility
;	COMDAT ??$_Get_unwrapped@ABQAPAVRaven_Bot@@@std@@YA?A_TABQAPAVRaven_Bot@@@Z
_TEXT	SEGMENT
__It$ = 8						; size = 4
??$_Get_unwrapped@ABQAPAVRaven_Bot@@@std@@YA?A_TABQAPAVRaven_Bot@@@Z PROC ; std::_Get_unwrapped<Raven_Bot * * const &>, COMDAT

; 1270 : _NODISCARD constexpr decltype(auto) _Get_unwrapped(_Iter&& _It) {

	push	ebp
	mov	ebp, esp

; 1271 :     // unwrap an iterator previously subjected to _Adl_verify_range or otherwise validated
; 1272 :     if constexpr (is_pointer_v<decay_t<_Iter>>) { // special-case pointers and arrays
; 1273 :         return _It + 0;

	mov	eax, DWORD PTR __It$[ebp]
	mov	eax, DWORD PTR [eax]

; 1274 :     } else if constexpr (_Unwrappable_v<_Iter>) {
; 1275 :         return static_cast<_Iter&&>(_It)._Unwrapped();
; 1276 :     } else {
; 1277 :         return static_cast<_Iter&&>(_It);
; 1278 :     }
; 1279 : }

	pop	ebp
	ret	0
??$_Get_unwrapped@ABQAPAVRaven_Bot@@@std@@YA?A_TABQAPAVRaven_Bot@@@Z ENDP ; std::_Get_unwrapped<Raven_Bot * * const &>
_TEXT	ENDS
; Function compile flags: /Odtp /RTCsu
; File C:\Program Files\Microsoft Visual Studio\2022\Community\VC\Tools\MSVC\14.32.31326\include\xutility
;	COMDAT ??$_Voidify_iter@PAPAVRaven_Bot@@@std@@YAPAXPAPAVRaven_Bot@@@Z
_TEXT	SEGMENT
__It$ = 8						; size = 4
??$_Voidify_iter@PAPAVRaven_Bot@@@std@@YAPAXPAPAVRaven_Bot@@@Z PROC ; std::_Voidify_iter<Raven_Bot * *>, COMDAT

; 123  : _NODISCARD constexpr void* _Voidify_iter(_Iter _It) noexcept {

	push	ebp
	mov	ebp, esp

; 124  :     if constexpr (is_pointer_v<_Iter>) {
; 125  :         return const_cast<void*>(static_cast<const volatile void*>(_It));

	mov	eax, DWORD PTR __It$[ebp]

; 126  :     } else {
; 127  :         return const_cast<void*>(static_cast<const volatile void*>(_STD addressof(*_It)));
; 128  :     }
; 129  : }

	pop	ebp
	ret	0
??$_Voidify_iter@PAPAVRaven_Bot@@@std@@YAPAXPAPAVRaven_Bot@@@Z ENDP ; std::_Voidify_iter<Raven_Bot * *>
_TEXT	ENDS
; Function compile flags: /Odtp /RTCsu
; File C:\Program Files\Microsoft Visual Studio\2022\Community\VC\Tools\MSVC\14.32.31326\include\xlocnum
;	COMDAT ??__E?id@?$num_get@DV?$istreambuf_iterator@DU?$char_traits@D@std@@@std@@@std@@2V0locale@2@A@@YAXXZ
text$di	SEGMENT
??__E?id@?$num_get@DV?$istreambuf_iterator@DU?$char_traits@D@std@@@std@@@std@@2V0locale@2@A@@YAXXZ PROC ; `dynamic initializer for 'std::num_get<char,std::istreambuf_iterator<char,std::char_traits<char> > >::id'', COMDAT

; 1133 : __PURE_APPDOMAIN_GLOBAL locale::id num_get<_Elem, _InIt>::id;

	push	ebp
	mov	ebp, esp
	push	0
	mov	ecx, OFFSET ?id@?$num_get@DV?$istreambuf_iterator@DU?$char_traits@D@std@@@std@@@std@@2V0locale@2@A ; std::num_get<char,std::istreambuf_iterator<char,std::char_traits<char> > >::id
	call	??0id@locale@std@@QAE@I@Z		; std::locale::id::id
	cmp	ebp, esp
	call	__RTC_CheckEsp
	pop	ebp
	ret	0
??__E?id@?$num_get@DV?$istreambuf_iterator@DU?$char_traits@D@std@@@std@@@std@@2V0locale@2@A@@YAXXZ ENDP ; `dynamic initializer for 'std::num_get<char,std::istreambuf_iterator<char,std::char_traits<char> > >::id''
text$di	ENDS
; Function compile flags: /Odtp /RTCsu
; File C:\Program Files\Microsoft Visual Studio\2022\Community\VC\Tools\MSVC\14.32.31326\include\type_traits
;	COMDAT ??$forward@ABQAU?$_List_node@PAVRaven_Projectile@@PAX@std@@@std@@YAABQAU?$_List_node@PAVRaven_Projectile@@PAX@0@ABQAU10@@Z
_TEXT	SEGMENT
__Arg$ = 8						; size = 4
??$forward@ABQAU?$_List_node@PAVRaven_Projectile@@PAX@std@@@std@@YAABQAU?$_List_node@PAVRaven_Projectile@@PAX@0@ABQAU10@@Z PROC ; std::forward<std::_List_node<Raven_Projectile *,void *> * const &>, COMDAT

; 1341 :     remove_reference_t<_Ty>& _Arg) noexcept { // forward an lvalue as either an lvalue or an rvalue

	push	ebp
	mov	ebp, esp

; 1342 :     return static_cast<_Ty&&>(_Arg);

	mov	eax, DWORD PTR __Arg$[ebp]

; 1343 : }

	pop	ebp
	ret	0
??$forward@ABQAU?$_List_node@PAVRaven_Projectile@@PAX@std@@@std@@YAABQAU?$_List_node@PAVRaven_Projectile@@PAX@0@ABQAU10@@Z ENDP ; std::forward<std::_List_node<Raven_Projectile *,void *> * const &>
_TEXT	ENDS
; Function compile flags: /Odtp /RTCsu
; File C:\Program Files\Microsoft Visual Studio\2022\Community\VC\Tools\MSVC\14.32.31326\include\type_traits
;	COMDAT ??$forward@ABQAU?$_List_node@PAVRaven_Bot@@PAX@std@@@std@@YAABQAU?$_List_node@PAVRaven_Bot@@PAX@0@ABQAU10@@Z
_TEXT	SEGMENT
__Arg$ = 8						; size = 4
??$forward@ABQAU?$_List_node@PAVRaven_Bot@@PAX@std@@@std@@YAABQAU?$_List_node@PAVRaven_Bot@@PAX@0@ABQAU10@@Z PROC ; std::forward<std::_List_node<Raven_Bot *,void *> * const &>, COMDAT

; 1341 :     remove_reference_t<_Ty>& _Arg) noexcept { // forward an lvalue as either an lvalue or an rvalue

	push	ebp
	mov	ebp, esp

; 1342 :     return static_cast<_Ty&&>(_Arg);

	mov	eax, DWORD PTR __Arg$[ebp]

; 1343 : }

	pop	ebp
	ret	0
??$forward@ABQAU?$_List_node@PAVRaven_Bot@@PAX@std@@@std@@YAABQAU?$_List_node@PAVRaven_Bot@@PAX@0@ABQAU10@@Z ENDP ; std::forward<std::_List_node<Raven_Bot *,void *> * const &>
_TEXT	ENDS
; Function compile flags: /Odtp /RTCsu
; File C:\Program Files\Microsoft Visual Studio\2022\Community\VC\Tools\MSVC\14.32.31326\include\xmemory
;	COMDAT ??$destroy@PAV?$Goal@VRaven_Bot@@@@@?$_Default_allocator_traits@V?$allocator@U?$_List_node@PAV?$Goal@VRaven_Bot@@@@PAX@std@@@std@@@std@@SAXAAV?$allocator@U?$_List_node@PAV?$Goal@VRaven_Bot@@@@PAX@std@@@1@QAPAV?$Goal@VRaven_Bot@@@@@Z
_TEXT	SEGMENT
___formal$ = 8						; size = 4
__Ptr$ = 12						; size = 4
??$destroy@PAV?$Goal@VRaven_Bot@@@@@?$_Default_allocator_traits@V?$allocator@U?$_List_node@PAV?$Goal@VRaven_Bot@@@@PAX@std@@@std@@@std@@SAXAAV?$allocator@U?$_List_node@PAV?$Goal@VRaven_Bot@@@@PAX@std@@@1@QAPAV?$Goal@VRaven_Bot@@@@@Z PROC ; std::_Default_allocator_traits<std::allocator<std::_List_node<Goal<Raven_Bot> *,void *> > >::destroy<Goal<Raven_Bot> *>, COMDAT

; 685  :     static _CONSTEXPR20 void destroy(_Alloc&, _Uty* const _Ptr) {

	push	ebp
	mov	ebp, esp

; 686  : #if _HAS_CXX20
; 687  :         _STD destroy_at(_Ptr);
; 688  : #else // _HAS_CXX20
; 689  :         _Ptr->~_Uty();
; 690  : #endif // _HAS_CXX20
; 691  :     }

	pop	ebp
	ret	0
??$destroy@PAV?$Goal@VRaven_Bot@@@@@?$_Default_allocator_traits@V?$allocator@U?$_List_node@PAV?$Goal@VRaven_Bot@@@@PAX@std@@@std@@@std@@SAXAAV?$allocator@U?$_List_node@PAV?$Goal@VRaven_Bot@@@@PAX@std@@@1@QAPAV?$Goal@VRaven_Bot@@@@@Z ENDP ; std::_Default_allocator_traits<std::allocator<std::_List_node<Goal<Raven_Bot> *,void *> > >::destroy<Goal<Raven_Bot> *>
_TEXT	ENDS
; Function compile flags: /Odtp /RTCsu
; File C:\Program Files\Microsoft Visual Studio\2022\Community\VC\Tools\MSVC\14.32.31326\include\xstddef
;	COMDAT ??$addressof@PAV?$Goal@VRaven_Bot@@@@@std@@YAPAPAV?$Goal@VRaven_Bot@@@@AAPAV1@@Z
_TEXT	SEGMENT
__Val$ = 8						; size = 4
??$addressof@PAV?$Goal@VRaven_Bot@@@@@std@@YAPAPAV?$Goal@VRaven_Bot@@@@AAPAV1@@Z PROC ; std::addressof<Goal<Raven_Bot> *>, COMDAT

; 252  : _NODISCARD constexpr _Ty* addressof(_Ty& _Val) noexcept {

	push	ebp
	mov	ebp, esp

; 253  :     return __builtin_addressof(_Val);

	mov	eax, DWORD PTR __Val$[ebp]

; 254  : }

	pop	ebp
	ret	0
??$addressof@PAV?$Goal@VRaven_Bot@@@@@std@@YAPAPAV?$Goal@VRaven_Bot@@@@AAPAV1@@Z ENDP ; std::addressof<Goal<Raven_Bot> *>
_TEXT	ENDS
; Function compile flags: /Odtp /RTCsu
; File C:\Program Files\Microsoft Visual Studio\2022\Community\VC\Tools\MSVC\14.32.31326\include\xmemory
;	COMDAT ??$destroy@UGraveRecord@GraveMarkers@@@?$_Default_allocator_traits@V?$allocator@U?$_List_node@UGraveRecord@GraveMarkers@@PAX@std@@@std@@@std@@SAXAAV?$allocator@U?$_List_node@UGraveRecord@GraveMarkers@@PAX@std@@@1@QAUGraveRecord@GraveMarkers@@@Z
_TEXT	SEGMENT
___formal$ = 8						; size = 4
__Ptr$ = 12						; size = 4
??$destroy@UGraveRecord@GraveMarkers@@@?$_Default_allocator_traits@V?$allocator@U?$_List_node@UGraveRecord@GraveMarkers@@PAX@std@@@std@@@std@@SAXAAV?$allocator@U?$_List_node@UGraveRecord@GraveMarkers@@PAX@std@@@1@QAUGraveRecord@GraveMarkers@@@Z PROC ; std::_Default_allocator_traits<std::allocator<std::_List_node<GraveMarkers::GraveRecord,void *> > >::destroy<GraveMarkers::GraveRecord>, COMDAT

; 685  :     static _CONSTEXPR20 void destroy(_Alloc&, _Uty* const _Ptr) {

	push	ebp
	mov	ebp, esp

; 686  : #if _HAS_CXX20
; 687  :         _STD destroy_at(_Ptr);
; 688  : #else // _HAS_CXX20
; 689  :         _Ptr->~_Uty();
; 690  : #endif // _HAS_CXX20
; 691  :     }

	pop	ebp
	ret	0
??$destroy@UGraveRecord@GraveMarkers@@@?$_Default_allocator_traits@V?$allocator@U?$_List_node@UGraveRecord@GraveMarkers@@PAX@std@@@std@@@std@@SAXAAV?$allocator@U?$_List_node@UGraveRecord@GraveMarkers@@PAX@std@@@1@QAUGraveRecord@GraveMarkers@@@Z ENDP ; std::_Default_allocator_traits<std::allocator<std::_List_node<GraveMarkers::GraveRecord,void *> > >::destroy<GraveMarkers::GraveRecord>
_TEXT	ENDS
; Function compile flags: /Odtp /RTCsu
; File C:\Program Files\Microsoft Visual Studio\2022\Community\VC\Tools\MSVC\14.32.31326\include\xstddef
;	COMDAT ??$addressof@UGraveRecord@GraveMarkers@@@std@@YAPAUGraveRecord@GraveMarkers@@AAU12@@Z
_TEXT	SEGMENT
__Val$ = 8						; size = 4
??$addressof@UGraveRecord@GraveMarkers@@@std@@YAPAUGraveRecord@GraveMarkers@@AAU12@@Z PROC ; std::addressof<GraveMarkers::GraveRecord>, COMDAT

; 252  : _NODISCARD constexpr _Ty* addressof(_Ty& _Val) noexcept {

	push	ebp
	mov	ebp, esp

; 253  :     return __builtin_addressof(_Val);

	mov	eax, DWORD PTR __Val$[ebp]

; 254  : }

	pop	ebp
	ret	0
??$addressof@UGraveRecord@GraveMarkers@@@std@@YAPAUGraveRecord@GraveMarkers@@AAU12@@Z ENDP ; std::addressof<GraveMarkers::GraveRecord>
_TEXT	ENDS
; Function compile flags: /Odtp /RTCsu
; File C:\Program Files\Microsoft Visual Studio\2022\Community\VC\Tools\MSVC\14.32.31326\include\xmemory
;	COMDAT ??$destroy@PAVRaven_PathPlanner@@@?$_Default_allocator_traits@V?$allocator@U?$_List_node@PAVRaven_PathPlanner@@PAX@std@@@std@@@std@@SAXAAV?$allocator@U?$_List_node@PAVRaven_PathPlanner@@PAX@std@@@1@QAPAVRaven_PathPlanner@@@Z
_TEXT	SEGMENT
___formal$ = 8						; size = 4
__Ptr$ = 12						; size = 4
??$destroy@PAVRaven_PathPlanner@@@?$_Default_allocator_traits@V?$allocator@U?$_List_node@PAVRaven_PathPlanner@@PAX@std@@@std@@@std@@SAXAAV?$allocator@U?$_List_node@PAVRaven_PathPlanner@@PAX@std@@@1@QAPAVRaven_PathPlanner@@@Z PROC ; std::_Default_allocator_traits<std::allocator<std::_List_node<Raven_PathPlanner *,void *> > >::destroy<Raven_PathPlanner *>, COMDAT

; 685  :     static _CONSTEXPR20 void destroy(_Alloc&, _Uty* const _Ptr) {

	push	ebp
	mov	ebp, esp

; 686  : #if _HAS_CXX20
; 687  :         _STD destroy_at(_Ptr);
; 688  : #else // _HAS_CXX20
; 689  :         _Ptr->~_Uty();
; 690  : #endif // _HAS_CXX20
; 691  :     }

	pop	ebp
	ret	0
??$destroy@PAVRaven_PathPlanner@@@?$_Default_allocator_traits@V?$allocator@U?$_List_node@PAVRaven_PathPlanner@@PAX@std@@@std@@@std@@SAXAAV?$allocator@U?$_List_node@PAVRaven_PathPlanner@@PAX@std@@@1@QAPAVRaven_PathPlanner@@@Z ENDP ; std::_Default_allocator_traits<std::allocator<std::_List_node<Raven_PathPlanner *,void *> > >::destroy<Raven_PathPlanner *>
_TEXT	ENDS
; Function compile flags: /Odtp /RTCsu
; File C:\Program Files\Microsoft Visual Studio\2022\Community\VC\Tools\MSVC\14.32.31326\include\xstddef
;	COMDAT ??$addressof@PAVRaven_PathPlanner@@@std@@YAPAPAVRaven_PathPlanner@@AAPAV1@@Z
_TEXT	SEGMENT
__Val$ = 8						; size = 4
??$addressof@PAVRaven_PathPlanner@@@std@@YAPAPAVRaven_PathPlanner@@AAPAV1@@Z PROC ; std::addressof<Raven_PathPlanner *>, COMDAT

; 252  : _NODISCARD constexpr _Ty* addressof(_Ty& _Val) noexcept {

	push	ebp
	mov	ebp, esp

; 253  :     return __builtin_addressof(_Val);

	mov	eax, DWORD PTR __Val$[ebp]

; 254  : }

	pop	ebp
	ret	0
??$addressof@PAVRaven_PathPlanner@@@std@@YAPAPAVRaven_PathPlanner@@AAPAV1@@Z ENDP ; std::addressof<Raven_PathPlanner *>
_TEXT	ENDS
; Function compile flags: /Odtp /RTCsu
; File C:\Program Files\Microsoft Visual Studio\2022\Community\VC\Tools\MSVC\14.32.31326\include\xmemory
;	COMDAT ??$construct@PAVRaven_Bot@@ABQAV1@@?$_Default_allocator_traits@V?$allocator@U?$_List_node@PAVRaven_Bot@@PAX@std@@@std@@@std@@SAXAAV?$allocator@U?$_List_node@PAVRaven_Bot@@PAX@std@@@1@QAPAVRaven_Bot@@ABQAV3@@Z
_TEXT	SEGMENT
$T1 = -4						; size = 4
___formal$ = 8						; size = 4
__Ptr$ = 12						; size = 4
_<_Args_0>$ = 16					; size = 4
??$construct@PAVRaven_Bot@@ABQAV1@@?$_Default_allocator_traits@V?$allocator@U?$_List_node@PAVRaven_Bot@@PAX@std@@@std@@@std@@SAXAAV?$allocator@U?$_List_node@PAVRaven_Bot@@PAX@std@@@1@QAPAVRaven_Bot@@ABQAV3@@Z PROC ; std::_Default_allocator_traits<std::allocator<std::_List_node<Raven_Bot *,void *> > >::construct<Raven_Bot *,Raven_Bot * const &>, COMDAT

; 673  :     static _CONSTEXPR20 void construct(_Alloc&, _Objty* const _Ptr, _Types&&... _Args) {

	push	ebp
	mov	ebp, esp
	push	ecx
	mov	DWORD PTR [ebp-4], -858993460		; ccccccccH

; 674  : #if _HAS_CXX20
; 675  :         if (_STD is_constant_evaluated()) {
; 676  :             _STD construct_at(_Ptr, _STD forward<_Types>(_Args)...);
; 677  :         } else
; 678  : #endif // _HAS_CXX20
; 679  :         {
; 680  :             ::new (_Voidify_iter(_Ptr)) _Objty(_STD forward<_Types>(_Args)...);

	mov	eax, DWORD PTR __Ptr$[ebp]
	push	eax
	call	??$_Voidify_iter@PAPAVRaven_Bot@@@std@@YAPAXPAPAVRaven_Bot@@@Z ; std::_Voidify_iter<Raven_Bot * *>
	add	esp, 4
	push	eax
	push	4
	call	??2@YAPAXIPAX@Z				; operator new
	add	esp, 8
	mov	DWORD PTR $T1[ebp], eax
	mov	ecx, DWORD PTR _<_Args_0>$[ebp]
	push	ecx
	call	??$forward@ABQAVRaven_Bot@@@std@@YAABQAVRaven_Bot@@ABQAV1@@Z ; std::forward<Raven_Bot * const &>
	add	esp, 4
	mov	edx, DWORD PTR $T1[ebp]
	mov	eax, DWORD PTR [eax]
	mov	DWORD PTR [edx], eax

; 681  :         }
; 682  :     }

	add	esp, 4
	cmp	ebp, esp
	call	__RTC_CheckEsp
	mov	esp, ebp
	pop	ebp
	ret	0
??$construct@PAVRaven_Bot@@ABQAV1@@?$_Default_allocator_traits@V?$allocator@U?$_List_node@PAVRaven_Bot@@PAX@std@@@std@@@std@@SAXAAV?$allocator@U?$_List_node@PAVRaven_Bot@@PAX@std@@@1@QAPAVRaven_Bot@@ABQAV3@@Z ENDP ; std::_Default_allocator_traits<std::allocator<std::_List_node<Raven_Bot *,void *> > >::construct<Raven_Bot *,Raven_Bot * const &>
_TEXT	ENDS
; Function compile flags: /Odtp /RTCsu
; File C:\Program Files\Microsoft Visual Studio\2022\Community\VC\Tools\MSVC\14.32.31326\include\xmemory
;	COMDAT ??$construct@PAVRaven_Projectile@@ABQAV1@@?$_Default_allocator_traits@V?$allocator@U?$_List_node@PAVRaven_Projectile@@PAX@std@@@std@@@std@@SAXAAV?$allocator@U?$_List_node@PAVRaven_Projectile@@PAX@std@@@1@QAPAVRaven_Projectile@@ABQAV3@@Z
_TEXT	SEGMENT
$T1 = -4						; size = 4
___formal$ = 8						; size = 4
__Ptr$ = 12						; size = 4
_<_Args_0>$ = 16					; size = 4
??$construct@PAVRaven_Projectile@@ABQAV1@@?$_Default_allocator_traits@V?$allocator@U?$_List_node@PAVRaven_Projectile@@PAX@std@@@std@@@std@@SAXAAV?$allocator@U?$_List_node@PAVRaven_Projectile@@PAX@std@@@1@QAPAVRaven_Projectile@@ABQAV3@@Z PROC ; std::_Default_allocator_traits<std::allocator<std::_List_node<Raven_Projectile *,void *> > >::construct<Raven_Projectile *,Raven_Projectile * const &>, COMDAT

; 673  :     static _CONSTEXPR20 void construct(_Alloc&, _Objty* const _Ptr, _Types&&... _Args) {

	push	ebp
	mov	ebp, esp
	push	ecx
	mov	DWORD PTR [ebp-4], -858993460		; ccccccccH

; 674  : #if _HAS_CXX20
; 675  :         if (_STD is_constant_evaluated()) {
; 676  :             _STD construct_at(_Ptr, _STD forward<_Types>(_Args)...);
; 677  :         } else
; 678  : #endif // _HAS_CXX20
; 679  :         {
; 680  :             ::new (_Voidify_iter(_Ptr)) _Objty(_STD forward<_Types>(_Args)...);

	mov	eax, DWORD PTR __Ptr$[ebp]
	push	eax
	call	??$_Voidify_iter@PAPAVRaven_Projectile@@@std@@YAPAXPAPAVRaven_Projectile@@@Z ; std::_Voidify_iter<Raven_Projectile * *>
	add	esp, 4
	push	eax
	push	4
	call	??2@YAPAXIPAX@Z				; operator new
	add	esp, 8
	mov	DWORD PTR $T1[ebp], eax
	mov	ecx, DWORD PTR _<_Args_0>$[ebp]
	push	ecx
	call	??$forward@ABQAVRaven_Projectile@@@std@@YAABQAVRaven_Projectile@@ABQAV1@@Z ; std::forward<Raven_Projectile * const &>
	add	esp, 4
	mov	edx, DWORD PTR $T1[ebp]
	mov	eax, DWORD PTR [eax]
	mov	DWORD PTR [edx], eax

; 681  :         }
; 682  :     }

	add	esp, 4
	cmp	ebp, esp
	call	__RTC_CheckEsp
	mov	esp, ebp
	pop	ebp
	ret	0
??$construct@PAVRaven_Projectile@@ABQAV1@@?$_Default_allocator_traits@V?$allocator@U?$_List_node@PAVRaven_Projectile@@PAX@std@@@std@@@std@@SAXAAV?$allocator@U?$_List_node@PAVRaven_Projectile@@PAX@std@@@1@QAPAVRaven_Projectile@@ABQAV3@@Z ENDP ; std::_Default_allocator_traits<std::allocator<std::_List_node<Raven_Projectile *,void *> > >::construct<Raven_Projectile *,Raven_Projectile * const &>
_TEXT	ENDS
; Function compile flags: /Odtp /RTCsu
; File C:\Program Files\Microsoft Visual Studio\2022\Community\VC\Tools\MSVC\14.32.31326\include\xmemory
;	COMDAT ??$_Destroy_in_place@PAU?$_Tree_node@U?$pair@$$CBHPAVBaseGameEntity@@@std@@PAX@std@@@std@@YAXAAPAU?$_Tree_node@U?$pair@$$CBHPAVBaseGameEntity@@@std@@PAX@0@@Z
_TEXT	SEGMENT
__Obj$ = 8						; size = 4
??$_Destroy_in_place@PAU?$_Tree_node@U?$pair@$$CBHPAVBaseGameEntity@@@std@@PAX@std@@@std@@YAXAAPAU?$_Tree_node@U?$pair@$$CBHPAVBaseGameEntity@@@std@@PAX@0@@Z PROC ; std::_Destroy_in_place<std::_Tree_node<std::pair<int const ,BaseGameEntity *>,void *> *>, COMDAT

; 294  : _CONSTEXPR20 void _Destroy_in_place(_Ty& _Obj) noexcept {

	push	ebp
	mov	ebp, esp

; 295  :     if constexpr (is_array_v<_Ty>) {
; 296  :         _Destroy_range(_Obj, _Obj + extent_v<_Ty>);
; 297  :     } else {
; 298  :         _Obj.~_Ty();
; 299  :     }
; 300  : }

	pop	ebp
	ret	0
??$_Destroy_in_place@PAU?$_Tree_node@U?$pair@$$CBHPAVBaseGameEntity@@@std@@PAX@std@@@std@@YAXAAPAU?$_Tree_node@U?$pair@$$CBHPAVBaseGameEntity@@@std@@PAX@0@@Z ENDP ; std::_Destroy_in_place<std::_Tree_node<std::pair<int const ,BaseGameEntity *>,void *> *>
_TEXT	ENDS
; Function compile flags: /Odtp /RTCsu
; File C:\Program Files\Microsoft Visual Studio\2022\Community\VC\Tools\MSVC\14.32.31326\include\xmemory
;	COMDAT ??$destroy@U?$pair@$$CBHPAVBaseGameEntity@@@std@@@?$_Default_allocator_traits@V?$allocator@U?$_Tree_node@U?$pair@$$CBHPAVBaseGameEntity@@@std@@PAX@std@@@std@@@std@@SAXAAV?$allocator@U?$_Tree_node@U?$pair@$$CBHPAVBaseGameEntity@@@std@@PAX@std@@@1@QAU?$pair@$$CBHPAVBaseGameEntity@@@1@@Z
_TEXT	SEGMENT
___formal$ = 8						; size = 4
__Ptr$ = 12						; size = 4
??$destroy@U?$pair@$$CBHPAVBaseGameEntity@@@std@@@?$_Default_allocator_traits@V?$allocator@U?$_Tree_node@U?$pair@$$CBHPAVBaseGameEntity@@@std@@PAX@std@@@std@@@std@@SAXAAV?$allocator@U?$_Tree_node@U?$pair@$$CBHPAVBaseGameEntity@@@std@@PAX@std@@@1@QAU?$pair@$$CBHPAVBaseGameEntity@@@1@@Z PROC ; std::_Default_allocator_traits<std::allocator<std::_Tree_node<std::pair<int const ,BaseGameEntity *>,void *> > >::destroy<std::pair<int const ,BaseGameEntity *> >, COMDAT

; 685  :     static _CONSTEXPR20 void destroy(_Alloc&, _Uty* const _Ptr) {

	push	ebp
	mov	ebp, esp

; 686  : #if _HAS_CXX20
; 687  :         _STD destroy_at(_Ptr);
; 688  : #else // _HAS_CXX20
; 689  :         _Ptr->~_Uty();
; 690  : #endif // _HAS_CXX20
; 691  :     }

	pop	ebp
	ret	0
??$destroy@U?$pair@$$CBHPAVBaseGameEntity@@@std@@@?$_Default_allocator_traits@V?$allocator@U?$_Tree_node@U?$pair@$$CBHPAVBaseGameEntity@@@std@@PAX@std@@@std@@@std@@SAXAAV?$allocator@U?$_Tree_node@U?$pair@$$CBHPAVBaseGameEntity@@@std@@PAX@std@@@1@QAU?$pair@$$CBHPAVBaseGameEntity@@@1@@Z ENDP ; std::_Default_allocator_traits<std::allocator<std::_Tree_node<std::pair<int const ,BaseGameEntity *>,void *> > >::destroy<std::pair<int const ,BaseGameEntity *> >
_TEXT	ENDS
; Function compile flags: /Odtp /RTCsu
; File C:\Program Files\Microsoft Visual Studio\2022\Community\VC\Tools\MSVC\14.32.31326\include\xstddef
;	COMDAT ??$addressof@U?$pair@$$CBHPAVBaseGameEntity@@@std@@@std@@YAPAU?$pair@$$CBHPAVBaseGameEntity@@@0@AAU10@@Z
_TEXT	SEGMENT
__Val$ = 8						; size = 4
??$addressof@U?$pair@$$CBHPAVBaseGameEntity@@@std@@@std@@YAPAU?$pair@$$CBHPAVBaseGameEntity@@@0@AAU10@@Z PROC ; std::addressof<std::pair<int const ,BaseGameEntity *> >, COMDAT

; 252  : _NODISCARD constexpr _Ty* addressof(_Ty& _Val) noexcept {

	push	ebp
	mov	ebp, esp

; 253  :     return __builtin_addressof(_Val);

	mov	eax, DWORD PTR __Val$[ebp]

; 254  : }

	pop	ebp
	ret	0
??$addressof@U?$pair@$$CBHPAVBaseGameEntity@@@std@@@std@@YAPAU?$pair@$$CBHPAVBaseGameEntity@@@0@AAU10@@Z ENDP ; std::addressof<std::pair<int const ,BaseGameEntity *> >
_TEXT	ENDS
; Function compile flags: /Odtp /RTCsu
; File C:\Program Files\Microsoft Visual Studio\2022\Community\VC\Tools\MSVC\14.32.31326\include\xmemory
;	COMDAT ??$_Emplace_back@AAI@?$_Uninitialized_backout_al@V?$allocator@I@std@@@std@@QAEXAAI@Z
_TEXT	SEGMENT
_this$ = -4						; size = 4
_<_Vals_0>$ = 8						; size = 4
??$_Emplace_back@AAI@?$_Uninitialized_backout_al@V?$allocator@I@std@@@std@@QAEXAAI@Z PROC ; std::_Uninitialized_backout_al<std::allocator<unsigned int> >::_Emplace_back<unsigned int &>, COMDAT
; _this$ = ecx

; 1655 :     _CONSTEXPR20 void _Emplace_back(_Types&&... _Vals) { // construct a new element at *_Last and increment

	push	ebp
	mov	ebp, esp
	push	ecx
	mov	DWORD PTR [ebp-4], -858993460		; ccccccccH
	mov	DWORD PTR _this$[ebp], ecx

; 1656 :         allocator_traits<_Alloc>::construct(_Al, _Unfancy(_Last), _STD forward<_Types>(_Vals)...);

	mov	eax, DWORD PTR _<_Vals_0>$[ebp]
	push	eax
	call	??$forward@AAI@std@@YAAAIAAI@Z		; std::forward<unsigned int &>
	add	esp, 4
	push	eax
	mov	ecx, DWORD PTR _this$[ebp]
	mov	edx, DWORD PTR [ecx+4]
	push	edx
	call	??$_Unfancy@I@std@@YAPAIPAI@Z		; std::_Unfancy<unsigned int>
	add	esp, 4
	push	eax
	mov	eax, DWORD PTR _this$[ebp]
	mov	ecx, DWORD PTR [eax+8]
	push	ecx
	call	??$construct@IAAI@?$_Default_allocator_traits@V?$allocator@I@std@@@std@@SAXAAV?$allocator@I@1@QAIAAI@Z ; std::_Default_allocator_traits<std::allocator<unsigned int> >::construct<unsigned int,unsigned int &>
	add	esp, 12					; 0000000cH

; 1657 :         ++_Last;

	mov	edx, DWORD PTR _this$[ebp]
	mov	eax, DWORD PTR [edx+4]
	add	eax, 4
	mov	ecx, DWORD PTR _this$[ebp]
	mov	DWORD PTR [ecx+4], eax

; 1658 :     }

	add	esp, 4
	cmp	ebp, esp
	call	__RTC_CheckEsp
	mov	esp, ebp
	pop	ebp
	ret	4
??$_Emplace_back@AAI@?$_Uninitialized_backout_al@V?$allocator@I@std@@@std@@QAEXAAI@Z ENDP ; std::_Uninitialized_backout_al<std::allocator<unsigned int> >::_Emplace_back<unsigned int &>
_TEXT	ENDS
; Function compile flags: /Odtp /RTCsu
; File C:\Program Files\Microsoft Visual Studio\2022\Community\VC\Tools\MSVC\14.32.31326\include\xmemory
;	COMDAT ?_Release@?$_Uninitialized_backout_al@V?$allocator@I@std@@@std@@QAEPAIXZ
_TEXT	SEGMENT
_this$ = -4						; size = 4
?_Release@?$_Uninitialized_backout_al@V?$allocator@I@std@@@std@@QAEPAIXZ PROC ; std::_Uninitialized_backout_al<std::allocator<unsigned int> >::_Release, COMDAT
; _this$ = ecx

; 1660 :     constexpr pointer _Release() { // suppress any exception handling backout and return _Last

	push	ebp
	mov	ebp, esp
	push	ecx
	mov	DWORD PTR _this$[ebp], ecx

; 1661 :         _First = _Last;

	mov	eax, DWORD PTR _this$[ebp]
	mov	ecx, DWORD PTR _this$[ebp]
	mov	edx, DWORD PTR [ecx+4]
	mov	DWORD PTR [eax], edx

; 1662 :         return _Last;

	mov	eax, DWORD PTR _this$[ebp]
	mov	eax, DWORD PTR [eax+4]

; 1663 :     }

	mov	esp, ebp
	pop	ebp
	ret	0
?_Release@?$_Uninitialized_backout_al@V?$allocator@I@std@@@std@@QAEPAIXZ ENDP ; std::_Uninitialized_backout_al<std::allocator<unsigned int> >::_Release
_TEXT	ENDS
; Function compile flags: /Odtp /RTCsu
; File C:\Program Files\Microsoft Visual Studio\2022\Community\VC\Tools\MSVC\14.32.31326\include\xmemory
;	COMDAT ??1?$_Uninitialized_backout_al@V?$allocator@I@std@@@std@@QAE@XZ
_TEXT	SEGMENT
_this$ = -4						; size = 4
??1?$_Uninitialized_backout_al@V?$allocator@I@std@@@std@@QAE@XZ PROC ; std::_Uninitialized_backout_al<std::allocator<unsigned int> >::~_Uninitialized_backout_al<std::allocator<unsigned int> >, COMDAT
; _this$ = ecx

; 1650 :     _CONSTEXPR20 ~_Uninitialized_backout_al() {

	push	ebp
	mov	ebp, esp
	push	ecx
	mov	DWORD PTR [ebp-4], -858993460		; ccccccccH
	mov	DWORD PTR _this$[ebp], ecx

; 1651 :         _Destroy_range(_First, _Last, _Al);

	mov	eax, DWORD PTR _this$[ebp]
	mov	ecx, DWORD PTR [eax+8]
	push	ecx
	mov	edx, DWORD PTR _this$[ebp]
	mov	eax, DWORD PTR [edx+4]
	push	eax
	mov	ecx, DWORD PTR _this$[ebp]
	mov	edx, DWORD PTR [ecx]
	push	edx
	call	??$_Destroy_range@V?$allocator@I@std@@@std@@YAXPAIQAIAAV?$allocator@I@0@@Z ; std::_Destroy_range<std::allocator<unsigned int> >
	add	esp, 12					; 0000000cH

; 1652 :     }

	add	esp, 4
	cmp	ebp, esp
	call	__RTC_CheckEsp
	mov	esp, ebp
	pop	ebp
	ret	0
??1?$_Uninitialized_backout_al@V?$allocator@I@std@@@std@@QAE@XZ ENDP ; std::_Uninitialized_backout_al<std::allocator<unsigned int> >::~_Uninitialized_backout_al<std::allocator<unsigned int> >
_TEXT	ENDS
; Function compile flags: /Odtp /RTCsu
; File C:\Program Files\Microsoft Visual Studio\2022\Community\VC\Tools\MSVC\14.32.31326\include\xmemory
;	COMDAT ??0?$_Uninitialized_backout_al@V?$allocator@I@std@@@std@@QAE@PAIAAV?$allocator@I@1@@Z
_TEXT	SEGMENT
_this$ = -4						; size = 4
__Dest$ = 8						; size = 4
__Al_$ = 12						; size = 4
??0?$_Uninitialized_backout_al@V?$allocator@I@std@@@std@@QAE@PAIAAV?$allocator@I@1@@Z PROC ; std::_Uninitialized_backout_al<std::allocator<unsigned int> >::_Uninitialized_backout_al<std::allocator<unsigned int> >, COMDAT
; _this$ = ecx

; 1645 :     _CONSTEXPR20 _Uninitialized_backout_al(pointer _Dest, _Alloc& _Al_) : _First(_Dest), _Last(_Dest), _Al(_Al_) {}

	push	ebp
	mov	ebp, esp
	push	ecx
	mov	DWORD PTR _this$[ebp], ecx
	mov	eax, DWORD PTR _this$[ebp]
	mov	ecx, DWORD PTR __Dest$[ebp]
	mov	DWORD PTR [eax], ecx
	mov	edx, DWORD PTR _this$[ebp]
	mov	eax, DWORD PTR __Dest$[ebp]
	mov	DWORD PTR [edx+4], eax
	mov	ecx, DWORD PTR _this$[ebp]
	mov	edx, DWORD PTR __Al_$[ebp]
	mov	DWORD PTR [ecx+8], edx
	mov	eax, DWORD PTR _this$[ebp]
	mov	esp, ebp
	pop	ebp
	ret	8
??0?$_Uninitialized_backout_al@V?$allocator@I@std@@@std@@QAE@PAIAAV?$allocator@I@1@@Z ENDP ; std::_Uninitialized_backout_al<std::allocator<unsigned int> >::_Uninitialized_backout_al<std::allocator<unsigned int> >
_TEXT	ENDS
; Function compile flags: /Odtp /RTCsu
; File C:\Program Files\Microsoft Visual Studio\2022\Community\VC\Tools\MSVC\14.32.31326\include\xutility
;	COMDAT ??$_Copy_memmove@PAIPAI@std@@YAPAIPAI00@Z
_TEXT	SEGMENT
__Count$ = -28						; size = 4
__Dest_ch$ = -24					; size = 4
__Last_ch$ = -20					; size = 4
__First_ch$ = -16					; size = 4
__DestPtr$ = -12					; size = 4
__LastPtr$ = -8						; size = 4
__FirstPtr$ = -4					; size = 4
__First$ = 8						; size = 4
__Last$ = 12						; size = 4
__Dest$ = 16						; size = 4
??$_Copy_memmove@PAIPAI@std@@YAPAIPAI00@Z PROC		; std::_Copy_memmove<unsigned int *,unsigned int *>, COMDAT

; 4035 : _OutCtgIt _Copy_memmove(_CtgIt _First, _CtgIt _Last, _OutCtgIt _Dest) {

	push	ebp
	mov	ebp, esp
	sub	esp, 28					; 0000001cH
	mov	eax, -858993460				; ccccccccH
	mov	DWORD PTR [ebp-28], eax
	mov	DWORD PTR [ebp-24], eax
	mov	DWORD PTR [ebp-20], eax
	mov	DWORD PTR [ebp-16], eax
	mov	DWORD PTR [ebp-12], eax
	mov	DWORD PTR [ebp-8], eax
	mov	DWORD PTR [ebp-4], eax

; 4036 :     auto _FirstPtr              = _To_address(_First);

	lea	eax, DWORD PTR __First$[ebp]
	push	eax
	call	??$_To_address@PAI@std@@YA?A_PABQAI@Z	; std::_To_address<unsigned int *>
	add	esp, 4
	mov	DWORD PTR __FirstPtr$[ebp], eax

; 4037 :     auto _LastPtr               = _To_address(_Last);

	lea	ecx, DWORD PTR __Last$[ebp]
	push	ecx
	call	??$_To_address@PAI@std@@YA?A_PABQAI@Z	; std::_To_address<unsigned int *>
	add	esp, 4
	mov	DWORD PTR __LastPtr$[ebp], eax

; 4038 :     auto _DestPtr               = _To_address(_Dest);

	lea	edx, DWORD PTR __Dest$[ebp]
	push	edx
	call	??$_To_address@PAI@std@@YA?A_PABQAI@Z	; std::_To_address<unsigned int *>
	add	esp, 4
	mov	DWORD PTR __DestPtr$[ebp], eax

; 4039 :     const char* const _First_ch = const_cast<const char*>(reinterpret_cast<const volatile char*>(_FirstPtr));

	mov	eax, DWORD PTR __FirstPtr$[ebp]
	mov	DWORD PTR __First_ch$[ebp], eax

; 4040 :     const char* const _Last_ch  = const_cast<const char*>(reinterpret_cast<const volatile char*>(_LastPtr));

	mov	ecx, DWORD PTR __LastPtr$[ebp]
	mov	DWORD PTR __Last_ch$[ebp], ecx

; 4041 :     char* const _Dest_ch        = const_cast<char*>(reinterpret_cast<const volatile char*>(_DestPtr));

	mov	edx, DWORD PTR __DestPtr$[ebp]
	mov	DWORD PTR __Dest_ch$[ebp], edx

; 4042 :     const auto _Count           = static_cast<size_t>(_Last_ch - _First_ch);

	mov	eax, DWORD PTR __Last_ch$[ebp]
	sub	eax, DWORD PTR __First_ch$[ebp]
	mov	DWORD PTR __Count$[ebp], eax

; 4043 :     _CSTD memmove(_Dest_ch, _First_ch, _Count);

	mov	ecx, DWORD PTR __Count$[ebp]
	push	ecx
	mov	edx, DWORD PTR __First_ch$[ebp]
	push	edx
	mov	eax, DWORD PTR __Dest_ch$[ebp]
	push	eax
	call	_memmove
	add	esp, 12					; 0000000cH

; 4044 :     if constexpr (is_pointer_v<_OutCtgIt>) {
; 4045 :         return reinterpret_cast<_OutCtgIt>(_Dest_ch + _Count);

	mov	eax, DWORD PTR __Dest_ch$[ebp]
	add	eax, DWORD PTR __Count$[ebp]

; 4046 :     } else {
; 4047 :         return _Dest + (_LastPtr - _FirstPtr);
; 4048 :     }
; 4049 : }

	add	esp, 28					; 0000001cH
	cmp	ebp, esp
	call	__RTC_CheckEsp
	mov	esp, ebp
	pop	ebp
	ret	0
